; Listing generated by Microsoft (R) Optimizing Compiler Version 16.00.11886.00 

	TITLE	C:\Users\S7Clutch\Documents\Visual Studio 2010\Projects\The Saiyan Project\src\DllMain.cpp
	.PPC
	.MODEL FLAT
PUBLIC	__C2_11886
PUBLIC	?_Player@@3KA					; _Player
PUBLIC	?_Vehicle@@3KA					; _Vehicle
PUBLIC	?CashLobby_Amount@@3KA				; CashLobby_Amount
PUBLIC	?NativePoolHead@@3PAU_Node@@A			; NativePoolHead
PUBLIC	?_Entity@@3KA					; _Entity
PUBLIC	?FirstPerson_Camera@@3KA			; FirstPerson_Camera
PUBLIC	?CashLobby_Toggle@@3PA_NA			; CashLobby_Toggle
PUBLIC	?NativePool@@3PAU_Node@@A			; NativePool
PUBLIC	?_Ped@@3KA					; _Ped
PUBLIC	__C1_11886
PUBLIC	D3DPRIMITIVEVERTEXCOUNT
PUBLIC	D3DTESSPRIMITIVEVERTEXCOUNT
PUBLIC	?g_XMSinCoefficients0@@3UXMVECTORF32@@B		; g_XMSinCoefficients0
PUBLIC	?g_XMSinCoefficients1@@3UXMVECTORF32@@B		; g_XMSinCoefficients1
PUBLIC	?g_XMSinCoefficients2@@3UXMVECTORF32@@B		; g_XMSinCoefficients2
PUBLIC	?g_XMCosCoefficients0@@3UXMVECTORF32@@B		; g_XMCosCoefficients0
PUBLIC	?g_XMCosCoefficients1@@3UXMVECTORF32@@B		; g_XMCosCoefficients1
PUBLIC	?g_XMCosCoefficients2@@3UXMVECTORF32@@B		; g_XMCosCoefficients2
PUBLIC	?g_XMTanCoefficients0@@3UXMVECTORF32@@B		; g_XMTanCoefficients0
PUBLIC	?g_XMTanCoefficients1@@3UXMVECTORF32@@B		; g_XMTanCoefficients1
PUBLIC	?g_XMTanCoefficients2@@3UXMVECTORF32@@B		; g_XMTanCoefficients2
PUBLIC	?g_XMASinCoefficients0@@3UXMVECTORF32@@B	; g_XMASinCoefficients0
PUBLIC	?g_XMASinCoefficients1@@3UXMVECTORF32@@B	; g_XMASinCoefficients1
PUBLIC	?g_XMASinCoefficients2@@3UXMVECTORF32@@B	; g_XMASinCoefficients2
PUBLIC	?g_XMATanCoefficients0@@3UXMVECTORF32@@B	; g_XMATanCoefficients0
PUBLIC	?g_XMATanCoefficients1@@3UXMVECTORF32@@B	; g_XMATanCoefficients1
PUBLIC	?g_XMATanCoefficients2@@3UXMVECTORF32@@B	; g_XMATanCoefficients2
PUBLIC	?g_XMSinEstCoefficients@@3UXMVECTORF32@@B	; g_XMSinEstCoefficients
PUBLIC	?g_XMCosEstCoefficients@@3UXMVECTORF32@@B	; g_XMCosEstCoefficients
PUBLIC	?g_XMTanEstCoefficients@@3UXMVECTORF32@@B	; g_XMTanEstCoefficients
PUBLIC	?g_XMATanEstCoefficients@@3UXMVECTORF32@@B	; g_XMATanEstCoefficients
PUBLIC	?g_XMASinEstCoefficients@@3UXMVECTORF32@@B	; g_XMASinEstCoefficients
PUBLIC	?g_XMASinEstConstants@@3UXMVECTORF32@@B		; g_XMASinEstConstants
PUBLIC	?g_XMPiConstants0@@3UXMVECTORF32@@B		; g_XMPiConstants0
PUBLIC	?g_XMIdentityR0@@3UXMVECTORF32@@B		; g_XMIdentityR0
PUBLIC	?g_XMIdentityR1@@3UXMVECTORF32@@B		; g_XMIdentityR1
PUBLIC	?g_XMIdentityR2@@3UXMVECTORF32@@B		; g_XMIdentityR2
PUBLIC	?g_XMIdentityR3@@3UXMVECTORF32@@B		; g_XMIdentityR3
PUBLIC	?g_XMNegIdentityR0@@3UXMVECTORF32@@B		; g_XMNegIdentityR0
PUBLIC	?g_XMNegIdentityR1@@3UXMVECTORF32@@B		; g_XMNegIdentityR1
PUBLIC	?g_XMNegIdentityR2@@3UXMVECTORF32@@B		; g_XMNegIdentityR2
PUBLIC	?g_XMNegIdentityR3@@3UXMVECTORF32@@B		; g_XMNegIdentityR3
PUBLIC	?g_XMNegativeZero@@3UXMVECTORI32@@B		; g_XMNegativeZero
PUBLIC	?g_XMNegate3@@3UXMVECTORI32@@B			; g_XMNegate3
PUBLIC	?g_XMMask3@@3UXMVECTORI32@@B			; g_XMMask3
PUBLIC	?g_XMMaskX@@3UXMVECTORI32@@B			; g_XMMaskX
PUBLIC	?g_XMMaskY@@3UXMVECTORI32@@B			; g_XMMaskY
PUBLIC	?g_XMMaskZ@@3UXMVECTORI32@@B			; g_XMMaskZ
PUBLIC	?g_XMMaskW@@3UXMVECTORI32@@B			; g_XMMaskW
PUBLIC	?g_XMOne@@3UXMVECTORF32@@B			; g_XMOne
PUBLIC	?g_XMOne3@@3UXMVECTORF32@@B			; g_XMOne3
PUBLIC	?g_XMZero@@3UXMVECTORF32@@B			; g_XMZero
PUBLIC	?g_XMNegativeOne@@3UXMVECTORF32@@B		; g_XMNegativeOne
PUBLIC	?g_XMOneHalf@@3UXMVECTORF32@@B			; g_XMOneHalf
PUBLIC	?g_XMNegativeOneHalf@@3UXMVECTORF32@@B		; g_XMNegativeOneHalf
PUBLIC	?g_XMNegativeTwoPi@@3UXMVECTORF32@@B		; g_XMNegativeTwoPi
PUBLIC	?g_XMNegativePi@@3UXMVECTORF32@@B		; g_XMNegativePi
PUBLIC	?g_XMHalfPi@@3UXMVECTORF32@@B			; g_XMHalfPi
PUBLIC	?g_XMPi@@3UXMVECTORF32@@B			; g_XMPi
PUBLIC	?g_XMReciprocalPi@@3UXMVECTORF32@@B		; g_XMReciprocalPi
PUBLIC	?g_XMTwoPi@@3UXMVECTORF32@@B			; g_XMTwoPi
PUBLIC	?g_XMReciprocalTwoPi@@3UXMVECTORF32@@B		; g_XMReciprocalTwoPi
PUBLIC	?g_XMEpsilon@@3UXMVECTORF32@@B			; g_XMEpsilon
PUBLIC	?g_XMInfinity@@3UXMVECTORI32@@B			; g_XMInfinity
PUBLIC	?g_XMQNaN@@3UXMVECTORI32@@B			; g_XMQNaN
PUBLIC	?g_XMQNaNTest@@3UXMVECTORI32@@B			; g_XMQNaNTest
PUBLIC	?g_XMAbsMask@@3UXMVECTORI32@@B			; g_XMAbsMask
PUBLIC	?g_XMFltMin@@3UXMVECTORI32@@B			; g_XMFltMin
PUBLIC	?g_XMFltMax@@3UXMVECTORI32@@B			; g_XMFltMax
PUBLIC	?g_XMNegOneMask@@3UXMVECTORI32@@B		; g_XMNegOneMask
PUBLIC	?g_XMMaskA8R8G8B8@@3UXMVECTORI32@@B		; g_XMMaskA8R8G8B8
PUBLIC	?g_XMFlipA8R8G8B8@@3UXMVECTORI32@@B		; g_XMFlipA8R8G8B8
PUBLIC	?g_XMFixAA8R8G8B8@@3UXMVECTORF32@@B		; g_XMFixAA8R8G8B8
PUBLIC	?g_XMNormalizeA8R8G8B8@@3UXMVECTORF32@@B	; g_XMNormalizeA8R8G8B8
PUBLIC	?g_XMMaskA2B10G10R10@@3UXMVECTORI32@@B		; g_XMMaskA2B10G10R10
PUBLIC	?g_XMFlipA2B10G10R10@@3UXMVECTORI32@@B		; g_XMFlipA2B10G10R10
PUBLIC	?g_XMFixAA2B10G10R10@@3UXMVECTORF32@@B		; g_XMFixAA2B10G10R10
PUBLIC	?g_XMNormalizeA2B10G10R10@@3UXMVECTORF32@@B	; g_XMNormalizeA2B10G10R10
PUBLIC	?g_XMMaskX16Y16@@3UXMVECTORI32@@B		; g_XMMaskX16Y16
PUBLIC	?g_XMFlipX16Y16@@3UXMVECTORI32@@B		; g_XMFlipX16Y16
PUBLIC	?g_XMFixX16Y16@@3UXMVECTORF32@@B		; g_XMFixX16Y16
PUBLIC	?g_XMNormalizeX16Y16@@3UXMVECTORF32@@B		; g_XMNormalizeX16Y16
PUBLIC	?g_XMMaskX16Y16Z16W16@@3UXMVECTORI32@@B		; g_XMMaskX16Y16Z16W16
PUBLIC	?g_XMFlipX16Y16Z16W16@@3UXMVECTORI32@@B		; g_XMFlipX16Y16Z16W16
PUBLIC	?g_XMFixX16Y16Z16W16@@3UXMVECTORF32@@B		; g_XMFixX16Y16Z16W16
PUBLIC	?g_XMNormalizeX16Y16Z16W16@@3UXMVECTORF32@@B	; g_XMNormalizeX16Y16Z16W16
PUBLIC	?g_XMNoFraction@@3UXMVECTORF32@@B		; g_XMNoFraction
PUBLIC	?g_XMMaskByte@@3UXMVECTORI32@@B			; g_XMMaskByte
PUBLIC	?g_XMNegateX@@3UXMVECTORF32@@B			; g_XMNegateX
PUBLIC	?g_XMNegateY@@3UXMVECTORF32@@B			; g_XMNegateY
PUBLIC	?g_XMNegateZ@@3UXMVECTORF32@@B			; g_XMNegateZ
PUBLIC	?g_XMNegateW@@3UXMVECTORF32@@B			; g_XMNegateW
PUBLIC	?g_XMSelect0101@@3UXMVECTORI32@@B		; g_XMSelect0101
PUBLIC	?g_XMSelect1010@@3UXMVECTORI32@@B		; g_XMSelect1010
PUBLIC	?g_XMOneHalfMinusEpsilon@@3UXMVECTORI32@@B	; g_XMOneHalfMinusEpsilon
PUBLIC	?g_XMSelect1000@@3UXMVECTORI32@@B		; g_XMSelect1000
PUBLIC	?g_XMSelect1100@@3UXMVECTORI32@@B		; g_XMSelect1100
PUBLIC	?g_XMSelect1110@@3UXMVECTORI32@@B		; g_XMSelect1110
PUBLIC	?g_XMSwizzleXYXY@@3UXMVECTORI32@@B		; g_XMSwizzleXYXY
PUBLIC	?g_XMSwizzleXYZX@@3UXMVECTORI32@@B		; g_XMSwizzleXYZX
PUBLIC	?g_XMSwizzleYXZW@@3UXMVECTORI32@@B		; g_XMSwizzleYXZW
PUBLIC	?g_XMSwizzleYZXW@@3UXMVECTORI32@@B		; g_XMSwizzleYZXW
PUBLIC	?g_XMSwizzleZXYW@@3UXMVECTORI32@@B		; g_XMSwizzleZXYW
PUBLIC	?g_XMPermute0X0Y1X1Y@@3UXMVECTORI32@@B		; g_XMPermute0X0Y1X1Y
PUBLIC	?g_XMPermute0Z0W1Z1W@@3UXMVECTORI32@@B		; g_XMPermute0Z0W1Z1W
PUBLIC	?g_XMFixupY16@@3UXMVECTORF32@@B			; g_XMFixupY16
PUBLIC	?g_XMFixupY16W16@@3UXMVECTORF32@@B		; g_XMFixupY16W16
PUBLIC	?g_XMFlipY@@3UXMVECTORI32@@B			; g_XMFlipY
PUBLIC	?g_XMFlipZ@@3UXMVECTORI32@@B			; g_XMFlipZ
PUBLIC	?g_XMFlipW@@3UXMVECTORI32@@B			; g_XMFlipW
PUBLIC	?g_XMFlipYZ@@3UXMVECTORI32@@B			; g_XMFlipYZ
PUBLIC	?g_XMFlipZW@@3UXMVECTORI32@@B			; g_XMFlipZW
PUBLIC	?g_XMFlipYW@@3UXMVECTORI32@@B			; g_XMFlipYW
PUBLIC	?g_XMMaskHenD3@@3UXMVECTORI32@@B		; g_XMMaskHenD3
PUBLIC	?g_XMMaskDHen3@@3UXMVECTORI32@@B		; g_XMMaskDHen3
PUBLIC	?g_XMAddUHenD3@@3UXMVECTORF32@@B		; g_XMAddUHenD3
PUBLIC	?g_XMAddHenD3@@3UXMVECTORF32@@B			; g_XMAddHenD3
PUBLIC	?g_XMAddDHen3@@3UXMVECTORF32@@B			; g_XMAddDHen3
PUBLIC	?g_XMMulHenD3@@3UXMVECTORF32@@B			; g_XMMulHenD3
PUBLIC	?g_XMMulDHen3@@3UXMVECTORF32@@B			; g_XMMulDHen3
PUBLIC	?g_XMXorHenD3@@3UXMVECTORI32@@B			; g_XMXorHenD3
PUBLIC	?g_XMXorDHen3@@3UXMVECTORI32@@B			; g_XMXorDHen3
PUBLIC	?g_XMMaskIco4@@3UXMVECTORI32@@B			; g_XMMaskIco4
PUBLIC	?g_XMXorXIco4@@3UXMVECTORI32@@B			; g_XMXorXIco4
PUBLIC	?g_XMXorIco4@@3UXMVECTORI32@@B			; g_XMXorIco4
PUBLIC	?g_XMAddXIco4@@3UXMVECTORF32@@B			; g_XMAddXIco4
PUBLIC	?g_XMAddUIco4@@3UXMVECTORF32@@B			; g_XMAddUIco4
PUBLIC	?g_XMAddIco4@@3UXMVECTORF32@@B			; g_XMAddIco4
PUBLIC	?g_XMMulIco4@@3UXMVECTORF32@@B			; g_XMMulIco4
PUBLIC	?g_XMMaskDec4@@3UXMVECTORI32@@B			; g_XMMaskDec4
PUBLIC	?g_XMXorDec4@@3UXMVECTORI32@@B			; g_XMXorDec4
PUBLIC	?g_XMAddUDec4@@3UXMVECTORF32@@B			; g_XMAddUDec4
PUBLIC	?g_XMAddDec4@@3UXMVECTORF32@@B			; g_XMAddDec4
PUBLIC	?g_XMMulDec4@@3UXMVECTORF32@@B			; g_XMMulDec4
PUBLIC	?g_XMMaskByte4@@3UXMVECTORI32@@B		; g_XMMaskByte4
PUBLIC	?g_XMXorByte4@@3UXMVECTORI32@@B			; g_XMXorByte4
PUBLIC	?g_XMAddByte4@@3UXMVECTORF32@@B			; g_XMAddByte4
PUBLIC	?g_XMFixUnsigned@@3UXMVECTORF32@@B		; g_XMFixUnsigned
PUBLIC	?g_XMMaxInt@@3UXMVECTORF32@@B			; g_XMMaxInt
PUBLIC	?g_XMMaxUInt@@3UXMVECTORF32@@B			; g_XMMaxUInt
PUBLIC	?g_XMUnsignedFix@@3UXMVECTORF32@@B		; g_XMUnsignedFix
PUBLIC	?has_denorm@_Num_base@std@@2W4float_denorm_style@2@B ; std::_Num_base::has_denorm
PUBLIC	?has_denorm_loss@_Num_base@std@@2_NB		; std::_Num_base::has_denorm_loss
PUBLIC	?has_infinity@_Num_base@std@@2_NB		; std::_Num_base::has_infinity
PUBLIC	?has_quiet_NaN@_Num_base@std@@2_NB		; std::_Num_base::has_quiet_NaN
PUBLIC	?has_signaling_NaN@_Num_base@std@@2_NB		; std::_Num_base::has_signaling_NaN
PUBLIC	?is_bounded@_Num_base@std@@2_NB			; std::_Num_base::is_bounded
PUBLIC	?is_exact@_Num_base@std@@2_NB			; std::_Num_base::is_exact
PUBLIC	?is_iec559@_Num_base@std@@2_NB			; std::_Num_base::is_iec559
PUBLIC	?is_integer@_Num_base@std@@2_NB			; std::_Num_base::is_integer
PUBLIC	?is_modulo@_Num_base@std@@2_NB			; std::_Num_base::is_modulo
PUBLIC	?is_signed@_Num_base@std@@2_NB			; std::_Num_base::is_signed
PUBLIC	?is_specialized@_Num_base@std@@2_NB		; std::_Num_base::is_specialized
PUBLIC	?tinyness_before@_Num_base@std@@2_NB		; std::_Num_base::tinyness_before
PUBLIC	?traps@_Num_base@std@@2_NB			; std::_Num_base::traps
PUBLIC	?round_style@_Num_base@std@@2W4float_round_style@2@B ; std::_Num_base::round_style
PUBLIC	?digits@_Num_base@std@@2HB			; std::_Num_base::digits
PUBLIC	?digits10@_Num_base@std@@2HB			; std::_Num_base::digits10
PUBLIC	?max_digits10@_Num_base@std@@2HB		; std::_Num_base::max_digits10
PUBLIC	?max_exponent@_Num_base@std@@2HB		; std::_Num_base::max_exponent
PUBLIC	?max_exponent10@_Num_base@std@@2HB		; std::_Num_base::max_exponent10
PUBLIC	?min_exponent@_Num_base@std@@2HB		; std::_Num_base::min_exponent
PUBLIC	?min_exponent10@_Num_base@std@@2HB		; std::_Num_base::min_exponent10
PUBLIC	?radix@_Num_base@std@@2HB			; std::_Num_base::radix
PUBLIC	?is_bounded@_Num_int_base@std@@2_NB		; std::_Num_int_base::is_bounded
PUBLIC	?is_exact@_Num_int_base@std@@2_NB		; std::_Num_int_base::is_exact
PUBLIC	?is_integer@_Num_int_base@std@@2_NB		; std::_Num_int_base::is_integer
PUBLIC	?is_modulo@_Num_int_base@std@@2_NB		; std::_Num_int_base::is_modulo
PUBLIC	?is_specialized@_Num_int_base@std@@2_NB		; std::_Num_int_base::is_specialized
PUBLIC	?radix@_Num_int_base@std@@2HB			; std::_Num_int_base::radix
PUBLIC	?has_denorm@_Num_float_base@std@@2W4float_denorm_style@2@B ; std::_Num_float_base::has_denorm
PUBLIC	?has_denorm_loss@_Num_float_base@std@@2_NB	; std::_Num_float_base::has_denorm_loss
PUBLIC	?has_infinity@_Num_float_base@std@@2_NB		; std::_Num_float_base::has_infinity
PUBLIC	?has_quiet_NaN@_Num_float_base@std@@2_NB	; std::_Num_float_base::has_quiet_NaN
PUBLIC	?has_signaling_NaN@_Num_float_base@std@@2_NB	; std::_Num_float_base::has_signaling_NaN
PUBLIC	?is_bounded@_Num_float_base@std@@2_NB		; std::_Num_float_base::is_bounded
PUBLIC	?is_exact@_Num_float_base@std@@2_NB		; std::_Num_float_base::is_exact
PUBLIC	?is_iec559@_Num_float_base@std@@2_NB		; std::_Num_float_base::is_iec559
PUBLIC	?is_integer@_Num_float_base@std@@2_NB		; std::_Num_float_base::is_integer
PUBLIC	?is_modulo@_Num_float_base@std@@2_NB		; std::_Num_float_base::is_modulo
PUBLIC	?is_signed@_Num_float_base@std@@2_NB		; std::_Num_float_base::is_signed
PUBLIC	?is_specialized@_Num_float_base@std@@2_NB	; std::_Num_float_base::is_specialized
PUBLIC	?tinyness_before@_Num_float_base@std@@2_NB	; std::_Num_float_base::tinyness_before
PUBLIC	?traps@_Num_float_base@std@@2_NB		; std::_Num_float_base::traps
PUBLIC	?round_style@_Num_float_base@std@@2W4float_round_style@2@B ; std::_Num_float_base::round_style
PUBLIC	?radix@_Num_float_base@std@@2HB			; std::_Num_float_base::radix
PUBLIC	?is_signed@?$numeric_limits@D@std@@2_NB		; std::numeric_limits<char>::is_signed
PUBLIC	?digits@?$numeric_limits@D@std@@2HB		; std::numeric_limits<char>::digits
PUBLIC	?digits10@?$numeric_limits@D@std@@2HB		; std::numeric_limits<char>::digits10
PUBLIC	?max_digits10@?$numeric_limits@D@std@@2HB	; std::numeric_limits<char>::max_digits10
PUBLIC	?is_signed@?$numeric_limits@_W@std@@2_NB	; std::numeric_limits<wchar_t>::is_signed
PUBLIC	?digits@?$numeric_limits@_W@std@@2HB		; std::numeric_limits<wchar_t>::digits
PUBLIC	?digits10@?$numeric_limits@_W@std@@2HB		; std::numeric_limits<wchar_t>::digits10
PUBLIC	?max_digits10@?$numeric_limits@_W@std@@2HB	; std::numeric_limits<wchar_t>::max_digits10
PUBLIC	?is_modulo@?$numeric_limits@_N@std@@2_NB	; std::numeric_limits<bool>::is_modulo
PUBLIC	?is_signed@?$numeric_limits@_N@std@@2_NB	; std::numeric_limits<bool>::is_signed
PUBLIC	?digits@?$numeric_limits@_N@std@@2HB		; std::numeric_limits<bool>::digits
PUBLIC	?digits10@?$numeric_limits@_N@std@@2HB		; std::numeric_limits<bool>::digits10
PUBLIC	?max_digits10@?$numeric_limits@_N@std@@2HB	; std::numeric_limits<bool>::max_digits10
PUBLIC	?is_signed@?$numeric_limits@C@std@@2_NB		; std::numeric_limits<signed char>::is_signed
PUBLIC	?digits@?$numeric_limits@C@std@@2HB		; std::numeric_limits<signed char>::digits
PUBLIC	?digits10@?$numeric_limits@C@std@@2HB		; std::numeric_limits<signed char>::digits10
PUBLIC	?max_digits10@?$numeric_limits@C@std@@2HB	; std::numeric_limits<signed char>::max_digits10
PUBLIC	?is_signed@?$numeric_limits@E@std@@2_NB		; std::numeric_limits<unsigned char>::is_signed
PUBLIC	?digits@?$numeric_limits@E@std@@2HB		; std::numeric_limits<unsigned char>::digits
PUBLIC	?digits10@?$numeric_limits@E@std@@2HB		; std::numeric_limits<unsigned char>::digits10
PUBLIC	?max_digits10@?$numeric_limits@E@std@@2HB	; std::numeric_limits<unsigned char>::max_digits10
PUBLIC	?is_signed@?$numeric_limits@F@std@@2_NB		; std::numeric_limits<short>::is_signed
PUBLIC	?digits@?$numeric_limits@F@std@@2HB		; std::numeric_limits<short>::digits
PUBLIC	?digits10@?$numeric_limits@F@std@@2HB		; std::numeric_limits<short>::digits10
PUBLIC	?max_digits10@?$numeric_limits@F@std@@2HB	; std::numeric_limits<short>::max_digits10
PUBLIC	?is_signed@?$numeric_limits@G@std@@2_NB		; std::numeric_limits<unsigned short>::is_signed
PUBLIC	?digits@?$numeric_limits@G@std@@2HB		; std::numeric_limits<unsigned short>::digits
PUBLIC	?digits10@?$numeric_limits@G@std@@2HB		; std::numeric_limits<unsigned short>::digits10
PUBLIC	?max_digits10@?$numeric_limits@G@std@@2HB	; std::numeric_limits<unsigned short>::max_digits10
PUBLIC	?is_signed@?$numeric_limits@H@std@@2_NB		; std::numeric_limits<int>::is_signed
PUBLIC	?digits@?$numeric_limits@H@std@@2HB		; std::numeric_limits<int>::digits
PUBLIC	?digits10@?$numeric_limits@H@std@@2HB		; std::numeric_limits<int>::digits10
PUBLIC	?max_digits10@?$numeric_limits@H@std@@2HB	; std::numeric_limits<int>::max_digits10
PUBLIC	?is_signed@?$numeric_limits@I@std@@2_NB		; std::numeric_limits<unsigned int>::is_signed
PUBLIC	?digits@?$numeric_limits@I@std@@2HB		; std::numeric_limits<unsigned int>::digits
PUBLIC	?digits10@?$numeric_limits@I@std@@2HB		; std::numeric_limits<unsigned int>::digits10
PUBLIC	?max_digits10@?$numeric_limits@I@std@@2HB	; std::numeric_limits<unsigned int>::max_digits10
PUBLIC	?is_signed@?$numeric_limits@J@std@@2_NB		; std::numeric_limits<long>::is_signed
PUBLIC	?digits@?$numeric_limits@J@std@@2HB		; std::numeric_limits<long>::digits
PUBLIC	?digits10@?$numeric_limits@J@std@@2HB		; std::numeric_limits<long>::digits10
PUBLIC	?max_digits10@?$numeric_limits@J@std@@2HB	; std::numeric_limits<long>::max_digits10
PUBLIC	?is_signed@?$numeric_limits@K@std@@2_NB		; std::numeric_limits<unsigned long>::is_signed
PUBLIC	?digits@?$numeric_limits@K@std@@2HB		; std::numeric_limits<unsigned long>::digits
PUBLIC	?digits10@?$numeric_limits@K@std@@2HB		; std::numeric_limits<unsigned long>::digits10
PUBLIC	?max_digits10@?$numeric_limits@K@std@@2HB	; std::numeric_limits<unsigned long>::max_digits10
PUBLIC	?is_signed@?$numeric_limits@_J@std@@2_NB	; std::numeric_limits<__int64>::is_signed
PUBLIC	?digits@?$numeric_limits@_J@std@@2HB		; std::numeric_limits<__int64>::digits
PUBLIC	?digits10@?$numeric_limits@_J@std@@2HB		; std::numeric_limits<__int64>::digits10
PUBLIC	?max_digits10@?$numeric_limits@_J@std@@2HB	; std::numeric_limits<__int64>::max_digits10
PUBLIC	?is_signed@?$numeric_limits@_K@std@@2_NB	; std::numeric_limits<unsigned __int64>::is_signed
PUBLIC	?digits@?$numeric_limits@_K@std@@2HB		; std::numeric_limits<unsigned __int64>::digits
PUBLIC	?digits10@?$numeric_limits@_K@std@@2HB		; std::numeric_limits<unsigned __int64>::digits10
PUBLIC	?max_digits10@?$numeric_limits@_K@std@@2HB	; std::numeric_limits<unsigned __int64>::max_digits10
PUBLIC	?digits@?$numeric_limits@M@std@@2HB		; std::numeric_limits<float>::digits
PUBLIC	?digits10@?$numeric_limits@M@std@@2HB		; std::numeric_limits<float>::digits10
PUBLIC	?max_digits10@?$numeric_limits@M@std@@2HB	; std::numeric_limits<float>::max_digits10
PUBLIC	?max_exponent@?$numeric_limits@M@std@@2HB	; std::numeric_limits<float>::max_exponent
PUBLIC	?max_exponent10@?$numeric_limits@M@std@@2HB	; std::numeric_limits<float>::max_exponent10
PUBLIC	?min_exponent@?$numeric_limits@M@std@@2HB	; std::numeric_limits<float>::min_exponent
PUBLIC	?min_exponent10@?$numeric_limits@M@std@@2HB	; std::numeric_limits<float>::min_exponent10
PUBLIC	?digits@?$numeric_limits@N@std@@2HB		; std::numeric_limits<double>::digits
PUBLIC	?digits10@?$numeric_limits@N@std@@2HB		; std::numeric_limits<double>::digits10
PUBLIC	?max_digits10@?$numeric_limits@N@std@@2HB	; std::numeric_limits<double>::max_digits10
PUBLIC	?max_exponent@?$numeric_limits@N@std@@2HB	; std::numeric_limits<double>::max_exponent
PUBLIC	?max_exponent10@?$numeric_limits@N@std@@2HB	; std::numeric_limits<double>::max_exponent10
PUBLIC	?min_exponent@?$numeric_limits@N@std@@2HB	; std::numeric_limits<double>::min_exponent
PUBLIC	?min_exponent10@?$numeric_limits@N@std@@2HB	; std::numeric_limits<double>::min_exponent10
PUBLIC	?digits@?$numeric_limits@O@std@@2HB		; std::numeric_limits<long double>::digits
PUBLIC	?digits10@?$numeric_limits@O@std@@2HB		; std::numeric_limits<long double>::digits10
PUBLIC	?max_digits10@?$numeric_limits@O@std@@2HB	; std::numeric_limits<long double>::max_digits10
PUBLIC	?max_exponent@?$numeric_limits@O@std@@2HB	; std::numeric_limits<long double>::max_exponent
PUBLIC	?max_exponent10@?$numeric_limits@O@std@@2HB	; std::numeric_limits<long double>::max_exponent10
PUBLIC	?min_exponent@?$numeric_limits@O@std@@2HB	; std::numeric_limits<long double>::min_exponent
PUBLIC	?min_exponent10@?$numeric_limits@O@std@@2HB	; std::numeric_limits<long double>::min_exponent10
PUBLIC	?value@?$integral_constant@_N$0A@@tr1@std@@2_NB	; std::tr1::integral_constant<bool,0>::value
PUBLIC	?value@?$integral_constant@_N$00@tr1@std@@2_NB	; std::tr1::integral_constant<bool,1>::value
PUBLIC	?value@?$integral_constant@I$0A@@tr1@std@@2IB	; std::tr1::integral_constant<unsigned int,0>::value
PUBLIC	?_Rank@?$_Arithmetic_traits@_N@std@@2HB		; std::_Arithmetic_traits<bool>::_Rank
PUBLIC	?_Rank@?$_Arithmetic_traits@D@std@@2HB		; std::_Arithmetic_traits<char>::_Rank
PUBLIC	?_Rank@?$_Arithmetic_traits@C@std@@2HB		; std::_Arithmetic_traits<signed char>::_Rank
PUBLIC	?_Rank@?$_Arithmetic_traits@E@std@@2HB		; std::_Arithmetic_traits<unsigned char>::_Rank
PUBLIC	?_Rank@?$_Arithmetic_traits@F@std@@2HB		; std::_Arithmetic_traits<short>::_Rank
PUBLIC	?_Rank@?$_Arithmetic_traits@G@std@@2HB		; std::_Arithmetic_traits<unsigned short>::_Rank
PUBLIC	?_Rank@?$_Arithmetic_traits@H@std@@2HB		; std::_Arithmetic_traits<int>::_Rank
PUBLIC	?_Rank@?$_Arithmetic_traits@I@std@@2HB		; std::_Arithmetic_traits<unsigned int>::_Rank
PUBLIC	?_Rank@?$_Arithmetic_traits@J@std@@2HB		; std::_Arithmetic_traits<long>::_Rank
PUBLIC	?_Rank@?$_Arithmetic_traits@K@std@@2HB		; std::_Arithmetic_traits<unsigned long>::_Rank
PUBLIC	?_Rank@?$_Arithmetic_traits@_J@std@@2HB		; std::_Arithmetic_traits<__int64>::_Rank
PUBLIC	?_Rank@?$_Arithmetic_traits@_K@std@@2HB		; std::_Arithmetic_traits<unsigned __int64>::_Rank
PUBLIC	?_Rank@?$_Arithmetic_traits@M@std@@2HB		; std::_Arithmetic_traits<float>::_Rank
PUBLIC	?_Rank@?$_Arithmetic_traits@N@std@@2HB		; std::_Arithmetic_traits<double>::_Rank
PUBLIC	?_Rank@?$_Arithmetic_traits@O@std@@2HB		; std::_Arithmetic_traits<long double>::_Rank
PUBLIC	?Menu_CanOpen@@3_NA				; Menu_CanOpen
PUBLIC	?Menu_Index@@3KA				; Menu_Index
PUBLIC	?Menu_Open@@3_NA				; Menu_Open
PUBLIC	?Menu_Scroll@@3KA				; Menu_Scroll
PUBLIC	?Menu_SelectedPlayer@@3KA			; Menu_SelectedPlayer
PUBLIC	?Toggle_ESP@@3_NA				; Toggle_ESP
PUBLIC	?Toggle_ExplosiveAmmo@@3_NA			; Toggle_ExplosiveAmmo
PUBLIC	?Toggle_FireAmmo@@3_NA				; Toggle_FireAmmo
PUBLIC	?Toggle_FireworkAmmo@@3_NA			; Toggle_FireworkAmmo
PUBLIC	?Toggle_FlyingBikes@@3_NA			; Toggle_FlyingBikes
PUBLIC	?Toggle_FPSCounter@@3_NA			; Toggle_FPSCounter
PUBLIC	?Toggle_HandbrakeDrift@@3_NA			; Toggle_HandbrakeDrift
PUBLIC	?Toggle_Hydraulics@@3_NA			; Toggle_Hydraulics
PUBLIC	?Toggle_LaserSight@@3_NA			; Toggle_LaserSight
PUBLIC	?Toggle_Moses@@3_NA				; Toggle_Moses
PUBLIC	?Toggle_Noclip@@3_NA				; Toggle_Noclip
PUBLIC	?Toggle_NOS@@3_NA				; Toggle_NOS
PUBLIC	?Toggle_ParachuteEject@@3_NA			; Toggle_ParachuteEject
PUBLIC	?Toggle_RainbowPaint@@3_NA			; Toggle_RainbowPaint
PUBLIC	?Toggle_RainbowSmoke@@3_NA			; Toggle_RainbowSmoke
PUBLIC	?Toggle_SharkOMatic@@3_NA			; Toggle_SharkOMatic
PUBLIC	?Toggle_Speedometer@@3_NA			; Toggle_Speedometer
PUBLIC	?Toggle_SuperJump@@3_NA				; Toggle_SuperJump
PUBLIC	?Toggle_SuperSpeed@@3_NA			; Toggle_SuperSpeed
PUBLIC	?Toggle_SupermanPunch@@3_NA			; Toggle_SupermanPunch
PUBLIC	?Toggle_TeleportGun@@3_NA			; Toggle_TeleportGun
PUBLIC	?Toggle_UnlimitedAmmo@@3_NA			; Toggle_UnlimitedAmmo
PUBLIC	?Toggle_VehicleCollision@@3_NA			; Toggle_VehicleCollision
PUBLIC	?Toggle_VehicleInvincibility@@3_NA		; Toggle_VehicleInvincibility
PUBLIC	?Toggle_Whiplash@@3_NA				; Toggle_Whiplash
PUBLIC	?NativeHitCount@@3KA				; NativeHitCount
PUBLIC	?Aimbot_Client@@3KA				; Aimbot_Client
PUBLIC	?Aimbot_Arrest@@3_NA				; Aimbot_Arrest
PUBLIC	?Aimbot_ArrestHandle@@3KA			; Aimbot_ArrestHandle
PUBLIC	?Aimbot_ArrestHit@@3_NA				; Aimbot_ArrestHit
PUBLIC	?Aimbot_HasAimed@@3_NA				; Aimbot_HasAimed
PUBLIC	?Aimbot_HasAimedAtPlayer@@3_NA			; Aimbot_HasAimedAtPlayer
PUBLIC	?Aimbot_Toggle@@3_NA				; Aimbot_Toggle
PUBLIC	?FirstPerson_Check@@3_NA			; FirstPerson_Check
PUBLIC	?FirstPerson_Load@@3_NA				; FirstPerson_Load
PUBLIC	?FirstPerson_Toggle@@3_NA			; FirstPerson_Toggle
PUBLIC	?Forge_Object@@3KA				; Forge_Object
PUBLIC	?Forge_ObjectHash@@3KA				; Forge_ObjectHash
PUBLIC	?Forge_Toggle@@3_NA				; Forge_Toggle
PUBLIC	?GrapplingHook_MovingToTarget@@3_NA		; GrapplingHook_MovingToTarget
PUBLIC	?GrapplingHook_Rope@@3KA			; GrapplingHook_Rope
PUBLIC	?GrapplingHook_Toggle@@3_NA			; GrapplingHook_Toggle
PUBLIC	?RideAnimal_Exists@@3_NA			; RideAnimal_Exists
PUBLIC	?RideAnimal_Hash@@3KA				; RideAnimal_Hash
PUBLIC	?RideAnimal_Handle@@3KA				; RideAnimal_Handle
PUBLIC	?RideAnimal_Riding@@3_NA			; RideAnimal_Riding
PUBLIC	?RideAnimal_Toggle@@3_NA			; RideAnimal_Toggle
PUBLIC	?WeaponCannon_Toggle@@3_NA			; WeaponCannon_Toggle
PUBLIC	?WeaponCannon_Type@@3W4_WeaponCannon_Projectiles@@A ; WeaponCannon_Type
PUBLIC	?Zombies_Toggle@@3_NA				; Zombies_Toggle
PUBLIC	?bInitialized@@3_NA				; bInitialized
PUBLIC	?bListInitialized@@3_NA				; bListInitialized
PUBLIC	?bPlayingGTAV@@3_NA				; bPlayingGTAV
PUBLIC	?Check_Airstrike@@3KA				; Check_Airstrike
PUBLIC	?Check_SetModel@@3KA				; Check_SetModel
PUBLIC	?Check_SpawnVeh_Fulfilled@@3_NA			; Check_SpawnVeh_Fulfilled
PUBLIC	?Check_SpawnVeh_Handle@@3KA			; Check_SpawnVeh_Handle
PUBLIC	?Check_SpawnVeh_Hash@@3KA			; Check_SpawnVeh_Hash
PUBLIC	?Request_AnimDict@@3PADA			; Request_AnimDict
PUBLIC	?Request_ClipSet@@3PADA				; Request_ClipSet
PUBLIC	?Request_Hash@@3KA				; Request_Hash
PUBLIC	?XUIDSpoof_Gamertag@@3PADA			; XUIDSpoof_Gamertag
PUBLIC	?XUIDSpoof_Spoofing@@3_NA			; XUIDSpoof_Spoofing
PUBLIC	?XUIDSpoof_XUID@@3_KA				; XUIDSpoof_XUID
	.bss
?_Player@@3KA DD 01H DUP (?)				; _Player
?_Vehicle@@3KA DD 01H DUP (?)				; _Vehicle
?CashLobby_Amount@@3KA DD 01H DUP (?)			; CashLobby_Amount
?NativePoolHead@@3PAU_Node@@A DD 01H DUP (?)		; NativePoolHead
?_Entity@@3KA DD 01H DUP (?)				; _Entity
?FirstPerson_Camera@@3KA DD 01H DUP (?)			; FirstPerson_Camera
?CashLobby_Toggle@@3PA_NA DB 010H DUP (?)		; CashLobby_Toggle
?NativePool@@3PAU_Node@@A DD 01H DUP (?)		; NativePool
?_Ped@@3KA DD	01H DUP (?)				; _Ped
?Menu_Open@@3_NA DB 01H DUP (?)				; Menu_Open
	ALIGN	4

?Menu_Scroll@@3KA DD 01H DUP (?)			; Menu_Scroll
?Menu_SelectedPlayer@@3KA DD 01H DUP (?)		; Menu_SelectedPlayer
?Toggle_ESP@@3_NA DB 01H DUP (?)			; Toggle_ESP
	ALIGN	4

?Toggle_ExplosiveAmmo@@3_NA DB 01H DUP (?)		; Toggle_ExplosiveAmmo
	ALIGN	4

?Toggle_FireAmmo@@3_NA DB 01H DUP (?)			; Toggle_FireAmmo
	ALIGN	4

?Toggle_FireworkAmmo@@3_NA DB 01H DUP (?)		; Toggle_FireworkAmmo
	ALIGN	4

?Toggle_FlyingBikes@@3_NA DB 01H DUP (?)		; Toggle_FlyingBikes
	ALIGN	4

?Toggle_FPSCounter@@3_NA DB 01H DUP (?)			; Toggle_FPSCounter
	ALIGN	4

?Toggle_HandbrakeDrift@@3_NA DB 01H DUP (?)		; Toggle_HandbrakeDrift
	ALIGN	4

?Toggle_Hydraulics@@3_NA DB 01H DUP (?)			; Toggle_Hydraulics
	ALIGN	4

?Toggle_LaserSight@@3_NA DB 01H DUP (?)			; Toggle_LaserSight
	ALIGN	4

?Toggle_Moses@@3_NA DB 01H DUP (?)			; Toggle_Moses
	ALIGN	4

?Toggle_Noclip@@3_NA DB 01H DUP (?)			; Toggle_Noclip
	ALIGN	4

?Toggle_NOS@@3_NA DB 01H DUP (?)			; Toggle_NOS
	ALIGN	4

?Toggle_ParachuteEject@@3_NA DB 01H DUP (?)		; Toggle_ParachuteEject
	ALIGN	4

?Toggle_RainbowPaint@@3_NA DB 01H DUP (?)		; Toggle_RainbowPaint
	ALIGN	4

?Toggle_RainbowSmoke@@3_NA DB 01H DUP (?)		; Toggle_RainbowSmoke
	ALIGN	4

?Toggle_SharkOMatic@@3_NA DB 01H DUP (?)		; Toggle_SharkOMatic
	ALIGN	4

?Toggle_Speedometer@@3_NA DB 01H DUP (?)		; Toggle_Speedometer
	ALIGN	4

?Toggle_SuperJump@@3_NA DB 01H DUP (?)			; Toggle_SuperJump
	ALIGN	4

?Toggle_SuperSpeed@@3_NA DB 01H DUP (?)			; Toggle_SuperSpeed
	ALIGN	4

?Toggle_SupermanPunch@@3_NA DB 01H DUP (?)		; Toggle_SupermanPunch
	ALIGN	4

?Toggle_TeleportGun@@3_NA DB 01H DUP (?)		; Toggle_TeleportGun
	ALIGN	4

?Toggle_UnlimitedAmmo@@3_NA DB 01H DUP (?)		; Toggle_UnlimitedAmmo
	ALIGN	4

?Toggle_VehicleCollision@@3_NA DB 01H DUP (?)		; Toggle_VehicleCollision
	ALIGN	4

?Toggle_VehicleInvincibility@@3_NA DB 01H DUP (?)	; Toggle_VehicleInvincibility
	ALIGN	4

?Toggle_Whiplash@@3_NA DB 01H DUP (?)			; Toggle_Whiplash
	ALIGN	4

?NativeHitCount@@3KA DD 01H DUP (?)			; NativeHitCount
?Aimbot_Client@@3KA DD 01H DUP (?)			; Aimbot_Client
?Aimbot_Arrest@@3_NA DB 01H DUP (?)			; Aimbot_Arrest
	ALIGN	4

?Aimbot_ArrestHandle@@3KA DD 01H DUP (?)		; Aimbot_ArrestHandle
?Aimbot_ArrestHit@@3_NA DB 01H DUP (?)			; Aimbot_ArrestHit
	ALIGN	4

?Aimbot_HasAimed@@3_NA DB 01H DUP (?)			; Aimbot_HasAimed
	ALIGN	4

?Aimbot_HasAimedAtPlayer@@3_NA DB 01H DUP (?)		; Aimbot_HasAimedAtPlayer
	ALIGN	4

?Aimbot_Toggle@@3_NA DB 01H DUP (?)			; Aimbot_Toggle
	ALIGN	4

?FirstPerson_Check@@3_NA DB 01H DUP (?)			; FirstPerson_Check
	ALIGN	4

?FirstPerson_Load@@3_NA DB 01H DUP (?)			; FirstPerson_Load
	ALIGN	4

?FirstPerson_Toggle@@3_NA DB 01H DUP (?)		; FirstPerson_Toggle
	ALIGN	4

?Forge_Object@@3KA DD 01H DUP (?)			; Forge_Object
?Forge_ObjectHash@@3KA DD 01H DUP (?)			; Forge_ObjectHash
?Forge_Toggle@@3_NA DB 01H DUP (?)			; Forge_Toggle
	ALIGN	4

?GrapplingHook_MovingToTarget@@3_NA DB 01H DUP (?)	; GrapplingHook_MovingToTarget
	ALIGN	4

?GrapplingHook_Rope@@3KA DD 01H DUP (?)			; GrapplingHook_Rope
?GrapplingHook_Toggle@@3_NA DB 01H DUP (?)		; GrapplingHook_Toggle
	ALIGN	4

?RideAnimal_Exists@@3_NA DB 01H DUP (?)			; RideAnimal_Exists
	ALIGN	4

?RideAnimal_Hash@@3KA DD 01H DUP (?)			; RideAnimal_Hash
?RideAnimal_Handle@@3KA DD 01H DUP (?)			; RideAnimal_Handle
?RideAnimal_Riding@@3_NA DB 01H DUP (?)			; RideAnimal_Riding
	ALIGN	4

?RideAnimal_Toggle@@3_NA DB 01H DUP (?)			; RideAnimal_Toggle
	ALIGN	4

?WeaponCannon_Toggle@@3_NA DB 01H DUP (?)		; WeaponCannon_Toggle
	ALIGN	4

?WeaponCannon_Type@@3W4_WeaponCannon_Projectiles@@A DD 01H DUP (?) ; WeaponCannon_Type
?Zombies_Toggle@@3_NA DB 01H DUP (?)			; Zombies_Toggle
	ALIGN	4

?bInitialized@@3_NA DB 01H DUP (?)			; bInitialized
	ALIGN	4

?bListInitialized@@3_NA DB 01H DUP (?)			; bListInitialized
	ALIGN	4

?bPlayingGTAV@@3_NA DB 01H DUP (?)			; bPlayingGTAV
	ALIGN	4

?Check_SetModel@@3KA DD 01H DUP (?)			; Check_SetModel
?Check_SpawnVeh_Fulfilled@@3_NA DB 01H DUP (?)		; Check_SpawnVeh_Fulfilled
	ALIGN	4

?Check_SpawnVeh_Handle@@3KA DD 01H DUP (?)		; Check_SpawnVeh_Handle
?Check_SpawnVeh_Hash@@3KA DD 01H DUP (?)		; Check_SpawnVeh_Hash
?Request_AnimDict@@3PADA DD 01H DUP (?)			; Request_AnimDict
?Request_ClipSet@@3PADA DD 01H DUP (?)			; Request_ClipSet
?Request_Hash@@3KA DD 01H DUP (?)			; Request_Hash
?XUIDSpoof_Gamertag@@3PADA DD 01H DUP (?)		; XUIDSpoof_Gamertag
?XUIDSpoof_Spoofing@@3_NA DB 01H DUP (?)		; XUIDSpoof_Spoofing
	ALIGN	8

?XUIDSpoof_XUID@@3_KA DQ 01H DUP (?)			; XUIDSpoof_XUID
	.data
?Menu_CanOpen@@3_NA DB 01H				; Menu_CanOpen
	ORG $+3
?Menu_Index@@3KA DD 0ffffffffH				; Menu_Index
?Check_Airstrike@@3KA DD 0ffffffffH			; Check_Airstrike
;	COMDAT ?_Rank@?$_Arithmetic_traits@O@std@@2HB
.rdata	SEGMENT
?_Rank@?$_Arithmetic_traits@O@std@@2HB DD 09H		; std::_Arithmetic_traits<long double>::_Rank
;	COMDAT ?_Rank@?$_Arithmetic_traits@N@std@@2HB
.rdata	SEGMENT
?_Rank@?$_Arithmetic_traits@N@std@@2HB DD 08H		; std::_Arithmetic_traits<double>::_Rank
;	COMDAT ?_Rank@?$_Arithmetic_traits@M@std@@2HB
.rdata	SEGMENT
?_Rank@?$_Arithmetic_traits@M@std@@2HB DD 07H		; std::_Arithmetic_traits<float>::_Rank
;	COMDAT ?_Rank@?$_Arithmetic_traits@_K@std@@2HB
.rdata	SEGMENT
?_Rank@?$_Arithmetic_traits@_K@std@@2HB DD 06H		; std::_Arithmetic_traits<unsigned __int64>::_Rank
;	COMDAT ?_Rank@?$_Arithmetic_traits@_J@std@@2HB
.rdata	SEGMENT
?_Rank@?$_Arithmetic_traits@_J@std@@2HB DD 06H		; std::_Arithmetic_traits<__int64>::_Rank
;	COMDAT ?_Rank@?$_Arithmetic_traits@K@std@@2HB
.rdata	SEGMENT
?_Rank@?$_Arithmetic_traits@K@std@@2HB DD 05H		; std::_Arithmetic_traits<unsigned long>::_Rank
;	COMDAT ?_Rank@?$_Arithmetic_traits@J@std@@2HB
.rdata	SEGMENT
?_Rank@?$_Arithmetic_traits@J@std@@2HB DD 05H		; std::_Arithmetic_traits<long>::_Rank
;	COMDAT ?_Rank@?$_Arithmetic_traits@I@std@@2HB
.rdata	SEGMENT
?_Rank@?$_Arithmetic_traits@I@std@@2HB DD 04H		; std::_Arithmetic_traits<unsigned int>::_Rank
;	COMDAT ?_Rank@?$_Arithmetic_traits@H@std@@2HB
.rdata	SEGMENT
?_Rank@?$_Arithmetic_traits@H@std@@2HB DD 04H		; std::_Arithmetic_traits<int>::_Rank
;	COMDAT ?_Rank@?$_Arithmetic_traits@G@std@@2HB
.rdata	SEGMENT
?_Rank@?$_Arithmetic_traits@G@std@@2HB DD 03H		; std::_Arithmetic_traits<unsigned short>::_Rank
;	COMDAT ?_Rank@?$_Arithmetic_traits@F@std@@2HB
.rdata	SEGMENT
?_Rank@?$_Arithmetic_traits@F@std@@2HB DD 03H		; std::_Arithmetic_traits<short>::_Rank
;	COMDAT ?_Rank@?$_Arithmetic_traits@E@std@@2HB
.rdata	SEGMENT
?_Rank@?$_Arithmetic_traits@E@std@@2HB DD 02H		; std::_Arithmetic_traits<unsigned char>::_Rank
;	COMDAT ?_Rank@?$_Arithmetic_traits@C@std@@2HB
.rdata	SEGMENT
?_Rank@?$_Arithmetic_traits@C@std@@2HB DD 02H		; std::_Arithmetic_traits<signed char>::_Rank
;	COMDAT ?_Rank@?$_Arithmetic_traits@D@std@@2HB
.rdata	SEGMENT
?_Rank@?$_Arithmetic_traits@D@std@@2HB DD 02H		; std::_Arithmetic_traits<char>::_Rank
;	COMDAT ?_Rank@?$_Arithmetic_traits@_N@std@@2HB
.rdata	SEGMENT
?_Rank@?$_Arithmetic_traits@_N@std@@2HB DD 01H		; std::_Arithmetic_traits<bool>::_Rank
;	COMDAT ?value@?$integral_constant@I$0A@@tr1@std@@2IB
.rdata	SEGMENT
?value@?$integral_constant@I$0A@@tr1@std@@2IB DD 00H	; std::tr1::integral_constant<unsigned int,0>::value
;	COMDAT ?value@?$integral_constant@_N$00@tr1@std@@2_NB
.rdata	SEGMENT
?value@?$integral_constant@_N$00@tr1@std@@2_NB DB 01H	; std::tr1::integral_constant<bool,1>::value
;	COMDAT ?value@?$integral_constant@_N$0A@@tr1@std@@2_NB
.rdata	SEGMENT
?value@?$integral_constant@_N$0A@@tr1@std@@2_NB DB 00H	; std::tr1::integral_constant<bool,0>::value
;	COMDAT ?min_exponent10@?$numeric_limits@O@std@@2HB
.rdata	SEGMENT
?min_exponent10@?$numeric_limits@O@std@@2HB DD 0fffffecdH ; std::numeric_limits<long double>::min_exponent10
;	COMDAT ?min_exponent@?$numeric_limits@O@std@@2HB
.rdata	SEGMENT
?min_exponent@?$numeric_limits@O@std@@2HB DD 0fffffc03H	; std::numeric_limits<long double>::min_exponent
;	COMDAT ?max_exponent10@?$numeric_limits@O@std@@2HB
.rdata	SEGMENT
?max_exponent10@?$numeric_limits@O@std@@2HB DD 0134H	; std::numeric_limits<long double>::max_exponent10
;	COMDAT ?max_exponent@?$numeric_limits@O@std@@2HB
.rdata	SEGMENT
?max_exponent@?$numeric_limits@O@std@@2HB DD 0400H	; std::numeric_limits<long double>::max_exponent
;	COMDAT ?max_digits10@?$numeric_limits@O@std@@2HB
.rdata	SEGMENT
?max_digits10@?$numeric_limits@O@std@@2HB DD 011H	; std::numeric_limits<long double>::max_digits10
;	COMDAT ?digits10@?$numeric_limits@O@std@@2HB
.rdata	SEGMENT
?digits10@?$numeric_limits@O@std@@2HB DD 0fH		; std::numeric_limits<long double>::digits10
;	COMDAT ?digits@?$numeric_limits@O@std@@2HB
.rdata	SEGMENT
?digits@?$numeric_limits@O@std@@2HB DD 035H		; std::numeric_limits<long double>::digits
;	COMDAT ?min_exponent10@?$numeric_limits@N@std@@2HB
.rdata	SEGMENT
?min_exponent10@?$numeric_limits@N@std@@2HB DD 0fffffecdH ; std::numeric_limits<double>::min_exponent10
;	COMDAT ?min_exponent@?$numeric_limits@N@std@@2HB
.rdata	SEGMENT
?min_exponent@?$numeric_limits@N@std@@2HB DD 0fffffc03H	; std::numeric_limits<double>::min_exponent
;	COMDAT ?max_exponent10@?$numeric_limits@N@std@@2HB
.rdata	SEGMENT
?max_exponent10@?$numeric_limits@N@std@@2HB DD 0134H	; std::numeric_limits<double>::max_exponent10
;	COMDAT ?max_exponent@?$numeric_limits@N@std@@2HB
.rdata	SEGMENT
?max_exponent@?$numeric_limits@N@std@@2HB DD 0400H	; std::numeric_limits<double>::max_exponent
;	COMDAT ?max_digits10@?$numeric_limits@N@std@@2HB
.rdata	SEGMENT
?max_digits10@?$numeric_limits@N@std@@2HB DD 011H	; std::numeric_limits<double>::max_digits10
;	COMDAT ?digits10@?$numeric_limits@N@std@@2HB
.rdata	SEGMENT
?digits10@?$numeric_limits@N@std@@2HB DD 0fH		; std::numeric_limits<double>::digits10
;	COMDAT ?digits@?$numeric_limits@N@std@@2HB
.rdata	SEGMENT
?digits@?$numeric_limits@N@std@@2HB DD 035H		; std::numeric_limits<double>::digits
;	COMDAT ?min_exponent10@?$numeric_limits@M@std@@2HB
.rdata	SEGMENT
?min_exponent10@?$numeric_limits@M@std@@2HB DD 0ffffffdbH ; std::numeric_limits<float>::min_exponent10
;	COMDAT ?min_exponent@?$numeric_limits@M@std@@2HB
.rdata	SEGMENT
?min_exponent@?$numeric_limits@M@std@@2HB DD 0ffffff83H	; std::numeric_limits<float>::min_exponent
;	COMDAT ?max_exponent10@?$numeric_limits@M@std@@2HB
.rdata	SEGMENT
?max_exponent10@?$numeric_limits@M@std@@2HB DD 026H	; std::numeric_limits<float>::max_exponent10
;	COMDAT ?max_exponent@?$numeric_limits@M@std@@2HB
.rdata	SEGMENT
?max_exponent@?$numeric_limits@M@std@@2HB DD 080H	; std::numeric_limits<float>::max_exponent
;	COMDAT ?max_digits10@?$numeric_limits@M@std@@2HB
.rdata	SEGMENT
?max_digits10@?$numeric_limits@M@std@@2HB DD 08H	; std::numeric_limits<float>::max_digits10
;	COMDAT ?digits10@?$numeric_limits@M@std@@2HB
.rdata	SEGMENT
?digits10@?$numeric_limits@M@std@@2HB DD 06H		; std::numeric_limits<float>::digits10
;	COMDAT ?digits@?$numeric_limits@M@std@@2HB
.rdata	SEGMENT
?digits@?$numeric_limits@M@std@@2HB DD 018H		; std::numeric_limits<float>::digits
;	COMDAT ?max_digits10@?$numeric_limits@_K@std@@2HB
.rdata	SEGMENT
?max_digits10@?$numeric_limits@_K@std@@2HB DD 015H	; std::numeric_limits<unsigned __int64>::max_digits10
;	COMDAT ?digits10@?$numeric_limits@_K@std@@2HB
.rdata	SEGMENT
?digits10@?$numeric_limits@_K@std@@2HB DD 013H		; std::numeric_limits<unsigned __int64>::digits10
;	COMDAT ?digits@?$numeric_limits@_K@std@@2HB
.rdata	SEGMENT
?digits@?$numeric_limits@_K@std@@2HB DD 040H		; std::numeric_limits<unsigned __int64>::digits
;	COMDAT ?is_signed@?$numeric_limits@_K@std@@2_NB
.rdata	SEGMENT
?is_signed@?$numeric_limits@_K@std@@2_NB DB 00H		; std::numeric_limits<unsigned __int64>::is_signed
;	COMDAT ?max_digits10@?$numeric_limits@_J@std@@2HB
.rdata	SEGMENT
?max_digits10@?$numeric_limits@_J@std@@2HB DD 014H	; std::numeric_limits<__int64>::max_digits10
;	COMDAT ?digits10@?$numeric_limits@_J@std@@2HB
.rdata	SEGMENT
?digits10@?$numeric_limits@_J@std@@2HB DD 012H		; std::numeric_limits<__int64>::digits10
;	COMDAT ?digits@?$numeric_limits@_J@std@@2HB
.rdata	SEGMENT
?digits@?$numeric_limits@_J@std@@2HB DD 03fH		; std::numeric_limits<__int64>::digits
;	COMDAT ?is_signed@?$numeric_limits@_J@std@@2_NB
.rdata	SEGMENT
?is_signed@?$numeric_limits@_J@std@@2_NB DB 01H		; std::numeric_limits<__int64>::is_signed
;	COMDAT ?max_digits10@?$numeric_limits@K@std@@2HB
.rdata	SEGMENT
?max_digits10@?$numeric_limits@K@std@@2HB DD 0bH	; std::numeric_limits<unsigned long>::max_digits10
;	COMDAT ?digits10@?$numeric_limits@K@std@@2HB
.rdata	SEGMENT
?digits10@?$numeric_limits@K@std@@2HB DD 09H		; std::numeric_limits<unsigned long>::digits10
;	COMDAT ?digits@?$numeric_limits@K@std@@2HB
.rdata	SEGMENT
?digits@?$numeric_limits@K@std@@2HB DD 020H		; std::numeric_limits<unsigned long>::digits
;	COMDAT ?is_signed@?$numeric_limits@K@std@@2_NB
.rdata	SEGMENT
?is_signed@?$numeric_limits@K@std@@2_NB DB 00H		; std::numeric_limits<unsigned long>::is_signed
;	COMDAT ?max_digits10@?$numeric_limits@J@std@@2HB
.rdata	SEGMENT
?max_digits10@?$numeric_limits@J@std@@2HB DD 0bH	; std::numeric_limits<long>::max_digits10
;	COMDAT ?digits10@?$numeric_limits@J@std@@2HB
.rdata	SEGMENT
?digits10@?$numeric_limits@J@std@@2HB DD 09H		; std::numeric_limits<long>::digits10
;	COMDAT ?digits@?$numeric_limits@J@std@@2HB
.rdata	SEGMENT
?digits@?$numeric_limits@J@std@@2HB DD 01fH		; std::numeric_limits<long>::digits
;	COMDAT ?is_signed@?$numeric_limits@J@std@@2_NB
.rdata	SEGMENT
?is_signed@?$numeric_limits@J@std@@2_NB DB 01H		; std::numeric_limits<long>::is_signed
;	COMDAT ?max_digits10@?$numeric_limits@I@std@@2HB
.rdata	SEGMENT
?max_digits10@?$numeric_limits@I@std@@2HB DD 0bH	; std::numeric_limits<unsigned int>::max_digits10
;	COMDAT ?digits10@?$numeric_limits@I@std@@2HB
.rdata	SEGMENT
?digits10@?$numeric_limits@I@std@@2HB DD 09H		; std::numeric_limits<unsigned int>::digits10
;	COMDAT ?digits@?$numeric_limits@I@std@@2HB
.rdata	SEGMENT
?digits@?$numeric_limits@I@std@@2HB DD 020H		; std::numeric_limits<unsigned int>::digits
;	COMDAT ?is_signed@?$numeric_limits@I@std@@2_NB
.rdata	SEGMENT
?is_signed@?$numeric_limits@I@std@@2_NB DB 00H		; std::numeric_limits<unsigned int>::is_signed
;	COMDAT ?max_digits10@?$numeric_limits@H@std@@2HB
.rdata	SEGMENT
?max_digits10@?$numeric_limits@H@std@@2HB DD 0bH	; std::numeric_limits<int>::max_digits10
;	COMDAT ?digits10@?$numeric_limits@H@std@@2HB
.rdata	SEGMENT
?digits10@?$numeric_limits@H@std@@2HB DD 09H		; std::numeric_limits<int>::digits10
;	COMDAT ?digits@?$numeric_limits@H@std@@2HB
.rdata	SEGMENT
?digits@?$numeric_limits@H@std@@2HB DD 01fH		; std::numeric_limits<int>::digits
;	COMDAT ?is_signed@?$numeric_limits@H@std@@2_NB
.rdata	SEGMENT
?is_signed@?$numeric_limits@H@std@@2_NB DB 01H		; std::numeric_limits<int>::is_signed
;	COMDAT ?max_digits10@?$numeric_limits@G@std@@2HB
.rdata	SEGMENT
?max_digits10@?$numeric_limits@G@std@@2HB DD 06H	; std::numeric_limits<unsigned short>::max_digits10
;	COMDAT ?digits10@?$numeric_limits@G@std@@2HB
.rdata	SEGMENT
?digits10@?$numeric_limits@G@std@@2HB DD 04H		; std::numeric_limits<unsigned short>::digits10
;	COMDAT ?digits@?$numeric_limits@G@std@@2HB
.rdata	SEGMENT
?digits@?$numeric_limits@G@std@@2HB DD 010H		; std::numeric_limits<unsigned short>::digits
;	COMDAT ?is_signed@?$numeric_limits@G@std@@2_NB
.rdata	SEGMENT
?is_signed@?$numeric_limits@G@std@@2_NB DB 00H		; std::numeric_limits<unsigned short>::is_signed
;	COMDAT ?max_digits10@?$numeric_limits@F@std@@2HB
.rdata	SEGMENT
?max_digits10@?$numeric_limits@F@std@@2HB DD 06H	; std::numeric_limits<short>::max_digits10
;	COMDAT ?digits10@?$numeric_limits@F@std@@2HB
.rdata	SEGMENT
?digits10@?$numeric_limits@F@std@@2HB DD 04H		; std::numeric_limits<short>::digits10
;	COMDAT ?digits@?$numeric_limits@F@std@@2HB
.rdata	SEGMENT
?digits@?$numeric_limits@F@std@@2HB DD 0fH		; std::numeric_limits<short>::digits
;	COMDAT ?is_signed@?$numeric_limits@F@std@@2_NB
.rdata	SEGMENT
?is_signed@?$numeric_limits@F@std@@2_NB DB 01H		; std::numeric_limits<short>::is_signed
;	COMDAT ?max_digits10@?$numeric_limits@E@std@@2HB
.rdata	SEGMENT
?max_digits10@?$numeric_limits@E@std@@2HB DD 04H	; std::numeric_limits<unsigned char>::max_digits10
;	COMDAT ?digits10@?$numeric_limits@E@std@@2HB
.rdata	SEGMENT
?digits10@?$numeric_limits@E@std@@2HB DD 02H		; std::numeric_limits<unsigned char>::digits10
;	COMDAT ?digits@?$numeric_limits@E@std@@2HB
.rdata	SEGMENT
?digits@?$numeric_limits@E@std@@2HB DD 08H		; std::numeric_limits<unsigned char>::digits
;	COMDAT ?is_signed@?$numeric_limits@E@std@@2_NB
.rdata	SEGMENT
?is_signed@?$numeric_limits@E@std@@2_NB DB 00H		; std::numeric_limits<unsigned char>::is_signed
;	COMDAT ?max_digits10@?$numeric_limits@C@std@@2HB
.rdata	SEGMENT
?max_digits10@?$numeric_limits@C@std@@2HB DD 04H	; std::numeric_limits<signed char>::max_digits10
;	COMDAT ?digits10@?$numeric_limits@C@std@@2HB
.rdata	SEGMENT
?digits10@?$numeric_limits@C@std@@2HB DD 02H		; std::numeric_limits<signed char>::digits10
;	COMDAT ?digits@?$numeric_limits@C@std@@2HB
.rdata	SEGMENT
?digits@?$numeric_limits@C@std@@2HB DD 07H		; std::numeric_limits<signed char>::digits
;	COMDAT ?is_signed@?$numeric_limits@C@std@@2_NB
.rdata	SEGMENT
?is_signed@?$numeric_limits@C@std@@2_NB DB 01H		; std::numeric_limits<signed char>::is_signed
;	COMDAT ?max_digits10@?$numeric_limits@_N@std@@2HB
.rdata	SEGMENT
?max_digits10@?$numeric_limits@_N@std@@2HB DD 00H	; std::numeric_limits<bool>::max_digits10
;	COMDAT ?digits10@?$numeric_limits@_N@std@@2HB
.rdata	SEGMENT
?digits10@?$numeric_limits@_N@std@@2HB DD 00H		; std::numeric_limits<bool>::digits10
;	COMDAT ?digits@?$numeric_limits@_N@std@@2HB
.rdata	SEGMENT
?digits@?$numeric_limits@_N@std@@2HB DD 01H		; std::numeric_limits<bool>::digits
;	COMDAT ?is_signed@?$numeric_limits@_N@std@@2_NB
.rdata	SEGMENT
?is_signed@?$numeric_limits@_N@std@@2_NB DB 00H		; std::numeric_limits<bool>::is_signed
;	COMDAT ?is_modulo@?$numeric_limits@_N@std@@2_NB
.rdata	SEGMENT
?is_modulo@?$numeric_limits@_N@std@@2_NB DB 00H		; std::numeric_limits<bool>::is_modulo
;	COMDAT ?max_digits10@?$numeric_limits@_W@std@@2HB
.rdata	SEGMENT
?max_digits10@?$numeric_limits@_W@std@@2HB DD 06H	; std::numeric_limits<wchar_t>::max_digits10
;	COMDAT ?digits10@?$numeric_limits@_W@std@@2HB
.rdata	SEGMENT
?digits10@?$numeric_limits@_W@std@@2HB DD 04H		; std::numeric_limits<wchar_t>::digits10
;	COMDAT ?digits@?$numeric_limits@_W@std@@2HB
.rdata	SEGMENT
?digits@?$numeric_limits@_W@std@@2HB DD 010H		; std::numeric_limits<wchar_t>::digits
;	COMDAT ?is_signed@?$numeric_limits@_W@std@@2_NB
.rdata	SEGMENT
?is_signed@?$numeric_limits@_W@std@@2_NB DB 00H		; std::numeric_limits<wchar_t>::is_signed
;	COMDAT ?max_digits10@?$numeric_limits@D@std@@2HB
.rdata	SEGMENT
?max_digits10@?$numeric_limits@D@std@@2HB DD 04H	; std::numeric_limits<char>::max_digits10
;	COMDAT ?digits10@?$numeric_limits@D@std@@2HB
.rdata	SEGMENT
?digits10@?$numeric_limits@D@std@@2HB DD 02H		; std::numeric_limits<char>::digits10
;	COMDAT ?digits@?$numeric_limits@D@std@@2HB
.rdata	SEGMENT
?digits@?$numeric_limits@D@std@@2HB DD 07H		; std::numeric_limits<char>::digits
;	COMDAT ?is_signed@?$numeric_limits@D@std@@2_NB
.rdata	SEGMENT
?is_signed@?$numeric_limits@D@std@@2_NB DB 01H		; std::numeric_limits<char>::is_signed
;	COMDAT ?radix@_Num_float_base@std@@2HB
.rdata	SEGMENT
?radix@_Num_float_base@std@@2HB DD 02H			; std::_Num_float_base::radix
;	COMDAT ?round_style@_Num_float_base@std@@2W4float_round_style@2@B
.rdata	SEGMENT
?round_style@_Num_float_base@std@@2W4float_round_style@2@B DD 01H ; std::_Num_float_base::round_style
;	COMDAT ?traps@_Num_float_base@std@@2_NB
.rdata	SEGMENT
?traps@_Num_float_base@std@@2_NB DB 01H			; std::_Num_float_base::traps
;	COMDAT ?tinyness_before@_Num_float_base@std@@2_NB
.rdata	SEGMENT
?tinyness_before@_Num_float_base@std@@2_NB DB 01H	; std::_Num_float_base::tinyness_before
;	COMDAT ?is_specialized@_Num_float_base@std@@2_NB
.rdata	SEGMENT
?is_specialized@_Num_float_base@std@@2_NB DB 01H	; std::_Num_float_base::is_specialized
;	COMDAT ?is_signed@_Num_float_base@std@@2_NB
.rdata	SEGMENT
?is_signed@_Num_float_base@std@@2_NB DB 01H		; std::_Num_float_base::is_signed
;	COMDAT ?is_modulo@_Num_float_base@std@@2_NB
.rdata	SEGMENT
?is_modulo@_Num_float_base@std@@2_NB DB 00H		; std::_Num_float_base::is_modulo
;	COMDAT ?is_integer@_Num_float_base@std@@2_NB
.rdata	SEGMENT
?is_integer@_Num_float_base@std@@2_NB DB 00H		; std::_Num_float_base::is_integer
;	COMDAT ?is_iec559@_Num_float_base@std@@2_NB
.rdata	SEGMENT
?is_iec559@_Num_float_base@std@@2_NB DB 01H		; std::_Num_float_base::is_iec559
;	COMDAT ?is_exact@_Num_float_base@std@@2_NB
.rdata	SEGMENT
?is_exact@_Num_float_base@std@@2_NB DB 00H		; std::_Num_float_base::is_exact
;	COMDAT ?is_bounded@_Num_float_base@std@@2_NB
.rdata	SEGMENT
?is_bounded@_Num_float_base@std@@2_NB DB 01H		; std::_Num_float_base::is_bounded
;	COMDAT ?has_signaling_NaN@_Num_float_base@std@@2_NB
.rdata	SEGMENT
?has_signaling_NaN@_Num_float_base@std@@2_NB DB 01H	; std::_Num_float_base::has_signaling_NaN
;	COMDAT ?has_quiet_NaN@_Num_float_base@std@@2_NB
.rdata	SEGMENT
?has_quiet_NaN@_Num_float_base@std@@2_NB DB 01H		; std::_Num_float_base::has_quiet_NaN
;	COMDAT ?has_infinity@_Num_float_base@std@@2_NB
.rdata	SEGMENT
?has_infinity@_Num_float_base@std@@2_NB DB 01H		; std::_Num_float_base::has_infinity
;	COMDAT ?has_denorm_loss@_Num_float_base@std@@2_NB
.rdata	SEGMENT
?has_denorm_loss@_Num_float_base@std@@2_NB DB 01H	; std::_Num_float_base::has_denorm_loss
;	COMDAT ?has_denorm@_Num_float_base@std@@2W4float_denorm_style@2@B
.rdata	SEGMENT
?has_denorm@_Num_float_base@std@@2W4float_denorm_style@2@B DD 01H ; std::_Num_float_base::has_denorm
;	COMDAT ?radix@_Num_int_base@std@@2HB
.rdata	SEGMENT
?radix@_Num_int_base@std@@2HB DD 02H			; std::_Num_int_base::radix
;	COMDAT ?is_specialized@_Num_int_base@std@@2_NB
.rdata	SEGMENT
?is_specialized@_Num_int_base@std@@2_NB DB 01H		; std::_Num_int_base::is_specialized
;	COMDAT ?is_modulo@_Num_int_base@std@@2_NB
.rdata	SEGMENT
?is_modulo@_Num_int_base@std@@2_NB DB 01H		; std::_Num_int_base::is_modulo
;	COMDAT ?is_integer@_Num_int_base@std@@2_NB
.rdata	SEGMENT
?is_integer@_Num_int_base@std@@2_NB DB 01H		; std::_Num_int_base::is_integer
;	COMDAT ?is_exact@_Num_int_base@std@@2_NB
.rdata	SEGMENT
?is_exact@_Num_int_base@std@@2_NB DB 01H		; std::_Num_int_base::is_exact
;	COMDAT ?is_bounded@_Num_int_base@std@@2_NB
.rdata	SEGMENT
?is_bounded@_Num_int_base@std@@2_NB DB 01H		; std::_Num_int_base::is_bounded
;	COMDAT ?radix@_Num_base@std@@2HB
.rdata	SEGMENT
?radix@_Num_base@std@@2HB DD 00H			; std::_Num_base::radix
;	COMDAT ?min_exponent10@_Num_base@std@@2HB
.rdata	SEGMENT
?min_exponent10@_Num_base@std@@2HB DD 00H		; std::_Num_base::min_exponent10
;	COMDAT ?min_exponent@_Num_base@std@@2HB
.rdata	SEGMENT
?min_exponent@_Num_base@std@@2HB DD 00H			; std::_Num_base::min_exponent
;	COMDAT ?max_exponent10@_Num_base@std@@2HB
.rdata	SEGMENT
?max_exponent10@_Num_base@std@@2HB DD 00H		; std::_Num_base::max_exponent10
;	COMDAT ?max_exponent@_Num_base@std@@2HB
.rdata	SEGMENT
?max_exponent@_Num_base@std@@2HB DD 00H			; std::_Num_base::max_exponent
;	COMDAT ?max_digits10@_Num_base@std@@2HB
.rdata	SEGMENT
?max_digits10@_Num_base@std@@2HB DD 00H			; std::_Num_base::max_digits10
;	COMDAT ?digits10@_Num_base@std@@2HB
.rdata	SEGMENT
?digits10@_Num_base@std@@2HB DD 00H			; std::_Num_base::digits10
;	COMDAT ?digits@_Num_base@std@@2HB
.rdata	SEGMENT
?digits@_Num_base@std@@2HB DD 00H			; std::_Num_base::digits
;	COMDAT ?round_style@_Num_base@std@@2W4float_round_style@2@B
.rdata	SEGMENT
?round_style@_Num_base@std@@2W4float_round_style@2@B DD 00H ; std::_Num_base::round_style
;	COMDAT ?traps@_Num_base@std@@2_NB
.rdata	SEGMENT
?traps@_Num_base@std@@2_NB DB 00H			; std::_Num_base::traps
;	COMDAT ?tinyness_before@_Num_base@std@@2_NB
.rdata	SEGMENT
?tinyness_before@_Num_base@std@@2_NB DB 00H		; std::_Num_base::tinyness_before
;	COMDAT ?is_specialized@_Num_base@std@@2_NB
.rdata	SEGMENT
?is_specialized@_Num_base@std@@2_NB DB 00H		; std::_Num_base::is_specialized
;	COMDAT ?is_signed@_Num_base@std@@2_NB
.rdata	SEGMENT
?is_signed@_Num_base@std@@2_NB DB 00H			; std::_Num_base::is_signed
;	COMDAT ?is_modulo@_Num_base@std@@2_NB
.rdata	SEGMENT
?is_modulo@_Num_base@std@@2_NB DB 00H			; std::_Num_base::is_modulo
;	COMDAT ?is_integer@_Num_base@std@@2_NB
.rdata	SEGMENT
?is_integer@_Num_base@std@@2_NB DB 00H			; std::_Num_base::is_integer
;	COMDAT ?is_iec559@_Num_base@std@@2_NB
.rdata	SEGMENT
?is_iec559@_Num_base@std@@2_NB DB 00H			; std::_Num_base::is_iec559
;	COMDAT ?is_exact@_Num_base@std@@2_NB
.rdata	SEGMENT
?is_exact@_Num_base@std@@2_NB DB 00H			; std::_Num_base::is_exact
;	COMDAT ?is_bounded@_Num_base@std@@2_NB
.rdata	SEGMENT
?is_bounded@_Num_base@std@@2_NB DB 00H			; std::_Num_base::is_bounded
;	COMDAT ?has_signaling_NaN@_Num_base@std@@2_NB
.rdata	SEGMENT
?has_signaling_NaN@_Num_base@std@@2_NB DB 00H		; std::_Num_base::has_signaling_NaN
;	COMDAT ?has_quiet_NaN@_Num_base@std@@2_NB
.rdata	SEGMENT
?has_quiet_NaN@_Num_base@std@@2_NB DB 00H		; std::_Num_base::has_quiet_NaN
;	COMDAT ?has_infinity@_Num_base@std@@2_NB
.rdata	SEGMENT
?has_infinity@_Num_base@std@@2_NB DB 00H		; std::_Num_base::has_infinity
;	COMDAT ?has_denorm_loss@_Num_base@std@@2_NB
.rdata	SEGMENT
?has_denorm_loss@_Num_base@std@@2_NB DB 00H		; std::_Num_base::has_denorm_loss
;	COMDAT ?has_denorm@_Num_base@std@@2W4float_denorm_style@2@B
.rdata	SEGMENT
?has_denorm@_Num_base@std@@2W4float_denorm_style@2@B DD 00H ; std::_Num_base::has_denorm
;	COMDAT ?g_XMUnsignedFix@@3UXMVECTORF32@@B
.rdata	SEGMENT
?g_XMUnsignedFix@@3UXMVECTORF32@@B DD 04f000000r ; 2.14748e+009 ; g_XMUnsignedFix
	DD	04f000000r			; 2.14748e+009
	DD	04f000000r			; 2.14748e+009
	DD	04f000000r			; 2.14748e+009
;	COMDAT ?g_XMMaxUInt@@3UXMVECTORF32@@B
.rdata	SEGMENT
?g_XMMaxUInt@@3UXMVECTORF32@@B DD 04f7fffffr	; 4.29497e+009 ; g_XMMaxUInt
	DD	04f7fffffr			; 4.29497e+009
	DD	04f7fffffr			; 4.29497e+009
	DD	04f7fffffr			; 4.29497e+009
;	COMDAT ?g_XMMaxInt@@3UXMVECTORF32@@B
.rdata	SEGMENT
?g_XMMaxInt@@3UXMVECTORF32@@B DD 04effffffr	; 2.14748e+009 ; g_XMMaxInt
	DD	04effffffr			; 2.14748e+009
	DD	04effffffr			; 2.14748e+009
	DD	04effffffr			; 2.14748e+009
;	COMDAT ?g_XMFixUnsigned@@3UXMVECTORF32@@B
.rdata	SEGMENT
?g_XMFixUnsigned@@3UXMVECTORF32@@B DD 04f000000r ; 2.14748e+009 ; g_XMFixUnsigned
	DD	04f000000r			; 2.14748e+009
	DD	04f000000r			; 2.14748e+009
	DD	04f000000r			; 2.14748e+009
;	COMDAT ?g_XMAddByte4@@3UXMVECTORF32@@B
.rdata	SEGMENT
?g_XMAddByte4@@3UXMVECTORF32@@B DD 0c3000000r	; -128	; g_XMAddByte4
	DD	0c7000000r			; -32768
	DD	0cb000000r			; -8.38861e+006
	DD	000000000r			; 0
;	COMDAT ?g_XMXorByte4@@3UXMVECTORI32@@B
.rdata	SEGMENT
?g_XMXorByte4@@3UXMVECTORI32@@B DD 080H			; g_XMXorByte4
	DD	08000H
	DD	0800000H
	DD	00H
;	COMDAT ?g_XMMaskByte4@@3UXMVECTORI32@@B
.rdata	SEGMENT
?g_XMMaskByte4@@3UXMVECTORI32@@B DD 0ffH		; g_XMMaskByte4
	DD	0ff00H
	DD	0ff0000H
	DD	0ff000000H
;	COMDAT ?g_XMMulDec4@@3UXMVECTORF32@@B
.rdata	SEGMENT
?g_XMMulDec4@@3UXMVECTORF32@@B DD 03f800000r	; 1	; g_XMMulDec4
	DD	03a800000r			; 0.000976563
	DD	035800000r			; 9.53674e-007
	DD	030800000r			; 9.31323e-010
;	COMDAT ?g_XMAddDec4@@3UXMVECTORF32@@B
.rdata	SEGMENT
?g_XMAddDec4@@3UXMVECTORF32@@B DD 0c4000000r	; -512	; g_XMAddDec4
	DD	0c9000000r			; -524288
	DD	0ce000000r			; -5.36871e+008
	DD	000000000r			; 0
;	COMDAT ?g_XMAddUDec4@@3UXMVECTORF32@@B
.rdata	SEGMENT
?g_XMAddUDec4@@3UXMVECTORF32@@B DD 000000000r	; 0	; g_XMAddUDec4
	DD	000000000r			; 0
	DD	000000000r			; 0
	DD	04f000000r			; 2.14748e+009
;	COMDAT ?g_XMXorDec4@@3UXMVECTORI32@@B
.rdata	SEGMENT
?g_XMXorDec4@@3UXMVECTORI32@@B DD 0200H			; g_XMXorDec4
	DD	080000H
	DD	020000000H
	DD	00H
;	COMDAT ?g_XMMaskDec4@@3UXMVECTORI32@@B
.rdata	SEGMENT
?g_XMMaskDec4@@3UXMVECTORI32@@B DD 03ffH		; g_XMMaskDec4
	DD	0ffc00H
	DD	03ff00000H
	DD	0c0000000H
;	COMDAT ?g_XMMulIco4@@3UXMVECTORF32@@B
.rdata	SEGMENT
?g_XMMulIco4@@3UXMVECTORF32@@B DD 03f800000r	; 1	; g_XMMulIco4
	DD	039800000r			; 0.000244141
	DD	03f800000r			; 1
	DD	031800000r			; 3.72529e-009
;	COMDAT ?g_XMAddIco4@@3UXMVECTORF32@@B
.rdata	SEGMENT
?g_XMAddIco4@@3UXMVECTORF32@@B DD 0c9000000r	; -524288 ; g_XMAddIco4
	DD	000000000r			; 0
	DD	0c9000000r			; -524288
	DD	000000000r			; 0
;	COMDAT ?g_XMAddUIco4@@3UXMVECTORF32@@B
.rdata	SEGMENT
?g_XMAddUIco4@@3UXMVECTORF32@@B DD 000000000r	; 0	; g_XMAddUIco4
	DD	04f000000r			; 2.14748e+009
	DD	000000000r			; 0
	DD	04f000000r			; 2.14748e+009
;	COMDAT ?g_XMAddXIco4@@3UXMVECTORF32@@B
.rdata	SEGMENT
?g_XMAddXIco4@@3UXMVECTORF32@@B DD 0c9000000r	; -524288 ; g_XMAddXIco4
	DD	000000000r			; 0
	DD	0c9000000r			; -524288
	DD	04f000000r			; 2.14748e+009
;	COMDAT ?g_XMXorIco4@@3UXMVECTORI32@@B
.rdata	SEGMENT
?g_XMXorIco4@@3UXMVECTORI32@@B DD 080000H		; g_XMXorIco4
	DD	00H
	DD	080000H
	DD	00H
;	COMDAT ?g_XMXorXIco4@@3UXMVECTORI32@@B
.rdata	SEGMENT
?g_XMXorXIco4@@3UXMVECTORI32@@B DD 080000H		; g_XMXorXIco4
	DD	00H
	DD	080000H
	DD	080000000H
;	COMDAT ?g_XMMaskIco4@@3UXMVECTORI32@@B
.rdata	SEGMENT
?g_XMMaskIco4@@3UXMVECTORI32@@B DD 0fffffH		; g_XMMaskIco4
	DD	0fffff000H
	DD	0fffffH
	DD	0f0000000H
;	COMDAT ?g_XMXorDHen3@@3UXMVECTORI32@@B
.rdata	SEGMENT
?g_XMXorDHen3@@3UXMVECTORI32@@B DD 0200H		; g_XMXorDHen3
	DD	0100000H
	DD	00H
	DD	00H
;	COMDAT ?g_XMXorHenD3@@3UXMVECTORI32@@B
.rdata	SEGMENT
?g_XMXorHenD3@@3UXMVECTORI32@@B DD 0400H		; g_XMXorHenD3
	DD	0200000H
	DD	00H
	DD	00H
;	COMDAT ?g_XMMulDHen3@@3UXMVECTORF32@@B
.rdata	SEGMENT
?g_XMMulDHen3@@3UXMVECTORF32@@B DD 03f800000r	; 1	; g_XMMulDHen3
	DD	03a800000r			; 0.000976563
	DD	035000000r			; 4.76837e-007
	DD	000000000r			; 0
;	COMDAT ?g_XMMulHenD3@@3UXMVECTORF32@@B
.rdata	SEGMENT
?g_XMMulHenD3@@3UXMVECTORF32@@B DD 03f800000r	; 1	; g_XMMulHenD3
	DD	03a000000r			; 0.000488281
	DD	034800000r			; 2.38419e-007
	DD	000000000r			; 0
;	COMDAT ?g_XMAddDHen3@@3UXMVECTORF32@@B
.rdata	SEGMENT
?g_XMAddDHen3@@3UXMVECTORF32@@B DD 0c4000000r	; -512	; g_XMAddDHen3
	DD	0c9800000r			; -1.04858e+006
	DD	000000000r			; 0
	DD	000000000r			; 0
;	COMDAT ?g_XMAddHenD3@@3UXMVECTORF32@@B
.rdata	SEGMENT
?g_XMAddHenD3@@3UXMVECTORF32@@B DD 0c4800000r	; -1024	; g_XMAddHenD3
	DD	0ca000000r			; -2.09715e+006
	DD	000000000r			; 0
	DD	000000000r			; 0
;	COMDAT ?g_XMAddUHenD3@@3UXMVECTORF32@@B
.rdata	SEGMENT
?g_XMAddUHenD3@@3UXMVECTORF32@@B DD 000000000r	; 0	; g_XMAddUHenD3
	DD	000000000r			; 0
	DD	04f000000r			; 2.14748e+009
	DD	000000000r			; 0
;	COMDAT ?g_XMMaskDHen3@@3UXMVECTORI32@@B
.rdata	SEGMENT
?g_XMMaskDHen3@@3UXMVECTORI32@@B DD 03ffH		; g_XMMaskDHen3
	DD	01ffc00H
	DD	0ffe00000H
	DD	00H
;	COMDAT ?g_XMMaskHenD3@@3UXMVECTORI32@@B
.rdata	SEGMENT
?g_XMMaskHenD3@@3UXMVECTORI32@@B DD 07ffH		; g_XMMaskHenD3
	DD	03ff800H
	DD	0ffc00000H
	DD	00H
;	COMDAT ?g_XMFlipYW@@3UXMVECTORI32@@B
.rdata	SEGMENT
?g_XMFlipYW@@3UXMVECTORI32@@B DD 00H			; g_XMFlipYW
	DD	080000000H
	DD	00H
	DD	080000000H
;	COMDAT ?g_XMFlipZW@@3UXMVECTORI32@@B
.rdata	SEGMENT
?g_XMFlipZW@@3UXMVECTORI32@@B DD 00H			; g_XMFlipZW
	DD	00H
	DD	080000000H
	DD	080000000H
;	COMDAT ?g_XMFlipYZ@@3UXMVECTORI32@@B
.rdata	SEGMENT
?g_XMFlipYZ@@3UXMVECTORI32@@B DD 00H			; g_XMFlipYZ
	DD	080000000H
	DD	080000000H
	DD	00H
;	COMDAT ?g_XMFlipW@@3UXMVECTORI32@@B
.rdata	SEGMENT
?g_XMFlipW@@3UXMVECTORI32@@B DD 00H			; g_XMFlipW
	DD	00H
	DD	00H
	DD	080000000H
;	COMDAT ?g_XMFlipZ@@3UXMVECTORI32@@B
.rdata	SEGMENT
?g_XMFlipZ@@3UXMVECTORI32@@B DD 00H			; g_XMFlipZ
	DD	00H
	DD	080000000H
	DD	00H
;	COMDAT ?g_XMFlipY@@3UXMVECTORI32@@B
.rdata	SEGMENT
?g_XMFlipY@@3UXMVECTORI32@@B DD 00H			; g_XMFlipY
	DD	080000000H
	DD	00H
	DD	00H
;	COMDAT ?g_XMFixupY16W16@@3UXMVECTORF32@@B
.rdata	SEGMENT
?g_XMFixupY16W16@@3UXMVECTORF32@@B DD 03f800000r ; 1	; g_XMFixupY16W16
	DD	03f800000r			; 1
	DD	037800000r			; 1.52588e-005
	DD	037800000r			; 1.52588e-005
;	COMDAT ?g_XMFixupY16@@3UXMVECTORF32@@B
.rdata	SEGMENT
?g_XMFixupY16@@3UXMVECTORF32@@B DD 03f800000r	; 1	; g_XMFixupY16
	DD	037800000r			; 1.52588e-005
	DD	000000000r			; 0
	DD	000000000r			; 0
;	COMDAT ?g_XMPermute0Z0W1Z1W@@3UXMVECTORI32@@B
.rdata	SEGMENT
?g_XMPermute0Z0W1Z1W@@3UXMVECTORI32@@B DD 08090a0bH	; g_XMPermute0Z0W1Z1W
	DD	0c0d0e0fH
	DD	018191a1bH
	DD	01c1d1e1fH
;	COMDAT ?g_XMPermute0X0Y1X1Y@@3UXMVECTORI32@@B
.rdata	SEGMENT
?g_XMPermute0X0Y1X1Y@@3UXMVECTORI32@@B DD 010203H	; g_XMPermute0X0Y1X1Y
	DD	04050607H
	DD	010111213H
	DD	014151617H
;	COMDAT ?g_XMSwizzleZXYW@@3UXMVECTORI32@@B
.rdata	SEGMENT
?g_XMSwizzleZXYW@@3UXMVECTORI32@@B DD 08090a0bH		; g_XMSwizzleZXYW
	DD	010203H
	DD	04050607H
	DD	0c0d0e0fH
;	COMDAT ?g_XMSwizzleYZXW@@3UXMVECTORI32@@B
.rdata	SEGMENT
?g_XMSwizzleYZXW@@3UXMVECTORI32@@B DD 04050607H		; g_XMSwizzleYZXW
	DD	08090a0bH
	DD	010203H
	DD	0c0d0e0fH
;	COMDAT ?g_XMSwizzleYXZW@@3UXMVECTORI32@@B
.rdata	SEGMENT
?g_XMSwizzleYXZW@@3UXMVECTORI32@@B DD 04050607H		; g_XMSwizzleYXZW
	DD	010203H
	DD	08090a0bH
	DD	0c0d0e0fH
;	COMDAT ?g_XMSwizzleXYZX@@3UXMVECTORI32@@B
.rdata	SEGMENT
?g_XMSwizzleXYZX@@3UXMVECTORI32@@B DD 010203H		; g_XMSwizzleXYZX
	DD	04050607H
	DD	08090a0bH
	DD	010203H
;	COMDAT ?g_XMSwizzleXYXY@@3UXMVECTORI32@@B
.rdata	SEGMENT
?g_XMSwizzleXYXY@@3UXMVECTORI32@@B DD 010203H		; g_XMSwizzleXYXY
	DD	04050607H
	DD	010203H
	DD	04050607H
;	COMDAT ?g_XMSelect1110@@3UXMVECTORI32@@B
.rdata	SEGMENT
?g_XMSelect1110@@3UXMVECTORI32@@B DD 0ffffffffH		; g_XMSelect1110
	DD	0ffffffffH
	DD	0ffffffffH
	DD	00H
;	COMDAT ?g_XMSelect1100@@3UXMVECTORI32@@B
.rdata	SEGMENT
?g_XMSelect1100@@3UXMVECTORI32@@B DD 0ffffffffH		; g_XMSelect1100
	DD	0ffffffffH
	DD	00H
	DD	00H
;	COMDAT ?g_XMSelect1000@@3UXMVECTORI32@@B
.rdata	SEGMENT
?g_XMSelect1000@@3UXMVECTORI32@@B DD 0ffffffffH		; g_XMSelect1000
	DD	00H
	DD	00H
	DD	00H
;	COMDAT ?g_XMOneHalfMinusEpsilon@@3UXMVECTORI32@@B
.rdata	SEGMENT
?g_XMOneHalfMinusEpsilon@@3UXMVECTORI32@@B DD 03efffffdH ; g_XMOneHalfMinusEpsilon
	DD	03efffffdH
	DD	03efffffdH
	DD	03efffffdH
;	COMDAT ?g_XMSelect1010@@3UXMVECTORI32@@B
.rdata	SEGMENT
?g_XMSelect1010@@3UXMVECTORI32@@B DD 0ffffffffH		; g_XMSelect1010
	DD	00H
	DD	0ffffffffH
	DD	00H
;	COMDAT ?g_XMSelect0101@@3UXMVECTORI32@@B
.rdata	SEGMENT
?g_XMSelect0101@@3UXMVECTORI32@@B DD 00H		; g_XMSelect0101
	DD	0ffffffffH
	DD	00H
	DD	0ffffffffH
;	COMDAT ?g_XMNegateW@@3UXMVECTORF32@@B
.rdata	SEGMENT
?g_XMNegateW@@3UXMVECTORF32@@B DD 03f800000r	; 1	; g_XMNegateW
	DD	03f800000r			; 1
	DD	03f800000r			; 1
	DD	0bf800000r			; -1
;	COMDAT ?g_XMNegateZ@@3UXMVECTORF32@@B
.rdata	SEGMENT
?g_XMNegateZ@@3UXMVECTORF32@@B DD 03f800000r	; 1	; g_XMNegateZ
	DD	03f800000r			; 1
	DD	0bf800000r			; -1
	DD	03f800000r			; 1
;	COMDAT ?g_XMNegateY@@3UXMVECTORF32@@B
.rdata	SEGMENT
?g_XMNegateY@@3UXMVECTORF32@@B DD 03f800000r	; 1	; g_XMNegateY
	DD	0bf800000r			; -1
	DD	03f800000r			; 1
	DD	03f800000r			; 1
;	COMDAT ?g_XMNegateX@@3UXMVECTORF32@@B
.rdata	SEGMENT
?g_XMNegateX@@3UXMVECTORF32@@B DD 0bf800000r	; -1	; g_XMNegateX
	DD	03f800000r			; 1
	DD	03f800000r			; 1
	DD	03f800000r			; 1
;	COMDAT ?g_XMMaskByte@@3UXMVECTORI32@@B
.rdata	SEGMENT
?g_XMMaskByte@@3UXMVECTORI32@@B DD 0ffH			; g_XMMaskByte
	DD	0ffH
	DD	0ffH
	DD	0ffH
;	COMDAT ?g_XMNoFraction@@3UXMVECTORF32@@B
.rdata	SEGMENT
?g_XMNoFraction@@3UXMVECTORF32@@B DD 04b000000r	; 8.38861e+006 ; g_XMNoFraction
	DD	04b000000r			; 8.38861e+006
	DD	04b000000r			; 8.38861e+006
	DD	04b000000r			; 8.38861e+006
;	COMDAT ?g_XMNormalizeX16Y16Z16W16@@3UXMVECTORF32@@B
.rdata	SEGMENT
?g_XMNormalizeX16Y16Z16W16@@3UXMVECTORF32@@B DD 038000100r ; 3.05185e-005 ; g_XMNormalizeX16Y16Z16W16
	DD	038000100r			; 3.05185e-005
	DD	030000100r			; 4.65675e-010
	DD	030000100r			; 4.65675e-010
;	COMDAT ?g_XMFixX16Y16Z16W16@@3UXMVECTORF32@@B
.rdata	SEGMENT
?g_XMFixX16Y16Z16W16@@3UXMVECTORF32@@B DD 0c7000000r ; -32768 ; g_XMFixX16Y16Z16W16
	DD	0c7000000r			; -32768
	DD	000000000r			; 0
	DD	000000000r			; 0
;	COMDAT ?g_XMFlipX16Y16Z16W16@@3UXMVECTORI32@@B
.rdata	SEGMENT
?g_XMFlipX16Y16Z16W16@@3UXMVECTORI32@@B DD 08000H	; g_XMFlipX16Y16Z16W16
	DD	08000H
	DD	00H
	DD	00H
;	COMDAT ?g_XMMaskX16Y16Z16W16@@3UXMVECTORI32@@B
.rdata	SEGMENT
?g_XMMaskX16Y16Z16W16@@3UXMVECTORI32@@B DD 0ffffH	; g_XMMaskX16Y16Z16W16
	DD	0ffffH
	DD	0ffff0000H
	DD	0ffff0000H
;	COMDAT ?g_XMNormalizeX16Y16@@3UXMVECTORF32@@B
.rdata	SEGMENT
?g_XMNormalizeX16Y16@@3UXMVECTORF32@@B DD 038000100r ; 3.05185e-005 ; g_XMNormalizeX16Y16
	DD	030000100r			; 4.65675e-010
	DD	000000000r			; 0
	DD	000000000r			; 0
;	COMDAT ?g_XMFixX16Y16@@3UXMVECTORF32@@B
.rdata	SEGMENT
?g_XMFixX16Y16@@3UXMVECTORF32@@B DD 0c7000000r	; -32768 ; g_XMFixX16Y16
	DD	000000000r			; 0
	DD	000000000r			; 0
	DD	000000000r			; 0
;	COMDAT ?g_XMFlipX16Y16@@3UXMVECTORI32@@B
.rdata	SEGMENT
?g_XMFlipX16Y16@@3UXMVECTORI32@@B DD 08000H		; g_XMFlipX16Y16
	DD	00H
	DD	00H
	DD	00H
;	COMDAT ?g_XMMaskX16Y16@@3UXMVECTORI32@@B
.rdata	SEGMENT
?g_XMMaskX16Y16@@3UXMVECTORI32@@B DD 0ffffH		; g_XMMaskX16Y16
	DD	0ffff0000H
	DD	00H
	DD	00H
;	COMDAT ?g_XMNormalizeA2B10G10R10@@3UXMVECTORF32@@B
.rdata	SEGMENT
?g_XMNormalizeA2B10G10R10@@3UXMVECTORF32@@B DD 03b004020r ; 0.00195695 ; g_XMNormalizeA2B10G10R10
	DD	036004020r			; 1.91108e-006
	DD	031004020r			; 1.86629e-009
	DD	02faaaaabr			; 3.10441e-010
;	COMDAT ?g_XMFixAA2B10G10R10@@3UXMVECTORF32@@B
.rdata	SEGMENT
?g_XMFixAA2B10G10R10@@3UXMVECTORF32@@B DD 0c4000000r ; -512 ; g_XMFixAA2B10G10R10
	DD	0c9000000r			; -524288
	DD	0ce000000r			; -5.36871e+008
	DD	04f000000r			; 2.14748e+009
;	COMDAT ?g_XMFlipA2B10G10R10@@3UXMVECTORI32@@B
.rdata	SEGMENT
?g_XMFlipA2B10G10R10@@3UXMVECTORI32@@B DD 0200H		; g_XMFlipA2B10G10R10
	DD	080000H
	DD	020000000H
	DD	080000000H
;	COMDAT ?g_XMMaskA2B10G10R10@@3UXMVECTORI32@@B
.rdata	SEGMENT
?g_XMMaskA2B10G10R10@@3UXMVECTORI32@@B DD 03ffH		; g_XMMaskA2B10G10R10
	DD	0ffc00H
	DD	03ff00000H
	DD	0c0000000H
;	COMDAT ?g_XMNormalizeA8R8G8B8@@3UXMVECTORF32@@B
.rdata	SEGMENT
?g_XMNormalizeA8R8G8B8@@3UXMVECTORF32@@B DD 033808081r ; 5.98384e-008 ; g_XMNormalizeA8R8G8B8
	DD	037808081r			; 1.53186e-005
	DD	03b808081r			; 0.00392157
	DD	02f808081r			; 2.33744e-010
;	COMDAT ?g_XMFixAA8R8G8B8@@3UXMVECTORF32@@B
.rdata	SEGMENT
?g_XMFixAA8R8G8B8@@3UXMVECTORF32@@B DD 000000000r ; 0	; g_XMFixAA8R8G8B8
	DD	000000000r			; 0
	DD	000000000r			; 0
	DD	04f000000r			; 2.14748e+009
;	COMDAT ?g_XMFlipA8R8G8B8@@3UXMVECTORI32@@B
.rdata	SEGMENT
?g_XMFlipA8R8G8B8@@3UXMVECTORI32@@B DD 00H		; g_XMFlipA8R8G8B8
	DD	00H
	DD	00H
	DD	080000000H
;	COMDAT ?g_XMMaskA8R8G8B8@@3UXMVECTORI32@@B
.rdata	SEGMENT
?g_XMMaskA8R8G8B8@@3UXMVECTORI32@@B DD 0ff0000H		; g_XMMaskA8R8G8B8
	DD	0ff00H
	DD	0ffH
	DD	0ff000000H
;	COMDAT ?g_XMNegOneMask@@3UXMVECTORI32@@B
.rdata	SEGMENT
?g_XMNegOneMask@@3UXMVECTORI32@@B DD 0ffffffffH		; g_XMNegOneMask
	DD	0ffffffffH
	DD	0ffffffffH
	DD	0ffffffffH
;	COMDAT ?g_XMFltMax@@3UXMVECTORI32@@B
.rdata	SEGMENT
?g_XMFltMax@@3UXMVECTORI32@@B DD 07f7fffffH		; g_XMFltMax
	DD	07f7fffffH
	DD	07f7fffffH
	DD	07f7fffffH
;	COMDAT ?g_XMFltMin@@3UXMVECTORI32@@B
.rdata	SEGMENT
?g_XMFltMin@@3UXMVECTORI32@@B DD 0800000H		; g_XMFltMin
	DD	0800000H
	DD	0800000H
	DD	0800000H
;	COMDAT ?g_XMAbsMask@@3UXMVECTORI32@@B
.rdata	SEGMENT
?g_XMAbsMask@@3UXMVECTORI32@@B DD 07fffffffH		; g_XMAbsMask
	DD	07fffffffH
	DD	07fffffffH
	DD	07fffffffH
;	COMDAT ?g_XMQNaNTest@@3UXMVECTORI32@@B
.rdata	SEGMENT
?g_XMQNaNTest@@3UXMVECTORI32@@B DD 07fffffH		; g_XMQNaNTest
	DD	07fffffH
	DD	07fffffH
	DD	07fffffH
;	COMDAT ?g_XMQNaN@@3UXMVECTORI32@@B
.rdata	SEGMENT
?g_XMQNaN@@3UXMVECTORI32@@B DD 07fc00000H		; g_XMQNaN
	DD	07fc00000H
	DD	07fc00000H
	DD	07fc00000H
;	COMDAT ?g_XMInfinity@@3UXMVECTORI32@@B
.rdata	SEGMENT
?g_XMInfinity@@3UXMVECTORI32@@B DD 07f800000H		; g_XMInfinity
	DD	07f800000H
	DD	07f800000H
	DD	07f800000H
;	COMDAT ?g_XMEpsilon@@3UXMVECTORF32@@B
.rdata	SEGMENT
?g_XMEpsilon@@3UXMVECTORF32@@B DD 034000000r	; 1.19209e-007 ; g_XMEpsilon
	DD	034000000r			; 1.19209e-007
	DD	034000000r			; 1.19209e-007
	DD	034000000r			; 1.19209e-007
;	COMDAT ?g_XMReciprocalTwoPi@@3UXMVECTORF32@@B
.rdata	SEGMENT
?g_XMReciprocalTwoPi@@3UXMVECTORF32@@B DD 03e22f983r ; 0.159155 ; g_XMReciprocalTwoPi
	DD	03e22f983r			; 0.159155
	DD	03e22f983r			; 0.159155
	DD	03e22f983r			; 0.159155
;	COMDAT ?g_XMTwoPi@@3UXMVECTORF32@@B
.rdata	SEGMENT
?g_XMTwoPi@@3UXMVECTORF32@@B DD 040c90fdbr	; 6.28319 ; g_XMTwoPi
	DD	040c90fdbr			; 6.28319
	DD	040c90fdbr			; 6.28319
	DD	040c90fdbr			; 6.28319
;	COMDAT ?g_XMReciprocalPi@@3UXMVECTORF32@@B
.rdata	SEGMENT
?g_XMReciprocalPi@@3UXMVECTORF32@@B DD 03ea2f983r ; 0.31831 ; g_XMReciprocalPi
	DD	03ea2f983r			; 0.31831
	DD	03ea2f983r			; 0.31831
	DD	03ea2f983r			; 0.31831
;	COMDAT ?g_XMPi@@3UXMVECTORF32@@B
.rdata	SEGMENT
?g_XMPi@@3UXMVECTORF32@@B DD 040490fdbr		; 3.14159 ; g_XMPi
	DD	040490fdbr			; 3.14159
	DD	040490fdbr			; 3.14159
	DD	040490fdbr			; 3.14159
;	COMDAT ?g_XMHalfPi@@3UXMVECTORF32@@B
.rdata	SEGMENT
?g_XMHalfPi@@3UXMVECTORF32@@B DD 03fc90fdbr	; 1.5708 ; g_XMHalfPi
	DD	03fc90fdbr			; 1.5708
	DD	03fc90fdbr			; 1.5708
	DD	03fc90fdbr			; 1.5708
;	COMDAT ?g_XMNegativePi@@3UXMVECTORF32@@B
.rdata	SEGMENT
?g_XMNegativePi@@3UXMVECTORF32@@B DD 0c0490fdbr	; -3.14159 ; g_XMNegativePi
	DD	0c0490fdbr			; -3.14159
	DD	0c0490fdbr			; -3.14159
	DD	0c0490fdbr			; -3.14159
;	COMDAT ?g_XMNegativeTwoPi@@3UXMVECTORF32@@B
.rdata	SEGMENT
?g_XMNegativeTwoPi@@3UXMVECTORF32@@B DD 0c0c90fdbr ; -6.28319 ; g_XMNegativeTwoPi
	DD	0c0c90fdbr			; -6.28319
	DD	0c0c90fdbr			; -6.28319
	DD	0c0c90fdbr			; -6.28319
;	COMDAT ?g_XMNegativeOneHalf@@3UXMVECTORF32@@B
.rdata	SEGMENT
?g_XMNegativeOneHalf@@3UXMVECTORF32@@B DD 0bf000000r ; -0.5 ; g_XMNegativeOneHalf
	DD	0bf000000r			; -0.5
	DD	0bf000000r			; -0.5
	DD	0bf000000r			; -0.5
;	COMDAT ?g_XMOneHalf@@3UXMVECTORF32@@B
.rdata	SEGMENT
?g_XMOneHalf@@3UXMVECTORF32@@B DD 03f000000r	; 0.5	; g_XMOneHalf
	DD	03f000000r			; 0.5
	DD	03f000000r			; 0.5
	DD	03f000000r			; 0.5
;	COMDAT ?g_XMNegativeOne@@3UXMVECTORF32@@B
.rdata	SEGMENT
?g_XMNegativeOne@@3UXMVECTORF32@@B DD 0bf800000r ; -1	; g_XMNegativeOne
	DD	0bf800000r			; -1
	DD	0bf800000r			; -1
	DD	0bf800000r			; -1
;	COMDAT ?g_XMZero@@3UXMVECTORF32@@B
.rdata	SEGMENT
?g_XMZero@@3UXMVECTORF32@@B DD 000000000r	; 0	; g_XMZero
	DD	000000000r			; 0
	DD	000000000r			; 0
	DD	000000000r			; 0
;	COMDAT ?g_XMOne3@@3UXMVECTORF32@@B
.rdata	SEGMENT
?g_XMOne3@@3UXMVECTORF32@@B DD 03f800000r	; 1	; g_XMOne3
	DD	03f800000r			; 1
	DD	03f800000r			; 1
	DD	000000000r			; 0
;	COMDAT ?g_XMOne@@3UXMVECTORF32@@B
.rdata	SEGMENT
?g_XMOne@@3UXMVECTORF32@@B DD 03f800000r	; 1	; g_XMOne
	DD	03f800000r			; 1
	DD	03f800000r			; 1
	DD	03f800000r			; 1
;	COMDAT ?g_XMMaskW@@3UXMVECTORI32@@B
.rdata	SEGMENT
?g_XMMaskW@@3UXMVECTORI32@@B DD 00H			; g_XMMaskW
	DD	00H
	DD	00H
	DD	0ffffffffH
;	COMDAT ?g_XMMaskZ@@3UXMVECTORI32@@B
.rdata	SEGMENT
?g_XMMaskZ@@3UXMVECTORI32@@B DD 00H			; g_XMMaskZ
	DD	00H
	DD	0ffffffffH
	DD	00H
;	COMDAT ?g_XMMaskY@@3UXMVECTORI32@@B
.rdata	SEGMENT
?g_XMMaskY@@3UXMVECTORI32@@B DD 00H			; g_XMMaskY
	DD	0ffffffffH
	DD	00H
	DD	00H
;	COMDAT ?g_XMMaskX@@3UXMVECTORI32@@B
.rdata	SEGMENT
?g_XMMaskX@@3UXMVECTORI32@@B DD 0ffffffffH		; g_XMMaskX
	DD	00H
	DD	00H
	DD	00H
;	COMDAT ?g_XMMask3@@3UXMVECTORI32@@B
.rdata	SEGMENT
?g_XMMask3@@3UXMVECTORI32@@B DD 0ffffffffH		; g_XMMask3
	DD	0ffffffffH
	DD	0ffffffffH
	DD	00H
;	COMDAT ?g_XMNegate3@@3UXMVECTORI32@@B
.rdata	SEGMENT
?g_XMNegate3@@3UXMVECTORI32@@B DD 080000000H		; g_XMNegate3
	DD	080000000H
	DD	080000000H
	DD	00H
;	COMDAT ?g_XMNegativeZero@@3UXMVECTORI32@@B
.rdata	SEGMENT
?g_XMNegativeZero@@3UXMVECTORI32@@B DD 080000000H	; g_XMNegativeZero
	DD	080000000H
	DD	080000000H
	DD	080000000H
;	COMDAT ?g_XMNegIdentityR3@@3UXMVECTORF32@@B
.rdata	SEGMENT
?g_XMNegIdentityR3@@3UXMVECTORF32@@B DD 000000000r ; 0	; g_XMNegIdentityR3
	DD	000000000r			; 0
	DD	000000000r			; 0
	DD	0bf800000r			; -1
;	COMDAT ?g_XMNegIdentityR2@@3UXMVECTORF32@@B
.rdata	SEGMENT
?g_XMNegIdentityR2@@3UXMVECTORF32@@B DD 000000000r ; 0	; g_XMNegIdentityR2
	DD	000000000r			; 0
	DD	0bf800000r			; -1
	DD	000000000r			; 0
;	COMDAT ?g_XMNegIdentityR1@@3UXMVECTORF32@@B
.rdata	SEGMENT
?g_XMNegIdentityR1@@3UXMVECTORF32@@B DD 000000000r ; 0	; g_XMNegIdentityR1
	DD	0bf800000r			; -1
	DD	000000000r			; 0
	DD	000000000r			; 0
;	COMDAT ?g_XMNegIdentityR0@@3UXMVECTORF32@@B
.rdata	SEGMENT
?g_XMNegIdentityR0@@3UXMVECTORF32@@B DD 0bf800000r ; -1	; g_XMNegIdentityR0
	DD	000000000r			; 0
	DD	000000000r			; 0
	DD	000000000r			; 0
;	COMDAT ?g_XMIdentityR3@@3UXMVECTORF32@@B
.rdata	SEGMENT
?g_XMIdentityR3@@3UXMVECTORF32@@B DD 000000000r	; 0	; g_XMIdentityR3
	DD	000000000r			; 0
	DD	000000000r			; 0
	DD	03f800000r			; 1
;	COMDAT ?g_XMIdentityR2@@3UXMVECTORF32@@B
.rdata	SEGMENT
?g_XMIdentityR2@@3UXMVECTORF32@@B DD 000000000r	; 0	; g_XMIdentityR2
	DD	000000000r			; 0
	DD	03f800000r			; 1
	DD	000000000r			; 0
;	COMDAT ?g_XMIdentityR1@@3UXMVECTORF32@@B
.rdata	SEGMENT
?g_XMIdentityR1@@3UXMVECTORF32@@B DD 000000000r	; 0	; g_XMIdentityR1
	DD	03f800000r			; 1
	DD	000000000r			; 0
	DD	000000000r			; 0
;	COMDAT ?g_XMIdentityR0@@3UXMVECTORF32@@B
.rdata	SEGMENT
?g_XMIdentityR0@@3UXMVECTORF32@@B DD 03f800000r	; 1	; g_XMIdentityR0
	DD	000000000r			; 0
	DD	000000000r			; 0
	DD	000000000r			; 0
;	COMDAT ?g_XMPiConstants0@@3UXMVECTORF32@@B
.rdata	SEGMENT
?g_XMPiConstants0@@3UXMVECTORF32@@B DD 040490fdbr ; 3.14159 ; g_XMPiConstants0
	DD	040c90fdbr			; 6.28319
	DD	03ea2f983r			; 0.31831
	DD	03e22f983r			; 0.159155
;	COMDAT ?g_XMASinEstConstants@@3UXMVECTORF32@@B
.rdata	SEGMENT
?g_XMASinEstConstants@@3UXMVECTORF32@@B DD 03f800001r ; 1 ; g_XMASinEstConstants
	DD	03fc90fdbr			; 1.5708
	DD	000000000r			; 0
	DD	000000000r			; 0
;	COMDAT ?g_XMASinEstCoefficients@@3UXMVECTORF32@@B
.rdata	SEGMENT
?g_XMASinEstCoefficients@@3UXMVECTORF32@@B DD 0bfae4ee5r ; -1.36178 ; g_XMASinEstCoefficients
	DD	0401849a5r			; 2.37949
	DD	0bf4ee811r			; -0.808229
	DD	03e8e8fb5r			; 0.27844
;	COMDAT ?g_XMATanEstCoefficients@@3UXMVECTORF32@@B
.rdata	SEGMENT
?g_XMATanEstCoefficients@@3UXMVECTORF32@@B DD 03f44dc79r ; 0.768989 ; g_XMATanEstCoefficients
	DD	03f8d6834r			; 1.10474
	DD	03f5dbe43r			; 0.866184
	DD	03fc90fdbr			; 1.5708
;	COMDAT ?g_XMTanEstCoefficients@@3UXMVECTORF32@@B
.rdata	SEGMENT
?g_XMTanEstCoefficients@@3UXMVECTORF32@@B DD 0401ef9dbr ; 2.484 ; g_XMTanEstCoefficients
	DD	0be482f23r			; -0.195492
	DD	0401de9e6r			; 2.4674
	DD	03ea2f983r			; 0.31831
;	COMDAT ?g_XMCosEstCoefficients@@3UXMVECTORF32@@B
.rdata	SEGMENT
?g_XMCosEstCoefficients@@3UXMVECTORF32@@B DD 03f800000r ; 1 ; g_XMCosEstCoefficients
	DD	0befd9e41r			; -0.495348
	DD	03d1eda81r			; 0.0387826
	DD	0ba72600cr			; -0.000924588
;	COMDAT ?g_XMSinEstCoefficients@@3UXMVECTORF32@@B
.rdata	SEGMENT
?g_XMSinEstCoefficients@@3UXMVECTORF32@@B DD 03f800000r ; 1 ; g_XMSinEstCoefficients
	DD	0be2a84b5r			; -0.166522
	DD	03c0658eer			; 0.00819991
	DD	0b92951der			; -0.000161476
;	COMDAT ?g_XMATanCoefficients2@@3UXMVECTORF32@@B
.rdata	SEGMENT
?g_XMATanCoefficients2@@3UXMVECTORF32@@B DD 03d70f0f1r ; 0.0588235 ; g_XMATanCoefficients2
	DD	03d579436r			; 0.0526316
	DD	03d430c31r			; 0.047619
	DD	03d321643r			; 0.0434783
;	COMDAT ?g_XMATanCoefficients1@@3UXMVECTORF32@@B
.rdata	SEGMENT
?g_XMATanCoefficients1@@3UXMVECTORF32@@B DD 03de38e39r ; 0.111111 ; g_XMATanCoefficients1
	DD	03dba2e8cr			; 0.0909091
	DD	03d9d89d9r			; 0.0769231
	DD	03d888889r			; 0.0666667
;	COMDAT ?g_XMATanCoefficients0@@3UXMVECTORF32@@B
.rdata	SEGMENT
?g_XMATanCoefficients0@@3UXMVECTORF32@@B DD 03f800000r ; 1 ; g_XMATanCoefficients0
	DD	03eaaaaabr			; 0.333333
	DD	03e4ccccdr			; 0.2
	DD	03e124925r			; 0.142857
;	COMDAT ?g_XMASinCoefficients2@@3UXMVECTORF32@@B
.rdata	SEGMENT
?g_XMASinCoefficients2@@3UXMVECTORF32@@B DD 0bfaf4418r ; -1.36927 ; g_XMASinCoefficients2
	DD	0c08f6ad9r			; -4.48179
	DD	03fb58485r			; 1.41811
	DD	040af6ad8r			; 5.48179
;	COMDAT ?g_XMASinCoefficients1@@3UXMVECTORF32@@B
.rdata	SEGMENT
?g_XMASinCoefficients1@@3UXMVECTORF32@@B DD 03f1dd7b6r ; 0.616573 ; g_XMASinCoefficients1
	DD	0408980bdr			; 4.29697
	DD	0bf983f2fr			; -1.18943
	DD	0c0d1360er			; -6.53785
;	COMDAT ?g_XMASinCoefficients0@@3UXMVECTORF32@@B
.rdata	SEGMENT
?g_XMASinCoefficients0@@3UXMVECTORF32@@B DD 0bd6dd42dr ; -0.0580637 ; g_XMASinCoefficients0
	DD	0bed65553r			; -0.41862
	DD	03e663246r			; 0.224801
	DD	0400b1889r			; 2.17337
;	COMDAT ?g_XMTanCoefficients2@@3UXMVECTORF32@@B
.rdata	SEGMENT
?g_XMTanCoefficients2@@3UXMVECTORF32@@B DD 03a1aac12r ; 0.000590027 ; g_XMTanCoefficients2
	DD	0397abeb9r			; 0.000239129
	DD	038cb3f0cr			; 9.69154e-005
	DD	03824bec9r			; 3.92783e-005
;	COMDAT ?g_XMTanCoefficients1@@3UXMVECTORF32@@B
.rdata	SEGMENT
?g_XMTanCoefficients1@@3UXMVECTORF32@@B DD 03cb327a4r ; 0.0218695 ; g_XMTanCoefficients1
	DD	03c11371br			; 0.00886324
	DD	03b6b69e9r			; 0.00359213
	DD	03abed1b3r			; 0.00145583
;	COMDAT ?g_XMTanCoefficients0@@3UXMVECTORF32@@B
.rdata	SEGMENT
?g_XMTanCoefficients0@@3UXMVECTORF32@@B DD 03f800000r ; 1 ; g_XMTanCoefficients0
	DD	03eaaaaabr			; 0.333333
	DD	03e088889r			; 0.133333
	DD	03d5d0dd1r			; 0.0539683
;	COMDAT ?g_XMCosCoefficients2@@3UXMVECTORF32@@B
.rdata	SEGMENT
?g_XMCosCoefficients2@@3UXMVECTORF32@@B DD 029573f9fr ; 4.77948e-014 ; g_XMCosCoefficients2
	DD	0a53413c3r			; -1.56192e-016
	DD	020f2a15dr			; 4.11032e-019
	DD	09c8671cbr			; -8.89679e-022
;	COMDAT ?g_XMCosCoefficients1@@3UXMVECTORF32@@B
.rdata	SEGMENT
?g_XMCosCoefficients1@@3UXMVECTORF32@@B DD 037d00d01r ; 2.48016e-005 ; g_XMCosCoefficients1
	DD	0b493f27er			; -2.75573e-007
	DD	0310f76c8r			; 2.08768e-009
	DD	0ad49cba5r			; -1.14707e-011
;	COMDAT ?g_XMCosCoefficients0@@3UXMVECTORF32@@B
.rdata	SEGMENT
?g_XMCosCoefficients0@@3UXMVECTORF32@@B DD 03f800000r ; 1 ; g_XMCosCoefficients0
	DD	0bf000000r			; -0.5
	DD	03d2aaaabr			; 0.0416667
	DD	0bab60b61r			; -0.00138889
;	COMDAT ?g_XMSinCoefficients2@@3UXMVECTORF32@@B
.rdata	SEGMENT
?g_XMSinCoefficients2@@3UXMVECTORF32@@B DD 0274a963cr ; 2.81146e-015 ; g_XMSinCoefficients2
	DD	0a317a4dar			; -8.22064e-018
	DD	01eb8dc78r			; 1.95729e-020
	DD	09a3b0da1r			; -3.86817e-023
;	COMDAT ?g_XMSinCoefficients1@@3UXMVECTORF32@@B
.rdata	SEGMENT
?g_XMSinCoefficients1@@3UXMVECTORF32@@B DD 03638ef1dr ; 2.75573e-006 ; g_XMSinCoefficients1
	DD	0b2d7322br			; -2.50521e-008
	DD	02f309231r			; 1.6059e-010
	DD	0ab573f9fr			; -7.64716e-013
;	COMDAT ?g_XMSinCoefficients0@@3UXMVECTORF32@@B
.rdata	SEGMENT
?g_XMSinCoefficients0@@3UXMVECTORF32@@B DD 03f800000r ; 1 ; g_XMSinCoefficients0
	DD	0be2aaaabr			; -0.166667
	DD	03c088889r			; 0.00833333
	DD	0b9500d01r			; -0.000198413
;	COMDAT D3DTESSPRIMITIVEVERTEXCOUNT
.rdata	SEGMENT
D3DTESSPRIMITIVEVERTEXCOUNT DD 00H
	DD	00H
	DD	00H
	DD	00H
	DD	02H
	DD	00H
	DD	01H
	DD	01H
	DD	03H
	DD	00H
	DD	01H
	DD	02H
	DD	01H
	DD	02H
	DD	00H
	DD	00H
	DD	00H
	DD	00H
	DD	00H
	DD	00H
	DD	00H
	DD	00H
	DD	00H
	DD	00H
	DD	00H
	DD	00H
	DD	04H
	DD	00H
	DD	00H
	DD	00H
	DD	00H
	DD	00H
	DD	01H
	DD	00H
	DD	01H
	DD	00H
	DD	01H
	DD	00H
;	COMDAT D3DPRIMITIVEVERTEXCOUNT
.rdata	SEGMENT
D3DPRIMITIVEVERTEXCOUNT DD 00H
	DD	00H
	DD	01H
	DD	00H
	DD	02H
	DD	00H
	DD	01H
	DD	01H
	DD	03H
	DD	00H
	DD	01H
	DD	02H
	DD	01H
	DD	02H
	DD	00H
	DD	00H
	DD	03H
	DD	00H
	DD	00H
	DD	00H
	DD	00H
	DD	00H
	DD	00H
	DD	00H
	DD	00H
	DD	00H
	DD	04H
	DD	00H
;	COMDAT __C1_11886
.XBLD$W	SEGMENT
__C1_11886 DW	04331H
	DW	00H
	DW	00H
	DW	00H
	DW	010H
	DW	00H
	DW	02e6eH
	DW	04400H
;	COMDAT __C2_11886
.XBLD$W	SEGMENT
__C2_11886 DB	'C2', 00H, 00H, 00H, 00H, 00H, 00H, 00H, 010H, 00H, 00H, '.'
	DB	'nD', 00H
PUBLIC	?TheSaiyanProject_DevMode@@YAXXZ		; TheSaiyanProject_DevMode
; Function compile flags: /Odt

	.code

?TheSaiyanProject_DevMode@@YAXXZ PROC NEAR		; TheSaiyanProject_DevMode, COMDAT

; Begin code for function: ?TheSaiyanProject_DevMode@@YAXXZ
; File c:\users\s7clutch\documents\visual studio 2010\projects\the saiyan project\src\dllmain.cpp
; Line 164
	li           r3,1
; Line 165
	nop
; Line 166
	nop
; Line 167
	nop
; Line 168
	nop
; Line 169
	nop
; Line 170
	nop
; Line 171
	nop
; Line 172
	nop
; Line 173
	nop
; Line 174
	nop
; Line 175
	nop
; Line 176
	nop
; Line 177
	nop
; Line 178
	nop
; Line 179
	nop
; Line 180
	nop
; Line 181
	nop
; Line 182
	nop
; Line 183
	nop
; Line 184
	nop
; Line 185
	nop
; Line 186
	nop
; Line 187
	blr
; End code for function: ?TheSaiyanProject_DevMode@@YAXXZ
?TheSaiyanProject_DevMode@@YAXXZ ENDP
							; TheSaiyanProject_DevMode
PUBLIC	?TheSaiyanProject_ScriptRPFBypass@@YAXXZ	; TheSaiyanProject_ScriptRPFBypass
; Function compile flags: /Odt

	.code

?TheSaiyanProject_ScriptRPFBypass@@YAXXZ PROC NEAR	; TheSaiyanProject_ScriptRPFBypass, COMDAT

; Begin code for function: ?TheSaiyanProject_ScriptRPFBypass@@YAXXZ
; Line 197
	lis          r30,556		; 22Ch
; Line 198
	ori          r30,r30,51200		; 0C800h
; Line 199
	stw          r30,18h(r29)
; Line 202
	lis          r3,-2346		; 0F6D6h
; Line 203
	ori          r3,r3,43609		; 0AA59h
; Line 206
	nop
; End code for function: ?TheSaiyanProject_ScriptRPFBypass@@YAXXZ
?TheSaiyanProject_ScriptRPFBypass@@YAXXZ ENDP
							; TheSaiyanProject_ScriptRPFBypass
PUBLIC	__real@4059066666666666
PUBLIC	?Distance@_Vector3@@QAAMU1@@Z			; _Vector3::Distance
PUBLIC	?TheSaiyanProject_Aimbot@@YAXXZ			; TheSaiyanProject_Aimbot
EXTRN	?TASK_ARREST_PED@@YAXKK@Z:PROC			; TASK_ARREST_PED
EXTRN	?CLEAR_PED_TASKS@@YAXK@Z:PROC			; CLEAR_PED_TASKS
EXTRN	?IS_CONTROL_JUST_RELEASED@@YA_NKK@Z:PROC	; IS_CONTROL_JUST_RELEASED
EXTRN	?IS_ENTITY_DEAD@@YA_NK@Z:PROC			; IS_ENTITY_DEAD
EXTRN	?HAS_ENTITY_CLEAR_LOS_TO_ENTITY@@YA_NKKK@Z:PROC	; HAS_ENTITY_CLEAR_LOS_TO_ENTITY
EXTRN	?IS_PED_ON_FOOT@@YA_NK@Z:PROC			; IS_PED_ON_FOOT
EXTRN	?IS_CONTROL_PRESSED@@YA_NKK@Z:PROC		; IS_CONTROL_PRESSED
EXTRN	?GET_ENTITY_COORDS@@YA?AU_Vector3@@K_N@Z:PROC	; GET_ENTITY_COORDS
EXTRN	?GET_PLAYER_PED@@YAKK@Z:PROC			; GET_PLAYER_PED
EXTRN	_fltused:PROC
;	COMDAT .pdata
.pdata	SEGMENT
$T94443	DD	?TheSaiyanProject_Aimbot@@YAXXZ
	DD	040007f03H
;	COMDAT __real@4059066666666666
.rdata	SEGMENT
__real@4059066666666666 DQ 04059066666666666r	; 100.1
; Function compile flags: /Odtu

	.code
ped$88079 = 80						; size = 4
pos$88080 = 88						; size = 12

?TheSaiyanProject_Aimbot@@YAXXZ	PROC NEAR		; TheSaiyanProject_Aimbot, COMDAT

; Begin code for function: ?TheSaiyanProject_Aimbot@@YAXXZ
; Line 212
	mflr         r12
	stw          r12,-8(r1)
	stwu         r1,-70h(r1)
.endprolog
$M94441:
$LN10@TheSaiyanP:
; Line 215
	lis          r11,?bPlayingGTAV@@3_NA
	lbz          r10,?bPlayingGTAV@@3_NA(r11)
	cmpwi        cr6,r10,0
	beq          cr6,$LN8@TheSaiyanP
; Line 217
	lis          r9,?Aimbot_Toggle@@3_NA
	lbz          r8,?Aimbot_Toggle@@3_NA(r9)
	cmpwi        cr6,r8,0
	beq          cr6,$LN8@TheSaiyanP
; Line 219
	lis          r7,?Aimbot_Client@@3KA
	lwz          r6,?Aimbot_Client@@3KA(r7)
	lis          r5,?_Player@@3KA
	lwz          r4,?_Player@@3KA(r5)
	cmplw        cr6,r6,r4
	beq          cr6,$LN6@TheSaiyanP
; Line 221
	lis          r3,?Aimbot_Client@@3KA
	lwz          r3,?Aimbot_Client@@3KA(r3)
	bl           ?GET_PLAYER_PED@@YAKK@Z
	stw          r3,ped$88079(r1)		; 80 (50h)
; Line 222
	li           r5,1
	lwz          r4,ped$88079(r1)		; 80 (50h)
	addi         r3,r1,pos$88080
	bl           ?GET_ENTITY_COORDS@@YA?AU_Vector3@@K_N@Z
; Line 223
	ld           r4,pos$88080(r1)
	lwz          r11,pos$88080+8(r1)		; 96 (60h)
	rldicr       r5,r11,32,31
	lis          r10,?_Position@@3U_Vector3@@A
	addi         r3,r10,?_Position@@3U_Vector3@@A
	bl           ?Distance@_Vector3@@QAAMU1@@Z
	lis          r9,__real@4059066666666666
	lfd          fr0,__real@4059066666666666(r9)
	fcmpu        cr6,fr1,fr0
	bge          cr6,$LN6@TheSaiyanP
	li           r4,198		; 0C6h
	li           r3,2
	bl           ?IS_CONTROL_PRESSED@@YA_NKK@Z
	clrlwi       r8,r3,24
	cmpwi        cr6,r8,0
	beq          cr6,$LN6@TheSaiyanP
	lis          r7,?_Ped@@3KA
	lwz          r3,?_Ped@@3KA(r7)
	bl           ?IS_PED_ON_FOOT@@YA_NK@Z
	clrlwi       r6,r3,24
	cmpwi        cr6,r6,0
	beq          cr6,$LN6@TheSaiyanP
	li           r5,17		; 11h
	lwz          r4,ped$88079(r1)		; 80 (50h)
	lis          r3,?_Ped@@3KA
	lwz          r3,?_Ped@@3KA(r3)
	bl           ?HAS_ENTITY_CLEAR_LOS_TO_ENTITY@@YA_NKKK@Z
	clrlwi       r11,r3,24
	cmpwi        cr6,r11,0
	beq          cr6,$LN6@TheSaiyanP
	lis          r10,?Aimbot_ArrestHit@@3_NA
	lbz          r9,?Aimbot_ArrestHit@@3_NA(r10)
	cmpwi        cr6,r9,0
	bne          cr6,$LN6@TheSaiyanP
	lwz          r3,ped$88079(r1)		; 80 (50h)
	bl           ?IS_ENTITY_DEAD@@YA_NK@Z
	clrlwi       r8,r3,24
	cmpwi        cr6,r8,0
	bne          cr6,$LN6@TheSaiyanP
; Line 225
	lis          r7,?Aimbot_HasAimedAtPlayer@@3_NA
	li           r6,1
	stb          r6,?Aimbot_HasAimedAtPlayer@@3_NA(r7)
; Line 226
	lwz          r5,ped$88079(r1)		; 80 (50h)
	lis          r4,?Aimbot_ArrestHandle@@3KA
	stw          r5,?Aimbot_ArrestHandle@@3KA(r4)
; Line 227
	lis          r3,?Aimbot_Arrest@@3_NA
	li           r11,1
	stb          r11,?Aimbot_Arrest@@3_NA(r3)
; Line 228
	lis          r10,?Aimbot_ArrestHit@@3_NA
	li           r9,1
	stb          r9,?Aimbot_ArrestHit@@3_NA(r10)
$LN6@TheSaiyanP:
; Line 231
	li           r4,198		; 0C6h
	li           r3,2
	bl           ?IS_CONTROL_JUST_RELEASED@@YA_NKK@Z
	clrlwi       r8,r3,24
	cmpwi        cr6,r8,0
	beq          cr6,$LN4@TheSaiyanP
; Line 233
	lis          r7,?Aimbot_HasAimedAtPlayer@@3_NA
	lbz          r6,?Aimbot_HasAimedAtPlayer@@3_NA(r7)
	cmpwi        cr6,r6,0
	beq          cr6,$LN4@TheSaiyanP
; Line 235
	lis          r5,?_Ped@@3KA
	lwz          r3,?_Ped@@3KA(r5)
	bl           ?CLEAR_PED_TASKS@@YAXK@Z
; Line 236
	lis          r4,?Aimbot_HasAimed@@3_NA
	li           r3,1
	stb          r3,?Aimbot_HasAimed@@3_NA(r4)
; Line 237
	lis          r11,?Aimbot_HasAimedAtPlayer@@3_NA
	li           r10,0
	stb          r10,?Aimbot_HasAimedAtPlayer@@3_NA(r11)
; Line 238
	lis          r9,?Aimbot_ArrestHit@@3_NA
	li           r8,0
	stb          r8,?Aimbot_ArrestHit@@3_NA(r9)
$LN4@TheSaiyanP:
; Line 241
	lis          r7,?Aimbot_Arrest@@3_NA
	lbz          r6,?Aimbot_Arrest@@3_NA(r7)
	cmpwi        cr6,r6,0
	beq          cr6,$LN2@TheSaiyanP
; Line 243
	lis          r5,?Aimbot_ArrestHit@@3_NA
	lbz          r4,?Aimbot_ArrestHit@@3_NA(r5)
	lis          r3,?_Ped@@3KA
	lwz          r3,?_Ped@@3KA(r3)
	bl           ?TASK_ARREST_PED@@YAXKK@Z
; Line 244
	lis          r11,?Aimbot_Arrest@@3_NA
	li           r10,0
	stb          r10,?Aimbot_Arrest@@3_NA(r11)
$LN2@TheSaiyanP:
; Line 246
	lis          r9,?Aimbot_Client@@3KA
	lwz          r8,?Aimbot_Client@@3KA(r9)
	addi         r7,r8,1
	lis          r6,?Aimbot_Client@@3KA
	stw          r7,?Aimbot_Client@@3KA(r6)
; Line 247
	lis          r5,?Aimbot_Client@@3KA
	lwz          r4,?Aimbot_Client@@3KA(r5)
	cmplwi       cr6,r4,15		; 0Fh
	ble          cr6,$LN8@TheSaiyanP
; Line 248
	lis          r3,?Aimbot_Client@@3KA
	li           r11,0
	stw          r11,?Aimbot_Client@@3KA(r3)
$LN8@TheSaiyanP:
; Line 251
	b            $LN10@TheSaiyanP
; Line 252
	addi         r1,r1,112		; 70h
	lwz          r12,-8(r1)
	mtlr         r12
	blr
$M94442:
; End code for function: ?TheSaiyanProject_Aimbot@@YAXXZ
?TheSaiyanProject_Aimbot@@YAXXZ ENDP
							; TheSaiyanProject_Aimbot
PUBLIC	?sqrt@@YAMM@Z					; sqrt
PUBLIC	?DistanceEx@_Vector3@@QAAMU1@@Z			; _Vector3::DistanceEx
;	COMDAT .pdata
; File c:\users\s7clutch\documents\visual studio 2010\projects\the saiyan project\src\globals.h
.pdata	SEGMENT
$T94449	DD	?Distance@_Vector3@@QAAMU1@@Z
	DD	040001003H
; Function compile flags: /Odtu

	.code

?Distance@_Vector3@@QAAMU1@@Z PROC NEAR			; _Vector3::Distance, COMDAT

; Begin code for function: ?Distance@_Vector3@@QAAMU1@@Z
; Line 1961
	mflr         r12
	stw          r12,-8(r1)
	stwu         r1,-60h(r1)
.endprolog
$M94447:
	stw          r3,this$(r1)		; 116 (74h)
	std          r4,Vector$(r1)
	std          r5,Vector$+8(r1)
; Line 1962
	ld           r4,Vector$(r1)
	lwz          r11,Vector$+8(r1)		; 136 (88h)
	rldicr       r5,r11,32,31
	lwz          r3,this$(r1)		; 116 (74h)
	bl           ?DistanceEx@_Vector3@@QAAMU1@@Z
	bl           ?sqrt@@YAMM@Z
; Line 1963
	addi         r1,r1,96		; 60h
	lwz          r12,-8(r1)
	mtlr         r12
	blr
$M94448:
; End code for function: ?Distance@_Vector3@@QAAMU1@@Z
?Distance@_Vector3@@QAAMU1@@Z ENDP
							; _Vector3::Distance
PUBLIC	sqrtf
;	COMDAT .pdata
; File c:\program files (x86)\microsoft xbox 360 sdk\include\xbox\math.h
.pdata	SEGMENT
$T94455	DD	?sqrt@@YAMM@Z
	DD	040000a03H
; Function compile flags: /Odtu

	.code

?sqrt@@YAMM@Z PROC NEAR					; sqrt, COMDAT

; Begin code for function: ?sqrt@@YAMM@Z
; Line 434
	mflr         r12
	stw          r12,-8(r1)
	stwu         r1,-60h(r1)
.endprolog
$M94453:
	stfs         fr1,_X$(r1)		; 116 (74h)
	lfs          fr1,_X$(r1)		; 116 (74h)
	bl           sqrtf
	addi         r1,r1,96		; 60h
	lwz          r12,-8(r1)
	mtlr         r12
	blr
$M94454:
; End code for function: ?sqrt@@YAMM@Z
?sqrt@@YAMM@Z ENDP
							; sqrt
; Function compile flags: /Odtu

	.code

sqrtf PROC NEAR						; COMDAT

; Begin code for function: sqrtf
; Line 330
	stfs         fr1,_X$(r1)		; 20 (14h)
	lfs          fr0,_X$(r1)		; 20 (14h)
	fsqrts       fr1,fr0
	blr
; End code for function: sqrtf
sqrtf	ENDP

; Function compile flags: /Odtu

	.code
_x$ = -16						; size = 4
_z$ = -12						; size = 4
_y$ = -8						; size = 4

?DistanceEx@_Vector3@@QAAMU1@@Z	PROC NEAR		; _Vector3::DistanceEx, COMDAT

; Begin code for function: ?DistanceEx@_Vector3@@QAAMU1@@Z
; File c:\users\s7clutch\documents\visual studio 2010\projects\the saiyan project\src\globals.h
; Line 1965
	stw          r3,this$(r1)		; 20 (14h)
	std          r4,Vector$(r1)
	std          r5,Vector$+8(r1)
; Line 1966
	lwz          r11,this$(r1)		; 20 (14h)
	lfs          fr0,0(r11)
	lfs          fr13,Vector$(r1)		; 32 (20h)
	fsubs        fr12,fr0,fr13
	stfs         fr12,_x$(r1)		; 4294967280 (0FFFFFFF0h)
	lwz          r10,this$(r1)		; 20 (14h)
	lfs          fr11,4(r10)
	lfs          fr10,Vector$+4(r1)		; 36 (24h)
	fsubs        fr9,fr11,fr10
	stfs         fr9,_y$(r1)		; 4294967288 (0FFFFFFF8h)
	lwz          r9,this$(r1)		; 20 (14h)
	lfs          fr8,8(r9)
	lfs          fr7,Vector$+8(r1)		; 40 (28h)
	fsubs        fr6,fr8,fr7
	stfs         fr6,_z$(r1)		; 4294967284 (0FFFFFFF4h)
; Line 1967
	lfs          fr5,_x$(r1)		; 4294967280 (0FFFFFFF0h)
	lfs          fr4,_x$(r1)		; 4294967280 (0FFFFFFF0h)
	fmuls        fr3,fr5,fr4
	lfs          fr2,_y$(r1)		; 4294967288 (0FFFFFFF8h)
	lfs          fr1,_y$(r1)		; 4294967288 (0FFFFFFF8h)
	fmuls        fr0,fr2,fr1
	fadds        fr13,fr3,fr0
	lfs          fr12,_z$(r1)		; 4294967284 (0FFFFFFF4h)
	lfs          fr11,_z$(r1)		; 4294967284 (0FFFFFFF4h)
	fmuls        fr10,fr12,fr11
	fadds        fr1,fr13,fr10
; Line 1968
	blr
; End code for function: ?DistanceEx@_Vector3@@QAAMU1@@Z
?DistanceEx@_Vector3@@QAAMU1@@Z ENDP
							; _Vector3::DistanceEx
PUBLIC	??_C@_1FM@OMCDKJFP@T?$AAh?$AAe?$AA?5?$AAS?$AAa?$AAi?$AAy?$AAa?$AAn?$AA?5?$AAP?$AAr?$AAo?$AAj?$AAe?$AAc?$AAt?$AA?5?$AA?9?$AA?5?$AAC?$AAl?$AAe?$AAa?$AAr?$AAe?$AAd?$AA?5?$AAa?$AA?5?$AAp?$AA@ ; `string'
PUBLIC	?TheSaiyanProject_AntiReport@@YAXXZ		; TheSaiyanProject_AntiReport
EXTRN	?XNotify@@YAXPA_W@Z:PROC			; XNotify
EXTRN	?STAT_SET_BOOL@@YAXK_N0@Z:PROC			; STAT_SET_BOOL
EXTRN	?STAT_GET_BOOL@@YA_NKK@Z:PROC			; STAT_GET_BOOL
EXTRN	?STAT_SET_INT@@YAXKK_N@Z:PROC			; STAT_SET_INT
EXTRN	?STAT_GET_INT@@YAKKK@Z:PROC			; STAT_GET_INT
EXTRN	Sleep:PROC
;	COMDAT .pdata
; File c:\users\s7clutch\documents\visual studio 2010\projects\the saiyan project\src\dllmain.cpp
.pdata	SEGMENT
$T94465	DD	?TheSaiyanProject_AntiReport@@YAXXZ
	DD	04000a503H
;	COMDAT ??_C@_1FM@OMCDKJFP@T?$AAh?$AAe?$AA?5?$AAS?$AAa?$AAi?$AAy?$AAa?$AAn?$AA?5?$AAP?$AAr?$AAo?$AAj?$AAe?$AAc?$AAt?$AA?5?$AA?9?$AA?5?$AAC?$AAl?$AAe?$AAa?$AAr?$AAe?$AAd?$AA?5?$AAa?$AA?5?$AAp?$AA@
.rdata	SEGMENT
??_C@_1FM@OMCDKJFP@T?$AAh?$AAe?$AA?5?$AAS?$AAa?$AAi?$AAy?$AAa?$AAn?$AA?5?$AAP?$AAr?$AAo?$AAj?$AAe?$AAc?$AAt?$AA?5?$AA?9?$AA?5?$AAC?$AAl?$AAe?$AAa?$AAr?$AAe?$AAd?$AA?5?$AAa?$AA?5?$AAp?$AA@ DB 00H
	DB	'T', 00H, 'h', 00H, 'e', 00H, ' ', 00H, 'S', 00H, 'a', 00H, 'i'
	DB	00H, 'y', 00H, 'a', 00H, 'n', 00H, ' ', 00H, 'P', 00H, 'r', 00H
	DB	'o', 00H, 'j', 00H, 'e', 00H, 'c', 00H, 't', 00H, ' ', 00H, '-'
	DB	00H, ' ', 00H, 'C', 00H, 'l', 00H, 'e', 00H, 'a', 00H, 'r', 00H
	DB	'e', 00H, 'd', 00H, ' ', 00H, 'a', 00H, ' ', 00H, 'p', 00H, 'l'
	DB	00H, 'a', 00H, 'y', 00H, 'e', 00H, 'r', 00H, ' ', 00H, 'r', 00H
	DB	'e', 00H, 'p', 00H, 'o', 00H, 'r', 00H, 't', 00H, '!', 00H, 00H ; `string'
; Function compile flags: /Odtu

	.code
cleared$ = 80						; size = 1
stats_int$88094 = 96					; size = 104
stats_bool$88100 = 200					; size = 8
i$88095 = 208						; size = 4
i$88101 = 212						; size = 4

?TheSaiyanProject_AntiReport@@YAXXZ PROC NEAR		; TheSaiyanProject_AntiReport, COMDAT

; Begin code for function: ?TheSaiyanProject_AntiReport@@YAXXZ
; Line 254
	mflr         r12
	stw          r12,-8(r1)
	stwu         r1,-0E0h(r1)
.endprolog
$M94463:
; Line 255
	li           r11,0
	stb          r11,cleared$(r1)		; 80 (50h)
$LN12@TheSaiyanP@2:
; Line 258
	lis          r10,?bPlayingGTAV@@3_NA
	lbz          r9,?bPlayingGTAV@@3_NA(r10)
	cmpwi        cr6,r9,0
	beq          cr6,$LN10@TheSaiyanP@2
; Line 260
	li           r3,20000		; 4E20h
	bl           Sleep
; Line 262
	lis          r8,-18538		; 0B796h
	ori          r7,r8,13592		; 3518h
	stw          r7,stats_int$88094(r1)		; 96 (60h)
	lis          r6,26644		; 6814h
	ori          r5,r6,56654		; 0DD4Eh
	stw          r5,stats_int$88094+4(r1)		; 100 (64h)
	lis          r4,21629		; 547Dh
	ori          r3,r4,53811		; 0D233h
	stw          r3,stats_int$88094+8(r1)		; 104 (68h)
	lis          r11,-17535		; 0BB81h
	ori          r10,r11,26365		; 66FDh
	stw          r10,stats_int$88094+0Ch(r1)		; 108 (6Ch)
	lis          r9,-14317		; 0C813h
	ori          r8,r9,13190		; 3386h
	stw          r8,stats_int$88094+10h(r1)		; 112 (70h)
	lis          r7,-10345		; 0D797h
	ori          r6,r7,26259		; 6693h
	stw          r6,stats_int$88094+14h(r1)		; 116 (74h)
	lis          r5,-21452		; 0AC34h
	ori          r4,r5,15448		; 3C58h
	stw          r4,stats_int$88094+18h(r1)		; 120 (78h)
	lis          r3,-6713		; 0E5C7h
	ori          r11,r3,65102		; 0FE4Eh
	stw          r11,stats_int$88094+1Ch(r1)		; 124 (7Ch)
	lis          r10,-2208		; 0F760h
	ori          r9,r10,42433		; 0A5C1h
	stw          r9,stats_int$88094+20h(r1)		; 128 (80h)
	lis          r8,-1322		; 0FAD6h
	ori          r7,r8,61156		; 0EEE4h
	stw          r7,stats_int$88094+24h(r1)		; 132 (84h)
	lis          r6,9429		; 24D5h
	ori          r5,r6,57603		; 0E103h
	stw          r5,stats_int$88094+28h(r1)		; 136 (88h)
	lis          r4,-31379		; 856Dh
	ori          r3,r4,33760		; 83E0h
	stw          r3,stats_int$88094+2Ch(r1)		; 140 (8Ch)
	lis          r11,31607		; 7B77h
	ori          r10,r11,53943		; 0D2B7h
	stw          r10,stats_int$88094+30h(r1)		; 144 (90h)
	lis          r9,-4488		; 0EE78h
	ori          r8,r9,2460		; 99Ch
	stw          r8,stats_int$88094+34h(r1)		; 148 (94h)
	lis          r7,29600		; 73A0h
	ori          r6,r7,36577		; 8EE1h
	stw          r6,stats_int$88094+38h(r1)		; 152 (98h)
	lis          r5,-12551		; 0CEF9h
	ori          r4,r5,21434		; 53BAh
	stw          r4,stats_int$88094+3Ch(r1)		; 156 (9Ch)
	lis          r3,29305		; 7279h
	ori          r11,r3,40596		; 9E94h
	stw          r11,stats_int$88094+40h(r1)		; 160 (0A0h)
	lis          r10,-12788		; 0CE0Ch
	ori          r9,r10,15601		; 3CF1h
	stw          r9,stats_int$88094+44h(r1)		; 164 (0A4h)
	lis          r8,-31402		; 8556h
	ori          r7,r8,45737		; 0B2A9h
	stw          r7,stats_int$88094+48h(r1)		; 168 (0A8h)
	lis          r6,-24526		; 0A032h
	ori          r5,r6,27503		; 6B6Fh
	stw          r5,stats_int$88094+4Ch(r1)		; 172 (0ACh)
	lis          r4,-14599		; 0C6F9h
	ori          r3,r4,56715		; 0DD8Bh
	stw          r3,stats_int$88094+50h(r1)		; 176 (0B0h)
	lis          r11,7744		; 1E40h
	ori          r10,r11,2797		; 0AEDh
	stw          r10,stats_int$88094+54h(r1)		; 180 (0B4h)
	lis          r9,-25064		; 9E18h
	ori          r8,r9,33143		; 8177h
	stw          r8,stats_int$88094+58h(r1)		; 184 (0B8h)
	lis          r7,-22130		; 0A98Eh
	ori          r6,r7,37743		; 936Fh
	stw          r6,stats_int$88094+5Ch(r1)		; 188 (0BCh)
	lis          r5,21031		; 5227h
	ori          r4,r5,24654		; 604Eh
	stw          r4,stats_int$88094+60h(r1)		; 192 (0C0h)
	lis          r3,1404		; 57Ch
	ori          r11,r3,40637		; 9EBDh
	stw          r11,stats_int$88094+64h(r1)		; 196 (0C4h)
; Line 263
	li           r10,0
	stw          r10,i$88095(r1)		; 208 (0D0h)
	b            $LN9@TheSaiyanP@2
$LN8@TheSaiyanP@2:
	lwz          r9,i$88095(r1)		; 208 (0D0h)
	addi         r8,r9,1
	stw          r8,i$88095(r1)		; 208 (0D0h)
$LN9@TheSaiyanP@2:
	lwz          r7,i$88095(r1)		; 208 (0D0h)
	cmplwi       cr6,r7,26		; 1Ah
	bge          cr6,$LN7@TheSaiyanP@2
; Line 265
	li           r4,-1		; 0FFFFh
	lwz          r6,i$88095(r1)		; 208 (0D0h)
	slwi         r5,r6,2
	addi         r3,r1,stats_int$88094
	lwzx         r3,r3,r5
	bl           ?STAT_GET_INT@@YAKKK@Z
	cmplwi       cr6,r3,0
	beq          cr6,$LN6@TheSaiyanP@2
; Line 267
	li           r5,1
	li           r4,0
	lwz          r11,i$88095(r1)		; 208 (0D0h)
	slwi         r10,r11,2
	addi         r9,r1,stats_int$88094
	lwzx         r3,r9,r10
	bl           ?STAT_SET_INT@@YAXKK_N@Z
; Line 268
	li           r8,1
	stb          r8,cleared$(r1)		; 80 (50h)
$LN6@TheSaiyanP@2:
; Line 270
	b            $LN8@TheSaiyanP@2
$LN7@TheSaiyanP@2:
; Line 272
	lis          r7,18682		; 48FAh
	ori          r6,r7,50350		; 0C4AEh
	stw          r6,stats_bool$88100(r1)		; 200 (0C8h)
	lis          r5,-25067		; 9E15h
	ori          r4,r5,42722		; 0A6E2h
	stw          r4,stats_bool$88100+4(r1)		; 204 (0CCh)
; Line 273
	li           r3,0
	stw          r3,i$88101(r1)		; 212 (0D4h)
	b            $LN5@TheSaiyanP@2
$LN4@TheSaiyanP@2:
	lwz          r11,i$88101(r1)		; 212 (0D4h)
	addi         r10,r11,1
	stw          r10,i$88101(r1)		; 212 (0D4h)
$LN5@TheSaiyanP@2:
	lwz          r9,i$88101(r1)		; 212 (0D4h)
	cmplwi       cr6,r9,2
	bge          cr6,$LN3@TheSaiyanP@2
; Line 275
	li           r4,-1		; 0FFFFh
	lwz          r8,i$88101(r1)		; 212 (0D4h)
	slwi         r7,r8,2
	addi         r6,r1,stats_bool$88100
	lwzx         r3,r6,r7
	bl           ?STAT_GET_BOOL@@YA_NKK@Z
	clrlwi       r5,r3,24
	cmpwi        cr6,r5,0
	beq          cr6,$LN2@TheSaiyanP@2
; Line 277
	li           r5,1
	li           r4,0
	lwz          r3,i$88101(r1)		; 212 (0D4h)
	slwi         r11,r3,2
	addi         r10,r1,stats_bool$88100
	lwzx         r3,r10,r11
	bl           ?STAT_SET_BOOL@@YAXK_N0@Z
; Line 278
	li           r9,1
	stb          r9,cleared$(r1)		; 80 (50h)
$LN2@TheSaiyanP@2:
; Line 280
	b            $LN4@TheSaiyanP@2
$LN3@TheSaiyanP@2:
; Line 282
	lbz          r8,cleared$(r1)		; 80 (50h)
	cmpwi        cr6,r8,0
	beq          cr6,$LN1@TheSaiyanP@2
; Line 283
	lis          r7,??_C@_1FM@OMCDKJFP@T?$AAh?$AAe?$AA?5?$AAS?$AAa?$AAi?$AAy?$AAa?$AAn?$AA?5?$AAP?$AAr?$AAo?$AAj?$AAe?$AAc?$AAt?$AA?5?$AA?9?$AA?5?$AAC?$AAl?$AAe?$AAa?$AAr?$AAe?$AAd?$AA?5?$AAa?$AA?5?$AAp?$AA@
	addi         r3,r7,??_C@_1FM@OMCDKJFP@T?$AAh?$AAe?$AA?5?$AAS?$AAa?$AAi?$AAy?$AAa?$AAn?$AA?5?$AAP?$AAr?$AAo?$AAj?$AAe?$AAc?$AAt?$AA?5?$AA?9?$AA?5?$AAC?$AAl?$AAe?$AAa?$AAr?$AAe?$AAd?$AA?5?$AAa?$AA?5?$AAp?$AA@
	bl           ?XNotify@@YAXPA_W@Z
$LN1@TheSaiyanP@2:
; Line 284
	li           r6,0
	stb          r6,cleared$(r1)		; 80 (50h)
; Line 286
	li           r3,20000		; 4E20h
	bl           Sleep
$LN10@TheSaiyanP@2:
; Line 288
	b            $LN12@TheSaiyanP@2
; Line 289
	addi         r1,r1,224		; 0E0h
	lwz          r12,-8(r1)
	mtlr         r12
	blr
$M94464:
; End code for function: ?TheSaiyanProject_AntiReport@@YAXXZ
?TheSaiyanProject_AntiReport@@YAXXZ ENDP
							; TheSaiyanProject_AntiReport
PUBLIC	__real@43960000
PUBLIC	?DistanceTo@_Vector3@@QAAMU1@@Z			; _Vector3::DistanceTo
PUBLIC	?TheSaiyanProject_CashLobby@@YAXXZ		; TheSaiyanProject_CashLobby
EXTRN	?_DROP_CASH@@YAXU_Vector3@@K@Z:PROC		; _DROP_CASH
;	COMDAT .pdata
.pdata	SEGMENT
$T94473	DD	?TheSaiyanProject_CashLobby@@YAXXZ
	DD	040003903H
;	COMDAT __real@43960000
.rdata	SEGMENT
__real@43960000 DD 043960000r			; 300
; Function compile flags: /Odtu

	.code
i$88114 = 80						; size = 4
pos$88119 = 88						; size = 12

?TheSaiyanProject_CashLobby@@YAXXZ PROC NEAR		; TheSaiyanProject_CashLobby, COMDAT

; Begin code for function: ?TheSaiyanProject_CashLobby@@YAXXZ
; Line 291
	mflr         r12
	stw          r12,-8(r1)
	stwu         r1,-70h(r1)
.endprolog
$M94471:
$LN9@TheSaiyanP@3:
; Line 294
	lis          r11,?bPlayingGTAV@@3_NA
	lbz          r10,?bPlayingGTAV@@3_NA(r11)
	cmpwi        cr6,r10,0
	beq          cr6,$LN7@TheSaiyanP@3
; Line 296
	li           r9,0
	stw          r9,i$88114(r1)		; 80 (50h)
	b            $LN6@TheSaiyanP@3
$LN5@TheSaiyanP@3:
	lwz          r8,i$88114(r1)		; 80 (50h)
	addi         r7,r8,1
	stw          r7,i$88114(r1)		; 80 (50h)
$LN6@TheSaiyanP@3:
	lwz          r6,i$88114(r1)		; 80 (50h)
	cmpwi        cr6,r6,16		; 10h
	bge          cr6,$LN7@TheSaiyanP@3
; Line 298
	lis          r5,?CashLobby_Toggle@@3PA_NA
	addi         r4,r5,?CashLobby_Toggle@@3PA_NA
	lwz          r3,i$88114(r1)		; 80 (50h)
	lbzx         r11,r4,r3
	cmpwi        cr6,r11,0
	beq          cr6,$LN3@TheSaiyanP@3
; Line 300
	lwz          r3,i$88114(r1)		; 80 (50h)
	bl           ?GET_PLAYER_PED@@YAKK@Z
	mr           r4,r3
	addi         r3,r1,pos$88119
	li           r5,1
	bl           ?GET_ENTITY_COORDS@@YA?AU_Vector3@@K_N@Z
; Line 301
	lis          r10,?_Position@@3U_Vector3@@A
	addi         r9,r10,?_Position@@3U_Vector3@@A
	ld           r4,0(r9)
	lwz          r8,8(r9)
	rldicr       r5,r8,32,31
	addi         r3,r1,pos$88119
	bl           ?DistanceTo@_Vector3@@QAAMU1@@Z
	lis          r7,__real@43960000
	lfs          fr0,__real@43960000(r7)
	fcmpu        cr6,fr1,fr0
	bge          cr6,$LN2@TheSaiyanP@3
; Line 302
	lis          r6,?CashLobby_Amount@@3KA
	lwz          r5,?CashLobby_Amount@@3KA(r6)
	ld           r3,pos$88119(r1)
	lwz          r4,pos$88119+8(r1)		; 96 (60h)
	rldicr       r4,r4,32,31
	bl           ?_DROP_CASH@@YAXU_Vector3@@K@Z
; Line 303
	b            $LN3@TheSaiyanP@3
$LN2@TheSaiyanP@3:
; Line 304
	lis          r3,?CashLobby_Toggle@@3PA_NA
	addi         r11,r3,?CashLobby_Toggle@@3PA_NA
	lwz          r10,i$88114(r1)		; 80 (50h)
	li           r9,0
	stbx         r9,r11,r10
$LN3@TheSaiyanP@3:
; Line 306
	b            $LN5@TheSaiyanP@3
$LN7@TheSaiyanP@3:
; Line 308
	b            $LN9@TheSaiyanP@3
; Line 309
	addi         r1,r1,112		; 70h
	lwz          r12,-8(r1)
	mtlr         r12
	blr
$M94472:
; End code for function: ?TheSaiyanProject_CashLobby@@YAXXZ
?TheSaiyanProject_CashLobby@@YAXXZ ENDP
							; TheSaiyanProject_CashLobby
PUBLIC	?Distance@_Vector3@@QAAMXZ			; _Vector3::Distance
PUBLIC	??G_Vector3@@QAA?AU0@U0@@Z			; _Vector3::operator-
PUBLIC	??0_Vector3@@QAA@MMM@Z				; _Vector3::_Vector3
;	COMDAT .pdata
; File c:\users\s7clutch\documents\visual studio 2010\projects\the saiyan project\src\globals.h
.pdata	SEGMENT
$T94480	DD	?DistanceTo@_Vector3@@QAAMU1@@Z
	DD	040002304H
; Function compile flags: /Odtu

	.code
ret$ = 80						; size = 12
$T94477 = 96						; size = 12
tv86 = 112						; size = 12

?DistanceTo@_Vector3@@QAAMU1@@Z	PROC NEAR		; _Vector3::DistanceTo, COMDAT

; Begin code for function: ?DistanceTo@_Vector3@@QAAMU1@@Z
; Line 1970
	mflr         r12
	stw          r12,-8(r1)
	std          r31,-10h(r1)
	stwu         r1,-90h(r1)
.endprolog
$M94478:
	stw          r3,this$(r1)		; 164 (0A4h)
	std          r4,Vector$(r1)
	std          r5,Vector$+8(r1)
; Line 1971
	lwz          r11,Vector$(r1)		; 176 (0B0h)
	stw          r11,70h(r1)
	lwz          r10,Vector$+4(r1)		; 180 (0B4h)
	stw          r10,74h(r1)
	lwz          r9,Vector$+8(r1)		; 184 (0B8h)
	stw          r9,78h(r1)
	addi         r31,r1,ret$
	lwz          r8,this$(r1)		; 164 (0A4h)
	lfs          fr3,8(r8)
	lwz          r7,this$(r1)		; 164 (0A4h)
	lfs          fr2,4(r7)
	lwz          r6,this$(r1)		; 164 (0A4h)
	lfs          fr1,0(r6)
	addi         r3,r1,$T94477
	bl           ??0_Vector3@@QAA@MMM@Z
	mr           r4,r3
	mr           r3,r31
	ld           r5,70h(r1)
	lwz          r11,78h(r1)
	rldicr       r6,r11,32,31
	bl           ??G_Vector3@@QAA?AU0@U0@@Z
; Line 1972
	addi         r3,r1,ret$
	bl           ?Distance@_Vector3@@QAAMXZ
; Line 1973
	addi         r1,r1,144		; 90h
	lwz          r12,-8(r1)
	mtlr         r12
	ld           r31,-10h(r1)
	blr
$M94479:
; End code for function: ?DistanceTo@_Vector3@@QAAMU1@@Z
?DistanceTo@_Vector3@@QAAMU1@@Z ENDP
							; _Vector3::DistanceTo
; Function compile flags: /Odtu

	.code

??0_Vector3@@QAA@MMM@Z PROC NEAR				; _Vector3::_Vector3, COMDAT

; Begin code for function: ??0_Vector3@@QAA@MMM@Z
; Line 1920
	stw          r3,this$(r1)		; 20 (14h)
	stfs         fr1,x$(r1)		; 28 (1Ch)
	stfs         fr2,y$(r1)		; 36 (24h)
	stfs         fr3,z$(r1)		; 44 (2Ch)
; Line 1922
	lfs          fr0,x$(r1)		; 28 (1Ch)
	lwz          r11,this$(r1)		; 20 (14h)
	stfs         fr0,0(r11)
	lwz          r10,this$(r1)		; 20 (14h)
	lfs          fr13,y$(r1)		; 36 (24h)
	stfs         fr13,4(r10)
	lwz          r9,this$(r1)		; 20 (14h)
	lfs          fr12,z$(r1)		; 44 (2Ch)
	stfs         fr12,8(r9)
; Line 1923
	lwz          r3,this$(r1)		; 20 (14h)
	blr
; End code for function: ??0_Vector3@@QAA@MMM@Z
??0_Vector3@@QAA@MMM@Z ENDP
							; _Vector3::_Vector3
;	COMDAT .pdata
.pdata	SEGMENT
$T94488	DD	??G_Vector3@@QAA?AU0@U0@@Z
	DD	040001a03H
; Function compile flags: /Odtu

	.code

??G_Vector3@@QAA?AU0@U0@@Z PROC NEAR			; _Vector3::operator-, COMDAT

; Begin code for function: ??G_Vector3@@QAA?AU0@U0@@Z
; Line 1943
	mflr         r12
	stw          r12,-8(r1)
	stwu         r1,-60h(r1)
.endprolog
$M94486:
	stw          r3,__$ReturnUdt$(r1)		; 116 (74h)
	stw          r4,this$(r1)		; 124 (7Ch)
	std          r5,Vector$(r1)
	std          r6,Vector$+8(r1)
; Line 1944
	lwz          r11,this$(r1)		; 124 (7Ch)
	lfs          fr0,8(r11)
	lfs          fr13,Vector$+8(r1)		; 136 (88h)
	fsubs        fr3,fr0,fr13
	lwz          r10,this$(r1)		; 124 (7Ch)
	lfs          fr12,4(r10)
	lfs          fr11,Vector$+4(r1)		; 132 (84h)
	fsubs        fr2,fr12,fr11
	lwz          r9,this$(r1)		; 124 (7Ch)
	lfs          fr10,0(r9)
	lfs          fr9,Vector$(r1)		; 128 (80h)
	fsubs        fr1,fr10,fr9
	lwz          r3,__$ReturnUdt$(r1)		; 116 (74h)
	bl           ??0_Vector3@@QAA@MMM@Z
	lwz          r3,__$ReturnUdt$(r1)		; 116 (74h)
; Line 1945
	addi         r1,r1,96		; 60h
	lwz          r12,-8(r1)
	mtlr         r12
	blr
$M94487:
; End code for function: ??G_Vector3@@QAA?AU0@U0@@Z
??G_Vector3@@QAA?AU0@U0@@Z ENDP
							; _Vector3::operator-
;	COMDAT .pdata
.pdata	SEGMENT
$T94495	DD	?Distance@_Vector3@@QAAMXZ
	DD	040001603H
; Function compile flags: /Odtu

	.code
$T94492 = 80						; size = 12

?Distance@_Vector3@@QAAMXZ PROC NEAR			; _Vector3::Distance, COMDAT

; Begin code for function: ?Distance@_Vector3@@QAAMXZ
; Line 1957
	mflr         r12
	stw          r12,-8(r1)
	stwu         r1,-70h(r1)
.endprolog
$M94493:
	stw          r3,this$(r1)		; 132 (84h)
; Line 1958
	lwz          r11,this$(r1)		; 132 (84h)
	lfs          fr3,8(r11)
	lwz          r10,this$(r1)		; 132 (84h)
	lfs          fr2,4(r10)
	lwz          r9,this$(r1)		; 132 (84h)
	lfs          fr1,0(r9)
	addi         r3,r1,$T94492
	bl           ??0_Vector3@@QAA@MMM@Z
	ld           r4,0(r3)
	lwz          r8,8(r3)
	rldicr       r5,r8,32,31
	lwz          r3,this$(r1)		; 132 (84h)
	bl           ?DistanceEx@_Vector3@@QAAMU1@@Z
	bl           ?sqrt@@YAMM@Z
; Line 1959
	addi         r1,r1,112		; 70h
	lwz          r12,-8(r1)
	mtlr         r12
	blr
$M94494:
; End code for function: ?Distance@_Vector3@@QAAMXZ
?Distance@_Vector3@@QAAMXZ ENDP
							; _Vector3::Distance
PUBLIC	?TheSaiyanProject_Forge@@YAXXZ			; TheSaiyanProject_Forge
EXTRN	?GET_ENTITY_ROTATION@@YA?AU_Vector3@@KK@Z:PROC	; GET_ENTITY_ROTATION
EXTRN	?GET_ENTITY_MODEL@@YAKK@Z:PROC			; GET_ENTITY_MODEL
EXTRN	?GET_AIMED_ENTITY@@YAKK@Z:PROC			; GET_AIMED_ENTITY
;	COMDAT .pdata
; File c:\users\s7clutch\documents\visual studio 2010\projects\the saiyan project\src\dllmain.cpp
.pdata	SEGMENT
$T94503	DD	?TheSaiyanProject_Forge@@YAXXZ
	DD	040004103H
; Function compile flags: /Odtu

	.code
aimed$88130 = 80					; size = 4
$T94499 = 88						; size = 12
$T94500 = 104						; size = 12

?TheSaiyanProject_Forge@@YAXXZ PROC NEAR			; TheSaiyanProject_Forge, COMDAT

; Begin code for function: ?TheSaiyanProject_Forge@@YAXXZ
; Line 311
	mflr         r12
	stw          r12,-8(r1)
	stwu         r1,-80h(r1)
.endprolog
$M94501:
$LN7@TheSaiyanP@4:
; Line 314
	lis          r11,?bPlayingGTAV@@3_NA
	lbz          r10,?bPlayingGTAV@@3_NA(r11)
	cmpwi        cr6,r10,0
	beq          cr6,$LN5@TheSaiyanP@4
; Line 316
	lis          r9,?Forge_Toggle@@3_NA
	lbz          r8,?Forge_Toggle@@3_NA(r9)
	cmpwi        cr6,r8,0
	beq          cr6,$LN4@TheSaiyanP@4
; Line 318
	lis          r7,?_Player@@3KA
	lwz          r3,?_Player@@3KA(r7)
	bl           ?GET_AIMED_ENTITY@@YAKK@Z
	stw          r3,aimed$88130(r1)		; 80 (50h)
; Line 319
	lwz          r6,aimed$88130(r1)		; 80 (50h)
	cmplwi       cr6,r6,0
	beq          cr6,$LN3@TheSaiyanP@4
; Line 320
	lwz          r5,aimed$88130(r1)		; 80 (50h)
	lis          r4,?Forge_Object@@3KA
	stw          r5,?Forge_Object@@3KA(r4)
$LN3@TheSaiyanP@4:
; Line 322
	lis          r3,?Forge_Object@@3KA
	lwz          r11,?Forge_Object@@3KA(r3)
	cmplwi       cr6,r11,0
	beq          cr6,$LN2@TheSaiyanP@4
; Line 324
	lis          r10,?Forge_Object@@3KA
	lwz          r3,?Forge_Object@@3KA(r10)
	bl           ?GET_ENTITY_MODEL@@YAKK@Z
	lis          r9,?Forge_ObjectHash@@3KA
	stw          r3,?Forge_ObjectHash@@3KA(r9)
; Line 325
	li           r5,1
	lis          r8,?Forge_Object@@3KA
	lwz          r4,?Forge_Object@@3KA(r8)
	addi         r3,r1,$T94499
	bl           ?GET_ENTITY_COORDS@@YA?AU_Vector3@@K_N@Z
	lis          r7,?Forge_ObjectPosition@@3U_Vector3@@A
	addi         r6,r7,?Forge_ObjectPosition@@3U_Vector3@@A
	lwz          r5,0(r3)
	stw          r5,0(r6)
	lwz          r4,4(r3)
	stw          r4,4(r6)
	lwz          r3,8(r3)
	stw          r3,8(r6)
; Line 326
	li           r5,2
	lis          r11,?Forge_Object@@3KA
	lwz          r4,?Forge_Object@@3KA(r11)
	addi         r3,r1,$T94500
	bl           ?GET_ENTITY_ROTATION@@YA?AU_Vector3@@KK@Z
	lis          r10,?Forge_ObjectRotation@@3U_Vector3@@A
	addi         r9,r10,?Forge_ObjectRotation@@3U_Vector3@@A
	lwz          r8,0(r3)
	stw          r8,0(r9)
	lwz          r7,4(r3)
	stw          r7,4(r9)
	lwz          r6,8(r3)
	stw          r6,8(r9)
$LN2@TheSaiyanP@4:
; Line 329
	b            $LN5@TheSaiyanP@4
$LN4@TheSaiyanP@4:
; Line 330
	lis          r5,?Forge_Object@@3KA
	li           r4,0
	stw          r4,?Forge_Object@@3KA(r5)
$LN5@TheSaiyanP@4:
; Line 332
	b            $LN7@TheSaiyanP@4
; Line 333
	addi         r1,r1,128		; 80h
	lwz          r12,-8(r1)
	mtlr         r12
	blr
$M94502:
; End code for function: ?TheSaiyanProject_Forge@@YAXXZ
?TheSaiyanProject_Forge@@YAXXZ ENDP
							; TheSaiyanProject_Forge
PUBLIC	__real@00000000
PUBLIC	__real@41800000
PUBLIC	__real@41f00000
PUBLIC	__real@41a00000
PUBLIC	?TheSaiyanProject_ParachuteEject@@YAXXZ		; TheSaiyanProject_ParachuteEject
EXTRN	?TASK_PARACHUTE_TO_TARGET@@YAXKMMM@Z:PROC	; TASK_PARACHUTE_TO_TARGET
EXTRN	?TASK_PARACHUTE@@YAXK_N@Z:PROC			; TASK_PARACHUTE
EXTRN	?_APPLY_RELATIVE_FORCE@@YAXKU_Vector3@@@Z:PROC	; _APPLY_RELATIVE_FORCE
EXTRN	?SET_PED_CAN_RAGDOLL@@YAXK_N@Z:PROC		; SET_PED_CAN_RAGDOLL
EXTRN	?SET_ENTITY_PROOFS@@YAXK_N0000000@Z:PROC	; SET_ENTITY_PROOFS
EXTRN	?_TELEPORT@@YAXMMM@Z:PROC			; _TELEPORT
EXTRN	?SET_VEHICLE_DOOR_OPEN@@YAXKK_N0@Z:PROC		; SET_VEHICLE_DOOR_OPEN
EXTRN	?GET_PED_IN_VEHICLE_SEAT@@YAKKK@Z:PROC		; GET_PED_IN_VEHICLE_SEAT
EXTRN	?CLEAR_PED_TASKS_IMMEDIATELY@@YAXK@Z:PROC	; CLEAR_PED_TASKS_IMMEDIATELY
EXTRN	?GET_ENTITY_SPEED@@YAMK@Z:PROC			; GET_ENTITY_SPEED
EXTRN	?IS_PED_GETTING_INTO_A_VEHICLE@@YA_NK@Z:PROC	; IS_PED_GETTING_INTO_A_VEHICLE
;	COMDAT .pdata
.pdata	SEGMENT
$T94519	DD	?TheSaiyanProject_ParachuteEject@@YAXXZ
	DD	040009403H
;	COMDAT __real@00000000
.rdata	SEGMENT
__real@00000000 DD 000000000r			; 0
;	COMDAT __real@41800000
.rdata	SEGMENT
__real@41800000 DD 041800000r			; 16
;	COMDAT __real@41f00000
.rdata	SEGMENT
__real@41f00000 DD 041f00000r			; 30
;	COMDAT __real@41a00000
.rdata	SEGMENT
__real@41a00000 DD 041a00000r			; 20
; Function compile flags: /Odtu

	.code
i$88144 = 96						; size = 4
$T94507 = 104						; size = 12
$T94508 = 120						; size = 12

?TheSaiyanProject_ParachuteEject@@YAXXZ	PROC NEAR	; TheSaiyanProject_ParachuteEject, COMDAT

; Begin code for function: ?TheSaiyanProject_ParachuteEject@@YAXXZ
; Line 335
	mflr         r12
	stw          r12,-8(r1)
	stwu         r1,-90h(r1)
.endprolog
$M94517:
$LN9@TheSaiyanP@5:
; Line 338
	lis          r11,?bPlayingGTAV@@3_NA
	lbz          r10,?bPlayingGTAV@@3_NA(r11)
	cmpwi        cr6,r10,0
	beq          cr6,$LN7@TheSaiyanP@5
; Line 340
	lis          r9,?Toggle_ParachuteEject@@3_NA
	lbz          r8,?Toggle_ParachuteEject@@3_NA(r9)
	cmpwi        cr6,r8,0
	beq          cr6,$LN7@TheSaiyanP@5
; Line 342
	lis          r7,?Controller@@3PAVButtonMonitor@@A
	lwz          r6,?Controller@@3PAVButtonMonitor@@A(r7)
	lbz          r5,38h(r6)
	cmpwi        cr6,r5,0
	beq          cr6,$LN7@TheSaiyanP@5
	lis          r4,?_Vehicle@@3KA
	lwz          r3,?_Vehicle@@3KA(r4)
	cmplwi       cr6,r3,0
	beq          cr6,$LN7@TheSaiyanP@5
	lis          r11,?_Ped@@3KA
	lwz          r3,?_Ped@@3KA(r11)
	bl           ?IS_PED_GETTING_INTO_A_VEHICLE@@YA_NK@Z
	clrlwi       r10,r3,24
	cmpwi        cr6,r10,0
	bne          cr6,$LN7@TheSaiyanP@5
	lis          r9,?_Vehicle@@3KA
	lwz          r3,?_Vehicle@@3KA(r9)
	bl           ?GET_ENTITY_SPEED@@YAMK@Z
	lis          r8,__real@41a00000
	lfs          fr0,__real@41a00000(r8)
	fcmpu        cr6,fr1,fr0
	ble          cr6,$LN7@TheSaiyanP@5
; Line 344
	lis          r7,?_Ped@@3KA
	lwz          r3,?_Ped@@3KA(r7)
	bl           ?CLEAR_PED_TASKS_IMMEDIATELY@@YAXK@Z
; Line 345
	li           r6,0
	stw          r6,i$88144(r1)		; 96 (60h)
	b            $LN4@TheSaiyanP@5
$LN3@TheSaiyanP@5:
	lwz          r5,i$88144(r1)		; 96 (60h)
	addi         r4,r5,1
	stw          r4,i$88144(r1)		; 96 (60h)
$LN4@TheSaiyanP@5:
	lwz          r3,i$88144(r1)		; 96 (60h)
	cmpwi        cr6,r3,6
	bge          cr6,$LN2@TheSaiyanP@5
; Line 346
	lwz          r4,i$88144(r1)		; 96 (60h)
	lis          r11,?_Vehicle@@3KA
	lwz          r3,?_Vehicle@@3KA(r11)
	bl           ?GET_PED_IN_VEHICLE_SEAT@@YAKKK@Z
	lis          r10,?_Ped@@3KA
	lwz          r9,?_Ped@@3KA(r10)
	cmplw        cr6,r3,r9
	bne          cr6,$LN1@TheSaiyanP@5
; Line 347
	li           r6,1
	li           r5,0
	lwz          r4,i$88144(r1)		; 96 (60h)
	lis          r8,?_Vehicle@@3KA
	lwz          r3,?_Vehicle@@3KA(r8)
	bl           ?SET_VEHICLE_DOOR_OPEN@@YAXKK_N0@Z
$LN1@TheSaiyanP@5:
; Line 348
	b            $LN3@TheSaiyanP@5
$LN2@TheSaiyanP@5:
	lis          r7,?_Position@@3U_Vector3@@A
	addi         r6,r7,?_Position@@3U_Vector3@@A
	lfs          fr13,8(r6)
	lis          r5,__real@41f00000
	lfs          fr12,__real@41f00000(r5)
	fadds        fr3,fr13,fr12
	lis          r4,?_Position@@3U_Vector3@@A
	addi         r3,r4,?_Position@@3U_Vector3@@A
	lfs          fr2,4(r3)
	lis          r11,?_Position@@3U_Vector3@@A
	lfs          fr1,?_Position@@3U_Vector3@@A(r11)
	bl           ?_TELEPORT@@YAXMMM@Z
; Line 349
	li           r10,0
	stb          r10,57h(r1)
	li           r10,0
	li           r9,0
	li           r8,0
	li           r7,0
	li           r6,1
	li           r5,1
	li           r4,0
	lis          r3,?_Ped@@3KA
	lwz          r3,?_Ped@@3KA(r3)
	bl           ?SET_ENTITY_PROOFS@@YAXK_N0000000@Z
; Line 350
	li           r4,1
	lis          r11,?_Ped@@3KA
	lwz          r3,?_Ped@@3KA(r11)
	bl           ?SET_PED_CAN_RAGDOLL@@YAXK_N@Z
; Line 351
	lis          r10,__real@41800000
	lfs          fr3,__real@41800000(r10)
	lis          r9,__real@00000000
	lfs          fr2,__real@00000000(r9)
	lis          r8,__real@00000000
	lfs          fr1,__real@00000000(r8)
	addi         r3,r1,$T94507
	bl           ??0_Vector3@@QAA@MMM@Z
	ld           r4,0(r3)
	lwz          r7,8(r3)
	rldicr       r5,r7,32,31
	lis          r6,?_Ped@@3KA
	lwz          r3,?_Ped@@3KA(r6)
	bl           ?_APPLY_RELATIVE_FORCE@@YAXKU_Vector3@@@Z
; Line 352
	li           r4,1
	lis          r5,?_Ped@@3KA
	lwz          r3,?_Ped@@3KA(r5)
	bl           ?TASK_PARACHUTE@@YAXK_N@Z
; Line 353
	li           r4,0
	stb          r4,57h(r1)
	li           r10,0
	li           r9,0
	li           r8,0
	li           r7,0
	li           r6,0
	li           r5,0
	li           r4,0
	lis          r3,?_Ped@@3KA
	lwz          r3,?_Ped@@3KA(r3)
	bl           ?SET_ENTITY_PROOFS@@YAXK_N0000000@Z
; Line 354
	lis          r11,?_Position@@3U_Vector3@@A
	addi         r10,r11,?_Position@@3U_Vector3@@A
	lfs          fr3,8(r10)
	lis          r9,?_Position@@3U_Vector3@@A
	addi         r8,r9,?_Position@@3U_Vector3@@A
	lfs          fr2,4(r8)
	lis          r7,?_Position@@3U_Vector3@@A
	lfs          fr1,?_Position@@3U_Vector3@@A(r7)
	lis          r6,?_Ped@@3KA
	lwz          r3,?_Ped@@3KA(r6)
	bl           ?TASK_PARACHUTE_TO_TARGET@@YAXKMMM@Z
; Line 355
	lis          r5,__real@41800000
	lfs          fr3,__real@41800000(r5)
	lis          r4,__real@00000000
	lfs          fr2,__real@00000000(r4)
	lis          r3,__real@00000000
	lfs          fr1,__real@00000000(r3)
	addi         r3,r1,$T94508
	bl           ??0_Vector3@@QAA@MMM@Z
	ld           r4,0(r3)
	lwz          r11,8(r3)
	rldicr       r5,r11,32,31
	lis          r10,?_Ped@@3KA
	lwz          r3,?_Ped@@3KA(r10)
	bl           ?_APPLY_RELATIVE_FORCE@@YAXKU_Vector3@@@Z
$LN7@TheSaiyanP@5:
; Line 359
	b            $LN9@TheSaiyanP@5
; Line 360
	addi         r1,r1,144		; 90h
	lwz          r12,-8(r1)
	mtlr         r12
	blr
$M94518:
; End code for function: ?TheSaiyanProject_ParachuteEject@@YAXXZ
?TheSaiyanProject_ParachuteEject@@YAXXZ ENDP
							; TheSaiyanProject_ParachuteEject
PUBLIC	?TheSaiyanProject_RideAnimal@@YAXXZ		; TheSaiyanProject_RideAnimal
; Function compile flags: /Odtu

	.code

?TheSaiyanProject_RideAnimal@@YAXXZ PROC NEAR		; TheSaiyanProject_RideAnimal, COMDAT

; Begin code for function: ?TheSaiyanProject_RideAnimal@@YAXXZ
; Line 425
	blr
; End code for function: ?TheSaiyanProject_RideAnimal@@YAXXZ
?TheSaiyanProject_RideAnimal@@YAXXZ ENDP
							; TheSaiyanProject_RideAnimal
PUBLIC	__real@43020000
PUBLIC	__real@4059000000000000
PUBLIC	?abs@@YAMM@Z					; abs
PUBLIC	__real@40a00000
PUBLIC	?TheSaiyanProject_WeaponCannon@@YAXXZ		; TheSaiyanProject_WeaponCannon
EXTRN	?CREATE_OBJECT@@YAKKMMM_N00@Z:PROC		; CREATE_OBJECT
EXTRN	?APPLY_FORCE_TO_ENTITY@@YAXKKMMMMMM_N00000@Z:PROC ; APPLY_FORCE_TO_ENTITY
EXTRN	?CREATE_PED@@YAKKKMMM_N00@Z:PROC		; CREATE_PED
EXTRN	?GET_ENTITY_HEADING@@YAMK@Z:PROC		; GET_ENTITY_HEADING
EXTRN	rand:PROC
EXTRN	?_GET_CAMERA_DIRECTION@@YA?AU_Vector3@@XZ:PROC	; _GET_CAMERA_DIRECTION
EXTRN	?_GET_CAMERA_DIRECTION@@YA?AU_Vector3@@M@Z:PROC	; _GET_CAMERA_DIRECTION
EXTRN	srand:PROC
EXTRN	?IS_PED_SHOOTING@@YA_NK@Z:PROC			; IS_PED_SHOOTING
;	COMDAT .pdata
.pdata	SEGMENT
$T94537	DD	?TheSaiyanProject_WeaponCannon@@YAXXZ
	DD	040057503H
;	COMDAT __real@43020000
.rdata	SEGMENT
__real@43020000 DD 043020000r			; 130
;	COMDAT __real@4059000000000000
.rdata	SEGMENT
__real@4059000000000000 DQ 04059000000000000r	; 100
;	COMDAT __real@40a00000
.rdata	SEGMENT
__real@40a00000 DD 040a00000r			; 5
; Function compile flags: /Odtu

	.code
animals$ = 128						; size = 80
pedestrians$ = 208					; size = 80
random$ = 288						; size = 4
vehicles$ = 304						; size = 1408
objects$ = 1712						; size = 4
dir$88168 = 1720					; size = 12
pos$88166 = 1736					; size = 12
ped$88172 = 1748					; size = 4
prop$88180 = 1752					; size = 4
tv896 = 1756						; size = 1
tv906 = 1760						; size = 4

?TheSaiyanProject_WeaponCannon@@YAXXZ PROC NEAR		; TheSaiyanProject_WeaponCannon, COMDAT

; Begin code for function: ?TheSaiyanProject_WeaponCannon@@YAXXZ
; Line 427
	mflr         r12
	stw          r12,-8(r1)
	stwu         r1,-6F0h(r1)
.endprolog
$M94535:
; Line 429
	lis          r11,-12705		; 0CE5Fh
	ori          r10,r11,61556		; 0F074h
	stw          r10,animals$(r1)		; 128 (80h)
	lis          r9,-21833		; 0AAB7h
	ori          r8,r9,8034		; 1F62h
	stw          r8,animals$+4(r1)		; 132 (84h)
	lis          r7,-22424		; 0A868h
	ori          r6,r7,14101		; 3715h
	stw          r6,animals$+8(r1)		; 136 (88h)
	lis          r5,5356		; 14ECh
	ori          r4,r5,6122		; 17EAh
	stw          r4,animals$+0Ch(r1)		; 140 (8Ch)
; Line 430
	lis          r3,22242		; 56E2h
	ori          r11,r3,39266		; 9962h
	stw          r11,animals$+10h(r1)		; 144 (90h)
	lis          r10,-774		; 0FCFAh
	ori          r9,r10,40478		; 9E1Eh
	stw          r9,animals$+14h(r1)		; 148 (94h)
	lis          r8,25674		; 644Ah
	ori          r7,r8,51038		; 0C75Eh
	stw          r7,animals$+18h(r1)		; 152 (98h)
	lis          r6,6145		; 1801h
	ori          r5,r6,10911		; 2A9Fh
	stw          r5,animals$+1Ch(r1)		; 156 (9Ch)
; Line 431
	lis          r4,-10133		; 0D86Bh
	ori          r3,r4,23189		; 5A95h
	stw          r3,animals$+20h(r1)		; 160 (0A0h)
	lis          r11,12248		; 2FD8h
	ori          r10,r11,183		; 0B7h
	stw          r10,animals$+24h(r1)		; 164 (0A4h)
	lis          r9,27381		; 6AF5h
	ori          r8,r9,8111		; 1FAFh
	stw          r8,animals$+28h(r1)		; 168 (0A8h)
	lis          r7,20111		; 4E8Fh
	ori          r6,r7,38306		; 95A2h
	stw          r6,animals$+2Ch(r1)		; 172 (0ACh)
; Line 432
	lis          r5,4688		; 1250h
	ori          r4,r5,55226		; 0D7BAh
	stw          r4,animals$+30h(r1)		; 176 (0B0h)
	lis          r3,-20197		; 0B11Bh
	ori          r11,r3,43862		; 0AB56h
	stw          r11,animals$+34h(r1)		; 180 (0B4h)
	lis          r10,1698		; 6A2h
	ori          r9,r10,1832		; 728h
	stw          r9,animals$+38h(r1)		; 184 (0B8h)
	lis          r8,-15435		; 0C3B5h
	ori          r7,r8,10598		; 2966h
	stw          r7,animals$+3Ch(r1)		; 188 (0BCh)
; Line 433
	lis          r6,13471		; 349Fh
	ori          r5,r6,13281		; 33E1h
	stw          r5,animals$+40h(r1)		; 192 (0C0h)
	lis          r4,-15664		; 0C2D0h
	ori          r3,r4,28499		; 6F53h
	stw          r3,animals$+44h(r1)		; 196 (0C4h)
	lis          r11,-27293		; 9563h
	ori          r10,r11,8733		; 221Dh
	stw          r10,animals$+48h(r1)		; 200 (0C8h)
	lis          r9,-11373		; 0D393h
	ori          r8,r9,40445		; 9DFDh
	stw          r8,animals$+4Ch(r1)		; 204 (0CCh)
; Line 436
	li           r7,0
	stw          r7,objects$(r1)		; 1712 (6B0h)
; Line 439
	lis          r6,12342		; 3036h
	ori          r5,r6,14503		; 38A7h
	stw          r5,pedestrians$(r1)		; 208 (0D0h)
	lis          r4,3391		; 0D3Fh
	ori          r3,r4,37863		; 93E7h
	stw          r3,pedestrians$+4(r1)		; 212 (0D4h)
	lis          r11,-16888		; 0BE08h
	ori          r10,r11,28413		; 6EFDh
	stw          r10,pedestrians$+8(r1)		; 216 (0D8h)
	lis          r9,17481		; 4449h
	ori          r8,r9,62282		; 0F34Ah
	stw          r8,pedestrians$+0Ch(r1)		; 220 (0DCh)
; Line 440
	lis          r7,-24519		; 0A039h
	ori          r6,r7,13151		; 335Fh
	stw          r6,pedestrians$+10h(r1)		; 224 (0E0h)
	lis          r5,15998		; 3E7Eh
	ori          r4,r5,4475		; 117Bh
	stw          r4,pedestrians$+14h(r1)		; 228 (0E4h)
	lis          r3,15321		; 3BD9h
	ori          r11,r3,37140		; 9114h
	stw          r11,pedestrians$+18h(r1)		; 232 (0E8h)
	lis          r10,-12559		; 0CEF1h
	ori          r9,r10,24823		; 60F7h
	stw          r9,pedestrians$+1Ch(r1)		; 236 (0ECh)
; Line 441
	lis          r8,8131		; 1FC3h
	ori          r7,r8,32188		; 7DBCh
	stw          r7,pedestrians$+20h(r1)		; 240 (0F0h)
	lis          r6,-22468		; 0A83Ch
	ori          r5,r6,32844		; 804Ch
	stw          r5,pedestrians$+24h(r1)		; 244 (0F4h)
	lis          r4,25930		; 654Ah
	ori          r3,r4,55406		; 0D86Eh
	stw          r3,pedestrians$+28h(r1)		; 248 (0F8h)
	lis          r11,10410		; 28AAh
	ori          r10,r11,31201		; 79E1h
	stw          r10,pedestrians$+2Ch(r1)		; 252 (0FCh)
; Line 442
	lis          r9,-25283		; 9D3Dh
	ori          r8,r9,52090		; 0CB7Ah
	stw          r8,pedestrians$+30h(r1)		; 256 (100h)
	lis          r7,27257		; 6A79h
	ori          r6,r7,12		; 0Ch
	stw          r6,pedestrians$+34h(r1)		; 260 (104h)
	lis          r5,25544		; 63C8h
	ori          r4,r5,55441		; 0D891h
	stw          r4,pedestrians$+38h(r1)		; 264 (108h)
	lis          r3,-21134		; 0AD72h
	ori          r11,r3,13162		; 336Ah
	stw          r11,pedestrians$+3Ch(r1)		; 268 (10Ch)
; Line 443
	lis          r10,-1356		; 0FAB4h
	ori          r9,r10,35787		; 8BCBh
	stw          r9,pedestrians$+40h(r1)		; 272 (110h)
	lis          r8,24358		; 5F26h
	ori          r7,r8,8977		; 2311h
	stw          r7,pedestrians$+44h(r1)		; 276 (114h)
	lis          r6,-18993		; 0B5CFh
	ori          r5,r6,32996		; 80E4h
	stw          r5,pedestrians$+48h(r1)		; 280 (118h)
	lis          r4,-3686		; 0F19Ah
	ori          r3,r4,44677		; 0AE85h
	stw          r3,pedestrians$+4Ch(r1)		; 284 (11Ch)
; Line 446
	lis          r11,171		; 0ABh
	ori          r10,r11,45248		; 0B0C0h
	stw          r10,vehicles$(r1)		; 304 (130h)
	lis          r9,569		; 239h
	ori          r8,r9,58256		; 0E390h
	stw          r8,vehicles$+4(r1)		; 308 (134h)
	lis          r7,737		; 2E1h
	ori          r6,r7,39033		; 9879h
	stw          r6,vehicles$+8(r1)		; 312 (138h)
	lis          r5,848		; 350h
	ori          r4,r5,53675		; 0D1ABh
	stw          r4,vehicles$+0Ch(r1)		; 316 (13Ch)
; Line 447
	lis          r3,997		; 3E5h
	ori          r11,r3,63160		; 0F6B8h
	stw          r11,vehicles$+10h(r1)		; 320 (140h)
	lis          r10,1146		; 47Ah
	ori          r9,r10,27585		; 6BC1h
	stw          r9,vehicles$+14h(r1)		; 324 (144h)
	lis          r8,1230		; 4CEh
	ori          r7,r8,26796		; 68ACh
	stw          r7,vehicles$+18h(r1)		; 328 (148h)
	lis          r6,1413		; 585h
	ori          r5,r6,10296		; 2838h
	stw          r5,vehicles$+1Ch(r1)		; 332 (14Ch)
; Line 448
	lis          r4,1659		; 67Bh
	ori          r3,r4,49207		; 0C037h
	stw          r3,vehicles$+20h(r1)		; 336 (150h)
	lis          r11,1791		; 6FFh
	ori          r10,r11,26900		; 6914h
	stw          r10,vehicles$+24h(r1)		; 340 (154h)
	lis          r9,1856		; 740h
	ori          r8,r9,24072		; 5E08h
	stw          r8,vehicles$+28h(r1)		; 344 (158h)
	lis          r7,2181		; 885h
	ori          r6,r7,10325		; 2855h
	stw          r6,vehicles$+2Ch(r1)		; 348 (15Ch)
; Line 449
	lis          r5,2520		; 9D8h
	ori          r4,r5,3987		; 0F93h
	stw          r4,vehicles$+30h(r1)		; 352 (160h)
	lis          r3,2813		; 0AFDh
	ori          r11,r3,8870		; 22A6h
	stw          r11,vehicles$+34h(r1)		; 356 (164h)
	lis          r10,3526		; 0DC6h
	ori          r9,r10,3371		; 0D2Bh
	stw          r9,vehicles$+38h(r1)		; 360 (168h)
	lis          r8,3665		; 0E51h
	ori          r7,r8,11897		; 2E79h
	stw          r7,vehicles$+3Ch(r1)		; 364 (16Ch)
; Line 450
	lis          r6,4223		; 107Fh
	ori          r5,r6,14636		; 392Ch
	stw          r5,vehicles$+40h(r1)		; 368 (170h)
	lis          r4,4425		; 1149h
	ori          r3,r4,16943		; 422Fh
	stw          r3,vehicles$+44h(r1)		; 372 (174h)
	lis          r11,4522		; 11AAh
	ori          r10,r11,3604		; 0E14h
	stw          r10,vehicles$+48h(r1)		; 376 (178h)
	lis          r9,4599		; 11F7h
	ori          r8,r9,27668		; 6C14h
	stw          r8,vehicles$+4Ch(r1)		; 380 (17Ch)
; Line 451
	lis          r7,4909		; 132Dh
	ori          r6,r7,23066		; 5A1Ah
	stw          r6,vehicles$+50h(r1)		; 384 (180h)
	lis          r5,5045		; 13B5h
	ori          r4,r5,32138		; 7D8Ah
	stw          r4,vehicles$+54h(r1)		; 388 (184h)
	lis          r3,5166		; 142Eh
	ori          r11,r3,3523		; 0DC3h
	stw          r11,vehicles$+58h(r1)		; 392 (188h)
	lis          r10,5399		; 1517h
	ori          r9,r10,54489		; 0D4D9h
	stw          r9,vehicles$+5Ch(r1)		; 396 (18Ch)
; Line 452
	lis          r8,5438		; 153Eh
	ori          r7,r8,6922		; 1B0Ah
	stw          r7,vehicles$+60h(r1)		; 400 (190h)
	lis          r6,5618		; 15F2h
	ori          r5,r6,30562		; 7762h
	stw          r5,vehicles$+64h(r1)		; 404 (194h)
	lis          r4,5860		; 16E4h
	ori          r3,r4,30913		; 78C1h
	stw          r3,vehicles$+68h(r1)		; 408 (198h)
	lis          r11,5964		; 174Ch
	ori          r10,r11,45426		; 0B172h
	stw          r10,vehicles$+6Ch(r1)		; 412 (19Ch)
; Line 453
	lis          r9,6111		; 17DFh
	ori          r8,r9,24258		; 5EC2h
	stw          r8,vehicles$+70h(r1)		; 416 (1A0h)
	lis          r7,6228		; 1854h
	ori          r6,r7,34017		; 84E1h
	stw          r6,vehicles$+74h(r1)		; 420 (1A4h)
	lis          r5,6269		; 187Dh
	ori          r4,r5,37773		; 938Dh
	stw          r4,vehicles$+78h(r1)		; 424 (1A8h)
	lis          r3,6386		; 18F2h
	ori          r11,r3,23239		; 5AC7h
	stw          r11,vehicles$+7Ch(r1)		; 428 (1ACh)
; Line 454
	lis          r10,6777		; 1A79h
	ori          r9,r10,33914		; 847Ah
	stw          r9,vehicles$+80h(r1)		; 432 (1B0h)
	lis          r8,6783		; 1A7Fh
	ori          r7,r8,52986		; 0CEFAh
	stw          r7,vehicles$+84h(r1)		; 436 (1B4h)
	lis          r6,6842		; 1ABAh
	ori          r5,r6,5045		; 13B5h
	stw          r5,vehicles$+88h(r1)		; 440 (1B8h)
	lis          r4,6968		; 1B38h
	ori          r3,r4,59733		; 0E955h
	stw          r3,vehicles$+8Ch(r1)		; 444 (1BCh)
; Line 455
	lis          r11,7090		; 1BB2h
	ori          r10,r11,37052		; 90BCh
	stw          r10,vehicles$+90h(r1)		; 448 (1C0h)
	lis          r9,7160		; 1BF8h
	ori          r8,r9,54145		; 0D381h
	stw          r8,vehicles$+94h(r1)		; 452 (1C4h)
	lis          r7,7251		; 1C53h
	ori          r6,r7,18837		; 4995h
	stw          r6,vehicles$+98h(r1)		; 456 (1C8h)
	lis          r5,7430		; 1D06h
	ori          r4,r5,54913		; 0D681h
	stw          r4,vehicles$+9Ch(r1)		; 460 (1CCh)
; Line 456
	lis          r3,7616		; 1DC0h
	ori          r11,r3,47699		; 0BA53h
	stw          r11,vehicles$+0A0h(r1)		; 464 (1D0h)
	lis          r10,7774		; 1E5Eh
	ori          r9,r10,21738		; 54EAh
	stw          r9,vehicles$+0A4h(r1)		; 468 (1D4h)
	lis          r8,7888		; 1ED0h
	ori          r7,r8,42292		; 0A534h
	stw          r7,vehicles$+0A8h(r1)		; 472 (1D8h)
	lis          r6,7991		; 1F37h
	ori          r5,r6,26339		; 66E3h
	stw          r5,vehicles$+0ACh(r1)		; 476 (1DCh)
; Line 457
	lis          r4,7997		; 1F3Dh
	ori          r3,r4,17589		; 44B5h
	stw          r3,vehicles$+0B0h(r1)		; 480 (1E0h)
	lis          r11,8152		; 1FD8h
	ori          r10,r11,9391		; 24AFh
	stw          r10,vehicles$+0B4h(r1)		; 484 (1E4h)
	lis          r9,8301		; 206Dh
	ori          r8,r9,7016		; 1B68h
	stw          r8,vehicles$+0B8h(r1)		; 488 (1E8h)
	lis          r7,8686		; 21EEh
	ori          r6,r7,59517		; 0E87Dh
	stw          r6,vehicles$+0BCh(r1)		; 492 (1ECh)
; Line 458
	lis          r5,8941		; 22EDh
	ori          r4,r5,56368		; 0DC30h
	stw          r4,vehicles$+0C0h(r1)		; 496 (1F0h)
	lis          r3,9483		; 250Bh
	ori          r11,r3,3166		; 0C5Eh
	stw          r11,vehicles$+0C4h(r1)		; 500 (1F4h)
	lis          r10,9568		; 2560h
	ori          r9,r10,45820		; 0B2FCh
	stw          r9,vehicles$+0C8h(r1)		; 504 (1F8h)
	lis          r8,9618		; 2592h
	ori          r7,r8,46543		; 0B5CFh
	stw          r7,vehicles$+0CCh(r1)		; 508 (1FCh)
; Line 459
	lis          r6,9778		; 2632h
	ori          r5,r6,7783		; 1E67h
	stw          r5,vehicles$+0D0h(r1)		; 512 (200h)
	lis          r4,9805		; 264Dh
	ori          r3,r4,37474		; 9262h
	stw          r3,vehicles$+0D4h(r1)		; 516 (204h)
	lis          r11,10672		; 29B0h
	ori          r10,r11,55959		; 0DA97h
	stw          r10,vehicles$+0D8h(r1)		; 520 (208h)
	lis          r9,10866		; 2A72h
	ori          r8,r9,48811		; 0BEABh
	stw          r8,vehicles$+0DCh(r1)		; 524 (20Ch)
; Line 460
	lis          r7,11117		; 2B6Dh
	ori          r6,r7,50762		; 0C64Ah
	stw          r6,vehicles$+0E0h(r1)		; 528 (210h)
	lis          r5,11135		; 2B7Fh
	ori          r4,r5,40419		; 9DE3h
	stw          r4,vehicles$+0E4h(r1)		; 532 (214h)
	lis          r3,11203		; 2BC3h
	ori          r11,r3,17873		; 45D1h
	stw          r11,vehicles$+0E8h(r1)		; 536 (218h)
	lis          r10,11244		; 2BECh
	ori          r9,r10,15550		; 3CBEh
	stw          r9,vehicles$+0ECh(r1)		; 540 (21Ch)
; Line 461
	lis          r8,11315		; 2C33h
	ori          r7,r8,46190		; 0B46Eh
	stw          r7,vehicles$+0F0h(r1)		; 544 (220h)
	lis          r6,11344		; 2C50h
	ori          r5,r6,38452		; 9634h
	stw          r5,vehicles$+0F4h(r1)		; 548 (224h)
	lis          r4,11363		; 2C63h
	ori          r3,r4,20413		; 4FBDh
	stw          r3,vehicles$+0F8h(r1)		; 552 (228h)
	lis          r11,11381		; 2C75h
	ori          r10,r11,61661		; 0F0DDh
	stw          r10,vehicles$+0FCh(r1)		; 556 (22Ch)
; Line 462
	lis          r9,11579		; 2D3Bh
	ori          r8,r9,54273		; 0D401h
	stw          r8,vehicles$+100h(r1)		; 560 (230h)
	lis          r7,11704		; 2DB8h
	ori          r6,r7,53674		; 0D1AAh
	stw          r6,vehicles$+104h(r1)		; 564 (234h)
	lis          r5,11775		; 2DFFh
	ori          r4,r5,25135		; 622Fh
	stw          r4,vehicles$+108h(r1)		; 568 (238h)
	lis          r3,11942		; 2EA6h
	ori          r11,r3,34448		; 8690h
	stw          r11,vehicles$+10Ch(r1)		; 572 (23Ch)
; Line 463
	lis          r10,12024		; 2EF8h
	ori          r9,r10,40518		; 9E46h
	stw          r9,vehicles$+110h(r1)		; 576 (240h)
	lis          r8,12035		; 2F03h
	ori          r7,r8,21627		; 547Bh
	stw          r7,vehicles$+114h(r1)		; 580 (244h)
	lis          r6,12717		; 31ADh
	ori          r5,r6,48124		; 0BBFCh
	stw          r5,vehicles$+118h(r1)		; 584 (248h)
	lis          r4,12784		; 31F0h
	ori          r3,r4,45942		; 0B376h
	stw          r3,vehicles$+11Ch(r1)		; 588 (24Ch)
; Line 464
	lis          r11,12844		; 322Ch
	ori          r10,r11,63887		; 0F98Fh
	stw          r10,vehicles$+120h(r1)		; 592 (250h)
	lis          r9,12978		; 32B2h
	ori          r8,r9,39499		; 9A4Bh
	stw          r8,vehicles$+124h(r1)		; 596 (254h)
	lis          r7,12985		; 32B9h
	ori          r6,r7,6888		; 1AE8h
	stw          r6,vehicles$+128h(r1)		; 600 (258h)
	lis          r5,13144		; 3358h
	ori          r4,r5,4449		; 1161h
	stw          r4,vehicles$+12Ch(r1)		; 604 (25Ch)
; Line 465
	lis          r3,13257		; 33C9h
	ori          r11,r3,57688		; 0E158h
	stw          r11,vehicles$+130h(r1)		; 608 (260h)
	lis          r10,13330		; 3412h
	ori          r9,r10,44589		; 0AE2Dh
	stw          r9,vehicles$+134h(r1)		; 612 (264h)
	lis          r8,13495		; 34B7h
	ori          r7,r8,14607		; 390Fh
	stw          r7,vehicles$+138h(r1)		; 616 (268h)
	lis          r6,13533		; 34DDh
	ori          r5,r6,35489		; 8AA1h
	stw          r5,vehicles$+13Ch(r1)		; 620 (26Ch)
; Line 466
	lis          r4,13542		; 34E6h
	ori          r3,r4,49003		; 0BF6Bh
	stw          r3,vehicles$+140h(r1)		; 624 (270h)
	lis          r11,13627		; 353Bh
	ori          r10,r11,22045		; 561Dh
	stw          r10,vehicles$+144h(r1)		; 628 (274h)
	lis          r9,13805		; 35EDh
	ori          r8,r9,26379		; 670Bh
	stw          r8,vehicles$+148h(r1)		; 632 (278h)
	lis          r7,13956		; 3684h
	ori          r6,r7,34306		; 8602h
	stw          r6,vehicles$+14Ch(r1)		; 636 (27Ch)
; Line 467
	lis          r5,14044		; 36DCh
	ori          r4,r5,65432		; 0FF98h
	stw          r4,vehicles$+150h(r1)		; 640 (280h)
	lis          r3,14370		; 3822h
	ori          r11,r3,48638		; 0BDFEh
	stw          r11,vehicles$+154h(r1)		; 644 (284h)
	lis          r10,14400		; 3840h
	ori          r9,r10,33601		; 8341h
	stw          r9,vehicles$+158h(r1)		; 648 (288h)
	lis          r8,14806		; 39D6h
	ori          r7,r8,30622		; 779Eh
	stw          r7,vehicles$+15Ch(r1)		; 652 (28Ch)
; Line 468
	lis          r6,14806		; 39D6h
	ori          r5,r6,59455		; 0E83Fh
	stw          r5,vehicles$+160h(r1)		; 656 (290h)
	lis          r4,14810		; 39DAh
	ori          r3,r4,10068		; 2754h
	stw          r3,vehicles$+164h(r1)		; 660 (294h)
	lis          r11,15096		; 3AF8h
	ori          r10,r11,49989		; 0C345h
	stw          r10,vehicles$+168h(r1)		; 664 (298h)
	lis          r9,15438		; 3C4Eh
	ori          r8,r9,8467		; 2113h
	stw          r8,vehicles$+16Ch(r1)		; 668 (29Ch)
; Line 469
	lis          r7,15559		; 3CC7h
	ori          r6,r7,62870		; 0F596h
	stw          r6,vehicles$+170h(r1)		; 672 (2A0h)
	lis          r5,15722		; 3D6Ah
	ori          r4,r5,43675		; 0AA9Bh
	stw          r4,vehicles$+174h(r1)		; 676 (2A4h)
	lis          r3,15759		; 3D8Fh
	ori          r11,r3,41564		; 0A25Ch
	stw          r11,vehicles$+178h(r1)		; 680 (2A8h)
	lis          r10,15766		; 3D96h
	ori          r9,r10,4752		; 1290h
	stw          r9,vehicles$+17Ch(r1)		; 684 (2ACh)
; Line 470
	lis          r8,15944		; 3E48h
	ori          r7,r8,48931		; 0BF23h
	stw          r7,vehicles$+180h(r1)		; 688 (2B0h)
	lis          r6,16043		; 3EABh
	ori          r5,r6,21845		; 5555h
	stw          r5,vehicles$+184h(r1)		; 692 (2B4h)
	lis          r4,16145		; 3F11h
	ori          r3,r4,37140		; 9114h
	stw          r3,vehicles$+188h(r1)		; 696 (2B8h)
	lis          r11,16325		; 3FC5h
	ori          r10,r11,54336		; 0D440h
	stw          r10,vehicles$+18Ch(r1)		; 700 (2BCh)
; Line 471
	lis          r9,16392		; 4008h
	ori          r8,r9,60091		; 0EABBh
	stw          r8,vehicles$+190h(r1)		; 704 (2C0h)
	lis          r7,16440		; 4038h
	ori          r6,r7,8424		; 20E8h
	stw          r6,vehicles$+194h(r1)		; 708 (2C4h)
	lis          r5,16459		; 404Bh
	ori          r4,r5,25473		; 6381h
	stw          r4,vehicles$+198h(r1)		; 712 (2C8h)
	lis          r3,17138		; 42F2h
	ori          r11,r3,60694		; 0ED16h
	stw          r11,vehicles$+19Ch(r1)		; 716 (2CCh)
; Line 472
	lis          r10,17194		; 432Ah
	ori          r9,r10,42342		; 0A566h
	stw          r9,vehicles$+1A0h(r1)		; 720 (2D0h)
	lis          r8,17198		; 432Eh
	ori          r7,r8,43337		; 0A949h
	stw          r7,vehicles$+1A4h(r1)		; 724 (2D4h)
	lis          r6,17209		; 4339h
	ori          r5,r6,52585		; 0CD69h
	stw          r5,vehicles$+1A8h(r1)		; 728 (2D8h)
	lis          r4,17271		; 4377h
	ori          r3,r4,40020		; 9C54h
	stw          r3,vehicles$+1ACh(r1)		; 732 (2DCh)
; Line 473
	lis          r11,17276		; 437Ch
	ori          r10,r11,62112		; 0F2A0h
	stw          r10,vehicles$+1B0h(r1)		; 736 (2E0h)
	lis          r9,17506		; 4462h
	ori          r8,r9,14468		; 3884h
	stw          r8,vehicles$+1B4h(r1)		; 740 (2E4h)
	lis          r7,17731		; 4543h
	ori          r6,r7,46925		; 0B74Dh
	stw          r6,vehicles$+1B8h(r1)		; 744 (2E8h)
	lis          r5,17877		; 45D5h
	ori          r4,r5,27354		; 6ADAh
	stw          r4,vehicles$+1BCh(r1)		; 748 (2ECh)
; Line 474
	lis          r3,17967		; 462Fh
	ori          r11,r3,57975		; 0E277h
	stw          r11,vehicles$+1C0h(r1)		; 752 (2F0h)
	lis          r10,18638		; 48CEh
	ori          r9,r10,52947		; 0CED3h
	stw          r9,vehicles$+1C4h(r1)		; 756 (2F4h)
	lis          r8,19308		; 4B6Ch
	ori          r7,r8,22154		; 568Ah
	stw          r7,vehicles$+1C8h(r1)		; 760 (2F8h)
	lis          r6,19364		; 4BA4h
	ori          r5,r6,59612		; 0E8DCh
	stw          r5,vehicles$+1CCh(r1)		; 764 (2FCh)
; Line 475
	lis          r4,19584		; 4C80h
	ori          r3,r4,60174		; 0EB0Eh
	stw          r3,vehicles$+1D0h(r1)		; 768 (300h)
	lis          r11,20401		; 4FB1h
	ori          r10,r11,41492		; 0A214h
	stw          r10,vehicles$+1D4h(r1)		; 772 (304h)
	lis          r9,20471		; 4FF7h
	ori          r8,r9,32311		; 7E37h
	stw          r8,vehicles$+1D8h(r1)		; 776 (308h)
	lis          r7,20580		; 5064h
	ori          r6,r7,13558		; 34F6h
	stw          r6,vehicles$+1DCh(r1)		; 780 (30Ch)
; Line 476
	lis          r5,20595		; 5073h
	ori          r4,r5,11394		; 2C82h
	stw          r4,vehicles$+1E0h(r1)		; 784 (310h)
	lis          r3,20656		; 50B0h
	ori          r11,r3,8538		; 215Ah
	stw          r11,vehicles$+1E4h(r1)		; 788 (314h)
	lis          r10,20952		; 51D8h
	ori          r9,r10,13096		; 3328h
	stw          r9,vehicles$+1E8h(r1)		; 792 (318h)
	lis          r8,21271		; 5317h
	ori          r7,r8,20207		; 4EEFh
	stw          r7,vehicles$+1ECh(r1)		; 796 (31Ch)
; Line 477
	lis          r6,22058		; 562Ah
	ori          r5,r6,38845		; 97BDh
	stw          r5,vehicles$+1F0h(r1)		; 800 (320h)
	lis          r4,22707		; 58B3h
	ori          r3,r4,38812		; 979Ch
	stw          r3,vehicles$+1F4h(r1)		; 804 (324h)
	lis          r11,22756		; 58E4h
	ori          r10,r11,38500		; 9664h
	stw          r10,vehicles$+1F8h(r1)		; 808 (328h)
	lis          r9,23008		; 59E0h
	ori          r8,r9,64499		; 0FBF3h
	stw          r8,vehicles$+1FCh(r1)		; 812 (32Ch)
; Line 478
	lis          r7,23170		; 5A82h
	ori          r6,r7,63918		; 0F9AEh
	stw          r6,vehicles$+200h(r1)		; 816 (330h)
	lis          r5,23362		; 5B42h
	ori          r4,r5,42436		; 0A5C4h
	stw          r4,vehicles$+204h(r1)		; 820 (334h)
	lis          r3,23587		; 5C23h
	ori          r11,r3,44955		; 0AF9Bh
	stw          r11,vehicles$+208h(r1)		; 824 (338h)
	lis          r10,23818		; 5D0Ah
	ori          r9,r10,44175		; 0AC8Fh
	stw          r9,vehicles$+20Ch(r1)		; 828 (33Ch)
; Line 479
	lis          r8,24743		; 60A7h
	ori          r7,r8,59920		; 0EA10h
	stw          r7,vehicles$+210h(r1)		; 832 (340h)
	lis          r6,25046		; 61D6h
	ori          r5,r6,47756		; 0BA8Ch
	stw          r5,vehicles$+214h(r1)		; 836 (344h)
	lis          r4,25104		; 6210h
	ori          r3,r4,52144		; 0CBB0h
	stw          r3,vehicles$+218h(r1)		; 840 (348h)
	lis          r11,25515		; 63ABh
	ori          r10,r11,44519		; 0ADE7h
	stw          r10,vehicles$+21Ch(r1)		; 844 (34Ch)
; Line 480
	lis          r9,25667		; 6443h
	ori          r8,r9,1616		; 650h
	stw          r8,vehicles$+220h(r1)		; 848 (350h)
	lis          r7,26292		; 66B4h
	ori          r6,r7,64581		; 0FC45h
	stw          r6,vehicles$+224h(r1)		; 852 (354h)
	lis          r5,26516		; 6794h
	ori          r4,r5,20655		; 50AFh
	stw          r4,vehicles$+228h(r1)		; 856 (358h)
	lis          r3,26547		; 67B3h
	ori          r11,r3,61472		; 0F020h
	stw          r11,vehicles$+22Ch(r1)		; 860 (35Ch)
; Line 481
	lis          r10,26663		; 6827h
	ori          r9,r10,53106		; 0CF72h
	stw          r9,vehicles$+230h(r1)		; 864 (360h)
	lis          r8,26754		; 6882h
	ori          r7,r8,64115		; 0FA73h
	stw          r7,vehicles$+234h(r1)		; 868 (364h)
	lis          r6,26890		; 690Ah
	ori          r5,r6,16723		; 4153h
	stw          r5,vehicles$+238h(r1)		; 872 (368h)
	lis          r4,27013		; 6985h
	ori          r3,r4,8675		; 21E3h
	stw          r3,vehicles$+23Ch(r1)		; 876 (36Ch)
; Line 482
	lis          r11,27120		; 69F0h
	ori          r10,r11,27479		; 6B57h
	stw          r10,vehicles$+240h(r1)		; 880 (370h)
	lis          r9,27211		; 6A4Bh
	ori          r8,r9,55542		; 0D8F6h
	stw          r8,vehicles$+244h(r1)		; 884 (374h)
	lis          r7,27225		; 6A59h
	ori          r6,r7,36909		; 902Dh
	stw          r6,vehicles$+248h(r1)		; 888 (378h)
	lis          r5,27837		; 6CBDh
	ori          r4,r5,7533		; 1D6Dh
	stw          r4,vehicles$+24Ch(r1)		; 892 (37Ch)
; Line 483
	lis          r3,27929		; 6D19h
	ori          r11,r3,52412		; 0CCBCh
	stw          r11,vehicles$+250h(r1)		; 896 (380h)
	lis          r10,28015		; 6D6Fh
	ori          r9,r10,36675		; 8F43h
	stw          r9,vehicles$+254h(r1)		; 900 (384h)
	lis          r8,28633		; 6FD9h
	ori          r7,r8,24424		; 5F68h
	stw          r7,vehicles$+258h(r1)		; 904 (388h)
	lis          r6,28788		; 7074h
	ori          r5,r6,62365		; 0F39Dh
	stw          r5,vehicles$+25Ch(r1)		; 908 (38Ch)
; Line 484
	lis          r4,29131		; 71CBh
	ori          r3,r4,12283		; 2FFBh
	stw          r3,vehicles$+260h(r1)		; 912 (390h)
	lis          r11,29178		; 71FAh
	ori          r10,r11,5866		; 16EAh
	stw          r10,vehicles$+264h(r1)		; 916 (394h)
	lis          r9,29251		; 7243h
	ori          r8,r9,23065		; 5A19h
	stw          r8,vehicles$+268h(r1)		; 920 (398h)
	lis          r7,29331		; 7293h
	ori          r6,r7,21512		; 5408h
	stw          r6,vehicles$+26Ch(r1)		; 924 (39Ch)
; Line 485
	lis          r5,29505		; 7341h
	ori          r4,r5,22379		; 576Bh
	stw          r4,vehicles$+270h(r1)		; 928 (3A0h)
	lis          r3,29586		; 7392h
	ori          r11,r3,3982		; 0F8Eh
	stw          r11,vehicles$+274h(r1)		; 932 (3A4h)
	lis          r10,29617		; 73B1h
	ori          r9,r10,50123		; 0C3CBh
	stw          r9,vehicles$+278h(r1)		; 936 (3A8h)
	lis          r8,29742		; 742Eh
	ori          r7,r8,39616		; 9AC0h
	stw          r7,vehicles$+27Ch(r1)		; 940 (3ACh)
; Line 486
	lis          r6,29772		; 744Ch
	ori          r5,r6,43021		; 0A80Dh
	stw          r5,vehicles$+280h(r1)		; 944 (3B0h)
	lis          r4,29849		; 7499h
	ori          r3,r4,32898		; 8082h
	stw          r3,vehicles$+284h(r1)		; 948 (3B4h)
	lis          r11,30238		; 761Eh
	ori          r10,r11,10963		; 2AD3h
	stw          r10,vehicles$+288h(r1)		; 952 (3B8h)
	lis          r9,30611		; 7793h
	ori          r8,r9,19694		; 4CEEh
	stw          r8,vehicles$+28Ch(r1)		; 956 (3BCh)
; Line 487
	lis          r7,30623		; 779Fh
	ori          r6,r7,9130		; 23AAh
	stw          r6,vehicles$+290h(r1)		; 960 (3C0h)
	lis          r5,30762		; 782Ah
	ori          r4,r5,9069		; 236Dh
	stw          r4,vehicles$+294h(r1)		; 964 (3C4h)
	lis          r3,30774		; 7836h
	ori          r11,r3,52783		; 0CE2Fh
	stw          r11,vehicles$+298h(r1)		; 968 (3C8h)
	lis          r10,31227		; 79FBh
	ori          r9,r10,45253		; 0B0C5h
	stw          r9,vehicles$+29Ch(r1)		; 972 (3CCh)
; Line 488
	lis          r8,31329		; 7A61h
	ori          r7,r8,45872		; 0B330h
	stw          r7,vehicles$+2A0h(r1)		; 976 (3D0h)
	lis          r6,31614		; 7B7Eh
	ori          r5,r6,22256		; 56F0h
	stw          r5,vehicles$+2A4h(r1)		; 980 (3D4h)
	lis          r4,31618		; 7B82h
	ori          r3,r4,38853		; 97C5h
	stw          r3,vehicles$+2A8h(r1)		; 984 (3D8h)
	lis          r11,31626		; 7B8Ah
	ori          r10,r11,46175		; 0B45Fh
	stw          r10,vehicles$+2ACh(r1)		; 988 (3DCh)
; Line 489
	lis          r9,31712		; 7BE0h
	ori          r8,r9,12998		; 32C6h
	stw          r8,vehicles$+2B0h(r1)		; 992 (3E0h)
	lis          r7,31915		; 7CABh
	ori          r6,r7,13520		; 34D0h
	stw          r6,vehicles$+2B4h(r1)		; 996 (3E4h)
	lis          r5,32227		; 7DE3h
	ori          r4,r5,24189		; 5E7Dh
	stw          r4,vehicles$+2B8h(r1)		; 1000 (3E8h)
	lis          r3,32545		; 7F21h
	ori          r11,r3,21471		; 53DFh
	stw          r11,vehicles$+2BCh(r1)		; 1004 (3ECh)
; Line 490
	lis          r10,32604		; 7F5Ch
	ori          r9,r10,37361		; 91F1h
	stw          r9,vehicles$+2C0h(r1)		; 1008 (3F0h)
	lis          r8,-32661		; 806Bh
	ori          r7,r8,40131		; 9CC3h
	stw          r7,vehicles$+2C4h(r1)		; 1012 (3F4h)
	lis          r6,-32658		; 806Eh
	ori          r5,r6,64494		; 0FBEEh
	stw          r5,vehicles$+2C8h(r1)		; 1016 (3F8h)
	lis          r4,-32614		; 809Ah
	ori          r3,r4,42187		; 0A4CBh
	stw          r3,vehicles$+2CCh(r1)		; 1020 (3FCh)
; Line 491
	lis          r11,-32509		; 8103h
	ori          r10,r11,27106		; 69E2h
	stw          r10,vehicles$+2D0h(r1)		; 1024 (400h)
	lis          r9,-32475		; 8125h
	ori          r8,r9,48377		; 0BCF9h
	stw          r8,vehicles$+2D4h(r1)		; 1028 (404h)
	lis          r7,-32413		; 8163h
	ori          r6,r7,16776		; 4188h
	stw          r6,vehicles$+2D8h(r1)		; 1032 (408h)
	lis          r5,-32391		; 8179h
	ori          r4,r5,19568		; 4C70h
	stw          r4,vehicles$+2DCh(r1)		; 1036 (40Ch)
; Line 492
	lis          r3,-32166		; 825Ah
	ori          r11,r3,40780		; 9F4Ch
	stw          r11,vehicles$+2E0h(r1)		; 1040 (410h)
	lis          r10,-32028		; 82E4h
	ori          r9,r10,39418		; 99FAh
	stw          r9,vehicles$+2E4h(r1)		; 1044 (414h)
	lis          r8,-31995		; 8305h
	ori          r7,r8,5382		; 1506h
	stw          r7,vehicles$+2E8h(r1)		; 1048 (418h)
	lis          r6,-31974		; 831Ah
	ori          r5,r6,8661		; 21D5h
	stw          r5,vehicles$+2ECh(r1)		; 1052 (41Ch)
; Line 493
	lis          r4,-31685		; 843Bh
	ori          r3,r4,29662		; 73DEh
	stw          r3,vehicles$+2F0h(r1)		; 1056 (420h)
	lis          r11,-31631		; 8471h
	ori          r10,r11,36148		; 8D34h
	stw          r10,vehicles$+2F4h(r1)		; 1060 (424h)
	lis          r9,-31500		; 84F4h
	ori          r8,r9,11857		; 2E51h
	stw          r8,vehicles$+2F8h(r1)		; 1064 (428h)
	lis          r7,-31416		; 8548h
	ori          r6,r7,877		; 36Dh
	stw          r6,vehicles$+2FCh(r1)		; 1068 (42Ch)
; Line 494
	lis          r5,-31323		; 85A5h
	ori          r4,r5,46193		; 0B471h
	stw          r4,vehicles$+300h(r1)		; 1072 (430h)
	lis          r3,-31214		; 8612h
	ori          r11,r3,46667		; 0B64Bh
	stw          r11,vehicles$+304h(r1)		; 1076 (434h)
	lis          r10,-31025		; 86CFh
	ori          r9,r10,31965		; 7CDDh
	stw          r9,vehicles$+308h(r1)		; 1080 (438h)
	lis          r8,-30625		; 885Fh
	ori          r7,r8,13937		; 3671h
	stw          r7,vehicles$+30Ch(r1)		; 1084 (43Ch)
; Line 495
	lis          r6,-30447		; 8911h
	ori          r5,r6,47605		; 0B9F5h
	stw          r5,vehicles$+310h(r1)		; 1088 (440h)
	lis          r4,-30322		; 898Eh
	ori          r3,r4,52458		; 0CCEAh
	stw          r3,vehicles$+314h(r1)		; 1092 (444h)
	lis          r11,-30109		; 8A63h
	ori          r10,r11,51129		; 0C7B9h
	stw          r10,vehicles$+318h(r1)		; 1096 (448h)
	lis          r9,-29933		; 8B13h
	ori          r8,r9,61571		; 0F083h
	stw          r8,vehicles$+31Ch(r1)		; 1100 (44Ch)
; Line 496
	lis          r7,-29518		; 8CB2h
	ori          r6,r7,39444		; 9A14h
	stw          r6,vehicles$+320h(r1)		; 1104 (450h)
	lis          r5,-29038		; 8E92h
	ori          r4,r5,21755		; 54FBh
	stw          r4,vehicles$+324h(r1)		; 1108 (454h)
	lis          r3,-28914		; 8F0Eh
	ori          r11,r3,13716		; 3594h
	stw          r11,vehicles$+328h(r1)		; 1112 (458h)
	lis          r10,-28746		; 8FB6h
	ori          r9,r10,28571		; 6F9Bh
	stw          r9,vehicles$+32Ch(r1)		; 1116 (45Ch)
; Line 497
	lis          r8,-28733		; 8FC3h
	ori          r7,r8,43740		; 0AADCh
	stw          r7,vehicles$+330h(r1)		; 1120 (460h)
	lis          r6,-28396		; 9114h
	ori          r5,r6,60122		; 0EADAh
	stw          r5,vehicles$+334h(r1)		; 1124 (464h)
	lis          r4,-27616		; 9420h
	ori          r3,r4,19849		; 4D89h
	stw          r3,vehicles$+338h(r1)		; 1128 (468h)
	lis          r11,-27583		; 9441h
	ori          r10,r11,55509		; 0D8D5h
	stw          r10,vehicles$+33Ch(r1)		; 1132 (46Ch)
; Line 498
	lis          r9,-27469		; 94B3h
	ori          r8,r9,38341		; 95C5h
	stw          r8,vehicles$+340h(r1)		; 1136 (470h)
	lis          r7,-27148		; 95F4h
	ori          r6,r7,50712		; 0C618h
	stw          r6,vehicles$+344h(r1)		; 1140 (474h)
	lis          r5,-27110		; 961Ah
	ori          r4,r5,65271		; 0FEF7h
	stw          r4,vehicles$+348h(r1)		; 1144 (478h)
	lis          r3,-27096		; 9628h
	ori          r11,r3,34716		; 879Ch
	stw          r11,vehicles$+34Ch(r1)		; 1148 (47Ch)
; Line 499
	lis          r10,-27018		; 9676h
	ori          r9,r10,8382		; 20BEh
	stw          r9,vehicles$+350h(r1)		; 1152 (480h)
	lis          r8,-26651		; 97E5h
	ori          r7,r8,23825		; 5D11h
	stw          r7,vehicles$+354h(r1)		; 1156 (484h)
	lis          r6,-26630		; 97FAh
	ori          r5,r6,20278		; 4F36h
	stw          r5,vehicles$+358h(r1)		; 1160 (488h)
	lis          r4,-26601		; 9817h
	ori          r3,r4,7123		; 1BD3h
	stw          r3,vehicles$+35Ch(r1)		; 1164 (48Ch)
; Line 500
	lis          r11,-26021		; 9A5Bh
	ori          r10,r11,7628		; 1DCCh
	stw          r10,vehicles$+360h(r1)		; 1168 (490h)
	lis          r9,-25953		; 9A9Fh
	ori          r8,r9,54239		; 0D3DFh
	stw          r8,vehicles$+364h(r1)		; 1172 (494h)
	lis          r7,-25882		; 9AE6h
	ori          r6,r7,56737		; 0DDA1h
	stw          r6,vehicles$+368h(r1)		; 1176 (498h)
	lis          r5,-25712		; 9B90h
	ori          r4,r5,40084		; 9C94h
	stw          r4,vehicles$+36Ch(r1)		; 1180 (49Ch)
; Line 501
	lis          r3,-25686		; 9BAAh
	ori          r11,r3,28796		; 707Ch
	stw          r11,vehicles$+370h(r1)		; 1184 (4A0h)
	lis          r10,-25534		; 9C42h
	ori          r9,r10,39786		; 9B6Ah
	stw          r9,vehicles$+374h(r1)		; 1188 (4A4h)
	lis          r8,-25498		; 9C66h
	ori          r7,r8,38792		; 9788h
	stw          r7,vehicles$+378h(r1)		; 1192 (4A8h)
	lis          r6,-25358		; 9CF2h
	ori          r5,r6,7695		; 1E0Fh
	stw          r5,vehicles$+37Ch(r1)		; 1196 (4ACh)
; Line 502
	lis          r4,-25340		; 9D04h
	ori          r3,r4,20682		; 50CAh
	stw          r3,vehicles$+380h(r1)		; 1200 (4B0h)
	lis          r11,-25194		; 9D96h
	ori          r10,r11,46171		; 0B45Bh
	stw          r10,vehicles$+384h(r1)		; 1204 (4B4h)
	lis          r9,-25146		; 9DC6h
	ori          r8,r9,27028		; 6994h
	stw          r8,vehicles$+388h(r1)		; 1208 (4B8h)
	lis          r7,-24981		; 9E6Bh
	ori          r6,r7,5334		; 14D6h
	stw          r6,vehicles$+38Ch(r1)		; 1212 (4BCh)
; Line 503
	lis          r5,-24827		; 9F05h
	ori          r4,r5,61697		; 0F101h
	stw          r4,vehicles$+390h(r1)		; 1216 (4C0h)
	lis          r3,-24757		; 9F4Bh
	ori          r11,r3,30654		; 77BEh
	stw          r11,vehicles$+394h(r1)		; 1220 (4C4h)
	lis          r10,-24418		; 0A09Eh
	ori          r9,r10,5629		; 15FDh
	stw          r9,vehicles$+398h(r1)		; 1224 (4C8h)
	lis          r8,-24102		; 0A1DAh
	ori          r7,r8,15505		; 3C91h
	stw          r7,vehicles$+39Ch(r1)		; 1228 (4CCh)
; Line 504
	lis          r6,-23556		; 0A3FCh
	ori          r5,r6,3917		; 0F4Dh
	stw          r5,vehicles$+3A0h(r1)		; 1232 (4D0h)
	lis          r4,-23452		; 0A464h
	ori          r3,r4,25335		; 62F7h
	stw          r3,vehicles$+3A4h(r1)		; 1236 (4D4h)
	lis          r11,-22547		; 0A7EDh
	ori          r10,r11,59213		; 0E74Dh
	stw          r10,vehicles$+3A8h(r1)		; 1240 (4D8h)
	lis          r9,-22529		; 0A7FFh
	ori          r8,r9,13301		; 33F5h
	stw          r8,vehicles$+3ACh(r1)		; 1244 (4DCh)
; Line 505
	lis          r7,-22301		; 0A8E3h
	ori          r6,r7,35585		; 8B01h
	stw          r6,vehicles$+3B0h(r1)		; 1248 (4E0h)
	lis          r5,-22176		; 0A960h
	ori          r4,r5,45374		; 0B13Eh
	stw          r4,vehicles$+3B4h(r1)		; 1252 (4E4h)
	lis          r3,-22136		; 0A988h
	ori          r11,r3,54178		; 0D3A2h
	stw          r11,vehicles$+3B8h(r1)		; 1256 (4E8h)
	lis          r10,-21911		; 0AA69h
	ori          r9,r10,39862		; 9BB6h
	stw          r9,vehicles$+3BCh(r1)		; 1260 (4ECh)
; Line 506
	lis          r8,-21411		; 0AC5Dh
	ori          r7,r8,62741		; 0F515h
	stw          r7,vehicles$+3C0h(r1)		; 1264 (4F0h)
	lis          r6,-20949		; 0AE2Bh
	ori          r5,r6,65172		; 0FE94h
	stw          r5,vehicles$+3C4h(r1)		; 1268 (4F4h)
	lis          r4,-20638		; 0AF62h
	ori          r3,r4,63154		; 0F6B2h
	stw          r3,vehicles$+3C8h(r1)		; 1272 (4F8h)
	lis          r11,-20549		; 0AFBBh
	ori          r10,r11,11428		; 2CA4h
	stw          r10,vehicles$+3CCh(r1)		; 1276 (4FCh)
; Line 507
	lis          r9,-20189		; 0B123h
	ori          r8,r9,5344		; 14E0h
	stw          r8,vehicles$+3D0h(r1)		; 1280 (500h)
	lis          r7,-20008		; 0B1D8h
	ori          r6,r7,3590		; 0E06h
	stw          r6,vehicles$+3D4h(r1)		; 1284 (504h)
	lis          r5,-20007		; 0B1D9h
	ori          r4,r5,23968		; 5DA0h
	stw          r4,vehicles$+3D8h(r1)		; 1288 (508h)
	lis          r3,-19801		; 0B2A7h
	ori          r11,r3,5795		; 16A3h
	stw          r11,vehicles$+3DCh(r1)		; 1292 (50Ch)
; Line 508
	lis          r10,-19714		; 0B2FEh
	ori          r9,r10,23801		; 5CF9h
	stw          r9,vehicles$+3E0h(r1)		; 1296 (510h)
	lis          r8,-19680		; 0B320h
	ori          r7,r8,26258		; 6692h
	stw          r7,vehicles$+3E4h(r1)		; 1300 (514h)
	lis          r6,-19557		; 0B39Bh
	ori          r5,r6,2790		; 0AE6h
	stw          r5,vehicles$+3E8h(r1)		; 1304 (518h)
	lis          r4,-19377		; 0B44Fh
	ori          r3,r4,1410		; 582h
	stw          r3,vehicles$+3ECh(r1)		; 1308 (51Ch)
; Line 509
	lis          r11,-19161		; 0B527h
	ori          r10,r11,37212		; 915Ch
	stw          r10,vehicles$+3F0h(r1)		; 1312 (520h)
	lis          r9,-19157		; 0B52Bh
	ori          r8,r9,20755		; 5113h
	stw          r8,vehicles$+3F4h(r1)		; 1316 (524h)
	lis          r7,-18948		; 0B5FCh
	ori          r6,r7,63310		; 0F74Eh
	stw          r6,vehicles$+3F8h(r1)		; 1320 (528h)
	lis          r5,-18879		; 0B641h
	ori          r4,r5,371		; 173h
	stw          r4,vehicles$+3FCh(r1)		; 1324 (52Ch)
; Line 510
	lis          r3,-18827		; 0B675h
	ori          r11,r3,38892		; 97ECh
	stw          r11,vehicles$+400h(r1)		; 1328 (530h)
	lis          r10,-18567		; 0B779h
	ori          r9,r10,41105		; 0A091h
	stw          r9,vehicles$+404h(r1)		; 1332 (534h)
	lis          r8,-18532		; 0B79Ch
	ori          r7,r8,7157		; 1BF5h
	stw          r7,vehicles$+408h(r1)		; 1336 (538h)
	lis          r6,-18430		; 0B802h
	ori          r5,r6,56646		; 0DD46h
	stw          r5,vehicles$+40Ch(r1)		; 1340 (53Ch)
; Line 511
	lis          r4,-18424		; 0B808h
	ori          r3,r4,4105		; 1009h
	stw          r3,vehicles$+410h(r1)		; 1344 (540h)
	lis          r11,-18400		; 0B820h
	ori          r10,r11,60766		; 0ED5Eh
	stw          r10,vehicles$+414h(r1)		; 1348 (544h)
	lis          r9,-18398		; 0B822h
	ori          r8,r9,41386		; 0A1AAh
	stw          r8,vehicles$+418h(r1)		; 1352 (548h)
	lis          r7,-18206		; 0B8E2h
	ori          r6,r7,44568		; 0AE18h
	stw          r6,vehicles$+41Ch(r1)		; 1356 (54Ch)
; Line 512
	lis          r5,-18143		; 0B921h
	ori          r4,r5,4048		; 0FD0h
	stw          r4,vehicles$+420h(r1)		; 1360 (550h)
	lis          r3,-17973		; 0B9CBh
	ori          r11,r3,15209		; 3B69h
	stw          r11,vehicles$+424h(r1)		; 1364 (554h)
	lis          r10,-17557		; 0BB6Bh
	ori          r9,r10,16463		; 404Fh
	stw          r9,vehicles$+428h(r1)		; 1368 (558h)
	lis          r8,-17358		; 0BC32h
	ori          r7,r8,41787		; 0A33Bh
	stw          r7,vehicles$+42Ch(r1)		; 1372 (55Ch)
; Line 513
	lis          r6,-17255		; 0BC99h
	ori          r5,r6,13577		; 3509h
	stw          r5,vehicles$+430h(r1)		; 1376 (560h)
	lis          r4,-17125		; 0BD1Bh
	ori          r3,r4,14787		; 39C3h
	stw          r3,vehicles$+434h(r1)		; 1380 (564h)
	lis          r11,-16882		; 0BE0Eh
	ori          r10,r11,24870		; 6126h
	stw          r10,vehicles$+438h(r1)		; 1384 (568h)
	lis          r9,-16767		; 0BE81h
	ori          r8,r9,40035		; 9C63h
	stw          r8,vehicles$+43Ch(r1)		; 1388 (56Ch)
; Line 514
	lis          r7,-16618		; 0BF16h
	ori          r6,r7,37344		; 91E0h
	stw          r6,vehicles$+440h(r1)		; 1392 (570h)
	lis          r5,-16029		; 0C163h
	ori          r4,r5,11243		; 2BEBh
	stw          r4,vehicles$+444h(r1)		; 1396 (574h)
	lis          r3,-15954		; 0C1AEh
	ori          r11,r3,19734		; 4D16h
	stw          r11,vehicles$+448h(r1)		; 1400 (578h)
	lis          r10,-15922		; 0C1CEh
	ori          r9,r10,4483		; 1183h
	stw          r9,vehicles$+44Ch(r1)		; 1404 (57Ch)
; Line 515
	lis          r8,-15895		; 0C1E9h
	ori          r7,r8,2258		; 8D2h
	stw          r7,vehicles$+450h(r1)		; 1408 (580h)
	lis          r6,-15721		; 0C297h
	ori          r5,r6,16420		; 4024h
	stw          r5,vehicles$+454h(r1)		; 1412 (584h)
	lis          r4,-15395		; 0C3DDh
	ori          r3,r4,64974		; 0FDCEh
	stw          r3,vehicles$+458h(r1)		; 1416 (588h)
	lis          r11,-15365		; 0C3FBh
	ori          r10,r11,41248		; 0A120h
	stw          r10,vehicles$+45Ch(r1)		; 1420 (58Ch)
; Line 516
	lis          r9,-14653		; 0C6C3h
	ori          r8,r9,9261		; 242Dh
	stw          r8,vehicles$+460h(r1)		; 1424 (590h)
	lis          r7,-14589		; 0C703h
	ori          r6,r7,56159		; 0DB5Fh
	stw          r6,vehicles$+464h(r1)		; 1428 (594h)
	lis          r5,-14462		; 0C782h
	ori          r4,r5,20062		; 4E5Eh
	stw          r4,vehicles$+468h(r1)		; 1432 (598h)
	lis          r3,-13874		; 0C9CEh
	ori          r11,r3,44806		; 0AF06h
	stw          r11,vehicles$+46Ch(r1)		; 1436 (59Ch)
; Line 517
	lis          r10,-13848		; 0C9E8h
	ori          r9,r10,65398		; 0FF76h
	stw          r9,vehicles$+470h(r1)		; 1440 (5A0h)
	lis          r8,-13635		; 0CABDh
	ori          r7,r8,4584		; 11E8h
	stw          r7,vehicles$+474h(r1)		; 1444 (5A4h)
	lis          r6,-13603		; 0CADDh
	ori          r5,r6,23853		; 5D2Dh
	stw          r5,vehicles$+478h(r1)		; 1448 (5A8h)
	lis          r4,-13500		; 0CB44h
	ori          r3,r4,45514		; 0B1CAh
	stw          r3,vehicles$+47Ch(r1)		; 1452 (5ACh)
; Line 518
	lis          r11,-13390		; 0CBB2h
	ori          r10,r11,48654		; 0BE0Eh
	stw          r10,vehicles$+480h(r1)		; 1456 (5B0h)
	lis          r9,-12909		; 0CD93h
	ori          r8,r9,24313		; 5EF9h
	stw          r8,vehicles$+484h(r1)		; 1460 (5B4h)
	lis          r7,-12909		; 0CD93h
	ori          r6,r7,42971		; 0A7DBh
	stw          r6,vehicles$+488h(r1)		; 1464 (5B8h)
	lis          r5,-12765		; 0CE23h
	ori          r4,r5,54207		; 0D3BFh
	stw          r4,vehicles$+48Ch(r1)		; 1468 (5BCh)
; Line 519
	lis          r3,-12602		; 0CEC6h
	ori          r11,r3,47543		; 0B9B7h
	stw          r11,vehicles$+490h(r1)		; 1472 (5C0h)
	lis          r10,-12566		; 0CEEAh
	ori          r9,r10,16203		; 3F4Bh
	stw          r9,vehicles$+494h(r1)		; 1476 (5C4h)
	lis          r8,-12365		; 0CFB3h
	ori          r7,r8,34572		; 870Ch
	stw          r7,vehicles$+498h(r1)		; 1480 (5C8h)
	lis          r6,-12342		; 0CFCAh
	ori          r5,r6,13928		; 3668h
	stw          r5,vehicles$+49Ch(r1)		; 1484 (5CCh)
; Line 520
	lis          r4,-12337		; 0CFCFh
	ori          r3,r4,60219		; 0EB3Bh
	stw          r3,vehicles$+4A0h(r1)		; 1488 (5D0h)
	lis          r11,-12053		; 0D0EBh
	ori          r10,r11,11237		; 2BE5h
	stw          r10,vehicles$+4A4h(r1)		; 1492 (5D4h)
	lis          r9,-11976		; 0D138h
	ori          r8,r9,42683		; 0A6BBh
	stw          r8,vehicles$+4A8h(r1)		; 1496 (5D8h)
	lis          r7,-11861		; 0D1ABh
	ori          r6,r7,46694		; 0B666h
	stw          r6,vehicles$+4ACh(r1)		; 1500 (5DCh)
; Line 521
	lis          r5,-11414		; 0D36Ah
	ori          r4,r5,19268		; 4B44h
	stw          r4,vehicles$+4B0h(r1)		; 1504 (5E0h)
	lis          r3,-11397		; 0D37Bh
	ori          r11,r3,31094		; 7976h
	stw          r11,vehicles$+4B4h(r1)		; 1508 (5E4h)
	lis          r10,-11153		; 0D46Fh
	ori          r9,r10,18231		; 4737h
	stw          r9,vehicles$+4B8h(r1)		; 1512 (5E8h)
	lis          r8,-10889		; 0D577h
	ori          r7,r8,51554		; 0C962h
	stw          r7,vehicles$+4BCh(r1)		; 1516 (5ECh)
; Line 522
	lis          r6,-10457		; 0D727h
	ori          r5,r6,33411		; 8283h
	stw          r5,vehicles$+4C0h(r1)		; 1520 (5F0h)
	lis          r4,-10410		; 0D756h
	ori          r3,r4,17932		; 460Ch
	stw          r3,vehicles$+4C4h(r1)		; 1524 (5F4h)
	lis          r11,-10180		; 0D83Ch
	ori          r10,r11,5070		; 13CEh
	stw          r10,vehicles$+4C8h(r1)		; 1528 (5F8h)
	lis          r9,-9838		; 0D992h
	ori          r8,r9,32739		; 7FE3h
	stw          r8,vehicles$+4CCh(r1)		; 1532 (5FCh)
; Line 523
	lis          r7,-9688		; 0DA28h
	ori          r6,r7,33654		; 8376h
	stw          r6,vehicles$+4D0h(r1)		; 1536 (600h)
	lis          r5,-9640		; 0DA58h
	ori          r4,r5,6563		; 19A3h
	stw          r4,vehicles$+4D4h(r1)		; 1540 (604h)
	lis          r3,-9530		; 0DAC6h
	ori          r11,r3,28946		; 7112h
	stw          r11,vehicles$+4D8h(r1)		; 1544 (608h)
	lis          r10,-9405		; 0DB43h
	ori          r9,r10,35044		; 88E4h
	stw          r9,vehicles$+4DCh(r1)		; 1548 (60Ch)
; Line 524
	lis          r8,-9149		; 0DC43h
	ori          r7,r8,20049		; 4E51h
	stw          r7,vehicles$+4E0h(r1)		; 1552 (610h)
	lis          r6,-9028		; 0DCBCh
	ori          r5,r6,48712		; 0BE48h
	stw          r5,vehicles$+4E4h(r1)		; 1556 (614h)
	lis          r4,-8991		; 0DCE1h
	ori          r3,r4,55799		; 0D9F7h
	stw          r3,vehicles$+4E8h(r1)		; 1560 (618h)
	lis          r11,-8643		; 0DE3Dh
	ori          r10,r11,40226		; 9D22h
	stw          r10,vehicles$+4ECh(r1)		; 1564 (61Ch)
; Line 525
	lis          r9,-8208		; 0DFF0h
	ori          r8,r9,22860		; 594Ch
	stw          r8,vehicles$+4F0h(r1)		; 1568 (620h)
	lis          r7,-7807		; 0E181h
	ori          r6,r7,38322		; 95B2h
	stw          r6,vehicles$+4F4h(r1)		; 1572 (624h)
	lis          r5,-7449		; 0E2E7h
	ori          r4,r5,54443		; 0D4ABh
	stw          r4,vehicles$+4F8h(r1)		; 1576 (628h)
	lis          r3,-6750		; 0E5A2h
	ori          r11,r3,54982		; 0D6C6h
	stw          r11,vehicles$+4FCh(r1)		; 1580 (62Ch)
; Line 526
	lis          r10,-6613		; 0E62Bh
	ori          r9,r10,13851		; 361Bh
	stw          r9,vehicles$+500h(r1)		; 1584 (630h)
	lis          r8,-6588		; 0E644h
	ori          r7,r8,58496		; 0E480h
	stw          r7,vehicles$+504h(r1)		; 1588 (634h)
	lis          r6,-6109		; 0E823h
	ori          r5,r6,64328		; 0FB48h
	stw          r5,vehicles$+508h(r1)		; 1592 (638h)
	lis          r4,-6102		; 0E82Ah
	ori          r3,r4,58966		; 0E656h
	stw          r3,vehicles$+50Ch(r1)		; 1596 (63Ch)
; Line 527
	lis          r11,-6014		; 0E882h
	ori          r10,r11,58870		; 0E5F6h
	stw          r10,vehicles$+510h(r1)		; 1600 (640h)
	lis          r9,-5976		; 0E8A8h
	ori          r8,r9,48552		; 0BDA8h
	stw          r8,vehicles$+514h(r1)		; 1604 (644h)
	lis          r7,-5760		; 0E980h
	ori          r6,r7,21840		; 5550h
	stw          r6,vehicles$+518h(r1)		; 1608 (648h)
	lis          r5,-5335		; 0EB29h
	ori          r4,r5,33431		; 8297h
	stw          r4,vehicles$+51Ch(r1)		; 1612 (64Ch)
; Line 528
	lis          r3,-5264		; 0EB70h
	ori          r11,r3,38495		; 965Fh
	stw          r11,vehicles$+520h(r1)		; 1616 (650h)
	lis          r10,-5182		; 0EBC2h
	ori          r9,r10,19954		; 4DF2h
	stw          r9,vehicles$+524h(r1)		; 1620 (654h)
	lis          r8,-4738		; 0ED7Eh
	ori          r7,r8,44452		; 0ADA4h
	stw          r7,vehicles$+528h(r1)		; 1624 (658h)
	lis          r6,-4651		; 0EDD5h
	ori          r5,r6,5830		; 16C6h
	stw          r5,vehicles$+52Ch(r1)		; 1628 (65Ch)
; Line 529
	lis          r4,-4318		; 0EF22h
	ori          r3,r4,38345		; 95C9h
	stw          r3,vehicles$+530h(r1)		; 1632 (660h)
	lis          r11,-3557		; 0F21Bh
	ori          r10,r11,13246		; 33BEh
	stw          r10,vehicles$+534h(r1)		; 1636 (664h)
	lis          r9,-3476		; 0F26Ch
	ori          r8,r9,61433		; 0EFF9h
	stw          r8,vehicles$+538h(r1)		; 1640 (668h)
	lis          r7,-3273		; 0F337h
	ori          r6,r7,43830		; 0AB36h
	stw          r6,vehicles$+53Ch(r1)		; 1644 (66Ch)
; Line 530
	lis          r5,-2847		; 0F4E1h
	ori          r4,r5,43541		; 0AA15h
	stw          r4,vehicles$+540h(r1)		; 1648 (670h)
	lis          r3,-2429		; 0F683h
	ori          r11,r3,60106		; 0EACAh
	stw          r11,vehicles$+544h(r1)		; 1652 (674h)
	lis          r10,-2304		; 0F700h
	ori          r9,r10,19590		; 4C86h
	stw          r9,vehicles$+548h(r1)		; 1656 (678h)
	lis          r8,-2182		; 0F77Ah
	ori          r7,r8,56882		; 0DE32h
	stw          r7,vehicles$+54Ch(r1)		; 1660 (67Ch)
; Line 531
	lis          r6,-2150		; 0F79Ah
	ori          r5,r6,247		; 0F7h
	stw          r5,vehicles$+550h(r1)		; 1664 (680h)
	lis          r4,-1836		; 0F8D4h
	ori          r3,r4,36474		; 8E7Ah
	stw          r3,vehicles$+554h(r1)		; 1668 (684h)
	lis          r11,-1826		; 0F8DEh
	ori          r10,r11,10664		; 29A8h
	stw          r10,vehicles$+558h(r1)		; 1672 (688h)
	lis          r9,-1744		; 0F930h
	ori          r8,r9,3269		; 0CC5h
	stw          r8,vehicles$+55Ch(r1)		; 1676 (68Ch)
; Line 532
	lis          r7,-1363		; 0FAADh
	ori          r6,r7,34286		; 85EEh
	stw          r6,vehicles$+560h(r1)		; 1680 (690h)
	lis          r5,-1261		; 0FB13h
	ori          r4,r5,14871		; 3A17h
	stw          r4,vehicles$+564h(r1)		; 1684 (694h)
	lis          r3,-772		; 0FCFCh
	ori          r11,r3,46731		; 0B68Bh
	stw          r11,vehicles$+568h(r1)		; 1688 (698h)
	lis          r10,-733		; 0FD23h
	ori          r9,r10,5929		; 1729h
	stw          r9,vehicles$+56Ch(r1)		; 1692 (69Ch)
; Line 533
	lis          r8,-529		; 0FDEFh
	ori          r7,r8,44739		; 0AEC3h
	stw          r7,vehicles$+570h(r1)		; 1696 (6A0h)
	lis          r6,-259		; 0FEFDh
	ori          r5,r6,25679		; 644Fh
	stw          r5,vehicles$+574h(r1)		; 1700 (6A4h)
	lis          r4,-222		; 0FF22h
	ori          r3,r4,53768		; 0D208h
	stw          r3,vehicles$+578h(r1)		; 1704 (6A8h)
	lis          r11,-79		; 0FFB1h
	ori          r10,r11,23390		; 5B5Eh
	stw          r10,vehicles$+57Ch(r1)		; 1708 (6ACh)
$LN13@TheSaiyanP@6:
; Line 539
	lis          r9,?bPlayingGTAV@@3_NA
	lbz          r8,?bPlayingGTAV@@3_NA(r9)
	cmpwi        cr6,r8,0
	beq          cr6,$LN11@TheSaiyanP@6
; Line 541
	lis          r7,?WeaponCannon_Toggle@@3_NA
	lbz          r6,?WeaponCannon_Toggle@@3_NA(r7)
	cmpwi        cr6,r6,0
	beq          cr6,$LN11@TheSaiyanP@6
; Line 543
	lis          r5,?_Ped@@3KA
	lwz          r3,?_Ped@@3KA(r5)
	bl           ?IS_PED_SHOOTING@@YA_NK@Z
	clrlwi       r4,r3,24
	cmpwi        cr6,r4,0
	beq          cr6,$LN11@TheSaiyanP@6
; Line 545
	li           r3,0
	bl           time
	rlwinm       r3,r3,0,0,31
	bl           srand
; Line 546
	lis          r3,__real@40a00000
	lfs          fr1,__real@40a00000(r3)
	addi         r3,r1,pos$88166
	bl           ?_GET_CAMERA_DIRECTION@@YA?AU_Vector3@@M@Z
; Line 547
	addi         r3,r1,dir$88168
	bl           ?_GET_CAMERA_DIRECTION@@YA?AU_Vector3@@XZ
; Line 548
	lis          r11,__real@00000000
	lfs          fr0,__real@00000000(r11)
	stfs         fr0,dir$88168(r1)		; 1720 (6B8h)
; Line 549
	lfs          fr1,dir$88168+4(r1)		; 1724 (6BCh)
	bl           ?abs@@YAMM@Z
	lis          r10,__real@4059000000000000
	lfd          fr13,__real@4059000000000000(r10)
	fadd         fr12,fr13,fr1
	frsp         fr11,fr12
	stfs         fr11,dir$88168+4(r1)		; 1724 (6BCh)
; Line 550
	lfs          fr10,dir$88168+8(r1)		; 1728 (6C0h)
	lis          r9,__real@43020000
	lfs          fr9,__real@43020000(r9)
	fmuls        fr8,fr10,fr9
	stfs         fr8,dir$88168+8(r1)		; 1728 (6C0h)
; Line 551
	lis          r8,?WeaponCannon_Type@@3W4_WeaponCannon_Projectiles@@A
	lwz          r7,?WeaponCannon_Type@@3W4_WeaponCannon_Projectiles@@A(r8)
	cmplwi       cr6,r7,0
	beq          cr6,$LN7@TheSaiyanP@6
	lis          r6,?WeaponCannon_Type@@3W4_WeaponCannon_Projectiles@@A
	lwz          r5,?WeaponCannon_Type@@3W4_WeaponCannon_Projectiles@@A(r6)
	cmplwi       cr6,r5,2
	bne          cr6,$LN8@TheSaiyanP@6
$LN7@TheSaiyanP@6:
; Line 553
	bl           rand
	li           r4,19		; 13h
	divw         r11,r3,r4
	mulli        r10,r11,19		; 13h
	subf         r9,r10,r3
	stw          r9,random$(r1)		; 288 (120h)
; Line 555
	lis          r8,?_Ped@@3KA
	lwz          r3,?_Ped@@3KA(r8)
	bl           ?GET_ENTITY_HEADING@@YAMK@Z
	lis          r7,__real@00000000
	lfs          fr7,__real@00000000(r7)
	fcmpu        cr6,fr1,fr7
	beq          cr6,$LN16@TheSaiyanP@6
	li           r6,1
	stb          r6,6DCh(r1)
	b            $LN17@TheSaiyanP@6
$LN16@TheSaiyanP@6:
	li           r5,0
	stb          r5,6DCh(r1)
$LN17@TheSaiyanP@6:
	lis          r4,?WeaponCannon_Type@@3W4_WeaponCannon_Projectiles@@A
	lwz          r3,?WeaponCannon_Type@@3W4_WeaponCannon_Projectiles@@A(r4)
	cmplwi       cr6,r3,0
	bne          cr6,$LN18@TheSaiyanP@6
	lwz          r11,random$(r1)		; 288 (120h)
	slwi         r10,r11,2
	addi         r9,r1,animals$
	lwzx         r8,r9,r10
	stw          r8,6E0h(r1)
	b            $LN19@TheSaiyanP@6
$LN18@TheSaiyanP@6:
	lwz          r7,random$(r1)		; 288 (120h)
	slwi         r6,r7,2
	addi         r5,r1,pedestrians$
	lwzx         r4,r5,r6
	stw          r4,6E0h(r1)
$LN19@TheSaiyanP@6:
	li           r10,1
	li           r9,1
	lbz          r8,6DCh(r1)
	lfs          fr3,pos$88166+8(r1)		; 1744 (6D0h)
	lfs          fr2,pos$88166+4(r1)		; 1740 (6CCh)
	lfs          fr1,pos$88166(r1)		; 1736 (6C8h)
	lwz          r4,6E0h(r1)
	li           r3,26		; 1Ah
	bl           ?CREATE_PED@@YAKKKMMM_N00@Z
	stw          r3,ped$88172(r1)		; 1748 (6D4h)
; Line 556
	li           r3,1
	stb          r3,7Fh(r1)
	li           r11,0
	stb          r11,77h(r1)
	li           r10,1
	stb          r10,6Fh(r1)
	li           r9,1
	stb          r9,67h(r1)
	li           r8,1
	stb          r8,5Fh(r1)
	li           r7,0
	stb          r7,57h(r1)
	lis          r6,__real@00000000
	lfs          fr6,__real@00000000(r6)
	lis          r5,__real@00000000
	lfs          fr5,__real@00000000(r5)
	lis          r4,__real@00000000
	lfs          fr4,__real@00000000(r4)
	lfs          fr3,dir$88168+8(r1)		; 1728 (6C0h)
	lfs          fr2,dir$88168+4(r1)		; 1724 (6BCh)
	lfs          fr1,dir$88168(r1)		; 1720 (6B8h)
	li           r4,1
	lwz          r3,ped$88172(r1)		; 1748 (6D4h)
	bl           ?APPLY_FORCE_TO_ENTITY@@YAXKKMMMMMM_N00000@Z
	b            $LN11@TheSaiyanP@6
$LN8@TheSaiyanP@6:
; Line 558
	lis          r3,?WeaponCannon_Type@@3W4_WeaponCannon_Projectiles@@A
	lwz          r11,?WeaponCannon_Type@@3W4_WeaponCannon_Projectiles@@A(r3)
	cmplwi       cr6,r11,3
	bne          cr6,$LN5@TheSaiyanP@6
; Line 560
	bl           rand
	li           r10,350		; 15Eh
	divw         r9,r3,r10
	mulli        r8,r9,350		; 15Eh
	subf         r7,r8,r3
	stw          r7,random$(r1)		; 288 (120h)
; Line 562
	lwz          r6,random$(r1)		; 288 (120h)
	slwi         r5,r6,2
	addi         r4,r1,vehicles$
	lwzx         r3,r4,r5
	lis          r11,?Check_SpawnVeh_Hash@@3KA
	stw          r3,?Check_SpawnVeh_Hash@@3KA(r11)
$LN4@TheSaiyanP@6:
; Line 563
	lis          r10,?Check_SpawnVeh_Fulfilled@@3_NA
	lbz          r9,?Check_SpawnVeh_Fulfilled@@3_NA(r10)
	cmpwi        cr6,r9,0
	bne          cr6,$LN3@TheSaiyanP@6
	b            $LN4@TheSaiyanP@6
$LN3@TheSaiyanP@6:
; Line 564
	li           r8,1
	stb          r8,7Fh(r1)
	li           r7,0
	stb          r7,77h(r1)
	li           r6,1
	stb          r6,6Fh(r1)
	li           r5,1
	stb          r5,67h(r1)
	li           r4,1
	stb          r4,5Fh(r1)
	li           r3,0
	stb          r3,57h(r1)
	lis          r11,__real@00000000
	lfs          fr6,__real@00000000(r11)
	lis          r10,__real@00000000
	lfs          fr5,__real@00000000(r10)
	lis          r9,__real@00000000
	lfs          fr4,__real@00000000(r9)
	lfs          fr3,dir$88168+8(r1)		; 1728 (6C0h)
	lfs          fr2,dir$88168+4(r1)		; 1724 (6BCh)
	lfs          fr1,dir$88168(r1)		; 1720 (6B8h)
	li           r4,1
	lis          r8,?Check_SpawnVeh_Handle@@3KA
	lwz          r3,?Check_SpawnVeh_Handle@@3KA(r8)
	bl           ?APPLY_FORCE_TO_ENTITY@@YAXKKMMMMMM_N00000@Z
; Line 565
	lis          r7,?Check_SpawnVeh_Fulfilled@@3_NA
	li           r6,0
	stb          r6,?Check_SpawnVeh_Fulfilled@@3_NA(r7)
	b            $LN11@TheSaiyanP@6
$LN5@TheSaiyanP@6:
; Line 567
	lis          r5,?WeaponCannon_Type@@3W4_WeaponCannon_Projectiles@@A
	lwz          r4,?WeaponCannon_Type@@3W4_WeaponCannon_Projectiles@@A(r5)
	cmplwi       cr6,r4,1
	bne          cr6,$LN11@TheSaiyanP@6
; Line 569
	bl           rand
	li           r11,19		; 13h
	divw         r10,r3,r11
	mulli        r9,r10,19		; 13h
	subf         r8,r9,r3
	stw          r8,random$(r1)		; 288 (120h)
; Line 571
	li           r9,0
	li           r8,1
	li           r7,1
	lfs          fr3,pos$88166+8(r1)		; 1744 (6D0h)
	lfs          fr2,pos$88166+4(r1)		; 1740 (6CCh)
	lfs          fr1,pos$88166(r1)		; 1736 (6C8h)
	lwz          r6,random$(r1)		; 288 (120h)
	slwi         r5,r6,2
	addi         r4,r1,objects$
	lwzx         r3,r4,r5
	bl           ?CREATE_OBJECT@@YAKKMMM_N00@Z
	stw          r3,prop$88180(r1)		; 1752 (6D8h)
; Line 572
	li           r3,1
	stb          r3,7Fh(r1)
	li           r11,0
	stb          r11,77h(r1)
	li           r10,1
	stb          r10,6Fh(r1)
	li           r9,1
	stb          r9,67h(r1)
	li           r8,1
	stb          r8,5Fh(r1)
	li           r7,0
	stb          r7,57h(r1)
	lis          r6,__real@00000000
	lfs          fr6,__real@00000000(r6)
	lis          r5,__real@00000000
	lfs          fr5,__real@00000000(r5)
	lis          r4,__real@00000000
	lfs          fr4,__real@00000000(r4)
	lfs          fr3,dir$88168+8(r1)		; 1728 (6C0h)
	lfs          fr2,dir$88168+4(r1)		; 1724 (6BCh)
	lfs          fr1,dir$88168(r1)		; 1720 (6B8h)
	li           r4,1
	lwz          r3,prop$88180(r1)		; 1752 (6D8h)
	bl           ?APPLY_FORCE_TO_ENTITY@@YAXKKMMMMMM_N00000@Z
$LN11@TheSaiyanP@6:
; Line 577
	b            $LN13@TheSaiyanP@6
; Line 578
	addi         r1,r1,1776		; 6F0h
	lwz          r12,-8(r1)
	mtlr         r12
	blr
$M94536:
; End code for function: ?TheSaiyanProject_WeaponCannon@@YAXXZ
?TheSaiyanProject_WeaponCannon@@YAXXZ ENDP
							; TheSaiyanProject_WeaponCannon
PUBLIC	fabsf
;	COMDAT .pdata
; File c:\program files (x86)\microsoft xbox 360 sdk\include\xbox\math.h
.pdata	SEGMENT
$T94543	DD	?abs@@YAMM@Z
	DD	040000a03H
; Function compile flags: /Odtu

	.code

?abs@@YAMM@Z PROC NEAR					; abs, COMDAT

; Begin code for function: ?abs@@YAMM@Z
; Line 392
	mflr         r12
	stw          r12,-8(r1)
	stwu         r1,-60h(r1)
.endprolog
$M94541:
	stfs         fr1,_X$(r1)		; 116 (74h)
	lfs          fr1,_X$(r1)		; 116 (74h)
	bl           fabsf
	addi         r1,r1,96		; 60h
	lwz          r12,-8(r1)
	mtlr         r12
	blr
$M94542:
; End code for function: ?abs@@YAMM@Z
?abs@@YAMM@Z ENDP
							; abs
EXTRN	fabs:PROC
;	COMDAT .pdata
.pdata	SEGMENT
$T94549	DD	fabsf
	DD	040000b03H
; Function compile flags: /Odtu

	.code

fabsf PROC NEAR						; COMDAT

; Begin code for function: fabsf
; Line 292
	mflr         r12
	stw          r12,-8(r1)
	stwu         r1,-60h(r1)
.endprolog
$M94547:
	stfs         fr1,_X$(r1)		; 116 (74h)
	lfs          fr1,_X$(r1)		; 116 (74h)
	bl           fabs
	frsp         fr1,fr1
	addi         r1,r1,96		; 60h
	lwz          r12,-8(r1)
	mtlr         r12
	blr
$M94548:
; End code for function: fabsf
fabsf	ENDP

EXTRN	_time64:PROC
;	COMDAT .pdata
; File c:\program files (x86)\microsoft xbox 360 sdk\include\xbox\time.inl
.pdata	SEGMENT
$T94555	DD	time
	DD	040000a03H
; Function compile flags: /Odtu

	.code

time PROC NEAR						; COMDAT

; Begin code for function: time
; Line 128
	mflr         r12
	stw          r12,-8(r1)
	stwu         r1,-60h(r1)
.endprolog
$M94553:
	stw          r3,_Time$(r1)		; 116 (74h)
; Line 129
	lwz          r3,_Time$(r1)		; 116 (74h)
	bl           _time64
; Line 130
	addi         r1,r1,96		; 60h
	lwz          r12,-8(r1)
	mtlr         r12
	blr
$M94554:
; End code for function: time
time	ENDP

PUBLIC	??_C@_0BH@EPICEKHK@Zombies?5?$HOr?$HODeactivated?$AA@ ; `string'
PUBLIC	??1?$vector@KV?$allocator@K@std@@@std@@QAA@XZ	; std::vector<unsigned long,std::allocator<unsigned long> >::~vector<unsigned long,std::allocator<unsigned long> >
PUBLIC	??_C@_0M@GFFLEONH@SCR_Torture?$AA@		; `string'
PUBLIC	??_C@_0N@OEEMGMJC@SCR_Dumpster?$AA@		; `string'
PUBLIC	??_C@_0BA@PHJBHDCI@BigHitByVehicle?$AA@		; `string'
PUBLIC	__real@41100000
PUBLIC	__real@3f800000
PUBLIC	__real@461c3e66
PUBLIC	??_C@_00CNPNBAHC@?$AA@				; `string'
PUBLIC	??_C@_0BH@KFCLKLKM@move_m?$EAdrunk?$EAverydrunk?$AA@ ; `string'
PUBLIC	??A?$vector@KV?$allocator@K@std@@@std@@QAAAAKI@Z ; std::vector<unsigned long,std::allocator<unsigned long> >::operator[]
PUBLIC	?size@?$vector@KV?$allocator@K@std@@@std@@QBAIXZ ; std::vector<unsigned long,std::allocator<unsigned long> >::size
PUBLIC	__real@43c80000
PUBLIC	?TheSaiyanProject_Zombies@@YAXXZ		; TheSaiyanProject_Zombies
EXTRN	?_PRINT_TEXT@@YAXPADZZ:PROC			; _PRINT_TEXT
EXTRN	?SET_BLACKOUT@@YAX_N@Z:PROC			; SET_BLACKOUT
EXTRN	?SET_VEHICLE_ENGINE_HEALTH@@YAXKM@Z:PROC	; SET_VEHICLE_ENGINE_HEALTH
EXTRN	?GET_VEHICLE_PED_IS_IN@@YAKKK@Z:PROC		; GET_VEHICLE_PED_IS_IN
EXTRN	?IS_PED_IN_ANY_VEHICLE@@YA_NKK@Z:PROC		; IS_PED_IN_ANY_VEHICLE
EXTRN	?APPLY_PED_DAMAGE_PACK@@YAXKPADMM@Z:PROC	; APPLY_PED_DAMAGE_PACK
EXTRN	?SET_ENTITY_HEALTH@@YAXKK@Z:PROC		; SET_ENTITY_HEALTH
EXTRN	?SET_PED_AS_ENEMY@@YAXK_N@Z:PROC		; SET_PED_AS_ENEMY
EXTRN	?SET_PED_KEEP_TASK@@YAXK_N@Z:PROC		; SET_PED_KEEP_TASK
EXTRN	?TASK_FOLLOW_NAV_MESH_TO_COORD@@YAXKMMMMKMKM@Z:PROC ; TASK_FOLLOW_NAV_MESH_TO_COORD
EXTRN	?SET_MOVE_SPEED_MULTIPLIER@@YAXKM@Z:PROC	; SET_MOVE_SPEED_MULTIPLIER
EXTRN	?SET_PED_COMBAT_ATTRIBUTES@@YAXKK_N@Z:PROC	; SET_PED_COMBAT_ATTRIBUTES
EXTRN	?SET_PED_FLEE_ATTRIBUTES@@YAXKK_N@Z:PROC	; SET_PED_FLEE_ATTRIBUTES
EXTRN	?SET_BLOCKING_OF_NON_TEMPORARY_EVENTS@@YAXK_N@Z:PROC ; SET_BLOCKING_OF_NON_TEMPORARY_EVENTS
EXTRN	?DISABLE_PED_PAIN_AUDIO@@YAXK_N@Z:PROC		; DISABLE_PED_PAIN_AUDIO
EXTRN	?STOP_PED_SPEAKING@@YAXK_N@Z:PROC		; STOP_PED_SPEAKING
EXTRN	?SET_PED_MOVEMENT_CLIPSET@@YAXKPADK@Z:PROC	; SET_PED_MOVEMENT_CLIPSET
EXTRN	strcmp:PROC
EXTRN	strcpy:PROC
EXTRN	?IS_PED_HUMAN@@YA_NK@Z:PROC			; IS_PED_HUMAN
EXTRN	?IS_PED_A_PLAYER@@YA_NK@Z:PROC			; IS_PED_A_PLAYER
EXTRN	?IS_PED_DEAD@@YA_NKK@Z:PROC			; IS_PED_DEAD
EXTRN	?_GET_NEARBY_PEDS@@YA?AV?$vector@KV?$allocator@K@std@@@std@@MK@Z:PROC ; _GET_NEARBY_PEDS
EXTRN	?IS_PLAYER_DEAD@@YA_NK@Z:PROC			; IS_PLAYER_DEAD
EXTRN	__restfpr_26:PROC
EXTRN	__savefpr_26:PROC
;	COMDAT .pdata
; File c:\users\s7clutch\documents\visual studio 2010\projects\the saiyan project\src\dllmain.cpp
.pdata	SEGMENT
$T94571	DD	?TheSaiyanProject_Zombies@@YAXXZ
	DD	040010707H
;	COMDAT ??_C@_0BH@EPICEKHK@Zombies?5?$HOr?$HODeactivated?$AA@
.rdata	SEGMENT
??_C@_0BH@EPICEKHK@Zombies?5?$HOr?$HODeactivated?$AA@ DB 'Zombies ~r~Deac'
	DB	'tivated', 00H				; `string'
;	COMDAT ??_C@_0M@GFFLEONH@SCR_Torture?$AA@
.rdata	SEGMENT
??_C@_0M@GFFLEONH@SCR_Torture?$AA@ DB 'SCR_Torture', 00H ; `string'
;	COMDAT ??_C@_0N@OEEMGMJC@SCR_Dumpster?$AA@
.rdata	SEGMENT
??_C@_0N@OEEMGMJC@SCR_Dumpster?$AA@ DB 'SCR_Dumpster', 00H ; `string'
;	COMDAT ??_C@_0BA@PHJBHDCI@BigHitByVehicle?$AA@
.rdata	SEGMENT
??_C@_0BA@PHJBHDCI@BigHitByVehicle?$AA@ DB 'BigHitByVehicle', 00H ; `string'
;	COMDAT __real@41100000
.rdata	SEGMENT
__real@41100000 DD 041100000r			; 9
;	COMDAT __real@3f800000
.rdata	SEGMENT
__real@3f800000 DD 03f800000r			; 1
;	COMDAT __real@461c3e66
.rdata	SEGMENT
__real@461c3e66 DD 0461c3e66r			; 9999.6
;	COMDAT ??_C@_00CNPNBAHC@?$AA@
.rdata	SEGMENT
??_C@_00CNPNBAHC@?$AA@ DB 00H				; `string'
;	COMDAT ??_C@_0BH@KFCLKLKM@move_m?$EAdrunk?$EAverydrunk?$AA@
.rdata	SEGMENT
??_C@_0BH@KFCLKLKM@move_m?$EAdrunk?$EAverydrunk?$AA@ DB 'move_m@drunk@ver'
	DB	'ydrunk', 00H				; `string'
;	COMDAT __real@43c80000
.rdata	SEGMENT
__real@43c80000 DD 043c80000r			; 400
; Function compile flags: /Odtu

	.code
nearbypeds$88511 = 96					; size = 16
i$88513 = 112						; size = 4

?TheSaiyanProject_Zombies@@YAXXZ PROC NEAR		; TheSaiyanProject_Zombies, COMDAT

; Begin code for function: ?TheSaiyanProject_Zombies@@YAXXZ
; Line 580
	mflr         r12
	stw          r12,-8(r1)
	std          r30,-18h(r1)
	std          r31,-10h(r1)
	addi         r12,r1,-24		; 0FFE8h
	bl           __savefpr_26
	stwu         r1,-0C0h(r1)
.endprolog
$M94569:
$LN13@TheSaiyanP@7:
; Line 583
	lis          r11,?bPlayingGTAV@@3_NA
	lbz          r10,?bPlayingGTAV@@3_NA(r11)
	cmpwi        cr6,r10,0
	beq          cr6,$LN11@TheSaiyanP@7
; Line 585
	lis          r9,?Zombies_Toggle@@3_NA
	lbz          r8,?Zombies_Toggle@@3_NA(r9)
	cmpwi        cr6,r8,0
	beq          cr6,$LN11@TheSaiyanP@7
; Line 587
	lis          r7,?_Player@@3KA
	lwz          r3,?_Player@@3KA(r7)
	bl           ?IS_PLAYER_DEAD@@YA_NK@Z
	clrlwi       r6,r3,24
	cmpwi        cr6,r6,0
	bne          cr6,$LN9@TheSaiyanP@7
; Line 589
	li           r5,100		; 64h
	lis          r4,__real@43c80000
	lfs          fr1,__real@43c80000(r4)
	addi         r3,r1,nearbypeds$88511
	bl           ?_GET_NEARBY_PEDS@@YA?AV?$vector@KV?$allocator@K@std@@@std@@MK@Z
; Line 590
	li           r3,0
	stw          r3,i$88513(r1)		; 112 (70h)
	b            $LN8@TheSaiyanP@7
$LN7@TheSaiyanP@7:
	lwz          r11,i$88513(r1)		; 112 (70h)
	addi         r10,r11,1
	stw          r10,i$88513(r1)		; 112 (70h)
$LN8@TheSaiyanP@7:
	addi         r3,r1,nearbypeds$88511
	bl           ?size@?$vector@KV?$allocator@K@std@@@std@@QBAIXZ
	lwz          r9,i$88513(r1)		; 112 (70h)
	cmplw        cr6,r9,r3
	bge          cr6,$LN6@TheSaiyanP@7
; Line 595
	lwz          r4,i$88513(r1)		; 112 (70h)
	addi         r3,r1,nearbypeds$88511
	bl           ??A?$vector@KV?$allocator@K@std@@@std@@QAAAAKI@Z
	lwz          r8,0(r3)
	lis          r7,?_Ped@@3KA
	lwz          r6,?_Ped@@3KA(r7)
	cmplw        cr6,r8,r6
	beq          cr6,$LN5@TheSaiyanP@7
	lwz          r4,i$88513(r1)		; 112 (70h)
	addi         r3,r1,nearbypeds$88511
	bl           ??A?$vector@KV?$allocator@K@std@@@std@@QAAAAKI@Z
	lwz          r3,0(r3)
	li           r4,1
	bl           ?IS_PED_DEAD@@YA_NKK@Z
	clrlwi       r5,r3,24
	cmpwi        cr6,r5,0
	bne          cr6,$LN5@TheSaiyanP@7
	lwz          r4,i$88513(r1)		; 112 (70h)
	addi         r3,r1,nearbypeds$88511
	bl           ??A?$vector@KV?$allocator@K@std@@@std@@QAAAAKI@Z
	lwz          r3,0(r3)
	bl           ?IS_PED_A_PLAYER@@YA_NK@Z
	clrlwi       r4,r3,24
	cmpwi        cr6,r4,0
	bne          cr6,$LN5@TheSaiyanP@7
	lwz          r4,i$88513(r1)		; 112 (70h)
	addi         r3,r1,nearbypeds$88511
	bl           ??A?$vector@KV?$allocator@K@std@@@std@@QAAAAKI@Z
	lwz          r3,0(r3)
	bl           ?IS_PED_HUMAN@@YA_NK@Z
	clrlwi       r3,r3,24
	cmpwi        cr6,r3,0
	beq          cr6,$LN5@TheSaiyanP@7
; Line 597
	lis          r11,??_C@_0BH@KFCLKLKM@move_m?$EAdrunk?$EAverydrunk?$AA@
	addi         r4,r11,??_C@_0BH@KFCLKLKM@move_m?$EAdrunk?$EAverydrunk?$AA@
	lis          r10,?Request_ClipSet@@3PADA
	lwz          r3,?Request_ClipSet@@3PADA(r10)
	bl           strcpy
$LN4@TheSaiyanP@7:
; Line 598
	lis          r9,??_C@_00CNPNBAHC@?$AA@
	addi         r4,r9,??_C@_00CNPNBAHC@?$AA@
	lis          r8,?Request_ClipSet@@3PADA
	lwz          r3,?Request_ClipSet@@3PADA(r8)
	bl           strcmp
	cmpwi        cr6,r3,0
	beq          cr6,$LN3@TheSaiyanP@7
	b            $LN4@TheSaiyanP@7
$LN3@TheSaiyanP@7:
; Line 599
	lis          r31,16000		; 3E80h
	lis          r7,??_C@_0BH@KFCLKLKM@move_m?$EAdrunk?$EAverydrunk?$AA@
	addi         r30,r7,??_C@_0BH@KFCLKLKM@move_m?$EAdrunk?$EAverydrunk?$AA@
	lwz          r4,i$88513(r1)		; 112 (70h)
	addi         r3,r1,nearbypeds$88511
	bl           ??A?$vector@KV?$allocator@K@std@@@std@@QAAAAKI@Z
	lwz          r3,0(r3)
	mr           r4,r30
	mr           r5,r31
	bl           ?SET_PED_MOVEMENT_CLIPSET@@YAXKPADK@Z
; Line 600
	lwz          r4,i$88513(r1)		; 112 (70h)
	addi         r3,r1,nearbypeds$88511
	bl           ??A?$vector@KV?$allocator@K@std@@@std@@QAAAAKI@Z
	lwz          r3,0(r3)
	li           r4,1
	bl           ?STOP_PED_SPEAKING@@YAXK_N@Z
; Line 601
	lwz          r4,i$88513(r1)		; 112 (70h)
	addi         r3,r1,nearbypeds$88511
	bl           ??A?$vector@KV?$allocator@K@std@@@std@@QAAAAKI@Z
	lwz          r3,0(r3)
	li           r4,1
	bl           ?DISABLE_PED_PAIN_AUDIO@@YAXK_N@Z
; Line 602
	lwz          r4,i$88513(r1)		; 112 (70h)
	addi         r3,r1,nearbypeds$88511
	bl           ??A?$vector@KV?$allocator@K@std@@@std@@QAAAAKI@Z
	lwz          r3,0(r3)
	li           r4,1
	bl           ?SET_BLOCKING_OF_NON_TEMPORARY_EVENTS@@YAXK_N@Z
; Line 603
	lwz          r4,i$88513(r1)		; 112 (70h)
	addi         r3,r1,nearbypeds$88511
	bl           ??A?$vector@KV?$allocator@K@std@@@std@@QAAAAKI@Z
	lwz          r3,0(r3)
	li           r4,0
	li           r5,0
	bl           ?SET_PED_FLEE_ATTRIBUTES@@YAXKK_N@Z
; Line 604
	lwz          r4,i$88513(r1)		; 112 (70h)
	addi         r3,r1,nearbypeds$88511
	bl           ??A?$vector@KV?$allocator@K@std@@@std@@QAAAAKI@Z
	lwz          r3,0(r3)
	li           r4,46		; 2Eh
	li           r5,1
	bl           ?SET_PED_COMBAT_ATTRIBUTES@@YAXKK_N@Z
; Line 605
	lis          r6,__real@461c3e66
	lfs          fr31,__real@461c3e66(r6)
	lwz          r4,i$88513(r1)		; 112 (70h)
	addi         r3,r1,nearbypeds$88511
	bl           ??A?$vector@KV?$allocator@K@std@@@std@@QAAAAKI@Z
	lwz          r3,0(r3)
	fmr          fr1,fr31
	bl           ?SET_MOVE_SPEED_MULTIPLIER@@YAXKM@Z
; Line 606
	lis          r5,__real@00000000
	lfs          fr31,__real@00000000(r5)
	lis          r4,__real@00000000
	lfs          fr30,__real@00000000(r4)
	lis          r3,__real@3f800000
	lfs          fr29,__real@3f800000(r3)
	lis          r11,?_Position@@3U_Vector3@@A
	addi         r10,r11,?_Position@@3U_Vector3@@A
	lfs          fr28,8(r10)
	lis          r9,?_Position@@3U_Vector3@@A
	addi         r8,r9,?_Position@@3U_Vector3@@A
	lfs          fr27,4(r8)
	lis          r7,?_Position@@3U_Vector3@@A
	lfs          fr26,?_Position@@3U_Vector3@@A(r7)
	lwz          r4,i$88513(r1)		; 112 (70h)
	addi         r3,r1,nearbypeds$88511
	bl           ??A?$vector@KV?$allocator@K@std@@@std@@QAAAAKI@Z
	lwz          r3,0(r3)
	fmr          fr1,fr26
	fmr          fr2,fr27
	fmr          fr3,fr28
	fmr          fr4,fr29
	li           r8,-1		; 0FFFFh
	fmr          fr5,fr30
	li           r10,0
	fmr          fr6,fr31
	bl           ?TASK_FOLLOW_NAV_MESH_TO_COORD@@YAXKMMMMKMKM@Z
; Line 607
	lwz          r4,i$88513(r1)		; 112 (70h)
	addi         r3,r1,nearbypeds$88511
	bl           ??A?$vector@KV?$allocator@K@std@@@std@@QAAAAKI@Z
	lwz          r3,0(r3)
	li           r4,1
	bl           ?SET_PED_KEEP_TASK@@YAXK_N@Z
; Line 608
	lwz          r4,i$88513(r1)		; 112 (70h)
	addi         r3,r1,nearbypeds$88511
	bl           ??A?$vector@KV?$allocator@K@std@@@std@@QAAAAKI@Z
	lwz          r3,0(r3)
	li           r4,1
	bl           ?SET_PED_AS_ENEMY@@YAXK_N@Z
; Line 609
	lwz          r4,i$88513(r1)		; 112 (70h)
	addi         r3,r1,nearbypeds$88511
	bl           ??A?$vector@KV?$allocator@K@std@@@std@@QAAAAKI@Z
	lwz          r3,0(r3)
	li           r4,3000		; 0BB8h
	bl           ?SET_ENTITY_HEALTH@@YAXKK@Z
; Line 610
	lis          r6,__real@41100000
	lfs          fr31,__real@41100000(r6)
	lis          r5,__real@00000000
	lfs          fr30,__real@00000000(r5)
	lis          r4,??_C@_0BA@PHJBHDCI@BigHitByVehicle?$AA@
	addi         r31,r4,??_C@_0BA@PHJBHDCI@BigHitByVehicle?$AA@
	lwz          r4,i$88513(r1)		; 112 (70h)
	addi         r3,r1,nearbypeds$88511
	bl           ??A?$vector@KV?$allocator@K@std@@@std@@QAAAAKI@Z
	lwz          r3,0(r3)
	mr           r4,r31
	fmr          fr1,fr30
	fmr          fr2,fr31
	bl           ?APPLY_PED_DAMAGE_PACK@@YAXKPADMM@Z
; Line 611
	lis          r3,__real@41100000
	lfs          fr31,__real@41100000(r3)
	lis          r11,__real@00000000
	lfs          fr30,__real@00000000(r11)
	lis          r10,??_C@_0N@OEEMGMJC@SCR_Dumpster?$AA@
	addi         r31,r10,??_C@_0N@OEEMGMJC@SCR_Dumpster?$AA@
	lwz          r4,i$88513(r1)		; 112 (70h)
	addi         r3,r1,nearbypeds$88511
	bl           ??A?$vector@KV?$allocator@K@std@@@std@@QAAAAKI@Z
	lwz          r3,0(r3)
	mr           r4,r31
	fmr          fr1,fr30
	fmr          fr2,fr31
	bl           ?APPLY_PED_DAMAGE_PACK@@YAXKPADMM@Z
; Line 612
	lis          r9,__real@41100000
	lfs          fr31,__real@41100000(r9)
	lis          r8,__real@00000000
	lfs          fr30,__real@00000000(r8)
	lis          r7,??_C@_0M@GFFLEONH@SCR_Torture?$AA@
	addi         r31,r7,??_C@_0M@GFFLEONH@SCR_Torture?$AA@
	lwz          r4,i$88513(r1)		; 112 (70h)
	addi         r3,r1,nearbypeds$88511
	bl           ??A?$vector@KV?$allocator@K@std@@@std@@QAAAAKI@Z
	lwz          r3,0(r3)
	mr           r4,r31
	fmr          fr1,fr30
	fmr          fr2,fr31
	bl           ?APPLY_PED_DAMAGE_PACK@@YAXKPADMM@Z
; Line 613
	lwz          r4,i$88513(r1)		; 112 (70h)
	addi         r3,r1,nearbypeds$88511
	bl           ??A?$vector@KV?$allocator@K@std@@@std@@QAAAAKI@Z
	lwz          r3,0(r3)
	li           r4,0
	bl           ?IS_PED_IN_ANY_VEHICLE@@YA_NKK@Z
	clrlwi       r6,r3,24
	cmpwi        cr6,r6,0
	beq          cr6,$LN5@TheSaiyanP@7
	lis          r5,__real@00000000
	lfs          fr31,__real@00000000(r5)
	lwz          r4,i$88513(r1)		; 112 (70h)
	addi         r3,r1,nearbypeds$88511
	bl           ??A?$vector@KV?$allocator@K@std@@@std@@QAAAAKI@Z
	lwz          r3,0(r3)
	li           r4,0
	bl           ?GET_VEHICLE_PED_IS_IN@@YAKKK@Z
	fmr          fr1,fr31
	bl           ?SET_VEHICLE_ENGINE_HEALTH@@YAXKM@Z
$LN5@TheSaiyanP@7:
; Line 615
	b            $LN7@TheSaiyanP@7
$LN6@TheSaiyanP@7:
; Line 616
	addi         r3,r1,nearbypeds$88511
	bl           ??1?$vector@KV?$allocator@K@std@@@std@@QAA@XZ
; Line 617
	b            $LN11@TheSaiyanP@7
$LN9@TheSaiyanP@7:
; Line 619
	lis          r4,?Menu_CanOpen@@3_NA
	li           r3,1
	stb          r3,?Menu_CanOpen@@3_NA(r4)
; Line 620
	lis          r11,?Zombies_Toggle@@3_NA
	li           r10,0
	stb          r10,?Zombies_Toggle@@3_NA(r11)
; Line 621
	li           r3,0
	bl           ?SET_BLACKOUT@@YAX_N@Z
; Line 622
	lis          r9,??_C@_0BH@EPICEKHK@Zombies?5?$HOr?$HODeactivated?$AA@
	addi         r3,r9,??_C@_0BH@EPICEKHK@Zombies?5?$HOr?$HODeactivated?$AA@
	bl           ?_PRINT_TEXT@@YAXPADZZ
$LN11@TheSaiyanP@7:
; Line 626
	b            $LN13@TheSaiyanP@7
; Line 627
	addi         r1,r1,192		; 0C0h
	addi         r12,r1,-24		; 0FFE8h
	bl           __restfpr_26
	lwz          r12,-8(r1)
	mtlr         r12
	ld           r30,-18h(r1)
	ld           r31,-10h(r1)
	blr
$M94570:
; End code for function: ?TheSaiyanProject_Zombies@@YAXXZ
?TheSaiyanProject_Zombies@@YAXXZ ENDP
							; TheSaiyanProject_Zombies
PUBLIC	??_C@_05OFOKCHBJ@Yacht?$AA@			; `string'
PUBLIC	??_C@_09GCBIJJBH@Weed?5Farm?$AA@		; `string'
PUBLIC	??_C@_08DFAAPNDP@Waypoint?$AA@			; `string'
PUBLIC	??_C@_0O@PBKBMKJE@Vinewood?5Sign?$AA@		; `string'
PUBLIC	??_C@_0BE@JGGIJFFN@Underwater?5WW2?5Tank?$AA@	; `string'
PUBLIC	??_C@_0P@NMJGBFCC@Underwater?5UFO?$AA@		; `string'
PUBLIC	??_C@_0BB@MGFJHHHK@Underwater?5Hatch?$AA@	; `string'
PUBLIC	??_C@_0N@CLPENDJ@Torture?5Room?$AA@		; `string'
PUBLIC	??_C@_0BG@LEFKCOBJ@Strip?5Club?5?$CIdj?5booth?$CJ?$AA@ ; `string'
PUBLIC	??_C@_0P@GGBJNHLN@Slaughterhouse?$AA@		; `string'
PUBLIC	??_C@_0BA@JCIDCCIH@Playboy?5Mansion?$AA@	; `string'
PUBLIC	??_C@_0BD@BNDPHCIO@North?5Yankton?5Bank?$AA@	; `string'
PUBLIC	??_C@_0O@KMLCKJCK@North?5Yankton?$AA@		; `string'
PUBLIC	??_C@_0BD@NLJKEPFP@NOOSE?5Headquarters?$AA@	; `string'
PUBLIC	??_C@_0BC@PMGHBPLJ@Merryweather?5Dock?$AA@	; `string'
PUBLIC	??_C@_0BC@NODEEBNB@LifeInvader?5Lobby?$AA@	; `string'
PUBLIC	??_C@_0P@LNFGDLIG@Lester?8s?5House?$AA@		; `string'
PUBLIC	??_C@_0O@BMJJNEEL@Jewelry?5Store?$AA@		; `string'
PUBLIC	??_C@_0BE@DCCLKEFK@IAA?5Building?5?$CIroof?$CJ?$AA@ ; `string'
PUBLIC	??_C@_0BG@LIGFGJEN@IAA?5Building?5?$CIoffice?$CJ?$AA@ ; `string'
PUBLIC	??_C@_0BD@BJFAOCJH@Humane?5Labs?5Tunnel?$AA@	; `string'
PUBLIC	??_C@_0O@LKAAPEJE@Heist?5Carrier?$AA@		; `string'
PUBLIC	??_C@_0BN@COAAGPHC@Fort?5Zancudo?5ATC?5?$CItop?5floor?$CJ?$AA@ ; `string'
PUBLIC	??_C@_0BM@GAAMLOMJ@Fort?5Zancudo?5ATC?5?$CIentrance?$CJ?$AA@ ; `string'
PUBLIC	??_C@_0BJ@PNCOKMPA@FIB?5Building?5?$CItop?5floor?$CJ?$AA@ ; `string'
PUBLIC	??_C@_0BE@KNJDBEJM@FIB?5Building?5?$CIroof?$CJ?$AA@ ; `string'
PUBLIC	??_C@_0BF@JBPNEJFF@FIB?5Building?5?$CIlobby?$CJ?$AA@ ; `string'
PUBLIC	??_C@_0BB@MBOBNKIB@Epsilon?5Building?$AA@	; `string'
PUBLIC	??_C@_0O@EFFEFDEI@Cluckin?8?5Bell?$AA@		; `string'
PUBLIC	??_C@_06IMKICAEO@Casino?$AA@			; `string'
PUBLIC	??_C@_0L@HCMGMGNG@Cargo?5Ship?$AA@		; `string'
PUBLIC	??_C@_0BE@JGHIEKL@Ammu?9Nation?5?$CIrange?$CJ?$AA@ ; `string'
PUBLIC	??_C@_0BF@CINKIPAP@Ammu?9Nation?5?$CIoffice?$CJ?$AA@ ; `string'
PUBLIC	??_C@_0BA@CFBLDFDE@Airport?5?$CIstrip?$CJ?$AA@	; `string'
PUBLIC	??_C@_0BD@LKEOCFGK@Airport?5?$CIentrance?$CJ?$AA@ ; `string'
PUBLIC	??_C@_0N@CBMEEMPC@10ft?5Infront?$AA@		; `string'
PUBLIC	??_C@_07GJFEPIJN@Thunder?$AA@			; `string'
PUBLIC	??_C@_0L@BHCGBIGO@Snow?5Light?$AA@		; `string'
PUBLIC	??_C@_04LOGCFOOF@Snow?$AA@			; `string'
PUBLIC	??_C@_04OGBFODFK@Smog?$AA@			; `string'
PUBLIC	??_C@_04EEOMLCKJ@Rain?$AA@			; `string'
PUBLIC	??_C@_08KNGKIHBI@Overcast?$AA@			; `string'
PUBLIC	??_C@_07GJJCKENN@Neutral?$AA@			; `string'
PUBLIC	??_C@_05JJMKIHBB@Foggy?$AA@			; `string'
PUBLIC	??_C@_0M@EGGFKMIN@Extra?5Sunny?$AA@		; `string'
PUBLIC	??_C@_05KLNNFPJP@Cloud?$AA@			; `string'
PUBLIC	??_C@_08MOECMOLG@Clearing?$AA@			; `string'
PUBLIC	??_C@_05MDNHABIA@Clear?$AA@			; `string'
PUBLIC	??_C@_08LMFNCICA@Blizzard?$AA@			; `string'
PUBLIC	??_C@_0BC@BAIDEKEO@Straighten?5Object?$AA@	; `string'
PUBLIC	??_C@_0BD@OHMIJIAL@Snap?5to?5the?5Ground?$AA@	; `string'
PUBLIC	??_C@_0O@POOJIPCG@Move?5Backward?$AA@		; `string'
PUBLIC	??_C@_0N@LJCOILHO@Move?5Forward?$AA@		; `string'
PUBLIC	??_C@_0L@DEFDNAK@Move?5Right?$AA@		; `string'
PUBLIC	??_C@_09NGAEBCJG@Move?5Left?$AA@		; `string'
PUBLIC	??_C@_09CEAAIKKP@Move?5Down?$AA@		; `string'
PUBLIC	??_C@_07DMGIOHNE@Move?5Up?$AA@			; `string'
PUBLIC	??_C@_0O@LFDHAFJA@Decrease?5Roll?$AA@		; `string'
PUBLIC	??_C@_0O@OFAEMKGI@Increase?5Roll?$AA@		; `string'
PUBLIC	??_C@_0P@BOHCJAI@Decrease?5Pitch?$AA@		; `string'
PUBLIC	??_C@_0P@LCNBGAOJ@Increase?5Pitch?$AA@		; `string'
PUBLIC	??_C@_0BB@NDOHGAHO@Decrease?5Heading?$AA@	; `string'
PUBLIC	??_C@_0BB@JLICOINB@Increase?5Heading?$AA@	; `string'
PUBLIC	??_C@_0BA@DKNMIDNC@Get?5Object?5Hash?$AA@	; `string'
PUBLIC	??_C@_0BH@CCADFLJD@Get?5Object?5Coordinates?$AA@ ; `string'
PUBLIC	??_C@_0O@FALBAFKE@Delete?5Object?$AA@		; `string'
PUBLIC	??_C@_0M@HKADKGLJ@Copy?5Object?$AA@		; `string'
PUBLIC	??_C@_0BC@FCHNBDMK@Toggle?5Forge?5Mode?$AA@	; `string'
PUBLIC	??_C@_0P@NMKDKJMF@Object?5Spawner?$AA@		; `string'
PUBLIC	??_C@_0O@HBGCPJMJ@Object?5Editor?$AA@		; `string'
PUBLIC	??_C@_07HOMNOOKI@Weather?$AA@			; `string'
PUBLIC	??_C@_09EHNDBPFO@Timescale?$AA@			; `string'
PUBLIC	??_C@_07JMGDFJEK@Gravity?$AA@			; `string'
PUBLIC	??_C@_05BIHKHNOB@Forge?$AA@			; `string'
PUBLIC	??_C@_05BDEBDABC@Youga?$AA@			; `string'
PUBLIC	??_C@_08PEDJCILN@Taco?5Van?$AA@			; `string'
PUBLIC	??_C@_06OFALEGBG@Surfer?$AA@			; `string'
PUBLIC	??_C@_06ILBNDFPC@Speedo?$AA@			; `string'
PUBLIC	??_C@_05EBJBKIPJ@Rumpo?$AA@			; `string'
PUBLIC	??_C@_04NODPAEOJ@Pony?$AA@			; `string'
PUBLIC	??_C@_0P@CMILAPKL@Paradise?5?$CIDLC?$CJ?$AA@	; `string'
PUBLIC	??_C@_07GMIIJNPE@Minivan?$AA@			; `string'
PUBLIC	??_C@_07OMJLKGCG@Journey?$AA@			; `string'
PUBLIC	??_C@_0N@NHEJAEGJ@Gang?5Burrito?$AA@		; `string'
PUBLIC	??_C@_09FMJJPDEG@Clown?5Van?$AA@		; `string'
PUBLIC	??_C@_06INFAJCEF@Camper?$AA@			; `string'
PUBLIC	??_C@_07HNHOAKIC@Burrito?$AA@			; `string'
PUBLIC	??_C@_08FODAPCHG@Boxville?$AA@			; `string'
PUBLIC	??_C@_06IAICJIHL@Bobcat?$AA@			; `string'
PUBLIC	??_C@_05FJPACFEB@Bison?$AA@			; `string'
PUBLIC	??_C@_0BG@DCPFGBEF@Utility?5Truck?5?$CIsmall?$CJ?$AA@ ; `string'
PUBLIC	??_C@_0O@GAPPAHAN@Utility?5Truck?$AA@		; `string'
PUBLIC	??_C@_07JHKDGNGI@Tractor?$AA@			; `string'
PUBLIC	??_C@_0BG@JKPGMJGH@Towtruck?5?$CIsmall?$CJ?5?$CISP?$CJ?$AA@ ; `string'
PUBLIC	??_C@_0O@LPELJIED@Towtruck?5?$CISP?$CJ?$AA@	; `string'
PUBLIC	??_C@_0M@FIMEEHOO@Scrap?5Truck?$AA@		; `string'
PUBLIC	??_C@_06PNFBIENN@Sadler?$AA@			; `string'
PUBLIC	??_C@_06MBOBOFIN@Ripley?$AA@			; `string'
PUBLIC	??_C@_0L@OFEIPMMI@Lawn?5Mower?$AA@		; `string'
PUBLIC	??_C@_08LJJEDEPF@Forklift?$AA@			; `string'
PUBLIC	??_C@_0M@IJCGNOEJ@Fieldmaster?$AA@		; `string'
PUBLIC	??_C@_07LGKNILDF@Docktug?$AA@			; `string'
PUBLIC	??_C@_05GGMELJHE@Caddy?$AA@			; `string'
PUBLIC	??_C@_06LANNNDGB@Airtug?$AA@			; `string'
PUBLIC	??_C@_07HOLEKJLA@Serrano?$AA@			; `string'
PUBLIC	??_C@_08BDLIMIFF@Seminole?$AA@			; `string'
PUBLIC	??_C@_06CDDBDILM@Rocoto?$AA@			; `string'
PUBLIC	??_C@_06GJMFONGK@Radius?$AA@			; `string'
PUBLIC	??_C@_07LPGNOABP@Patriot?$AA@			; `string'
PUBLIC	??_C@_04LPBHBPME@Mesa?$AA@			; `string'
PUBLIC	??_C@_0M@PEBICIDH@Landstalker?$AA@		; `string'
PUBLIC	??_C@_0BA@HHEPLNBN@Huntley?5S?5?$CIDLC?$CJ?$AA@	; `string'
PUBLIC	??_C@_08CAJGGOBD@Habanero?$AA@			; `string'
PUBLIC	??_C@_07OFCIKNFJ@Gresley?$AA@			; `string'
PUBLIC	??_C@_07NCDMOCLG@Granger?$AA@			; `string'
PUBLIC	??_C@_04EIOCNPFN@FQ?52?$AA@			; `string'
PUBLIC	??_C@_06DMFOFMKM@Dubsta?$AA@			; `string'
PUBLIC	??_C@_09BAHEMPEP@Cavalcade?$AA@			; `string'
PUBLIC	??_C@_09EBIFIOGJ@BeeJay?5XL?$AA@		; `string'
PUBLIC	??_C@_06MIIFIGG@Baller?$AA@			; `string'
PUBLIC	??_C@_0P@NIAODMNO@Zentorno?5?$CIDLC?$CJ?$AA@	; `string'
PUBLIC	??_C@_06GKHNCEMP@Voltic?$AA@			; `string'
PUBLIC	??_C@_05CPFMJMDJ@Vacca?$AA@			; `string'
PUBLIC	??_C@_0BA@KLHDFJFH@Turismo?5R?5?$CIDLC?$CJ?$AA@	; `string'
PUBLIC	??_C@_09EHOJABCL@T20?5?$CIDLC?$CJ?$AA@		; `string'
PUBLIC	??_C@_0N@FMPBPJMK@Osiris?5?$CIDLC?$CJ?$AA@	; `string'
PUBLIC	??_C@_08BADKLIKD@Infernus?$AA@			; `string'
PUBLIC	??_C@_09MGLMGCNL@Entity?5XF?$AA@		; `string'
PUBLIC	??_C@_07IMBBPGLN@Cheetah?$AA@			; `string'
PUBLIC	??_C@_06MCJFLPGN@Bullet?$AA@			; `string'
PUBLIC	??_C@_05BNKCEPD@Adder?$AA@			; `string'
PUBLIC	??_C@_06MJNLPBDP@Z?9Type?$AA@			; `string'
PUBLIC	??_C@_0O@OLOBKEBF@Zornado?5?$CIRET?$CJ?$AA@	; `string'
PUBLIC	??_C@_0BC@GGHJKJPE@Stirling?5GT?5?$CIDLC?$CJ?$AA@ ; `string'
PUBLIC	??_C@_0BA@FKIFKJGG@Stinger?5GT?5?$CION?$CJ?$AA@	; `string'
PUBLIC	??_C@_07KFEOGKDA@Stinger?$AA@			; `string'
PUBLIC	??_C@_0BA@PKPAFOLJ@Roosevelt?5?$CIDLC?$CJ?$AA@	; `string'
PUBLIC	??_C@_0O@MKFHGCEE@Pigalle?5?$CIDLC?$CJ?$AA@	; `string'
PUBLIC	??_C@_06MFIKGNFK@Peyote?$AA@			; `string'
PUBLIC	??_C@_06CNIDLHD@Monroe?$AA@			; `string'
PUBLIC	??_C@_06BPNAANEB@Manana?$AA@			; `string'
PUBLIC	??_C@_06JHGIJNKO@JB?5700?$AA@			; `string'
PUBLIC	??_C@_0BH@NINGPDGK@Coquette?5Classic?5?$CIDLC?$CJ?$AA@ ; `string'
PUBLIC	??_C@_0BB@EIMDMIPE@Casco?5?$CIDLC?5?1?5ON?$CJ?$AA@ ; `string'
PUBLIC	??_C@_0N@BIILOLJP@Surano?5?$CIRET?$CJ?$AA@	; `string'
PUBLIC	??_C@_06CBLFAFGA@Sultan?$AA@			; `string'
PUBLIC	??_C@_0BJ@DBNOKADI@Sprunk?5Buffalo?5?$CIEV?5?1?5RP?$CJ?$AA@ ; `string'
PUBLIC	??_C@_0L@DODEAOKD@Schwartzer?$AA@		; `string'
PUBLIC	??_C@_0BN@FBJFMLJC@Rapid?5GT?5?$CIConvertible?$CJ?5?$CIRET?$CJ?$AA@ ; `string'
PUBLIC	??_C@_08PNACNBJL@Rapid?5GT?$AA@			; `string'
PUBLIC	??_C@_08KINHMFJO@Penumbra?$AA@			; `string'
PUBLIC	??_C@_0BJ@JKOFGFDM@Massacro?5?$CIRacecar?$CJ?5?$CIDLC?$CJ?$AA@ ; `string'
PUBLIC	??_C@_0P@EJJMHMAO@Massacro?5?$CIDLC?$CJ?$AA@	; `string'
PUBLIC	??_C@_0BM@LDKFOJAC@Kuruma?5?$CIArmored?$CJ?5?$CIDLC?5?1?5ON?$CJ?$AA@ ; `string'
PUBLIC	??_C@_0BC@ODMDOOCL@Kuruma?5?$CIDLC?5?1?5ON?$CJ?$AA@ ; `string'
PUBLIC	??_C@_0P@CFMNKENE@Khamelion?5?$CION?$CJ?$AA@	; `string'
PUBLIC	??_C@_0BH@PIDIPCNG@Jester?5?$CIRacecar?$CJ?5?$CIDLC?$CJ?$AA@ ; `string'
PUBLIC	??_C@_0N@MJCCBNEH@Jester?5?$CIDLC?$CJ?$AA@	; `string'
PUBLIC	??_C@_0BO@KIAMHGAF@Go?5Go?5Monkey?5Blista?5?$CIEV?5?1?5RP?$CJ?$AA@ ; `string'
PUBLIC	??_C@_04DBCECEB@Futo?$AA@			; `string'
PUBLIC	??_C@_08CKLJGMDI@Fusilade?$AA@			; `string'
PUBLIC	??_C@_0BA@NKKLIJJK@Furore?5GT?5?$CIDLC?$CJ?$AA@	; `string'
PUBLIC	??_C@_07IIFCFDNH@Feltzer?$AA@			; `string'
PUBLIC	??_C@_0P@CJIJAFBM@Elegy?5RH8?5?$CIR?$CK?$CJ?$AA@ ; `string'
PUBLIC	??_C@_08BICPLBPB@Coquette?$AA@			; `string'
PUBLIC	??_C@_05BAJAFMOF@Comet?$AA@			; `string'
PUBLIC	??_C@_0BD@FKOMICFF@Carbonizzare?5?$CIRET?$CJ?$AA@ ; `string'
PUBLIC	??_C@_09JHBIPPPM@Buffalo?5S?$AA@		; `string'
PUBLIC	??_C@_07KHNIKBGK@Buffalo?$AA@			; `string'
PUBLIC	??_C@_0BE@NNDKPGJN@Blista?5Compact?5?$CIEV?$CJ?$AA@ ; `string'
PUBLIC	??_C@_07PICMBPKH@Banshee?$AA@			; `string'
PUBLIC	??_C@_0M@BGPIMLEI@Alpha?5?$CIDLC?$CJ?$AA@	; `string'
PUBLIC	??_C@_0BA@EPFFJJJC@9F?5Cabrio?5?$CIRET?$CJ?$AA@	; `string'
PUBLIC	??_C@_02INCHBAHB@9F?$AA@			; `string'
PUBLIC	??_C@_0M@MJOPNGDA@Trashmaster?$AA@		; `string'
PUBLIC	??_C@_07CJLFHBHN@Tourbus?$AA@			; `string'
PUBLIC	??_C@_04JJAJBIIJ@Taxi?$AA@			; `string'
PUBLIC	??_C@_0BD@FNCBOOKC@Rental?5Shuttle?5Bus?$AA@	; `string'
PUBLIC	??_C@_08LLLFKGEF@Dashound?$AA@			; `string'
PUBLIC	??_C@_03LJIODANL@Bus?$AA@			; `string'
PUBLIC	??_C@_0M@ECBBPPDM@Airport?5Bus?$AA@		; `string'
PUBLIC	??_C@_0L@GKJCJMFK@Washington?$AA@		; `string'
PUBLIC	??_C@_0P@EGPKPIMN@Warrener?5?$CIDLC?$CJ?$AA@	; `string'
PUBLIC	??_C@_09GCMLPNDG@Tailgater?$AA@			; `string'
PUBLIC	??_C@_05GBDBGBOK@Surge?$AA@			; `string'
PUBLIC	??_C@_0O@JGBPMOJP@Super?5Diamond?$AA@		; `string'
PUBLIC	??_C@_07ENIDNHGB@Stretch?$AA@			; `string'
PUBLIC	??_C@_07NNNPFKCG@Stratum?$AA@			; `string'
PUBLIC	??_C@_07KJMCJPGO@Stanier?$AA@			; `string'
PUBLIC	??_C@_08NGIGEIFO@Schafter?$AA@			; `string'
PUBLIC	??_C@_0N@JNIDMNDF@Romero?5House?$AA@		; `string'
PUBLIC	??_C@_06NNHDOJOO@Regina?$AA@			; `string'
PUBLIC	??_C@_05CFOFHCJG@Primo?$AA@			; `string'
PUBLIC	??_C@_07JIKMJFHB@Premier?$AA@			; `string'
PUBLIC	??_C@_08CGAIKJCC@Intruder?$AA@			; `string'
PUBLIC	??_C@_05OOEBDDIB@Ingot?$AA@			; `string'
PUBLIC	??_C@_0P@JPFMBNAC@Glendale?5?$CIDLC?$CJ?$AA@	; `string'
PUBLIC	??_C@_08DDKOFHFH@Fugitive?$AA@			; `string'
PUBLIC	??_C@_07NEIFMLLI@Emperor?$AA@			; `string'
PUBLIC	??_C@_08BOPCKDPP@Asterope?$AA@			; `string'
PUBLIC	??_C@_04BHDOCFEE@Asea?$AA@			; `string'
PUBLIC	??_C@_0BK@OOCJIKIA@Xero?5Blimp?5?$CIEV?5?1?5RP?5?1?5SP?$CJ?$AA@ ; `string'
PUBLIC	??_C@_0N@NNAKBLBG@Vestra?5?$CIDLC?$CJ?$AA@	; `string'
PUBLIC	??_C@_05DGKBLKGB@Velum?$AA@			; `string'
PUBLIC	??_C@_05BLDGNBHE@Titan?$AA@			; `string'
PUBLIC	??_C@_06HJEKKKAD@Shamal?$AA@			; `string'
PUBLIC	??_C@_0M@CIFHDJIE@P?9996?5LAZER?$AA@		; `string'
PUBLIC	??_C@_0N@HDFNNOEP@Miljet?5?$CIDLC?$CJ?$AA@	; `string'
PUBLIC	??_C@_08GCEGHHDN@Mammatus?$AA@			; `string'
PUBLIC	??_C@_07PDAOGHGN@Mallard?$AA@			; `string'
PUBLIC	??_C@_0BD@MJGHCJGI@Luxor?5Deluxe?5?$CIDLC?$CJ?$AA@ ; `string'
PUBLIC	??_C@_05PHJMOEOO@Luxor?$AA@			; `string'
PUBLIC	??_C@_08NFDJEIML@Jet?5?$CISP?$CJ?$AA@		; `string'
PUBLIC	??_C@_0BB@LGEFDMMA@Hydra?5?$CIDLC?5?1?5ON?$CJ?$AA@ ; `string'
PUBLIC	??_C@_06IAACFCPC@Duster?$AA@			; `string'
PUBLIC	??_C@_0P@EKEMDNJL@Dodo?5?$CIEV?5?1?5RP?$CJ?$AA@	; `string'
PUBLIC	??_C@_09FBEOAPCE@Cuban?5800?$AA@		; `string'
PUBLIC	??_C@_0BB@DKFALLHB@Cargo?5Plane?5?$CISP?$CJ?$AA@ ; `string'
PUBLIC	??_C@_0M@MIPCFENB@Besra?5?$CIDLC?$CJ?$AA@	; `string'
PUBLIC	??_C@_0BH@DAJCIKHD@Atomic?5Blimp?5?$CICE?5?1?5SP?$CJ?$AA@ ; `string'
PUBLIC	??_C@_0BE@ECHGGNML@The?5Liberator?5?$CIDLC?$CJ?$AA@ ; `string'
PUBLIC	??_C@_0BF@GNCMECE@Technical?5?$CIDLC?5?1?5ON?$CJ?$AA@ ; `string'
PUBLIC	??_C@_0BC@NJOMHKE@Space?5Docker?5?$CISP?$CJ?$AA@ ; `string'
PUBLIC	??_C@_0M@IECGLMGM@Sandking?5XL?$AA@		; `string'
PUBLIC	??_C@_0N@EBLNONNI@Sandking?5SWB?$AA@		; `string'
PUBLIC	??_C@_05EINCBNHF@Rebel?$AA@			; `string'
PUBLIC	??_C@_0L@LNGJEHCN@Rancher?5XL?$AA@		; `string'
PUBLIC	??_C@_0BE@CHJFCNIN@Mesa?5?$CIMerryweather?$CJ?$AA@ ; `string'
PUBLIC	??_C@_0BD@FIDNGPIN@Marshall?5?$CIEV?5?1?5RP?$CJ?$AA@ ; `string'
PUBLIC	??_C@_0P@KBOFEPEP@Kalahari?5?$CIDLC?$CJ?$AA@	; `string'
PUBLIC	??_C@_0BM@IKBFGEAF@Insurgen?5Pick?9Up?5?$CIDLC?5?1?5ON?$CJ?$AA@ ; `string'
PUBLIC	??_C@_0BF@CBHOHJCO@Insurgent?5?$CIDLC?5?1?5ON?$CJ?$AA@ ; `string'
PUBLIC	??_C@_09ODHHHKC@Injection?$AA@			; `string'
PUBLIC	??_C@_0P@DCMLJDPK@Hot?5Rod?5Blazer?$AA@		; `string'
PUBLIC	??_C@_0L@BIJECJED@Duneloader?$AA@		; `string'
PUBLIC	??_C@_0L@EHKILDKP@Dune?5Buggy?$AA@		; `string'
PUBLIC	??_C@_0BB@INKMDLMJ@Dubsta?56x6?5?$CIDLC?$CJ?$AA@ ; `string'
PUBLIC	??_C@_0O@GNOGKGPN@Brawler?5?$CIDLC?$CJ?$AA@	; `string'
PUBLIC	??_C@_05FBHADPIF@Bodhi?$AA@			; `string'
PUBLIC	??_C@_0BB@PFFEGDBD@Blazer?5Lifeguard?$AA@	; `string'
PUBLIC	??_C@_06DNPEIHEK@Blazer?$AA@			; `string'
PUBLIC	??_C@_0M@HAHFPFDA@Bifta?5?$CIDLC?$CJ?$AA@	; `string'
PUBLIC	??_C@_06NFPMDKDO@Voodoo?$AA@			; `string'
PUBLIC	??_C@_06JPJHMFKE@Vigero?$AA@			; `string'
PUBLIC	??_C@_0M@NBOJGOKH@Virgo?5?$CIDLC?$CJ?$AA@	; `string'
PUBLIC	??_C@_0O@HJKDAIEP@Stallion?5?$CIEV?$CJ?$AA@	; `string'
PUBLIC	??_C@_0O@NCJHCJIL@Slamvan?5?$CIDLC?$CJ?$AA@	; `string'
PUBLIC	??_C@_0M@MMEJHFKG@Sabre?5Turbo?$AA@		; `string'
PUBLIC	??_C@_06JBPIMDNO@Ruiner?$AA@			; `string'
PUBLIC	??_C@_0BL@FEIPGBAM@Redwood?5Gauntlet?5?$CIEV?5?1?5RP?$CJ?$AA@ ; `string'
PUBLIC	??_C@_0BA@KPLMBONL@Rat?9Truck?5?$CIDLC?$CJ?$AA@	; `string'
PUBLIC	??_C@_0L@HMLJCOHC@Rat?9Loader?$AA@		; `string'
PUBLIC	??_C@_0BP@OLKOCADN@Pisswasser?5Dominator?5?$CIEV?5?1?5RP?$CJ?$AA@ ; `string'
PUBLIC	??_C@_07BBCBAOFC@Picador?$AA@			; `string'
PUBLIC	??_C@_07KEMLBHAB@Phoenix?$AA@			; `string'
PUBLIC	??_C@_0O@JMNBEEMB@Hotknife?5?$CICE?$CJ?$AA@	; `string'
PUBLIC	??_C@_08ELAHAPJB@Gauntlet?$AA@			; `string'
PUBLIC	??_C@_0L@PJEBFKH@Dukes?5?$CIEV?$CJ?$AA@		; `string'
PUBLIC	??_C@_0BM@PFEPMMEO@Duke?5O?8Death?5?$CIEV?5?1?5RP?5?1?5SP?$CJ?$AA@ ; `string'
PUBLIC	??_C@_09HBENFCAP@Dominator?$AA@			; `string'
PUBLIC	??_C@_0BI@HBJHEHCP@Coquette?5Blackfin?5?$CIDLC?$CJ?$AA@ ; `string'
PUBLIC	??_C@_0M@PHDBOHMP@Chino?5?$CIDLC?$CJ?$AA@	; `string'
PUBLIC	??_C@_09GCHDDHPD@Buccaneer?$AA@			; `string'
PUBLIC	??_C@_0BP@GGBEMPPA@Burger?5Shot?5Stallion?5?$CIEV?5?1?5RP?$CJ?$AA@ ; `string'
PUBLIC	??_C@_0M@MLHEAOIA@Blade?5?$CIDLC?$CJ?$AA@	; `string'
PUBLIC	??_C@_0BB@LOKBEKEL@Vindicator?5?$CIDLC?$CJ?$AA@	; `string'
PUBLIC	??_C@_05NHOJJJKA@Vader?$AA@			; `string'
PUBLIC	??_C@_0N@COJFDAEB@Thrust?5?$CIDLC?$CJ?$AA@	; `string'
PUBLIC	??_C@_0BA@LCBIIAAK@Sovereign?5?$CIDLC?$CJ?$AA@	; `string'
PUBLIC	??_C@_07OFIHLHAO@Sanchez?$AA@			; `string'
PUBLIC	??_C@_07PBEBKLM@Ruffian?$AA@			; `string'
PUBLIC	??_C@_07PLHHMOKE@PCJ?5600?$AA@			; `string'
PUBLIC	??_C@_07KAGCKCFK@Nemesis?$AA@			; `string'
PUBLIC	??_C@_0BC@COMIINPP@Lectro?5?$CIDLC?5?1?5ON?$CJ?$AA@ ; `string'
PUBLIC	??_C@_0BB@IEBKIILO@Innovation?5?$CIDLC?$CJ?$AA@	; `string'
PUBLIC	??_C@_05BHKLEKM@Hexer?$AA@			; `string'
PUBLIC	??_C@_0P@GLFKNICB@Hakuchou?5?$CIDLC?$CJ?$AA@	; `string'
PUBLIC	??_C@_06KOGAFPBN@Faggio?$AA@			; `string'
PUBLIC	??_C@_0N@NINANNEI@Enduro?5?$CIDLC?$CJ?$AA@	; `string'
PUBLIC	??_C@_08NOIPBJFN@Double?5T?$AA@			; `string'
PUBLIC	??_C@_06DBBELAMD@Daemon?$AA@			; `string'
PUBLIC	??_C@_09FBIAFKDI@Carbon?5RS?$AA@		; `string'
PUBLIC	??_C@_0L@GPAFPGCM@Bati?5801RR?$AA@		; `string'
PUBLIC	??_C@_08NEGHNHDH@Bati?5801?$AA@			; `string'
PUBLIC	??_C@_06KMFJOOHG@Bagger?$AA@			; `string'
PUBLIC	??_C@_05ENDJDPC@Akuma?$AA@			; `string'
PUBLIC	??_C@_0L@LDCAHPBF@Rhino?5Tank?$AA@		; `string'
PUBLIC	??_C@_08GAHJOOIL@Crusader?$AA@			; `string'
PUBLIC	??_C@_0O@LINENJBD@Barracks?5Semi?$AA@		; `string'
PUBLIC	??_C@_08FJPAFNJ@Barracks?$AA@			; `string'
PUBLIC	??_C@_06FLAKOBFL@Tipper?$AA@			; `string'
PUBLIC	??_C@_06KGKMPCGO@Rubble?$AA@			; `string'
PUBLIC	??_C@_05JEEHMIBO@Mixer?$AA@			; `string'
PUBLIC	??_C@_0BE@MPAALENP@Guardian?5?$CIDLC?5?1?5ON?$CJ?$AA@ ; `string'
PUBLIC	??_C@_07CIGBMPHN@Flatbed?$AA@			; `string'
PUBLIC	??_C@_04KHHPIHEA@Dump?$AA@			; `string'
PUBLIC	??_C@_05JGABKEPN@Dozer?$AA@			; `string'
PUBLIC	??_C@_0N@BOKJEHIO@Dock?5Handler?$AA@		; `string'
PUBLIC	??_C@_0M@PKOMAKCD@Cutter?5?$CISP?$CJ?$AA@	; `string'
PUBLIC	??_C@_0BE@JEKMCEPM@Valkyrie?5?$CIDLC?5?1?5ON?$CJ?$AA@ ; `string'
PUBLIC	??_C@_0BD@PDBIGHDN@Swift?5Deluxe?5?$CIDLC?$CJ?$AA@ ; `string'
PUBLIC	??_C@_0M@FMCOLFFL@Swift?5?$CIDLC?$CJ?$AA@	; `string'
PUBLIC	??_C@_0N@KKIDLIFD@Skylift?5?$CISP?$CJ?$AA@	; `string'
PUBLIC	??_C@_0BC@LGMJKECL@Savage?5?$CIDLC?5?1?5ON?$CJ?$AA@ ; `string'
PUBLIC	??_C@_08PEEPBIOP@Maverick?$AA@			; `string'
PUBLIC	??_C@_07CJIMOBCJ@Frogger?$AA@			; `string'
PUBLIC	??_C@_08BCKDNAHK@Cargobob?$AA@			; `string'
PUBLIC	??_C@_0BH@NPCIHFHA@Buzzard?5Attack?5Chopper?$AA@ ; `string'
PUBLIC	??_C@_07IDJAEOLI@Buzzard?$AA@			; `string'
PUBLIC	??_C@_0BB@CJEODFEI@Annihilator?5?$CION?$CJ?$AA@	; `string'
PUBLIC	??_C@_0BG@OBOKDPCO@Unmarked?5Cruiser?5?$CISP?$CJ?$AA@ ; `string'
PUBLIC	??_C@_0M@KLMDFFLP@Sheriff?5SUV?$AA@		; `string'
PUBLIC	??_C@_0BA@MHJBAFCK@Sheriff?5Cruiser?$AA@	; `string'
PUBLIC	??_C@_08NBLHOMJL@Predator?$AA@			; `string'
PUBLIC	??_C@_0BC@FJDKCIIC@Police?5Prison?5Bus?$AA@	; `string'
PUBLIC	??_C@_0BD@LAHFGGJC@Police?5Transporter?$AA@	; `string'
PUBLIC	??_C@_0BI@DBAPAKMA@Police?5Roadcruiser?5?$CISP?$CJ?$AA@ ; `string'
PUBLIC	??_C@_0M@MMAFAHIC@Police?5Riot?$AA@		; `string'
PUBLIC	??_C@_0BE@KJHJCHGK@Police?5Rancher?5?$CISP?$CJ?$AA@ ; `string'
PUBLIC	??_C@_0BA@DOEOEAOO@Police?5Maverick?$AA@	; `string'
PUBLIC	??_C@_0P@BIPADLOI@Police?5Cruiser?$AA@		; `string'
PUBLIC	??_C@_0P@BMECCKJL@Police?5Buffalo?$AA@		; `string'
PUBLIC	??_C@_0M@PIDFBLMM@Police?5Bike?$AA@		; `string'
PUBLIC	??_C@_0M@FIPDDCKG@Park?5Ranger?$AA@		; `string'
PUBLIC	??_C@_0P@CPAKJGAM@Lifeguard?5?$CISP?$CJ?$AA@	; `string'
PUBLIC	??_C@_0M@INALPGNH@Interceptor?$AA@		; `string'
PUBLIC	??_C@_0L@IKOAKAOA@Fire?5Truck?$AA@		; `string'
PUBLIC	??_C@_03NNMALMMK@FIB?$AA@			; `string'
PUBLIC	??_C@_0M@NDMKNICI@FIB?5Buffalo?$AA@		; `string'
PUBLIC	??_C@_09LODJDONJ@Ambulance?$AA@			; `string'
PUBLIC	??_C@_0O@JHDFHJOF@Air?5Ambulance?$AA@		; `string'
PUBLIC	??_C@_0BC@IMLOLCKC@Whippet?5Race?5Bike?$AA@	; `string'
PUBLIC	??_C@_0BF@HMLNDBNG@Tri?9Cycles?5Race?5Bike?$AA@	; `string'
PUBLIC	??_C@_08EEEMGBLC@Scorcher?$AA@			; `string'
PUBLIC	??_C@_06BEFJLACK@Fixter?$AA@			; `string'
PUBLIC	??_C@_0BC@NOFEEHMP@Endurex?5Race?5Bike?$AA@	; `string'
PUBLIC	??_C@_07KDGKLABJ@Cruiser?$AA@			; `string'
PUBLIC	??_C@_03OFIGHJJK@BMX?$AA@			; `string'
PUBLIC	??_C@_0BB@LPHDICHL@Zion?5Cabri?5?$CIRET?$CJ?$AA@ ; `string'
PUBLIC	??_C@_04LFKFKNDF@Zion?$AA@			; `string'
PUBLIC	??_C@_0O@NKDCIAMF@Windsor?5?$CIDLC?$CJ?$AA@	; `string'
PUBLIC	??_C@_0M@MPPAHLCA@Sentinel?5XS?$AA@		; `string'
PUBLIC	??_C@_0P@PMEAIBPH@Sentinel?5?$CIRET?$CJ?$AA@	; `string'
PUBLIC	??_C@_09HGGBDPBH@Oracle?5XS?$AA@		; `string'
PUBLIC	??_C@_06ECLMCCGN@Oracle?$AA@			; `string'
PUBLIC	??_C@_06PDKICOGK@Jackal?$AA@			; `string'
PUBLIC	??_C@_0P@MFBEJMPH@Felon?5GT?5?$CIRET?$CJ?$AA@	; `string'
PUBLIC	??_C@_05POLMNJP@Felon?$AA@			; `string'
PUBLIC	??_C@_04MDIHAFHL@F620?$AA@			; `string'
PUBLIC	??_C@_08EDJMEKON@Exemplar?$AA@			; `string'
PUBLIC	??_C@_0P@NNENIACO@Rhapsody?5?$CIDLC?$CJ?$AA@	; `string'
PUBLIC	??_C@_07HNDMNMML@Prairie?$AA@			; `string'
PUBLIC	??_C@_0M@CMMIDFNA@Panto?5?$CIDLC?$CJ?$AA@	; `string'
PUBLIC	??_C@_0L@MHCBIAIG@Issi?5?$CIRET?$CJ?$AA@	; `string'
PUBLIC	??_C@_0L@EBAKONOH@Dilettante?$AA@		; `string'
PUBLIC	??_C@_06MIHALNE@Blista?$AA@			; `string'
PUBLIC	??_C@_08LDIBGCFE@Stockade?$AA@			; `string'
PUBLIC	??_C@_07CILJMIOJ@Pounder?$AA@			; `string'
PUBLIC	??_C@_07OFINGKDN@Phantom?$AA@			; `string'
PUBLIC	??_C@_06ODEOHKOJ@Packer?$AA@			; `string'
PUBLIC	??_C@_04JMBIGJBC@Mule?$AA@			; `string'
PUBLIC	??_C@_06MFAIPCNL@Hauler?$AA@			; `string'
PUBLIC	??_C@_04CCDNMAPB@Biff?$AA@			; `string'
PUBLIC	??_C@_06OEDNGFC@Benson?$AA@			; `string'
PUBLIC	??_C@_06IKGIMJCE@Tropic?$AA@			; `string'
PUBLIC	??_C@_0L@MFAEONLF@Toro?5?$CIDLC?$CJ?$AA@	; `string'
PUBLIC	??_C@_07GGJELDOM@Suntrap?$AA@			; `string'
PUBLIC	??_C@_0M@KIEGKMD@Submersible?$AA@		; `string'
PUBLIC	??_C@_06KBNALHDK@Squalo?$AA@			; `string'
PUBLIC	??_C@_0O@BAEMMICN@Speeder?5?$CIDLC?$CJ?$AA@	; `string'
PUBLIC	??_C@_08JBPBKCLL@Seashark?$AA@			; `string'
PUBLIC	??_C@_07JICJFPHK@Marquis?$AA@			; `string'
PUBLIC	??_C@_0BB@KHLCLB@Kraken?5?$CIEV?5?1?5RP?$CJ?$AA@ ; `string'
PUBLIC	??_C@_06LBDMKPGH@Jetmax?$AA@			; `string'
PUBLIC	??_C@_06MFOGHBMI@Dinghy?$AA@			; `string'
PUBLIC	??_C@_03ICLGJHKD@Van?$AA@			; `string'
PUBLIC	??_C@_07HCOFHGI@Utility?$AA@			; `string'
PUBLIC	??_C@_03IBJFJGCG@SUV?$AA@			; `string'
PUBLIC	??_C@_05MNDPPJJJ@Super?$AA@			; `string'
PUBLIC	??_C@_0O@KIIDMJDG@Sport?5Classic?$AA@		; `string'
PUBLIC	??_C@_05ECJGCDFD@Sport?$AA@			; `string'
PUBLIC	??_C@_07LMLHFMEG@Service?$AA@			; `string'
PUBLIC	??_C@_05JDNKFLFC@Sedan?$AA@			; `string'
PUBLIC	??_C@_05MHCICFEJ@Plane?$AA@			; `string'
PUBLIC	??_C@_08DEBPJFMG@Off?9Road?$AA@			; `string'
PUBLIC	??_C@_06NCAGMHBO@Muscle?$AA@			; `string'
PUBLIC	??_C@_0L@HMENKOML@Motorcycle?$AA@		; `string'
PUBLIC	??_C@_08LMCCGEHK@Military?$AA@			; `string'
PUBLIC	??_C@_0L@BLDOBJBN@Industrial?$AA@		; `string'
PUBLIC	??_C@_0L@LHKIJOOB@Helicopter?$AA@		; `string'
PUBLIC	??_C@_09BIAKCGK@Emergency?$AA@			; `string'
PUBLIC	??_C@_05EDOHFBGL@Cycle?$AA@			; `string'
PUBLIC	??_C@_05MMAJGBBO@Coupe?$AA@			; `string'
PUBLIC	??_C@_07IPNBHMDC@Compact?$AA@			; `string'
PUBLIC	??_C@_0L@JKHJECLJ@Commercial?$AA@		; `string'
PUBLIC	??_C@_04HKONPJHL@Boat?$AA@			; `string'
PUBLIC	??_C@_07LDLFNPGN@Windows?$AA@			; `string'
PUBLIC	??_C@_06HILDJNPC@Wheels?$AA@			; `string'
PUBLIC	??_C@_05IABAHLDD@Turbo?$AA@			; `string'
PUBLIC	??_C@_0N@POEMFCEL@Transmission?$AA@		; `string'
PUBLIC	??_C@_0L@KLODDAKA@Suspension?$AA@		; `string'
PUBLIC	??_C@_07OCHJPGCP@Spoiler?$AA@			; `string'
PUBLIC	??_C@_06BAGDLLKA@Skirts?$AA@			; `string'
PUBLIC	??_C@_07FGOKCDHA@Respray?$AA@			; `string'
PUBLIC	??_C@_05NGJJADOP@Plate?$AA@			; `string'
PUBLIC	??_C@_0BI@IDNIENGA@Loss?5?1?5Theft?5Protection?$AA@ ; `string'
PUBLIC	??_C@_06EMKJPPBG@Lights?$AA@			; `string'
PUBLIC	??_C@_04JOBAAGCI@Horn?$AA@			; `string'
PUBLIC	??_C@_0L@MBCOMCBC@Explosives?$AA@		; `string'
PUBLIC	??_C@_07CFNHJLMM@Exhaust?$AA@			; `string'
PUBLIC	??_C@_06HBKBHOGJ@Engine?$AA@			; `string'
PUBLIC	??_C@_07FNBCHHPL@Bumpers?$AA@			; `string'
PUBLIC	??_C@_06PFJGOFBK@Brakes?$AA@			; `string'
PUBLIC	??_C@_05JOOFIMIN@Armor?$AA@			; `string'
PUBLIC	??_C@_0BD@EHDHBKDJ@Toggle?5Speedometer?$AA@	; `string'
PUBLIC	??_C@_0BK@EICFFFAE@Toggle?5Rainbow?5Tire?5Smoke?$AA@ ; `string'
PUBLIC	??_C@_0BF@DALKALMH@Toggle?5Rainbow?5Paint?$AA@	; `string'
PUBLIC	??_C@_0BH@EADOHPOP@Toggle?5Parachute?5Eject?$AA@ ; `string'
PUBLIC	??_C@_0L@NKKKIGJP@Toggle?5NOS?$AA@		; `string'
PUBLIC	??_C@_0BC@KJCLIKLK@Toggle?5Hydraulics?$AA@	; `string'
PUBLIC	??_C@_0BH@NJHDMOML@Toggle?5Handbrake?5Drift?$AA@ ; `string'
PUBLIC	??_C@_0BE@FNMCLHPI@Toggle?5Flying?5Bikes?$AA@	; `string'
PUBLIC	??_C@_0BB@HIPIHAEA@Toggle?5Collision?$AA@	; `string'
PUBLIC	??_C@_0P@DEKNJFIK@Unlock?5Vehicle?$AA@		; `string'
PUBLIC	??_C@_0N@KFCMBLAK@Lock?5Vehicle?$AA@		; `string'
PUBLIC	??_C@_0BF@FIJMDMI@Fix?5and?5Wash?5Vehicle?$AA@	; `string'
PUBLIC	??_C@_0BA@EIJNAONK@Vehicle?5Spawner?$AA@	; `string'
PUBLIC	??_C@_0P@CLPOGCEA@Vehicle?5Editor?$AA@		; `string'
PUBLIC	??_C@_0P@HDBAPAHP@Vehicle?5Cannon?$AA@		; `string'
PUBLIC	??_C@_0BC@LIFEMNGH@Pedestrian?5Cannon?$AA@	; `string'
PUBLIC	??_C@_0O@CJIMGLPG@Object?5Cannon?$AA@		; `string'
PUBLIC	??_C@_0O@KGBNIEGM@Animal?5Cannon?$AA@		; `string'
PUBLIC	??_C@_0BF@OIFKEONH@Toggle?5Weapon?5Cannon?$AA@	; `string'
PUBLIC	??_C@_0BG@ONLKAEJB@Toggle?5Unlimited?5Ammo?$AA@	; `string'
PUBLIC	??_C@_0BE@FMGOGNFF@Toggle?5Teleport?5Gun?$AA@	; `string'
PUBLIC	??_C@_0BD@JDEKPIFE@Toggle?5Laser?5Sight?$AA@	; `string'
PUBLIC	??_C@_0BB@HHCJGGHO@Toggle?5Fire?5Ammo?$AA@	; `string'
PUBLIC	??_C@_0BG@OAJKLEIP@Toggle?5Explosive?5Ammo?$AA@	; `string'
PUBLIC	??_C@_0O@NMOBFGO@Toggle?5Aimbot?$AA@		; `string'
PUBLIC	??_C@_0BJ@JHLFOFDF@Activate?5Poltergeist?5Gun?$AA@ ; `string'
PUBLIC	??_C@_0BB@NMDKMGEK@Activate?5Ped?5War?$AA@	; `string'
PUBLIC	??_C@_0P@GEKHEPOO@Cannon?5Options?$AA@		; `string'
PUBLIC	??_C@_0BE@NJIAIPLP@?$DMenter?5option?5here?$DO?$AA@ ; `string'
PUBLIC	??_C@_0BB@PENGAAGE@Toggle?5Tow?5Truck?$AA@	; `string'
PUBLIC	??_C@_0BG@KKEPOFBM@Toggle?5Remote?5Control?$AA@	; `string'
PUBLIC	??_C@_0N@MHDEDIKD@Unlock?5Doors?$AA@		; `string'
PUBLIC	??_C@_0L@PAJNHLGO@Lock?5Doors?$AA@		; `string'
PUBLIC	??_C@_0P@BDCJPCAC@Launch?5Vehicle?$AA@		; `string'
PUBLIC	??_C@_0P@PBPCEJIN@Knock?5Off?5Bike?$AA@		; `string'
PUBLIC	??_C@_0BA@LNJHNABE@Destroy?5Vehicle?$AA@	; `string'
PUBLIC	??_C@_0BE@HDADIEOO@Take?5Unlimited?5Ammo?$AA@	; `string'
PUBLIC	??_C@_0BB@JOMHJHGE@Take?5All?5Weapons?$AA@	; `string'
PUBLIC	??_C@_0BE@OIMFOMHH@Give?5Unlimited?5Ammo?$AA@	; `string'
PUBLIC	??_C@_0BB@BBHDCHJB@Give?5All?5Weapons?$AA@	; `string'
PUBLIC	??_C@_0BA@BEBIJKFJ@Train?5Explosion?$AA@	; `string'
PUBLIC	??_C@_0BK@PEJHCFE@Grenade?5Explosion?5?$CIsmoke?$CJ?$AA@ ; `string'
PUBLIC	??_C@_0BC@BMMKBMFI@Grenade?5Explosion?$AA@	; `string'
PUBLIC	??_C@_0O@GGLIELAE@Gas?5Explosion?$AA@		; `string'
PUBLIC	??_C@_05HJLJONL@Flare?$AA@			; `string'
PUBLIC	??_C@_0BC@PHGBOEPB@Fire?5Extinguisher?$AA@	; `string'
PUBLIC	??_C@_09BJPEJKCC@Fire?5Bomb?$AA@		; `string'
PUBLIC	??_C@_0O@OELBIIHA@Car?5Explosion?$AA@		; `string'
PUBLIC	??_C@_0P@IIAIHEKJ@Boat?5Explosion?$AA@		; `string'
PUBLIC	??_C@_0BA@BOHGAAFL@Blimp?5Explosion?$AA@	; `string'
PUBLIC	??_C@_09KHLPGPGB@Airstrike?$AA@			; `string'
PUBLIC	??_C@_0BN@CFOAMOFE@Enter?5amount?5of?5cash?5to?5drop?$AA@ ; `string'
PUBLIC	??_C@_0O@OGEDHIBD@Drop?5$750?0000?$AA@		; `string'
PUBLIC	??_C@_0O@PGFOFAMJ@Drop?5$500?0000?$AA@		; `string'
PUBLIC	??_C@_0O@KOKDHGHH@Drop?5$250?0000?$AA@		; `string'
PUBLIC	??_C@_0O@HCBEFODD@Drop?5$100?0000?$AA@		; `string'
PUBLIC	??_C@_0N@LJCCLAEH@Drop?5$75?0000?$AA@		; `string'
PUBLIC	??_C@_0N@HOHADANN@Drop?5$50?0000?$AA@		; `string'
PUBLIC	??_C@_0N@OLBKJPOA@Drop?5$25?0000?$AA@		; `string'
PUBLIC	??_C@_0N@IKDPBEMO@Drop?5$10?0000?$AA@		; `string'
PUBLIC	??_C@_0BB@EFNHDKJD@Teleport?5Options?$AA@	; `string'
PUBLIC	??_C@_0BA@ECLACJLA@Vehicle?5Options?$AA@	; `string'
PUBLIC	??_C@_0P@HBEMNBAO@Weapon?5Options?$AA@		; `string'
PUBLIC	??_C@_0BC@EHLPCHJP@Explosion?5Options?$AA@	; `string'
PUBLIC	??_C@_0BC@LFFKAHPC@Cash?5Drop?5Options?$AA@	; `string'
PUBLIC	??_C@_04EIJLDGJE@SCTV?$AA@			; `string'
PUBLIC	??_C@_0O@FGICINFJ@Online?5Player?$AA@		; `string'
PUBLIC	??_C@_0BA@OEHGPJDB@Toggle?5Whiplash?$AA@	; `string'
PUBLIC	??_C@_0BG@PKAIFIJD@Toggle?5Superman?5Punch?$AA@	; `string'
PUBLIC	??_C@_0BD@JNDNDKOJ@Toggle?5Super?5Speed?$AA@	; `string'
PUBLIC	??_C@_0BC@MGBKFBKJ@Toggle?5Super?5Jump?$AA@	; `string'
PUBLIC	??_C@_0BB@FOHDGCKC@Toggle?5Moses?5Mod?$AA@	; `string'
PUBLIC	??_C@_0BE@HGGJEIBD@Toggle?5Invisibility?$AA@	; `string'
PUBLIC	??_C@_0BF@FAKACAJB@Toggle?5Invincibility?$AA@	; `string'
PUBLIC	??_C@_0N@GPKFCDLF@Model?5Editor?$AA@		; `string'
PUBLIC	??_C@_0P@BGPDEBOI@Online?5Players?$AA@		; `string'
PUBLIC	??_C@_0BF@KOLJOFPM@Toggle?5Shark?9O?9Matic?$AA@	; `string'
PUBLIC	??_C@_0O@BCNBPGHO@Toggle?5Noclip?$AA@		; `string'
PUBLIC	??_C@_0BB@HIHIOOLK@Toggle?5No?5Wanted?$AA@	; `string'
PUBLIC	??_C@_0BK@BFHALLNP@Toggle?5Grappling?5Hook?5Gun?$AA@ ; `string'
PUBLIC	??_C@_0BD@MPBOGBJN@Toggle?5FPS?5Counter?$AA@	; `string'
PUBLIC	??_C@_0BE@EKNNIABK@Toggle?5First?5Person?$AA@	; `string'
PUBLIC	??_C@_0L@DDLKAIEJ@Toggle?5ESP?$AA@		; `string'
PUBLIC	??_C@_0BB@OCFAMJCC@Activate?5Zombies?$AA@	; `string'
PUBLIC	??_C@_0O@DHBDOMFO@Teleport?5Menu?$AA@		; `string'
PUBLIC	??_C@_0N@OAHDGEBD@World?5Editor?$AA@		; `string'
PUBLIC	??_C@_0N@JKJCEOIL@Vehicle?5Mods?$AA@		; `string'
PUBLIC	??_C@_0M@HOMIKOAP@Weapon?5Mods?$AA@		; `string'
PUBLIC	??_C@_0M@OMAACFCM@Player?5Mods?$AA@		; `string'
PUBLIC	?AddOption@MenuDisplay@@QAAXPAD@Z		; MenuDisplay::AddOption
PUBLIC	??_C@_09KHECDFAE@Main?5Mods?$AA@		; `string'
PUBLIC	?TheSaiyanProject_CreateMenu@@YAXXZ		; TheSaiyanProject_CreateMenu
;	COMDAT .pdata
.pdata	SEGMENT
$T94577	DD	?TheSaiyanProject_CreateMenu@@YAXXZ
	DD	0400a4803H
;	COMDAT ??_C@_05OFOKCHBJ@Yacht?$AA@
.rdata	SEGMENT
??_C@_05OFOKCHBJ@Yacht?$AA@ DB 'Yacht', 00H		; `string'
;	COMDAT ??_C@_09GCBIJJBH@Weed?5Farm?$AA@
.rdata	SEGMENT
??_C@_09GCBIJJBH@Weed?5Farm?$AA@ DB 'Weed Farm', 00H	; `string'
;	COMDAT ??_C@_08DFAAPNDP@Waypoint?$AA@
.rdata	SEGMENT
??_C@_08DFAAPNDP@Waypoint?$AA@ DB 'Waypoint', 00H	; `string'
;	COMDAT ??_C@_0O@PBKBMKJE@Vinewood?5Sign?$AA@
.rdata	SEGMENT
??_C@_0O@PBKBMKJE@Vinewood?5Sign?$AA@ DB 'Vinewood Sign', 00H ; `string'
;	COMDAT ??_C@_0BE@JGGIJFFN@Underwater?5WW2?5Tank?$AA@
.rdata	SEGMENT
??_C@_0BE@JGGIJFFN@Underwater?5WW2?5Tank?$AA@ DB 'Underwater WW2 Tank', 00H ; `string'
;	COMDAT ??_C@_0P@NMJGBFCC@Underwater?5UFO?$AA@
.rdata	SEGMENT
??_C@_0P@NMJGBFCC@Underwater?5UFO?$AA@ DB 'Underwater UFO', 00H ; `string'
;	COMDAT ??_C@_0BB@MGFJHHHK@Underwater?5Hatch?$AA@
.rdata	SEGMENT
??_C@_0BB@MGFJHHHK@Underwater?5Hatch?$AA@ DB 'Underwater Hatch', 00H ; `string'
;	COMDAT ??_C@_0N@CLPENDJ@Torture?5Room?$AA@
.rdata	SEGMENT
??_C@_0N@CLPENDJ@Torture?5Room?$AA@ DB 'Torture Room', 00H ; `string'
;	COMDAT ??_C@_0BG@LEFKCOBJ@Strip?5Club?5?$CIdj?5booth?$CJ?$AA@
.rdata	SEGMENT
??_C@_0BG@LEFKCOBJ@Strip?5Club?5?$CIdj?5booth?$CJ?$AA@ DB 'Strip Club (dj'
	DB	' booth)', 00H				; `string'
;	COMDAT ??_C@_0P@GGBJNHLN@Slaughterhouse?$AA@
.rdata	SEGMENT
??_C@_0P@GGBJNHLN@Slaughterhouse?$AA@ DB 'Slaughterhouse', 00H ; `string'
;	COMDAT ??_C@_0BA@JCIDCCIH@Playboy?5Mansion?$AA@
.rdata	SEGMENT
??_C@_0BA@JCIDCCIH@Playboy?5Mansion?$AA@ DB 'Playboy Mansion', 00H ; `string'
;	COMDAT ??_C@_0BD@BNDPHCIO@North?5Yankton?5Bank?$AA@
.rdata	SEGMENT
??_C@_0BD@BNDPHCIO@North?5Yankton?5Bank?$AA@ DB 'North Yankton Bank', 00H ; `string'
;	COMDAT ??_C@_0O@KMLCKJCK@North?5Yankton?$AA@
.rdata	SEGMENT
??_C@_0O@KMLCKJCK@North?5Yankton?$AA@ DB 'North Yankton', 00H ; `string'
;	COMDAT ??_C@_0BD@NLJKEPFP@NOOSE?5Headquarters?$AA@
.rdata	SEGMENT
??_C@_0BD@NLJKEPFP@NOOSE?5Headquarters?$AA@ DB 'NOOSE Headquarters', 00H ; `string'
;	COMDAT ??_C@_0BC@PMGHBPLJ@Merryweather?5Dock?$AA@
.rdata	SEGMENT
??_C@_0BC@PMGHBPLJ@Merryweather?5Dock?$AA@ DB 'Merryweather Dock', 00H ; `string'
;	COMDAT ??_C@_0BC@NODEEBNB@LifeInvader?5Lobby?$AA@
.rdata	SEGMENT
??_C@_0BC@NODEEBNB@LifeInvader?5Lobby?$AA@ DB 'LifeInvader Lobby', 00H ; `string'
;	COMDAT ??_C@_0P@LNFGDLIG@Lester?8s?5House?$AA@
.rdata	SEGMENT
??_C@_0P@LNFGDLIG@Lester?8s?5House?$AA@ DB 'Lester''s House', 00H ; `string'
;	COMDAT ??_C@_0O@BMJJNEEL@Jewelry?5Store?$AA@
.rdata	SEGMENT
??_C@_0O@BMJJNEEL@Jewelry?5Store?$AA@ DB 'Jewelry Store', 00H ; `string'
;	COMDAT ??_C@_0BE@DCCLKEFK@IAA?5Building?5?$CIroof?$CJ?$AA@
.rdata	SEGMENT
??_C@_0BE@DCCLKEFK@IAA?5Building?5?$CIroof?$CJ?$AA@ DB 'IAA Building (roo'
	DB	'f)', 00H					; `string'
;	COMDAT ??_C@_0BG@LIGFGJEN@IAA?5Building?5?$CIoffice?$CJ?$AA@
.rdata	SEGMENT
??_C@_0BG@LIGFGJEN@IAA?5Building?5?$CIoffice?$CJ?$AA@ DB 'IAA Building (o'
	DB	'ffice)', 00H				; `string'
;	COMDAT ??_C@_0BD@BJFAOCJH@Humane?5Labs?5Tunnel?$AA@
.rdata	SEGMENT
??_C@_0BD@BJFAOCJH@Humane?5Labs?5Tunnel?$AA@ DB 'Humane Labs Tunnel', 00H ; `string'
;	COMDAT ??_C@_0O@LKAAPEJE@Heist?5Carrier?$AA@
.rdata	SEGMENT
??_C@_0O@LKAAPEJE@Heist?5Carrier?$AA@ DB 'Heist Carrier', 00H ; `string'
;	COMDAT ??_C@_0BN@COAAGPHC@Fort?5Zancudo?5ATC?5?$CItop?5floor?$CJ?$AA@
.rdata	SEGMENT
??_C@_0BN@COAAGPHC@Fort?5Zancudo?5ATC?5?$CItop?5floor?$CJ?$AA@ DB 'Fort Z'
	DB	'ancudo ATC (top floor)', 00H		; `string'
;	COMDAT ??_C@_0BM@GAAMLOMJ@Fort?5Zancudo?5ATC?5?$CIentrance?$CJ?$AA@
.rdata	SEGMENT
??_C@_0BM@GAAMLOMJ@Fort?5Zancudo?5ATC?5?$CIentrance?$CJ?$AA@ DB 'Fort Zan'
	DB	'cudo ATC (entrance)', 00H			; `string'
;	COMDAT ??_C@_0BJ@PNCOKMPA@FIB?5Building?5?$CItop?5floor?$CJ?$AA@
.rdata	SEGMENT
??_C@_0BJ@PNCOKMPA@FIB?5Building?5?$CItop?5floor?$CJ?$AA@ DB 'FIB Buildin'
	DB	'g (top floor)', 00H				; `string'
;	COMDAT ??_C@_0BE@KNJDBEJM@FIB?5Building?5?$CIroof?$CJ?$AA@
.rdata	SEGMENT
??_C@_0BE@KNJDBEJM@FIB?5Building?5?$CIroof?$CJ?$AA@ DB 'FIB Building (roo'
	DB	'f)', 00H					; `string'
;	COMDAT ??_C@_0BF@JBPNEJFF@FIB?5Building?5?$CIlobby?$CJ?$AA@
.rdata	SEGMENT
??_C@_0BF@JBPNEJFF@FIB?5Building?5?$CIlobby?$CJ?$AA@ DB 'FIB Building (lo'
	DB	'bby)', 00H					; `string'
;	COMDAT ??_C@_0BB@MBOBNKIB@Epsilon?5Building?$AA@
.rdata	SEGMENT
??_C@_0BB@MBOBNKIB@Epsilon?5Building?$AA@ DB 'Epsilon Building', 00H ; `string'
;	COMDAT ??_C@_0O@EFFEFDEI@Cluckin?8?5Bell?$AA@
.rdata	SEGMENT
??_C@_0O@EFFEFDEI@Cluckin?8?5Bell?$AA@ DB 'Cluckin'' Bell', 00H ; `string'
;	COMDAT ??_C@_06IMKICAEO@Casino?$AA@
.rdata	SEGMENT
??_C@_06IMKICAEO@Casino?$AA@ DB 'Casino', 00H		; `string'
;	COMDAT ??_C@_0L@HCMGMGNG@Cargo?5Ship?$AA@
.rdata	SEGMENT
??_C@_0L@HCMGMGNG@Cargo?5Ship?$AA@ DB 'Cargo Ship', 00H	; `string'
;	COMDAT ??_C@_0BE@JGHIEKL@Ammu?9Nation?5?$CIrange?$CJ?$AA@
.rdata	SEGMENT
??_C@_0BE@JGHIEKL@Ammu?9Nation?5?$CIrange?$CJ?$AA@ DB 'Ammu-Nation (range'
	DB	')', 00H					; `string'
;	COMDAT ??_C@_0BF@CINKIPAP@Ammu?9Nation?5?$CIoffice?$CJ?$AA@
.rdata	SEGMENT
??_C@_0BF@CINKIPAP@Ammu?9Nation?5?$CIoffice?$CJ?$AA@ DB 'Ammu-Nation (off'
	DB	'ice)', 00H					; `string'
;	COMDAT ??_C@_0BA@CFBLDFDE@Airport?5?$CIstrip?$CJ?$AA@
.rdata	SEGMENT
??_C@_0BA@CFBLDFDE@Airport?5?$CIstrip?$CJ?$AA@ DB 'Airport (strip)', 00H ; `string'
;	COMDAT ??_C@_0BD@LKEOCFGK@Airport?5?$CIentrance?$CJ?$AA@
.rdata	SEGMENT
??_C@_0BD@LKEOCFGK@Airport?5?$CIentrance?$CJ?$AA@ DB 'Airport (entrance)', 00H ; `string'
;	COMDAT ??_C@_0N@CBMEEMPC@10ft?5Infront?$AA@
.rdata	SEGMENT
??_C@_0N@CBMEEMPC@10ft?5Infront?$AA@ DB '10ft Infront', 00H ; `string'
;	COMDAT ??_C@_07GJFEPIJN@Thunder?$AA@
.rdata	SEGMENT
??_C@_07GJFEPIJN@Thunder?$AA@ DB 'Thunder', 00H		; `string'
;	COMDAT ??_C@_0L@BHCGBIGO@Snow?5Light?$AA@
.rdata	SEGMENT
??_C@_0L@BHCGBIGO@Snow?5Light?$AA@ DB 'Snow Light', 00H	; `string'
;	COMDAT ??_C@_04LOGCFOOF@Snow?$AA@
.rdata	SEGMENT
??_C@_04LOGCFOOF@Snow?$AA@ DB 'Snow', 00H		; `string'
;	COMDAT ??_C@_04OGBFODFK@Smog?$AA@
.rdata	SEGMENT
??_C@_04OGBFODFK@Smog?$AA@ DB 'Smog', 00H		; `string'
;	COMDAT ??_C@_04EEOMLCKJ@Rain?$AA@
.rdata	SEGMENT
??_C@_04EEOMLCKJ@Rain?$AA@ DB 'Rain', 00H		; `string'
;	COMDAT ??_C@_08KNGKIHBI@Overcast?$AA@
.rdata	SEGMENT
??_C@_08KNGKIHBI@Overcast?$AA@ DB 'Overcast', 00H	; `string'
;	COMDAT ??_C@_07GJJCKENN@Neutral?$AA@
.rdata	SEGMENT
??_C@_07GJJCKENN@Neutral?$AA@ DB 'Neutral', 00H		; `string'
;	COMDAT ??_C@_05JJMKIHBB@Foggy?$AA@
.rdata	SEGMENT
??_C@_05JJMKIHBB@Foggy?$AA@ DB 'Foggy', 00H		; `string'
;	COMDAT ??_C@_0M@EGGFKMIN@Extra?5Sunny?$AA@
.rdata	SEGMENT
??_C@_0M@EGGFKMIN@Extra?5Sunny?$AA@ DB 'Extra Sunny', 00H ; `string'
;	COMDAT ??_C@_05KLNNFPJP@Cloud?$AA@
.rdata	SEGMENT
??_C@_05KLNNFPJP@Cloud?$AA@ DB 'Cloud', 00H		; `string'
;	COMDAT ??_C@_08MOECMOLG@Clearing?$AA@
.rdata	SEGMENT
??_C@_08MOECMOLG@Clearing?$AA@ DB 'Clearing', 00H	; `string'
;	COMDAT ??_C@_05MDNHABIA@Clear?$AA@
.rdata	SEGMENT
??_C@_05MDNHABIA@Clear?$AA@ DB 'Clear', 00H		; `string'
;	COMDAT ??_C@_08LMFNCICA@Blizzard?$AA@
.rdata	SEGMENT
??_C@_08LMFNCICA@Blizzard?$AA@ DB 'Blizzard', 00H	; `string'
;	COMDAT ??_C@_0BC@BAIDEKEO@Straighten?5Object?$AA@
.rdata	SEGMENT
??_C@_0BC@BAIDEKEO@Straighten?5Object?$AA@ DB 'Straighten Object', 00H ; `string'
;	COMDAT ??_C@_0BD@OHMIJIAL@Snap?5to?5the?5Ground?$AA@
.rdata	SEGMENT
??_C@_0BD@OHMIJIAL@Snap?5to?5the?5Ground?$AA@ DB 'Snap to the Ground', 00H ; `string'
;	COMDAT ??_C@_0O@POOJIPCG@Move?5Backward?$AA@
.rdata	SEGMENT
??_C@_0O@POOJIPCG@Move?5Backward?$AA@ DB 'Move Backward', 00H ; `string'
;	COMDAT ??_C@_0N@LJCOILHO@Move?5Forward?$AA@
.rdata	SEGMENT
??_C@_0N@LJCOILHO@Move?5Forward?$AA@ DB 'Move Forward', 00H ; `string'
;	COMDAT ??_C@_0L@DEFDNAK@Move?5Right?$AA@
.rdata	SEGMENT
??_C@_0L@DEFDNAK@Move?5Right?$AA@ DB 'Move Right', 00H	; `string'
;	COMDAT ??_C@_09NGAEBCJG@Move?5Left?$AA@
.rdata	SEGMENT
??_C@_09NGAEBCJG@Move?5Left?$AA@ DB 'Move Left', 00H	; `string'
;	COMDAT ??_C@_09CEAAIKKP@Move?5Down?$AA@
.rdata	SEGMENT
??_C@_09CEAAIKKP@Move?5Down?$AA@ DB 'Move Down', 00H	; `string'
;	COMDAT ??_C@_07DMGIOHNE@Move?5Up?$AA@
.rdata	SEGMENT
??_C@_07DMGIOHNE@Move?5Up?$AA@ DB 'Move Up', 00H	; `string'
;	COMDAT ??_C@_0O@LFDHAFJA@Decrease?5Roll?$AA@
.rdata	SEGMENT
??_C@_0O@LFDHAFJA@Decrease?5Roll?$AA@ DB 'Decrease Roll', 00H ; `string'
;	COMDAT ??_C@_0O@OFAEMKGI@Increase?5Roll?$AA@
.rdata	SEGMENT
??_C@_0O@OFAEMKGI@Increase?5Roll?$AA@ DB 'Increase Roll', 00H ; `string'
;	COMDAT ??_C@_0P@BOHCJAI@Decrease?5Pitch?$AA@
.rdata	SEGMENT
??_C@_0P@BOHCJAI@Decrease?5Pitch?$AA@ DB 'Decrease Pitch', 00H ; `string'
;	COMDAT ??_C@_0P@LCNBGAOJ@Increase?5Pitch?$AA@
.rdata	SEGMENT
??_C@_0P@LCNBGAOJ@Increase?5Pitch?$AA@ DB 'Increase Pitch', 00H ; `string'
;	COMDAT ??_C@_0BB@NDOHGAHO@Decrease?5Heading?$AA@
.rdata	SEGMENT
??_C@_0BB@NDOHGAHO@Decrease?5Heading?$AA@ DB 'Decrease Heading', 00H ; `string'
;	COMDAT ??_C@_0BB@JLICOINB@Increase?5Heading?$AA@
.rdata	SEGMENT
??_C@_0BB@JLICOINB@Increase?5Heading?$AA@ DB 'Increase Heading', 00H ; `string'
;	COMDAT ??_C@_0BA@DKNMIDNC@Get?5Object?5Hash?$AA@
.rdata	SEGMENT
??_C@_0BA@DKNMIDNC@Get?5Object?5Hash?$AA@ DB 'Get Object Hash', 00H ; `string'
;	COMDAT ??_C@_0BH@CCADFLJD@Get?5Object?5Coordinates?$AA@
.rdata	SEGMENT
??_C@_0BH@CCADFLJD@Get?5Object?5Coordinates?$AA@ DB 'Get Object Coordinat'
	DB	'es', 00H					; `string'
;	COMDAT ??_C@_0O@FALBAFKE@Delete?5Object?$AA@
.rdata	SEGMENT
??_C@_0O@FALBAFKE@Delete?5Object?$AA@ DB 'Delete Object', 00H ; `string'
;	COMDAT ??_C@_0M@HKADKGLJ@Copy?5Object?$AA@
.rdata	SEGMENT
??_C@_0M@HKADKGLJ@Copy?5Object?$AA@ DB 'Copy Object', 00H ; `string'
;	COMDAT ??_C@_0BC@FCHNBDMK@Toggle?5Forge?5Mode?$AA@
.rdata	SEGMENT
??_C@_0BC@FCHNBDMK@Toggle?5Forge?5Mode?$AA@ DB 'Toggle Forge Mode', 00H ; `string'
;	COMDAT ??_C@_0P@NMKDKJMF@Object?5Spawner?$AA@
.rdata	SEGMENT
??_C@_0P@NMKDKJMF@Object?5Spawner?$AA@ DB 'Object Spawner', 00H ; `string'
;	COMDAT ??_C@_0O@HBGCPJMJ@Object?5Editor?$AA@
.rdata	SEGMENT
??_C@_0O@HBGCPJMJ@Object?5Editor?$AA@ DB 'Object Editor', 00H ; `string'
;	COMDAT ??_C@_07HOMNOOKI@Weather?$AA@
.rdata	SEGMENT
??_C@_07HOMNOOKI@Weather?$AA@ DB 'Weather', 00H		; `string'
;	COMDAT ??_C@_09EHNDBPFO@Timescale?$AA@
.rdata	SEGMENT
??_C@_09EHNDBPFO@Timescale?$AA@ DB 'Timescale', 00H	; `string'
;	COMDAT ??_C@_07JMGDFJEK@Gravity?$AA@
.rdata	SEGMENT
??_C@_07JMGDFJEK@Gravity?$AA@ DB 'Gravity', 00H		; `string'
;	COMDAT ??_C@_05BIHKHNOB@Forge?$AA@
.rdata	SEGMENT
??_C@_05BIHKHNOB@Forge?$AA@ DB 'Forge', 00H		; `string'
;	COMDAT ??_C@_05BDEBDABC@Youga?$AA@
.rdata	SEGMENT
??_C@_05BDEBDABC@Youga?$AA@ DB 'Youga', 00H		; `string'
;	COMDAT ??_C@_08PEDJCILN@Taco?5Van?$AA@
.rdata	SEGMENT
??_C@_08PEDJCILN@Taco?5Van?$AA@ DB 'Taco Van', 00H	; `string'
;	COMDAT ??_C@_06OFALEGBG@Surfer?$AA@
.rdata	SEGMENT
??_C@_06OFALEGBG@Surfer?$AA@ DB 'Surfer', 00H		; `string'
;	COMDAT ??_C@_06ILBNDFPC@Speedo?$AA@
.rdata	SEGMENT
??_C@_06ILBNDFPC@Speedo?$AA@ DB 'Speedo', 00H		; `string'
;	COMDAT ??_C@_05EBJBKIPJ@Rumpo?$AA@
.rdata	SEGMENT
??_C@_05EBJBKIPJ@Rumpo?$AA@ DB 'Rumpo', 00H		; `string'
;	COMDAT ??_C@_04NODPAEOJ@Pony?$AA@
.rdata	SEGMENT
??_C@_04NODPAEOJ@Pony?$AA@ DB 'Pony', 00H		; `string'
;	COMDAT ??_C@_0P@CMILAPKL@Paradise?5?$CIDLC?$CJ?$AA@
.rdata	SEGMENT
??_C@_0P@CMILAPKL@Paradise?5?$CIDLC?$CJ?$AA@ DB 'Paradise (DLC)', 00H ; `string'
;	COMDAT ??_C@_07GMIIJNPE@Minivan?$AA@
.rdata	SEGMENT
??_C@_07GMIIJNPE@Minivan?$AA@ DB 'Minivan', 00H		; `string'
;	COMDAT ??_C@_07OMJLKGCG@Journey?$AA@
.rdata	SEGMENT
??_C@_07OMJLKGCG@Journey?$AA@ DB 'Journey', 00H		; `string'
;	COMDAT ??_C@_0N@NHEJAEGJ@Gang?5Burrito?$AA@
.rdata	SEGMENT
??_C@_0N@NHEJAEGJ@Gang?5Burrito?$AA@ DB 'Gang Burrito', 00H ; `string'
;	COMDAT ??_C@_09FMJJPDEG@Clown?5Van?$AA@
.rdata	SEGMENT
??_C@_09FMJJPDEG@Clown?5Van?$AA@ DB 'Clown Van', 00H	; `string'
;	COMDAT ??_C@_06INFAJCEF@Camper?$AA@
.rdata	SEGMENT
??_C@_06INFAJCEF@Camper?$AA@ DB 'Camper', 00H		; `string'
;	COMDAT ??_C@_07HNHOAKIC@Burrito?$AA@
.rdata	SEGMENT
??_C@_07HNHOAKIC@Burrito?$AA@ DB 'Burrito', 00H		; `string'
;	COMDAT ??_C@_08FODAPCHG@Boxville?$AA@
.rdata	SEGMENT
??_C@_08FODAPCHG@Boxville?$AA@ DB 'Boxville', 00H	; `string'
;	COMDAT ??_C@_06IAICJIHL@Bobcat?$AA@
.rdata	SEGMENT
??_C@_06IAICJIHL@Bobcat?$AA@ DB 'Bobcat', 00H		; `string'
;	COMDAT ??_C@_05FJPACFEB@Bison?$AA@
.rdata	SEGMENT
??_C@_05FJPACFEB@Bison?$AA@ DB 'Bison', 00H		; `string'
;	COMDAT ??_C@_0BG@DCPFGBEF@Utility?5Truck?5?$CIsmall?$CJ?$AA@
.rdata	SEGMENT
??_C@_0BG@DCPFGBEF@Utility?5Truck?5?$CIsmall?$CJ?$AA@ DB 'Utility Truck ('
	DB	'small)', 00H				; `string'
;	COMDAT ??_C@_0O@GAPPAHAN@Utility?5Truck?$AA@
.rdata	SEGMENT
??_C@_0O@GAPPAHAN@Utility?5Truck?$AA@ DB 'Utility Truck', 00H ; `string'
;	COMDAT ??_C@_07JHKDGNGI@Tractor?$AA@
.rdata	SEGMENT
??_C@_07JHKDGNGI@Tractor?$AA@ DB 'Tractor', 00H		; `string'
;	COMDAT ??_C@_0BG@JKPGMJGH@Towtruck?5?$CIsmall?$CJ?5?$CISP?$CJ?$AA@
.rdata	SEGMENT
??_C@_0BG@JKPGMJGH@Towtruck?5?$CIsmall?$CJ?5?$CISP?$CJ?$AA@ DB 'Towtruck '
	DB	'(small) (SP)', 00H				; `string'
;	COMDAT ??_C@_0O@LPELJIED@Towtruck?5?$CISP?$CJ?$AA@
.rdata	SEGMENT
??_C@_0O@LPELJIED@Towtruck?5?$CISP?$CJ?$AA@ DB 'Towtruck (SP)', 00H ; `string'
;	COMDAT ??_C@_0M@FIMEEHOO@Scrap?5Truck?$AA@
.rdata	SEGMENT
??_C@_0M@FIMEEHOO@Scrap?5Truck?$AA@ DB 'Scrap Truck', 00H ; `string'
;	COMDAT ??_C@_06PNFBIENN@Sadler?$AA@
.rdata	SEGMENT
??_C@_06PNFBIENN@Sadler?$AA@ DB 'Sadler', 00H		; `string'
;	COMDAT ??_C@_06MBOBOFIN@Ripley?$AA@
.rdata	SEGMENT
??_C@_06MBOBOFIN@Ripley?$AA@ DB 'Ripley', 00H		; `string'
;	COMDAT ??_C@_0L@OFEIPMMI@Lawn?5Mower?$AA@
.rdata	SEGMENT
??_C@_0L@OFEIPMMI@Lawn?5Mower?$AA@ DB 'Lawn Mower', 00H	; `string'
;	COMDAT ??_C@_08LJJEDEPF@Forklift?$AA@
.rdata	SEGMENT
??_C@_08LJJEDEPF@Forklift?$AA@ DB 'Forklift', 00H	; `string'
;	COMDAT ??_C@_0M@IJCGNOEJ@Fieldmaster?$AA@
.rdata	SEGMENT
??_C@_0M@IJCGNOEJ@Fieldmaster?$AA@ DB 'Fieldmaster', 00H ; `string'
;	COMDAT ??_C@_07LGKNILDF@Docktug?$AA@
.rdata	SEGMENT
??_C@_07LGKNILDF@Docktug?$AA@ DB 'Docktug', 00H		; `string'
;	COMDAT ??_C@_05GGMELJHE@Caddy?$AA@
.rdata	SEGMENT
??_C@_05GGMELJHE@Caddy?$AA@ DB 'Caddy', 00H		; `string'
;	COMDAT ??_C@_06LANNNDGB@Airtug?$AA@
.rdata	SEGMENT
??_C@_06LANNNDGB@Airtug?$AA@ DB 'Airtug', 00H		; `string'
;	COMDAT ??_C@_07HOLEKJLA@Serrano?$AA@
.rdata	SEGMENT
??_C@_07HOLEKJLA@Serrano?$AA@ DB 'Serrano', 00H		; `string'
;	COMDAT ??_C@_08BDLIMIFF@Seminole?$AA@
.rdata	SEGMENT
??_C@_08BDLIMIFF@Seminole?$AA@ DB 'Seminole', 00H	; `string'
;	COMDAT ??_C@_06CDDBDILM@Rocoto?$AA@
.rdata	SEGMENT
??_C@_06CDDBDILM@Rocoto?$AA@ DB 'Rocoto', 00H		; `string'
;	COMDAT ??_C@_06GJMFONGK@Radius?$AA@
.rdata	SEGMENT
??_C@_06GJMFONGK@Radius?$AA@ DB 'Radius', 00H		; `string'
;	COMDAT ??_C@_07LPGNOABP@Patriot?$AA@
.rdata	SEGMENT
??_C@_07LPGNOABP@Patriot?$AA@ DB 'Patriot', 00H		; `string'
;	COMDAT ??_C@_04LPBHBPME@Mesa?$AA@
.rdata	SEGMENT
??_C@_04LPBHBPME@Mesa?$AA@ DB 'Mesa', 00H		; `string'
;	COMDAT ??_C@_0M@PEBICIDH@Landstalker?$AA@
.rdata	SEGMENT
??_C@_0M@PEBICIDH@Landstalker?$AA@ DB 'Landstalker', 00H ; `string'
;	COMDAT ??_C@_0BA@HHEPLNBN@Huntley?5S?5?$CIDLC?$CJ?$AA@
.rdata	SEGMENT
??_C@_0BA@HHEPLNBN@Huntley?5S?5?$CIDLC?$CJ?$AA@ DB 'Huntley S (DLC)', 00H ; `string'
;	COMDAT ??_C@_08CAJGGOBD@Habanero?$AA@
.rdata	SEGMENT
??_C@_08CAJGGOBD@Habanero?$AA@ DB 'Habanero', 00H	; `string'
;	COMDAT ??_C@_07OFCIKNFJ@Gresley?$AA@
.rdata	SEGMENT
??_C@_07OFCIKNFJ@Gresley?$AA@ DB 'Gresley', 00H		; `string'
;	COMDAT ??_C@_07NCDMOCLG@Granger?$AA@
.rdata	SEGMENT
??_C@_07NCDMOCLG@Granger?$AA@ DB 'Granger', 00H		; `string'
;	COMDAT ??_C@_04EIOCNPFN@FQ?52?$AA@
.rdata	SEGMENT
??_C@_04EIOCNPFN@FQ?52?$AA@ DB 'FQ 2', 00H		; `string'
;	COMDAT ??_C@_06DMFOFMKM@Dubsta?$AA@
.rdata	SEGMENT
??_C@_06DMFOFMKM@Dubsta?$AA@ DB 'Dubsta', 00H		; `string'
;	COMDAT ??_C@_09BAHEMPEP@Cavalcade?$AA@
.rdata	SEGMENT
??_C@_09BAHEMPEP@Cavalcade?$AA@ DB 'Cavalcade', 00H	; `string'
;	COMDAT ??_C@_09EBIFIOGJ@BeeJay?5XL?$AA@
.rdata	SEGMENT
??_C@_09EBIFIOGJ@BeeJay?5XL?$AA@ DB 'BeeJay XL', 00H	; `string'
;	COMDAT ??_C@_06MIIFIGG@Baller?$AA@
.rdata	SEGMENT
??_C@_06MIIFIGG@Baller?$AA@ DB 'Baller', 00H		; `string'
;	COMDAT ??_C@_0P@NIAODMNO@Zentorno?5?$CIDLC?$CJ?$AA@
.rdata	SEGMENT
??_C@_0P@NIAODMNO@Zentorno?5?$CIDLC?$CJ?$AA@ DB 'Zentorno (DLC)', 00H ; `string'
;	COMDAT ??_C@_06GKHNCEMP@Voltic?$AA@
.rdata	SEGMENT
??_C@_06GKHNCEMP@Voltic?$AA@ DB 'Voltic', 00H		; `string'
;	COMDAT ??_C@_05CPFMJMDJ@Vacca?$AA@
.rdata	SEGMENT
??_C@_05CPFMJMDJ@Vacca?$AA@ DB 'Vacca', 00H		; `string'
;	COMDAT ??_C@_0BA@KLHDFJFH@Turismo?5R?5?$CIDLC?$CJ?$AA@
.rdata	SEGMENT
??_C@_0BA@KLHDFJFH@Turismo?5R?5?$CIDLC?$CJ?$AA@ DB 'Turismo R (DLC)', 00H ; `string'
;	COMDAT ??_C@_09EHOJABCL@T20?5?$CIDLC?$CJ?$AA@
.rdata	SEGMENT
??_C@_09EHOJABCL@T20?5?$CIDLC?$CJ?$AA@ DB 'T20 (DLC)', 00H ; `string'
;	COMDAT ??_C@_0N@FMPBPJMK@Osiris?5?$CIDLC?$CJ?$AA@
.rdata	SEGMENT
??_C@_0N@FMPBPJMK@Osiris?5?$CIDLC?$CJ?$AA@ DB 'Osiris (DLC)', 00H ; `string'
;	COMDAT ??_C@_08BADKLIKD@Infernus?$AA@
.rdata	SEGMENT
??_C@_08BADKLIKD@Infernus?$AA@ DB 'Infernus', 00H	; `string'
;	COMDAT ??_C@_09MGLMGCNL@Entity?5XF?$AA@
.rdata	SEGMENT
??_C@_09MGLMGCNL@Entity?5XF?$AA@ DB 'Entity XF', 00H	; `string'
;	COMDAT ??_C@_07IMBBPGLN@Cheetah?$AA@
.rdata	SEGMENT
??_C@_07IMBBPGLN@Cheetah?$AA@ DB 'Cheetah', 00H		; `string'
;	COMDAT ??_C@_06MCJFLPGN@Bullet?$AA@
.rdata	SEGMENT
??_C@_06MCJFLPGN@Bullet?$AA@ DB 'Bullet', 00H		; `string'
;	COMDAT ??_C@_05BNKCEPD@Adder?$AA@
.rdata	SEGMENT
??_C@_05BNKCEPD@Adder?$AA@ DB 'Adder', 00H		; `string'
;	COMDAT ??_C@_06MJNLPBDP@Z?9Type?$AA@
.rdata	SEGMENT
??_C@_06MJNLPBDP@Z?9Type?$AA@ DB 'Z-Type', 00H		; `string'
;	COMDAT ??_C@_0O@OLOBKEBF@Zornado?5?$CIRET?$CJ?$AA@
.rdata	SEGMENT
??_C@_0O@OLOBKEBF@Zornado?5?$CIRET?$CJ?$AA@ DB 'Zornado (RET)', 00H ; `string'
;	COMDAT ??_C@_0BC@GGHJKJPE@Stirling?5GT?5?$CIDLC?$CJ?$AA@
.rdata	SEGMENT
??_C@_0BC@GGHJKJPE@Stirling?5GT?5?$CIDLC?$CJ?$AA@ DB 'Stirling GT (DLC)', 00H ; `string'
;	COMDAT ??_C@_0BA@FKIFKJGG@Stinger?5GT?5?$CION?$CJ?$AA@
.rdata	SEGMENT
??_C@_0BA@FKIFKJGG@Stinger?5GT?5?$CION?$CJ?$AA@ DB 'Stinger GT (ON)', 00H ; `string'
;	COMDAT ??_C@_07KFEOGKDA@Stinger?$AA@
.rdata	SEGMENT
??_C@_07KFEOGKDA@Stinger?$AA@ DB 'Stinger', 00H		; `string'
;	COMDAT ??_C@_0BA@PKPAFOLJ@Roosevelt?5?$CIDLC?$CJ?$AA@
.rdata	SEGMENT
??_C@_0BA@PKPAFOLJ@Roosevelt?5?$CIDLC?$CJ?$AA@ DB 'Roosevelt (DLC)', 00H ; `string'
;	COMDAT ??_C@_0O@MKFHGCEE@Pigalle?5?$CIDLC?$CJ?$AA@
.rdata	SEGMENT
??_C@_0O@MKFHGCEE@Pigalle?5?$CIDLC?$CJ?$AA@ DB 'Pigalle (DLC)', 00H ; `string'
;	COMDAT ??_C@_06MFIKGNFK@Peyote?$AA@
.rdata	SEGMENT
??_C@_06MFIKGNFK@Peyote?$AA@ DB 'Peyote', 00H		; `string'
;	COMDAT ??_C@_06CNIDLHD@Monroe?$AA@
.rdata	SEGMENT
??_C@_06CNIDLHD@Monroe?$AA@ DB 'Monroe', 00H		; `string'
;	COMDAT ??_C@_06BPNAANEB@Manana?$AA@
.rdata	SEGMENT
??_C@_06BPNAANEB@Manana?$AA@ DB 'Manana', 00H		; `string'
;	COMDAT ??_C@_06JHGIJNKO@JB?5700?$AA@
.rdata	SEGMENT
??_C@_06JHGIJNKO@JB?5700?$AA@ DB 'JB 700', 00H		; `string'
;	COMDAT ??_C@_0BH@NINGPDGK@Coquette?5Classic?5?$CIDLC?$CJ?$AA@
.rdata	SEGMENT
??_C@_0BH@NINGPDGK@Coquette?5Classic?5?$CIDLC?$CJ?$AA@ DB 'Coquette Class'
	DB	'ic (DLC)', 00H				; `string'
;	COMDAT ??_C@_0BB@EIMDMIPE@Casco?5?$CIDLC?5?1?5ON?$CJ?$AA@
.rdata	SEGMENT
??_C@_0BB@EIMDMIPE@Casco?5?$CIDLC?5?1?5ON?$CJ?$AA@ DB 'Casco (DLC / ON)', 00H ; `string'
;	COMDAT ??_C@_0N@BIILOLJP@Surano?5?$CIRET?$CJ?$AA@
.rdata	SEGMENT
??_C@_0N@BIILOLJP@Surano?5?$CIRET?$CJ?$AA@ DB 'Surano (RET)', 00H ; `string'
;	COMDAT ??_C@_06CBLFAFGA@Sultan?$AA@
.rdata	SEGMENT
??_C@_06CBLFAFGA@Sultan?$AA@ DB 'Sultan', 00H		; `string'
;	COMDAT ??_C@_0BJ@DBNOKADI@Sprunk?5Buffalo?5?$CIEV?5?1?5RP?$CJ?$AA@
.rdata	SEGMENT
??_C@_0BJ@DBNOKADI@Sprunk?5Buffalo?5?$CIEV?5?1?5RP?$CJ?$AA@ DB 'Sprunk Bu'
	DB	'ffalo (EV / RP)', 00H			; `string'
;	COMDAT ??_C@_0L@DODEAOKD@Schwartzer?$AA@
.rdata	SEGMENT
??_C@_0L@DODEAOKD@Schwartzer?$AA@ DB 'Schwartzer', 00H	; `string'
;	COMDAT ??_C@_0BN@FBJFMLJC@Rapid?5GT?5?$CIConvertible?$CJ?5?$CIRET?$CJ?$AA@
.rdata	SEGMENT
??_C@_0BN@FBJFMLJC@Rapid?5GT?5?$CIConvertible?$CJ?5?$CIRET?$CJ?$AA@ DB 'R'
	DB	'apid GT (Convertible) (RET)', 00H		; `string'
;	COMDAT ??_C@_08PNACNBJL@Rapid?5GT?$AA@
.rdata	SEGMENT
??_C@_08PNACNBJL@Rapid?5GT?$AA@ DB 'Rapid GT', 00H	; `string'
;	COMDAT ??_C@_08KINHMFJO@Penumbra?$AA@
.rdata	SEGMENT
??_C@_08KINHMFJO@Penumbra?$AA@ DB 'Penumbra', 00H	; `string'
;	COMDAT ??_C@_0BJ@JKOFGFDM@Massacro?5?$CIRacecar?$CJ?5?$CIDLC?$CJ?$AA@
.rdata	SEGMENT
??_C@_0BJ@JKOFGFDM@Massacro?5?$CIRacecar?$CJ?5?$CIDLC?$CJ?$AA@ DB 'Massac'
	DB	'ro (Racecar) (DLC)', 00H			; `string'
;	COMDAT ??_C@_0P@EJJMHMAO@Massacro?5?$CIDLC?$CJ?$AA@
.rdata	SEGMENT
??_C@_0P@EJJMHMAO@Massacro?5?$CIDLC?$CJ?$AA@ DB 'Massacro (DLC)', 00H ; `string'
;	COMDAT ??_C@_0BM@LDKFOJAC@Kuruma?5?$CIArmored?$CJ?5?$CIDLC?5?1?5ON?$CJ?$AA@
.rdata	SEGMENT
??_C@_0BM@LDKFOJAC@Kuruma?5?$CIArmored?$CJ?5?$CIDLC?5?1?5ON?$CJ?$AA@ DB 'K'
	DB	'uruma (Armored) (DLC / ON)', 00H		; `string'
;	COMDAT ??_C@_0BC@ODMDOOCL@Kuruma?5?$CIDLC?5?1?5ON?$CJ?$AA@
.rdata	SEGMENT
??_C@_0BC@ODMDOOCL@Kuruma?5?$CIDLC?5?1?5ON?$CJ?$AA@ DB 'Kuruma (DLC / ON)'
	DB	00H						; `string'
;	COMDAT ??_C@_0P@CFMNKENE@Khamelion?5?$CION?$CJ?$AA@
.rdata	SEGMENT
??_C@_0P@CFMNKENE@Khamelion?5?$CION?$CJ?$AA@ DB 'Khamelion (ON)', 00H ; `string'
;	COMDAT ??_C@_0BH@PIDIPCNG@Jester?5?$CIRacecar?$CJ?5?$CIDLC?$CJ?$AA@
.rdata	SEGMENT
??_C@_0BH@PIDIPCNG@Jester?5?$CIRacecar?$CJ?5?$CIDLC?$CJ?$AA@ DB 'Jester ('
	DB	'Racecar) (DLC)', 00H			; `string'
;	COMDAT ??_C@_0N@MJCCBNEH@Jester?5?$CIDLC?$CJ?$AA@
.rdata	SEGMENT
??_C@_0N@MJCCBNEH@Jester?5?$CIDLC?$CJ?$AA@ DB 'Jester (DLC)', 00H ; `string'
;	COMDAT ??_C@_0BO@KIAMHGAF@Go?5Go?5Monkey?5Blista?5?$CIEV?5?1?5RP?$CJ?$AA@
.rdata	SEGMENT
??_C@_0BO@KIAMHGAF@Go?5Go?5Monkey?5Blista?5?$CIEV?5?1?5RP?$CJ?$AA@ DB 'Go'
	DB	' Go Monkey Blista (EV / RP)', 00H		; `string'
;	COMDAT ??_C@_04DBCECEB@Futo?$AA@
.rdata	SEGMENT
??_C@_04DBCECEB@Futo?$AA@ DB 'Futo', 00H		; `string'
;	COMDAT ??_C@_08CKLJGMDI@Fusilade?$AA@
.rdata	SEGMENT
??_C@_08CKLJGMDI@Fusilade?$AA@ DB 'Fusilade', 00H	; `string'
;	COMDAT ??_C@_0BA@NKKLIJJK@Furore?5GT?5?$CIDLC?$CJ?$AA@
.rdata	SEGMENT
??_C@_0BA@NKKLIJJK@Furore?5GT?5?$CIDLC?$CJ?$AA@ DB 'Furore GT (DLC)', 00H ; `string'
;	COMDAT ??_C@_07IIFCFDNH@Feltzer?$AA@
.rdata	SEGMENT
??_C@_07IIFCFDNH@Feltzer?$AA@ DB 'Feltzer', 00H		; `string'
;	COMDAT ??_C@_0P@CJIJAFBM@Elegy?5RH8?5?$CIR?$CK?$CJ?$AA@
.rdata	SEGMENT
??_C@_0P@CJIJAFBM@Elegy?5RH8?5?$CIR?$CK?$CJ?$AA@ DB 'Elegy RH8 (R*)', 00H ; `string'
;	COMDAT ??_C@_08BICPLBPB@Coquette?$AA@
.rdata	SEGMENT
??_C@_08BICPLBPB@Coquette?$AA@ DB 'Coquette', 00H	; `string'
;	COMDAT ??_C@_05BAJAFMOF@Comet?$AA@
.rdata	SEGMENT
??_C@_05BAJAFMOF@Comet?$AA@ DB 'Comet', 00H		; `string'
;	COMDAT ??_C@_0BD@FKOMICFF@Carbonizzare?5?$CIRET?$CJ?$AA@
.rdata	SEGMENT
??_C@_0BD@FKOMICFF@Carbonizzare?5?$CIRET?$CJ?$AA@ DB 'Carbonizzare (RET)', 00H ; `string'
;	COMDAT ??_C@_09JHBIPPPM@Buffalo?5S?$AA@
.rdata	SEGMENT
??_C@_09JHBIPPPM@Buffalo?5S?$AA@ DB 'Buffalo S', 00H	; `string'
;	COMDAT ??_C@_07KHNIKBGK@Buffalo?$AA@
.rdata	SEGMENT
??_C@_07KHNIKBGK@Buffalo?$AA@ DB 'Buffalo', 00H		; `string'
;	COMDAT ??_C@_0BE@NNDKPGJN@Blista?5Compact?5?$CIEV?$CJ?$AA@
.rdata	SEGMENT
??_C@_0BE@NNDKPGJN@Blista?5Compact?5?$CIEV?$CJ?$AA@ DB 'Blista Compact (E'
	DB	'V)', 00H					; `string'
;	COMDAT ??_C@_07PICMBPKH@Banshee?$AA@
.rdata	SEGMENT
??_C@_07PICMBPKH@Banshee?$AA@ DB 'Banshee', 00H		; `string'
;	COMDAT ??_C@_0M@BGPIMLEI@Alpha?5?$CIDLC?$CJ?$AA@
.rdata	SEGMENT
??_C@_0M@BGPIMLEI@Alpha?5?$CIDLC?$CJ?$AA@ DB 'Alpha (DLC)', 00H ; `string'
;	COMDAT ??_C@_0BA@EPFFJJJC@9F?5Cabrio?5?$CIRET?$CJ?$AA@
.rdata	SEGMENT
??_C@_0BA@EPFFJJJC@9F?5Cabrio?5?$CIRET?$CJ?$AA@ DB '9F Cabrio (RET)', 00H ; `string'
;	COMDAT ??_C@_02INCHBAHB@9F?$AA@
.rdata	SEGMENT
??_C@_02INCHBAHB@9F?$AA@ DB '9F', 00H			; `string'
;	COMDAT ??_C@_0M@MJOPNGDA@Trashmaster?$AA@
.rdata	SEGMENT
??_C@_0M@MJOPNGDA@Trashmaster?$AA@ DB 'Trashmaster', 00H ; `string'
;	COMDAT ??_C@_07CJLFHBHN@Tourbus?$AA@
.rdata	SEGMENT
??_C@_07CJLFHBHN@Tourbus?$AA@ DB 'Tourbus', 00H		; `string'
;	COMDAT ??_C@_04JJAJBIIJ@Taxi?$AA@
.rdata	SEGMENT
??_C@_04JJAJBIIJ@Taxi?$AA@ DB 'Taxi', 00H		; `string'
;	COMDAT ??_C@_0BD@FNCBOOKC@Rental?5Shuttle?5Bus?$AA@
.rdata	SEGMENT
??_C@_0BD@FNCBOOKC@Rental?5Shuttle?5Bus?$AA@ DB 'Rental Shuttle Bus', 00H ; `string'
;	COMDAT ??_C@_08LLLFKGEF@Dashound?$AA@
.rdata	SEGMENT
??_C@_08LLLFKGEF@Dashound?$AA@ DB 'Dashound', 00H	; `string'
;	COMDAT ??_C@_03LJIODANL@Bus?$AA@
.rdata	SEGMENT
??_C@_03LJIODANL@Bus?$AA@ DB 'Bus', 00H			; `string'
;	COMDAT ??_C@_0M@ECBBPPDM@Airport?5Bus?$AA@
.rdata	SEGMENT
??_C@_0M@ECBBPPDM@Airport?5Bus?$AA@ DB 'Airport Bus', 00H ; `string'
;	COMDAT ??_C@_0L@GKJCJMFK@Washington?$AA@
.rdata	SEGMENT
??_C@_0L@GKJCJMFK@Washington?$AA@ DB 'Washington', 00H	; `string'
;	COMDAT ??_C@_0P@EGPKPIMN@Warrener?5?$CIDLC?$CJ?$AA@
.rdata	SEGMENT
??_C@_0P@EGPKPIMN@Warrener?5?$CIDLC?$CJ?$AA@ DB 'Warrener (DLC)', 00H ; `string'
;	COMDAT ??_C@_09GCMLPNDG@Tailgater?$AA@
.rdata	SEGMENT
??_C@_09GCMLPNDG@Tailgater?$AA@ DB 'Tailgater', 00H	; `string'
;	COMDAT ??_C@_05GBDBGBOK@Surge?$AA@
.rdata	SEGMENT
??_C@_05GBDBGBOK@Surge?$AA@ DB 'Surge', 00H		; `string'
;	COMDAT ??_C@_0O@JGBPMOJP@Super?5Diamond?$AA@
.rdata	SEGMENT
??_C@_0O@JGBPMOJP@Super?5Diamond?$AA@ DB 'Super Diamond', 00H ; `string'
;	COMDAT ??_C@_07ENIDNHGB@Stretch?$AA@
.rdata	SEGMENT
??_C@_07ENIDNHGB@Stretch?$AA@ DB 'Stretch', 00H		; `string'
;	COMDAT ??_C@_07NNNPFKCG@Stratum?$AA@
.rdata	SEGMENT
??_C@_07NNNPFKCG@Stratum?$AA@ DB 'Stratum', 00H		; `string'
;	COMDAT ??_C@_07KJMCJPGO@Stanier?$AA@
.rdata	SEGMENT
??_C@_07KJMCJPGO@Stanier?$AA@ DB 'Stanier', 00H		; `string'
;	COMDAT ??_C@_08NGIGEIFO@Schafter?$AA@
.rdata	SEGMENT
??_C@_08NGIGEIFO@Schafter?$AA@ DB 'Schafter', 00H	; `string'
;	COMDAT ??_C@_0N@JNIDMNDF@Romero?5House?$AA@
.rdata	SEGMENT
??_C@_0N@JNIDMNDF@Romero?5House?$AA@ DB 'Romero House', 00H ; `string'
;	COMDAT ??_C@_06NNHDOJOO@Regina?$AA@
.rdata	SEGMENT
??_C@_06NNHDOJOO@Regina?$AA@ DB 'Regina', 00H		; `string'
;	COMDAT ??_C@_05CFOFHCJG@Primo?$AA@
.rdata	SEGMENT
??_C@_05CFOFHCJG@Primo?$AA@ DB 'Primo', 00H		; `string'
;	COMDAT ??_C@_07JIKMJFHB@Premier?$AA@
.rdata	SEGMENT
??_C@_07JIKMJFHB@Premier?$AA@ DB 'Premier', 00H		; `string'
;	COMDAT ??_C@_08CGAIKJCC@Intruder?$AA@
.rdata	SEGMENT
??_C@_08CGAIKJCC@Intruder?$AA@ DB 'Intruder', 00H	; `string'
;	COMDAT ??_C@_05OOEBDDIB@Ingot?$AA@
.rdata	SEGMENT
??_C@_05OOEBDDIB@Ingot?$AA@ DB 'Ingot', 00H		; `string'
;	COMDAT ??_C@_0P@JPFMBNAC@Glendale?5?$CIDLC?$CJ?$AA@
.rdata	SEGMENT
??_C@_0P@JPFMBNAC@Glendale?5?$CIDLC?$CJ?$AA@ DB 'Glendale (DLC)', 00H ; `string'
;	COMDAT ??_C@_08DDKOFHFH@Fugitive?$AA@
.rdata	SEGMENT
??_C@_08DDKOFHFH@Fugitive?$AA@ DB 'Fugitive', 00H	; `string'
;	COMDAT ??_C@_07NEIFMLLI@Emperor?$AA@
.rdata	SEGMENT
??_C@_07NEIFMLLI@Emperor?$AA@ DB 'Emperor', 00H		; `string'
;	COMDAT ??_C@_08BOPCKDPP@Asterope?$AA@
.rdata	SEGMENT
??_C@_08BOPCKDPP@Asterope?$AA@ DB 'Asterope', 00H	; `string'
;	COMDAT ??_C@_04BHDOCFEE@Asea?$AA@
.rdata	SEGMENT
??_C@_04BHDOCFEE@Asea?$AA@ DB 'Asea', 00H		; `string'
;	COMDAT ??_C@_0BK@OOCJIKIA@Xero?5Blimp?5?$CIEV?5?1?5RP?5?1?5SP?$CJ?$AA@
.rdata	SEGMENT
??_C@_0BK@OOCJIKIA@Xero?5Blimp?5?$CIEV?5?1?5RP?5?1?5SP?$CJ?$AA@ DB 'Xero '
	DB	'Blimp (EV / RP / SP)', 00H			; `string'
;	COMDAT ??_C@_0N@NNAKBLBG@Vestra?5?$CIDLC?$CJ?$AA@
.rdata	SEGMENT
??_C@_0N@NNAKBLBG@Vestra?5?$CIDLC?$CJ?$AA@ DB 'Vestra (DLC)', 00H ; `string'
;	COMDAT ??_C@_05DGKBLKGB@Velum?$AA@
.rdata	SEGMENT
??_C@_05DGKBLKGB@Velum?$AA@ DB 'Velum', 00H		; `string'
;	COMDAT ??_C@_05BLDGNBHE@Titan?$AA@
.rdata	SEGMENT
??_C@_05BLDGNBHE@Titan?$AA@ DB 'Titan', 00H		; `string'
;	COMDAT ??_C@_06HJEKKKAD@Shamal?$AA@
.rdata	SEGMENT
??_C@_06HJEKKKAD@Shamal?$AA@ DB 'Shamal', 00H		; `string'
;	COMDAT ??_C@_0M@CIFHDJIE@P?9996?5LAZER?$AA@
.rdata	SEGMENT
??_C@_0M@CIFHDJIE@P?9996?5LAZER?$AA@ DB 'P-996 LAZER', 00H ; `string'
;	COMDAT ??_C@_0N@HDFNNOEP@Miljet?5?$CIDLC?$CJ?$AA@
.rdata	SEGMENT
??_C@_0N@HDFNNOEP@Miljet?5?$CIDLC?$CJ?$AA@ DB 'Miljet (DLC)', 00H ; `string'
;	COMDAT ??_C@_08GCEGHHDN@Mammatus?$AA@
.rdata	SEGMENT
??_C@_08GCEGHHDN@Mammatus?$AA@ DB 'Mammatus', 00H	; `string'
;	COMDAT ??_C@_07PDAOGHGN@Mallard?$AA@
.rdata	SEGMENT
??_C@_07PDAOGHGN@Mallard?$AA@ DB 'Mallard', 00H		; `string'
;	COMDAT ??_C@_0BD@MJGHCJGI@Luxor?5Deluxe?5?$CIDLC?$CJ?$AA@
.rdata	SEGMENT
??_C@_0BD@MJGHCJGI@Luxor?5Deluxe?5?$CIDLC?$CJ?$AA@ DB 'Luxor Deluxe (DLC)'
	DB	00H						; `string'
;	COMDAT ??_C@_05PHJMOEOO@Luxor?$AA@
.rdata	SEGMENT
??_C@_05PHJMOEOO@Luxor?$AA@ DB 'Luxor', 00H		; `string'
;	COMDAT ??_C@_08NFDJEIML@Jet?5?$CISP?$CJ?$AA@
.rdata	SEGMENT
??_C@_08NFDJEIML@Jet?5?$CISP?$CJ?$AA@ DB 'Jet (SP)', 00H ; `string'
;	COMDAT ??_C@_0BB@LGEFDMMA@Hydra?5?$CIDLC?5?1?5ON?$CJ?$AA@
.rdata	SEGMENT
??_C@_0BB@LGEFDMMA@Hydra?5?$CIDLC?5?1?5ON?$CJ?$AA@ DB 'Hydra (DLC / ON)', 00H ; `string'
;	COMDAT ??_C@_06IAACFCPC@Duster?$AA@
.rdata	SEGMENT
??_C@_06IAACFCPC@Duster?$AA@ DB 'Duster', 00H		; `string'
;	COMDAT ??_C@_0P@EKEMDNJL@Dodo?5?$CIEV?5?1?5RP?$CJ?$AA@
.rdata	SEGMENT
??_C@_0P@EKEMDNJL@Dodo?5?$CIEV?5?1?5RP?$CJ?$AA@ DB 'Dodo (EV / RP)', 00H ; `string'
;	COMDAT ??_C@_09FBEOAPCE@Cuban?5800?$AA@
.rdata	SEGMENT
??_C@_09FBEOAPCE@Cuban?5800?$AA@ DB 'Cuban 800', 00H	; `string'
;	COMDAT ??_C@_0BB@DKFALLHB@Cargo?5Plane?5?$CISP?$CJ?$AA@
.rdata	SEGMENT
??_C@_0BB@DKFALLHB@Cargo?5Plane?5?$CISP?$CJ?$AA@ DB 'Cargo Plane (SP)', 00H ; `string'
;	COMDAT ??_C@_0M@MIPCFENB@Besra?5?$CIDLC?$CJ?$AA@
.rdata	SEGMENT
??_C@_0M@MIPCFENB@Besra?5?$CIDLC?$CJ?$AA@ DB 'Besra (DLC)', 00H ; `string'
;	COMDAT ??_C@_0BH@DAJCIKHD@Atomic?5Blimp?5?$CICE?5?1?5SP?$CJ?$AA@
.rdata	SEGMENT
??_C@_0BH@DAJCIKHD@Atomic?5Blimp?5?$CICE?5?1?5SP?$CJ?$AA@ DB 'Atomic Blim'
	DB	'p (CE / SP)', 00H				; `string'
;	COMDAT ??_C@_0BE@ECHGGNML@The?5Liberator?5?$CIDLC?$CJ?$AA@
.rdata	SEGMENT
??_C@_0BE@ECHGGNML@The?5Liberator?5?$CIDLC?$CJ?$AA@ DB 'The Liberator (DL'
	DB	'C)', 00H					; `string'
;	COMDAT ??_C@_0BF@GNCMECE@Technical?5?$CIDLC?5?1?5ON?$CJ?$AA@
.rdata	SEGMENT
??_C@_0BF@GNCMECE@Technical?5?$CIDLC?5?1?5ON?$CJ?$AA@ DB 'Technical (DLC '
	DB	'/ ON)', 00H					; `string'
;	COMDAT ??_C@_0BC@NJOMHKE@Space?5Docker?5?$CISP?$CJ?$AA@
.rdata	SEGMENT
??_C@_0BC@NJOMHKE@Space?5Docker?5?$CISP?$CJ?$AA@ DB 'Space Docker (SP)', 00H ; `string'
;	COMDAT ??_C@_0M@IECGLMGM@Sandking?5XL?$AA@
.rdata	SEGMENT
??_C@_0M@IECGLMGM@Sandking?5XL?$AA@ DB 'Sandking XL', 00H ; `string'
;	COMDAT ??_C@_0N@EBLNONNI@Sandking?5SWB?$AA@
.rdata	SEGMENT
??_C@_0N@EBLNONNI@Sandking?5SWB?$AA@ DB 'Sandking SWB', 00H ; `string'
;	COMDAT ??_C@_05EINCBNHF@Rebel?$AA@
.rdata	SEGMENT
??_C@_05EINCBNHF@Rebel?$AA@ DB 'Rebel', 00H		; `string'
;	COMDAT ??_C@_0L@LNGJEHCN@Rancher?5XL?$AA@
.rdata	SEGMENT
??_C@_0L@LNGJEHCN@Rancher?5XL?$AA@ DB 'Rancher XL', 00H	; `string'
;	COMDAT ??_C@_0BE@CHJFCNIN@Mesa?5?$CIMerryweather?$CJ?$AA@
.rdata	SEGMENT
??_C@_0BE@CHJFCNIN@Mesa?5?$CIMerryweather?$CJ?$AA@ DB 'Mesa (Merryweather'
	DB	')', 00H					; `string'
;	COMDAT ??_C@_0BD@FIDNGPIN@Marshall?5?$CIEV?5?1?5RP?$CJ?$AA@
.rdata	SEGMENT
??_C@_0BD@FIDNGPIN@Marshall?5?$CIEV?5?1?5RP?$CJ?$AA@ DB 'Marshall (EV / R'
	DB	'P)', 00H					; `string'
;	COMDAT ??_C@_0P@KBOFEPEP@Kalahari?5?$CIDLC?$CJ?$AA@
.rdata	SEGMENT
??_C@_0P@KBOFEPEP@Kalahari?5?$CIDLC?$CJ?$AA@ DB 'Kalahari (DLC)', 00H ; `string'
;	COMDAT ??_C@_0BM@IKBFGEAF@Insurgen?5Pick?9Up?5?$CIDLC?5?1?5ON?$CJ?$AA@
.rdata	SEGMENT
??_C@_0BM@IKBFGEAF@Insurgen?5Pick?9Up?5?$CIDLC?5?1?5ON?$CJ?$AA@ DB 'Insur'
	DB	'gen Pick-Up (DLC / ON)', 00H		; `string'
;	COMDAT ??_C@_0BF@CBHOHJCO@Insurgent?5?$CIDLC?5?1?5ON?$CJ?$AA@
.rdata	SEGMENT
??_C@_0BF@CBHOHJCO@Insurgent?5?$CIDLC?5?1?5ON?$CJ?$AA@ DB 'Insurgent (DLC'
	DB	' / ON)', 00H				; `string'
;	COMDAT ??_C@_09ODHHHKC@Injection?$AA@
.rdata	SEGMENT
??_C@_09ODHHHKC@Injection?$AA@ DB 'Injection', 00H	; `string'
;	COMDAT ??_C@_0P@DCMLJDPK@Hot?5Rod?5Blazer?$AA@
.rdata	SEGMENT
??_C@_0P@DCMLJDPK@Hot?5Rod?5Blazer?$AA@ DB 'Hot Rod Blazer', 00H ; `string'
;	COMDAT ??_C@_0L@BIJECJED@Duneloader?$AA@
.rdata	SEGMENT
??_C@_0L@BIJECJED@Duneloader?$AA@ DB 'Duneloader', 00H	; `string'
;	COMDAT ??_C@_0L@EHKILDKP@Dune?5Buggy?$AA@
.rdata	SEGMENT
??_C@_0L@EHKILDKP@Dune?5Buggy?$AA@ DB 'Dune Buggy', 00H	; `string'
;	COMDAT ??_C@_0BB@INKMDLMJ@Dubsta?56x6?5?$CIDLC?$CJ?$AA@
.rdata	SEGMENT
??_C@_0BB@INKMDLMJ@Dubsta?56x6?5?$CIDLC?$CJ?$AA@ DB 'Dubsta 6x6 (DLC)', 00H ; `string'
;	COMDAT ??_C@_0O@GNOGKGPN@Brawler?5?$CIDLC?$CJ?$AA@
.rdata	SEGMENT
??_C@_0O@GNOGKGPN@Brawler?5?$CIDLC?$CJ?$AA@ DB 'Brawler (DLC)', 00H ; `string'
;	COMDAT ??_C@_05FBHADPIF@Bodhi?$AA@
.rdata	SEGMENT
??_C@_05FBHADPIF@Bodhi?$AA@ DB 'Bodhi', 00H		; `string'
;	COMDAT ??_C@_0BB@PFFEGDBD@Blazer?5Lifeguard?$AA@
.rdata	SEGMENT
??_C@_0BB@PFFEGDBD@Blazer?5Lifeguard?$AA@ DB 'Blazer Lifeguard', 00H ; `string'
;	COMDAT ??_C@_06DNPEIHEK@Blazer?$AA@
.rdata	SEGMENT
??_C@_06DNPEIHEK@Blazer?$AA@ DB 'Blazer', 00H		; `string'
;	COMDAT ??_C@_0M@HAHFPFDA@Bifta?5?$CIDLC?$CJ?$AA@
.rdata	SEGMENT
??_C@_0M@HAHFPFDA@Bifta?5?$CIDLC?$CJ?$AA@ DB 'Bifta (DLC)', 00H ; `string'
;	COMDAT ??_C@_06NFPMDKDO@Voodoo?$AA@
.rdata	SEGMENT
??_C@_06NFPMDKDO@Voodoo?$AA@ DB 'Voodoo', 00H		; `string'
;	COMDAT ??_C@_06JPJHMFKE@Vigero?$AA@
.rdata	SEGMENT
??_C@_06JPJHMFKE@Vigero?$AA@ DB 'Vigero', 00H		; `string'
;	COMDAT ??_C@_0M@NBOJGOKH@Virgo?5?$CIDLC?$CJ?$AA@
.rdata	SEGMENT
??_C@_0M@NBOJGOKH@Virgo?5?$CIDLC?$CJ?$AA@ DB 'Virgo (DLC)', 00H ; `string'
;	COMDAT ??_C@_0O@HJKDAIEP@Stallion?5?$CIEV?$CJ?$AA@
.rdata	SEGMENT
??_C@_0O@HJKDAIEP@Stallion?5?$CIEV?$CJ?$AA@ DB 'Stallion (EV)', 00H ; `string'
;	COMDAT ??_C@_0O@NCJHCJIL@Slamvan?5?$CIDLC?$CJ?$AA@
.rdata	SEGMENT
??_C@_0O@NCJHCJIL@Slamvan?5?$CIDLC?$CJ?$AA@ DB 'Slamvan (DLC)', 00H ; `string'
;	COMDAT ??_C@_0M@MMEJHFKG@Sabre?5Turbo?$AA@
