; Listing generated by Microsoft (R) Optimizing Compiler Version 16.00.11886.00 

	TITLE	C:\Users\S7Clutch\Documents\Visual Studio 2010\Projects\The Saiyan Project\src\Hooks.cpp
	.PPC
	.MODEL FLAT
PUBLIC	__C2_11886
PUBLIC	__C1_11886
PUBLIC	D3DPRIMITIVEVERTEXCOUNT
PUBLIC	D3DTESSPRIMITIVEVERTEXCOUNT
PUBLIC	?g_XMSinCoefficients0@@3UXMVECTORF32@@B		; g_XMSinCoefficients0
PUBLIC	?g_XMSinCoefficients1@@3UXMVECTORF32@@B		; g_XMSinCoefficients1
PUBLIC	?g_XMSinCoefficients2@@3UXMVECTORF32@@B		; g_XMSinCoefficients2
PUBLIC	?g_XMCosCoefficients0@@3UXMVECTORF32@@B		; g_XMCosCoefficients0
PUBLIC	?g_XMCosCoefficients1@@3UXMVECTORF32@@B		; g_XMCosCoefficients1
PUBLIC	?g_XMCosCoefficients2@@3UXMVECTORF32@@B		; g_XMCosCoefficients2
PUBLIC	?g_XMTanCoefficients0@@3UXMVECTORF32@@B		; g_XMTanCoefficients0
PUBLIC	?g_XMTanCoefficients1@@3UXMVECTORF32@@B		; g_XMTanCoefficients1
PUBLIC	?g_XMTanCoefficients2@@3UXMVECTORF32@@B		; g_XMTanCoefficients2
PUBLIC	?g_XMASinCoefficients0@@3UXMVECTORF32@@B	; g_XMASinCoefficients0
PUBLIC	?g_XMASinCoefficients1@@3UXMVECTORF32@@B	; g_XMASinCoefficients1
PUBLIC	?g_XMASinCoefficients2@@3UXMVECTORF32@@B	; g_XMASinCoefficients2
PUBLIC	?g_XMATanCoefficients0@@3UXMVECTORF32@@B	; g_XMATanCoefficients0
PUBLIC	?g_XMATanCoefficients1@@3UXMVECTORF32@@B	; g_XMATanCoefficients1
PUBLIC	?g_XMATanCoefficients2@@3UXMVECTORF32@@B	; g_XMATanCoefficients2
PUBLIC	?g_XMSinEstCoefficients@@3UXMVECTORF32@@B	; g_XMSinEstCoefficients
PUBLIC	?g_XMCosEstCoefficients@@3UXMVECTORF32@@B	; g_XMCosEstCoefficients
PUBLIC	?g_XMTanEstCoefficients@@3UXMVECTORF32@@B	; g_XMTanEstCoefficients
PUBLIC	?g_XMATanEstCoefficients@@3UXMVECTORF32@@B	; g_XMATanEstCoefficients
PUBLIC	?g_XMASinEstCoefficients@@3UXMVECTORF32@@B	; g_XMASinEstCoefficients
PUBLIC	?g_XMASinEstConstants@@3UXMVECTORF32@@B		; g_XMASinEstConstants
PUBLIC	?g_XMPiConstants0@@3UXMVECTORF32@@B		; g_XMPiConstants0
PUBLIC	?g_XMIdentityR0@@3UXMVECTORF32@@B		; g_XMIdentityR0
PUBLIC	?g_XMIdentityR1@@3UXMVECTORF32@@B		; g_XMIdentityR1
PUBLIC	?g_XMIdentityR2@@3UXMVECTORF32@@B		; g_XMIdentityR2
PUBLIC	?g_XMIdentityR3@@3UXMVECTORF32@@B		; g_XMIdentityR3
PUBLIC	?g_XMNegIdentityR0@@3UXMVECTORF32@@B		; g_XMNegIdentityR0
PUBLIC	?g_XMNegIdentityR1@@3UXMVECTORF32@@B		; g_XMNegIdentityR1
PUBLIC	?g_XMNegIdentityR2@@3UXMVECTORF32@@B		; g_XMNegIdentityR2
PUBLIC	?g_XMNegIdentityR3@@3UXMVECTORF32@@B		; g_XMNegIdentityR3
PUBLIC	?g_XMNegativeZero@@3UXMVECTORI32@@B		; g_XMNegativeZero
PUBLIC	?g_XMNegate3@@3UXMVECTORI32@@B			; g_XMNegate3
PUBLIC	?g_XMMask3@@3UXMVECTORI32@@B			; g_XMMask3
PUBLIC	?g_XMMaskX@@3UXMVECTORI32@@B			; g_XMMaskX
PUBLIC	?g_XMMaskY@@3UXMVECTORI32@@B			; g_XMMaskY
PUBLIC	?g_XMMaskZ@@3UXMVECTORI32@@B			; g_XMMaskZ
PUBLIC	?g_XMMaskW@@3UXMVECTORI32@@B			; g_XMMaskW
PUBLIC	?g_XMOne@@3UXMVECTORF32@@B			; g_XMOne
PUBLIC	?g_XMOne3@@3UXMVECTORF32@@B			; g_XMOne3
PUBLIC	?g_XMZero@@3UXMVECTORF32@@B			; g_XMZero
PUBLIC	?g_XMNegativeOne@@3UXMVECTORF32@@B		; g_XMNegativeOne
PUBLIC	?g_XMOneHalf@@3UXMVECTORF32@@B			; g_XMOneHalf
PUBLIC	?g_XMNegativeOneHalf@@3UXMVECTORF32@@B		; g_XMNegativeOneHalf
PUBLIC	?g_XMNegativeTwoPi@@3UXMVECTORF32@@B		; g_XMNegativeTwoPi
PUBLIC	?g_XMNegativePi@@3UXMVECTORF32@@B		; g_XMNegativePi
PUBLIC	?g_XMHalfPi@@3UXMVECTORF32@@B			; g_XMHalfPi
PUBLIC	?g_XMPi@@3UXMVECTORF32@@B			; g_XMPi
PUBLIC	?g_XMReciprocalPi@@3UXMVECTORF32@@B		; g_XMReciprocalPi
PUBLIC	?g_XMTwoPi@@3UXMVECTORF32@@B			; g_XMTwoPi
PUBLIC	?g_XMReciprocalTwoPi@@3UXMVECTORF32@@B		; g_XMReciprocalTwoPi
PUBLIC	?g_XMEpsilon@@3UXMVECTORF32@@B			; g_XMEpsilon
PUBLIC	?g_XMInfinity@@3UXMVECTORI32@@B			; g_XMInfinity
PUBLIC	?g_XMQNaN@@3UXMVECTORI32@@B			; g_XMQNaN
PUBLIC	?g_XMQNaNTest@@3UXMVECTORI32@@B			; g_XMQNaNTest
PUBLIC	?g_XMAbsMask@@3UXMVECTORI32@@B			; g_XMAbsMask
PUBLIC	?g_XMFltMin@@3UXMVECTORI32@@B			; g_XMFltMin
PUBLIC	?g_XMFltMax@@3UXMVECTORI32@@B			; g_XMFltMax
PUBLIC	?g_XMNegOneMask@@3UXMVECTORI32@@B		; g_XMNegOneMask
PUBLIC	?g_XMMaskA8R8G8B8@@3UXMVECTORI32@@B		; g_XMMaskA8R8G8B8
PUBLIC	?g_XMFlipA8R8G8B8@@3UXMVECTORI32@@B		; g_XMFlipA8R8G8B8
PUBLIC	?g_XMFixAA8R8G8B8@@3UXMVECTORF32@@B		; g_XMFixAA8R8G8B8
PUBLIC	?g_XMNormalizeA8R8G8B8@@3UXMVECTORF32@@B	; g_XMNormalizeA8R8G8B8
PUBLIC	?g_XMMaskA2B10G10R10@@3UXMVECTORI32@@B		; g_XMMaskA2B10G10R10
PUBLIC	?g_XMFlipA2B10G10R10@@3UXMVECTORI32@@B		; g_XMFlipA2B10G10R10
PUBLIC	?g_XMFixAA2B10G10R10@@3UXMVECTORF32@@B		; g_XMFixAA2B10G10R10
PUBLIC	?g_XMNormalizeA2B10G10R10@@3UXMVECTORF32@@B	; g_XMNormalizeA2B10G10R10
PUBLIC	?g_XMMaskX16Y16@@3UXMVECTORI32@@B		; g_XMMaskX16Y16
PUBLIC	?g_XMFlipX16Y16@@3UXMVECTORI32@@B		; g_XMFlipX16Y16
PUBLIC	?g_XMFixX16Y16@@3UXMVECTORF32@@B		; g_XMFixX16Y16
PUBLIC	?g_XMNormalizeX16Y16@@3UXMVECTORF32@@B		; g_XMNormalizeX16Y16
PUBLIC	?g_XMMaskX16Y16Z16W16@@3UXMVECTORI32@@B		; g_XMMaskX16Y16Z16W16
PUBLIC	?g_XMFlipX16Y16Z16W16@@3UXMVECTORI32@@B		; g_XMFlipX16Y16Z16W16
PUBLIC	?g_XMFixX16Y16Z16W16@@3UXMVECTORF32@@B		; g_XMFixX16Y16Z16W16
PUBLIC	?g_XMNormalizeX16Y16Z16W16@@3UXMVECTORF32@@B	; g_XMNormalizeX16Y16Z16W16
PUBLIC	?g_XMNoFraction@@3UXMVECTORF32@@B		; g_XMNoFraction
PUBLIC	?g_XMMaskByte@@3UXMVECTORI32@@B			; g_XMMaskByte
PUBLIC	?g_XMNegateX@@3UXMVECTORF32@@B			; g_XMNegateX
PUBLIC	?g_XMNegateY@@3UXMVECTORF32@@B			; g_XMNegateY
PUBLIC	?g_XMNegateZ@@3UXMVECTORF32@@B			; g_XMNegateZ
PUBLIC	?g_XMNegateW@@3UXMVECTORF32@@B			; g_XMNegateW
PUBLIC	?g_XMSelect0101@@3UXMVECTORI32@@B		; g_XMSelect0101
PUBLIC	?g_XMSelect1010@@3UXMVECTORI32@@B		; g_XMSelect1010
PUBLIC	?g_XMOneHalfMinusEpsilon@@3UXMVECTORI32@@B	; g_XMOneHalfMinusEpsilon
PUBLIC	?g_XMSelect1000@@3UXMVECTORI32@@B		; g_XMSelect1000
PUBLIC	?g_XMSelect1100@@3UXMVECTORI32@@B		; g_XMSelect1100
PUBLIC	?g_XMSelect1110@@3UXMVECTORI32@@B		; g_XMSelect1110
PUBLIC	?g_XMSwizzleXYXY@@3UXMVECTORI32@@B		; g_XMSwizzleXYXY
PUBLIC	?g_XMSwizzleXYZX@@3UXMVECTORI32@@B		; g_XMSwizzleXYZX
PUBLIC	?g_XMSwizzleYXZW@@3UXMVECTORI32@@B		; g_XMSwizzleYXZW
PUBLIC	?g_XMSwizzleYZXW@@3UXMVECTORI32@@B		; g_XMSwizzleYZXW
PUBLIC	?g_XMSwizzleZXYW@@3UXMVECTORI32@@B		; g_XMSwizzleZXYW
PUBLIC	?g_XMPermute0X0Y1X1Y@@3UXMVECTORI32@@B		; g_XMPermute0X0Y1X1Y
PUBLIC	?g_XMPermute0Z0W1Z1W@@3UXMVECTORI32@@B		; g_XMPermute0Z0W1Z1W
PUBLIC	?g_XMFixupY16@@3UXMVECTORF32@@B			; g_XMFixupY16
PUBLIC	?g_XMFixupY16W16@@3UXMVECTORF32@@B		; g_XMFixupY16W16
PUBLIC	?g_XMFlipY@@3UXMVECTORI32@@B			; g_XMFlipY
PUBLIC	?g_XMFlipZ@@3UXMVECTORI32@@B			; g_XMFlipZ
PUBLIC	?g_XMFlipW@@3UXMVECTORI32@@B			; g_XMFlipW
PUBLIC	?g_XMFlipYZ@@3UXMVECTORI32@@B			; g_XMFlipYZ
PUBLIC	?g_XMFlipZW@@3UXMVECTORI32@@B			; g_XMFlipZW
PUBLIC	?g_XMFlipYW@@3UXMVECTORI32@@B			; g_XMFlipYW
PUBLIC	?g_XMMaskHenD3@@3UXMVECTORI32@@B		; g_XMMaskHenD3
PUBLIC	?g_XMMaskDHen3@@3UXMVECTORI32@@B		; g_XMMaskDHen3
PUBLIC	?g_XMAddUHenD3@@3UXMVECTORF32@@B		; g_XMAddUHenD3
PUBLIC	?g_XMAddHenD3@@3UXMVECTORF32@@B			; g_XMAddHenD3
PUBLIC	?g_XMAddDHen3@@3UXMVECTORF32@@B			; g_XMAddDHen3
PUBLIC	?g_XMMulHenD3@@3UXMVECTORF32@@B			; g_XMMulHenD3
PUBLIC	?g_XMMulDHen3@@3UXMVECTORF32@@B			; g_XMMulDHen3
PUBLIC	?g_XMXorHenD3@@3UXMVECTORI32@@B			; g_XMXorHenD3
PUBLIC	?g_XMXorDHen3@@3UXMVECTORI32@@B			; g_XMXorDHen3
PUBLIC	?g_XMMaskIco4@@3UXMVECTORI32@@B			; g_XMMaskIco4
PUBLIC	?g_XMXorXIco4@@3UXMVECTORI32@@B			; g_XMXorXIco4
PUBLIC	?g_XMXorIco4@@3UXMVECTORI32@@B			; g_XMXorIco4
PUBLIC	?g_XMAddXIco4@@3UXMVECTORF32@@B			; g_XMAddXIco4
PUBLIC	?g_XMAddUIco4@@3UXMVECTORF32@@B			; g_XMAddUIco4
PUBLIC	?g_XMAddIco4@@3UXMVECTORF32@@B			; g_XMAddIco4
PUBLIC	?g_XMMulIco4@@3UXMVECTORF32@@B			; g_XMMulIco4
PUBLIC	?g_XMMaskDec4@@3UXMVECTORI32@@B			; g_XMMaskDec4
PUBLIC	?g_XMXorDec4@@3UXMVECTORI32@@B			; g_XMXorDec4
PUBLIC	?g_XMAddUDec4@@3UXMVECTORF32@@B			; g_XMAddUDec4
PUBLIC	?g_XMAddDec4@@3UXMVECTORF32@@B			; g_XMAddDec4
PUBLIC	?g_XMMulDec4@@3UXMVECTORF32@@B			; g_XMMulDec4
PUBLIC	?g_XMMaskByte4@@3UXMVECTORI32@@B		; g_XMMaskByte4
PUBLIC	?g_XMXorByte4@@3UXMVECTORI32@@B			; g_XMXorByte4
PUBLIC	?g_XMAddByte4@@3UXMVECTORF32@@B			; g_XMAddByte4
PUBLIC	?g_XMFixUnsigned@@3UXMVECTORF32@@B		; g_XMFixUnsigned
PUBLIC	?g_XMMaxInt@@3UXMVECTORF32@@B			; g_XMMaxInt
PUBLIC	?g_XMMaxUInt@@3UXMVECTORF32@@B			; g_XMMaxUInt
PUBLIC	?g_XMUnsignedFix@@3UXMVECTORF32@@B		; g_XMUnsignedFix
PUBLIC	?has_denorm@_Num_base@std@@2W4float_denorm_style@2@B ; std::_Num_base::has_denorm
PUBLIC	?has_denorm_loss@_Num_base@std@@2_NB		; std::_Num_base::has_denorm_loss
PUBLIC	?has_infinity@_Num_base@std@@2_NB		; std::_Num_base::has_infinity
PUBLIC	?has_quiet_NaN@_Num_base@std@@2_NB		; std::_Num_base::has_quiet_NaN
PUBLIC	?has_signaling_NaN@_Num_base@std@@2_NB		; std::_Num_base::has_signaling_NaN
PUBLIC	?is_bounded@_Num_base@std@@2_NB			; std::_Num_base::is_bounded
PUBLIC	?is_exact@_Num_base@std@@2_NB			; std::_Num_base::is_exact
PUBLIC	?is_iec559@_Num_base@std@@2_NB			; std::_Num_base::is_iec559
PUBLIC	?is_integer@_Num_base@std@@2_NB			; std::_Num_base::is_integer
PUBLIC	?is_modulo@_Num_base@std@@2_NB			; std::_Num_base::is_modulo
PUBLIC	?is_signed@_Num_base@std@@2_NB			; std::_Num_base::is_signed
PUBLIC	?is_specialized@_Num_base@std@@2_NB		; std::_Num_base::is_specialized
PUBLIC	?tinyness_before@_Num_base@std@@2_NB		; std::_Num_base::tinyness_before
PUBLIC	?traps@_Num_base@std@@2_NB			; std::_Num_base::traps
PUBLIC	?round_style@_Num_base@std@@2W4float_round_style@2@B ; std::_Num_base::round_style
PUBLIC	?digits@_Num_base@std@@2HB			; std::_Num_base::digits
PUBLIC	?digits10@_Num_base@std@@2HB			; std::_Num_base::digits10
PUBLIC	?max_digits10@_Num_base@std@@2HB		; std::_Num_base::max_digits10
PUBLIC	?max_exponent@_Num_base@std@@2HB		; std::_Num_base::max_exponent
PUBLIC	?max_exponent10@_Num_base@std@@2HB		; std::_Num_base::max_exponent10
PUBLIC	?min_exponent@_Num_base@std@@2HB		; std::_Num_base::min_exponent
PUBLIC	?min_exponent10@_Num_base@std@@2HB		; std::_Num_base::min_exponent10
PUBLIC	?radix@_Num_base@std@@2HB			; std::_Num_base::radix
PUBLIC	?is_bounded@_Num_int_base@std@@2_NB		; std::_Num_int_base::is_bounded
PUBLIC	?is_exact@_Num_int_base@std@@2_NB		; std::_Num_int_base::is_exact
PUBLIC	?is_integer@_Num_int_base@std@@2_NB		; std::_Num_int_base::is_integer
PUBLIC	?is_modulo@_Num_int_base@std@@2_NB		; std::_Num_int_base::is_modulo
PUBLIC	?is_specialized@_Num_int_base@std@@2_NB		; std::_Num_int_base::is_specialized
PUBLIC	?radix@_Num_int_base@std@@2HB			; std::_Num_int_base::radix
PUBLIC	?has_denorm@_Num_float_base@std@@2W4float_denorm_style@2@B ; std::_Num_float_base::has_denorm
PUBLIC	?has_denorm_loss@_Num_float_base@std@@2_NB	; std::_Num_float_base::has_denorm_loss
PUBLIC	?has_infinity@_Num_float_base@std@@2_NB		; std::_Num_float_base::has_infinity
PUBLIC	?has_quiet_NaN@_Num_float_base@std@@2_NB	; std::_Num_float_base::has_quiet_NaN
PUBLIC	?has_signaling_NaN@_Num_float_base@std@@2_NB	; std::_Num_float_base::has_signaling_NaN
PUBLIC	?is_bounded@_Num_float_base@std@@2_NB		; std::_Num_float_base::is_bounded
PUBLIC	?is_exact@_Num_float_base@std@@2_NB		; std::_Num_float_base::is_exact
PUBLIC	?is_iec559@_Num_float_base@std@@2_NB		; std::_Num_float_base::is_iec559
PUBLIC	?is_integer@_Num_float_base@std@@2_NB		; std::_Num_float_base::is_integer
PUBLIC	?is_modulo@_Num_float_base@std@@2_NB		; std::_Num_float_base::is_modulo
PUBLIC	?is_signed@_Num_float_base@std@@2_NB		; std::_Num_float_base::is_signed
PUBLIC	?is_specialized@_Num_float_base@std@@2_NB	; std::_Num_float_base::is_specialized
PUBLIC	?tinyness_before@_Num_float_base@std@@2_NB	; std::_Num_float_base::tinyness_before
PUBLIC	?traps@_Num_float_base@std@@2_NB		; std::_Num_float_base::traps
PUBLIC	?round_style@_Num_float_base@std@@2W4float_round_style@2@B ; std::_Num_float_base::round_style
PUBLIC	?radix@_Num_float_base@std@@2HB			; std::_Num_float_base::radix
PUBLIC	?is_signed@?$numeric_limits@D@std@@2_NB		; std::numeric_limits<char>::is_signed
PUBLIC	?digits@?$numeric_limits@D@std@@2HB		; std::numeric_limits<char>::digits
PUBLIC	?digits10@?$numeric_limits@D@std@@2HB		; std::numeric_limits<char>::digits10
PUBLIC	?max_digits10@?$numeric_limits@D@std@@2HB	; std::numeric_limits<char>::max_digits10
PUBLIC	?is_signed@?$numeric_limits@_W@std@@2_NB	; std::numeric_limits<wchar_t>::is_signed
PUBLIC	?digits@?$numeric_limits@_W@std@@2HB		; std::numeric_limits<wchar_t>::digits
PUBLIC	?digits10@?$numeric_limits@_W@std@@2HB		; std::numeric_limits<wchar_t>::digits10
PUBLIC	?max_digits10@?$numeric_limits@_W@std@@2HB	; std::numeric_limits<wchar_t>::max_digits10
PUBLIC	?is_modulo@?$numeric_limits@_N@std@@2_NB	; std::numeric_limits<bool>::is_modulo
PUBLIC	?is_signed@?$numeric_limits@_N@std@@2_NB	; std::numeric_limits<bool>::is_signed
PUBLIC	?digits@?$numeric_limits@_N@std@@2HB		; std::numeric_limits<bool>::digits
PUBLIC	?digits10@?$numeric_limits@_N@std@@2HB		; std::numeric_limits<bool>::digits10
PUBLIC	?max_digits10@?$numeric_limits@_N@std@@2HB	; std::numeric_limits<bool>::max_digits10
PUBLIC	?is_signed@?$numeric_limits@C@std@@2_NB		; std::numeric_limits<signed char>::is_signed
PUBLIC	?digits@?$numeric_limits@C@std@@2HB		; std::numeric_limits<signed char>::digits
PUBLIC	?digits10@?$numeric_limits@C@std@@2HB		; std::numeric_limits<signed char>::digits10
PUBLIC	?max_digits10@?$numeric_limits@C@std@@2HB	; std::numeric_limits<signed char>::max_digits10
PUBLIC	?is_signed@?$numeric_limits@E@std@@2_NB		; std::numeric_limits<unsigned char>::is_signed
PUBLIC	?digits@?$numeric_limits@E@std@@2HB		; std::numeric_limits<unsigned char>::digits
PUBLIC	?digits10@?$numeric_limits@E@std@@2HB		; std::numeric_limits<unsigned char>::digits10
PUBLIC	?max_digits10@?$numeric_limits@E@std@@2HB	; std::numeric_limits<unsigned char>::max_digits10
PUBLIC	?is_signed@?$numeric_limits@F@std@@2_NB		; std::numeric_limits<short>::is_signed
PUBLIC	?digits@?$numeric_limits@F@std@@2HB		; std::numeric_limits<short>::digits
PUBLIC	?digits10@?$numeric_limits@F@std@@2HB		; std::numeric_limits<short>::digits10
PUBLIC	?max_digits10@?$numeric_limits@F@std@@2HB	; std::numeric_limits<short>::max_digits10
PUBLIC	?is_signed@?$numeric_limits@G@std@@2_NB		; std::numeric_limits<unsigned short>::is_signed
PUBLIC	?digits@?$numeric_limits@G@std@@2HB		; std::numeric_limits<unsigned short>::digits
PUBLIC	?digits10@?$numeric_limits@G@std@@2HB		; std::numeric_limits<unsigned short>::digits10
PUBLIC	?max_digits10@?$numeric_limits@G@std@@2HB	; std::numeric_limits<unsigned short>::max_digits10
PUBLIC	?is_signed@?$numeric_limits@H@std@@2_NB		; std::numeric_limits<int>::is_signed
PUBLIC	?digits@?$numeric_limits@H@std@@2HB		; std::numeric_limits<int>::digits
PUBLIC	?digits10@?$numeric_limits@H@std@@2HB		; std::numeric_limits<int>::digits10
PUBLIC	?max_digits10@?$numeric_limits@H@std@@2HB	; std::numeric_limits<int>::max_digits10
PUBLIC	?is_signed@?$numeric_limits@I@std@@2_NB		; std::numeric_limits<unsigned int>::is_signed
PUBLIC	?digits@?$numeric_limits@I@std@@2HB		; std::numeric_limits<unsigned int>::digits
PUBLIC	?digits10@?$numeric_limits@I@std@@2HB		; std::numeric_limits<unsigned int>::digits10
PUBLIC	?max_digits10@?$numeric_limits@I@std@@2HB	; std::numeric_limits<unsigned int>::max_digits10
PUBLIC	?is_signed@?$numeric_limits@J@std@@2_NB		; std::numeric_limits<long>::is_signed
PUBLIC	?digits@?$numeric_limits@J@std@@2HB		; std::numeric_limits<long>::digits
PUBLIC	?digits10@?$numeric_limits@J@std@@2HB		; std::numeric_limits<long>::digits10
PUBLIC	?max_digits10@?$numeric_limits@J@std@@2HB	; std::numeric_limits<long>::max_digits10
PUBLIC	?is_signed@?$numeric_limits@K@std@@2_NB		; std::numeric_limits<unsigned long>::is_signed
PUBLIC	?digits@?$numeric_limits@K@std@@2HB		; std::numeric_limits<unsigned long>::digits
PUBLIC	?digits10@?$numeric_limits@K@std@@2HB		; std::numeric_limits<unsigned long>::digits10
PUBLIC	?max_digits10@?$numeric_limits@K@std@@2HB	; std::numeric_limits<unsigned long>::max_digits10
PUBLIC	?is_signed@?$numeric_limits@_J@std@@2_NB	; std::numeric_limits<__int64>::is_signed
PUBLIC	?digits@?$numeric_limits@_J@std@@2HB		; std::numeric_limits<__int64>::digits
PUBLIC	?digits10@?$numeric_limits@_J@std@@2HB		; std::numeric_limits<__int64>::digits10
PUBLIC	?max_digits10@?$numeric_limits@_J@std@@2HB	; std::numeric_limits<__int64>::max_digits10
PUBLIC	?is_signed@?$numeric_limits@_K@std@@2_NB	; std::numeric_limits<unsigned __int64>::is_signed
PUBLIC	?digits@?$numeric_limits@_K@std@@2HB		; std::numeric_limits<unsigned __int64>::digits
PUBLIC	?digits10@?$numeric_limits@_K@std@@2HB		; std::numeric_limits<unsigned __int64>::digits10
PUBLIC	?max_digits10@?$numeric_limits@_K@std@@2HB	; std::numeric_limits<unsigned __int64>::max_digits10
PUBLIC	?digits@?$numeric_limits@M@std@@2HB		; std::numeric_limits<float>::digits
PUBLIC	?digits10@?$numeric_limits@M@std@@2HB		; std::numeric_limits<float>::digits10
PUBLIC	?max_digits10@?$numeric_limits@M@std@@2HB	; std::numeric_limits<float>::max_digits10
PUBLIC	?max_exponent@?$numeric_limits@M@std@@2HB	; std::numeric_limits<float>::max_exponent
PUBLIC	?max_exponent10@?$numeric_limits@M@std@@2HB	; std::numeric_limits<float>::max_exponent10
PUBLIC	?min_exponent@?$numeric_limits@M@std@@2HB	; std::numeric_limits<float>::min_exponent
PUBLIC	?min_exponent10@?$numeric_limits@M@std@@2HB	; std::numeric_limits<float>::min_exponent10
PUBLIC	?digits@?$numeric_limits@N@std@@2HB		; std::numeric_limits<double>::digits
PUBLIC	?digits10@?$numeric_limits@N@std@@2HB		; std::numeric_limits<double>::digits10
PUBLIC	?max_digits10@?$numeric_limits@N@std@@2HB	; std::numeric_limits<double>::max_digits10
PUBLIC	?max_exponent@?$numeric_limits@N@std@@2HB	; std::numeric_limits<double>::max_exponent
PUBLIC	?max_exponent10@?$numeric_limits@N@std@@2HB	; std::numeric_limits<double>::max_exponent10
PUBLIC	?min_exponent@?$numeric_limits@N@std@@2HB	; std::numeric_limits<double>::min_exponent
PUBLIC	?min_exponent10@?$numeric_limits@N@std@@2HB	; std::numeric_limits<double>::min_exponent10
PUBLIC	?digits@?$numeric_limits@O@std@@2HB		; std::numeric_limits<long double>::digits
PUBLIC	?digits10@?$numeric_limits@O@std@@2HB		; std::numeric_limits<long double>::digits10
PUBLIC	?max_digits10@?$numeric_limits@O@std@@2HB	; std::numeric_limits<long double>::max_digits10
PUBLIC	?max_exponent@?$numeric_limits@O@std@@2HB	; std::numeric_limits<long double>::max_exponent
PUBLIC	?max_exponent10@?$numeric_limits@O@std@@2HB	; std::numeric_limits<long double>::max_exponent10
PUBLIC	?min_exponent@?$numeric_limits@O@std@@2HB	; std::numeric_limits<long double>::min_exponent
PUBLIC	?min_exponent10@?$numeric_limits@O@std@@2HB	; std::numeric_limits<long double>::min_exponent10
PUBLIC	?value@?$integral_constant@_N$0A@@tr1@std@@2_NB	; std::tr1::integral_constant<bool,0>::value
PUBLIC	?value@?$integral_constant@_N$00@tr1@std@@2_NB	; std::tr1::integral_constant<bool,1>::value
PUBLIC	?value@?$integral_constant@I$0A@@tr1@std@@2IB	; std::tr1::integral_constant<unsigned int,0>::value
PUBLIC	?_Rank@?$_Arithmetic_traits@_N@std@@2HB		; std::_Arithmetic_traits<bool>::_Rank
PUBLIC	?_Rank@?$_Arithmetic_traits@D@std@@2HB		; std::_Arithmetic_traits<char>::_Rank
PUBLIC	?_Rank@?$_Arithmetic_traits@C@std@@2HB		; std::_Arithmetic_traits<signed char>::_Rank
PUBLIC	?_Rank@?$_Arithmetic_traits@E@std@@2HB		; std::_Arithmetic_traits<unsigned char>::_Rank
PUBLIC	?_Rank@?$_Arithmetic_traits@F@std@@2HB		; std::_Arithmetic_traits<short>::_Rank
PUBLIC	?_Rank@?$_Arithmetic_traits@G@std@@2HB		; std::_Arithmetic_traits<unsigned short>::_Rank
PUBLIC	?_Rank@?$_Arithmetic_traits@H@std@@2HB		; std::_Arithmetic_traits<int>::_Rank
PUBLIC	?_Rank@?$_Arithmetic_traits@I@std@@2HB		; std::_Arithmetic_traits<unsigned int>::_Rank
PUBLIC	?_Rank@?$_Arithmetic_traits@J@std@@2HB		; std::_Arithmetic_traits<long>::_Rank
PUBLIC	?_Rank@?$_Arithmetic_traits@K@std@@2HB		; std::_Arithmetic_traits<unsigned long>::_Rank
PUBLIC	?_Rank@?$_Arithmetic_traits@_J@std@@2HB		; std::_Arithmetic_traits<__int64>::_Rank
PUBLIC	?_Rank@?$_Arithmetic_traits@_K@std@@2HB		; std::_Arithmetic_traits<unsigned __int64>::_Rank
PUBLIC	?_Rank@?$_Arithmetic_traits@M@std@@2HB		; std::_Arithmetic_traits<float>::_Rank
PUBLIC	?_Rank@?$_Arithmetic_traits@N@std@@2HB		; std::_Arithmetic_traits<double>::_Rank
PUBLIC	?_Rank@?$_Arithmetic_traits@O@std@@2HB		; std::_Arithmetic_traits<long double>::_Rank
;	COMDAT ?_Rank@?$_Arithmetic_traits@O@std@@2HB
.rdata	SEGMENT
?_Rank@?$_Arithmetic_traits@O@std@@2HB DD 09H		; std::_Arithmetic_traits<long double>::_Rank
;	COMDAT ?_Rank@?$_Arithmetic_traits@N@std@@2HB
.rdata	SEGMENT
?_Rank@?$_Arithmetic_traits@N@std@@2HB DD 08H		; std::_Arithmetic_traits<double>::_Rank
;	COMDAT ?_Rank@?$_Arithmetic_traits@M@std@@2HB
.rdata	SEGMENT
?_Rank@?$_Arithmetic_traits@M@std@@2HB DD 07H		; std::_Arithmetic_traits<float>::_Rank
;	COMDAT ?_Rank@?$_Arithmetic_traits@_K@std@@2HB
.rdata	SEGMENT
?_Rank@?$_Arithmetic_traits@_K@std@@2HB DD 06H		; std::_Arithmetic_traits<unsigned __int64>::_Rank
;	COMDAT ?_Rank@?$_Arithmetic_traits@_J@std@@2HB
.rdata	SEGMENT
?_Rank@?$_Arithmetic_traits@_J@std@@2HB DD 06H		; std::_Arithmetic_traits<__int64>::_Rank
;	COMDAT ?_Rank@?$_Arithmetic_traits@K@std@@2HB
.rdata	SEGMENT
?_Rank@?$_Arithmetic_traits@K@std@@2HB DD 05H		; std::_Arithmetic_traits<unsigned long>::_Rank
;	COMDAT ?_Rank@?$_Arithmetic_traits@J@std@@2HB
.rdata	SEGMENT
?_Rank@?$_Arithmetic_traits@J@std@@2HB DD 05H		; std::_Arithmetic_traits<long>::_Rank
;	COMDAT ?_Rank@?$_Arithmetic_traits@I@std@@2HB
.rdata	SEGMENT
?_Rank@?$_Arithmetic_traits@I@std@@2HB DD 04H		; std::_Arithmetic_traits<unsigned int>::_Rank
;	COMDAT ?_Rank@?$_Arithmetic_traits@H@std@@2HB
.rdata	SEGMENT
?_Rank@?$_Arithmetic_traits@H@std@@2HB DD 04H		; std::_Arithmetic_traits<int>::_Rank
;	COMDAT ?_Rank@?$_Arithmetic_traits@G@std@@2HB
.rdata	SEGMENT
?_Rank@?$_Arithmetic_traits@G@std@@2HB DD 03H		; std::_Arithmetic_traits<unsigned short>::_Rank
;	COMDAT ?_Rank@?$_Arithmetic_traits@F@std@@2HB
.rdata	SEGMENT
?_Rank@?$_Arithmetic_traits@F@std@@2HB DD 03H		; std::_Arithmetic_traits<short>::_Rank
;	COMDAT ?_Rank@?$_Arithmetic_traits@E@std@@2HB
.rdata	SEGMENT
?_Rank@?$_Arithmetic_traits@E@std@@2HB DD 02H		; std::_Arithmetic_traits<unsigned char>::_Rank
;	COMDAT ?_Rank@?$_Arithmetic_traits@C@std@@2HB
.rdata	SEGMENT
?_Rank@?$_Arithmetic_traits@C@std@@2HB DD 02H		; std::_Arithmetic_traits<signed char>::_Rank
;	COMDAT ?_Rank@?$_Arithmetic_traits@D@std@@2HB
.rdata	SEGMENT
?_Rank@?$_Arithmetic_traits@D@std@@2HB DD 02H		; std::_Arithmetic_traits<char>::_Rank
;	COMDAT ?_Rank@?$_Arithmetic_traits@_N@std@@2HB
.rdata	SEGMENT
?_Rank@?$_Arithmetic_traits@_N@std@@2HB DD 01H		; std::_Arithmetic_traits<bool>::_Rank
;	COMDAT ?value@?$integral_constant@I$0A@@tr1@std@@2IB
.rdata	SEGMENT
?value@?$integral_constant@I$0A@@tr1@std@@2IB DD 00H	; std::tr1::integral_constant<unsigned int,0>::value
;	COMDAT ?value@?$integral_constant@_N$00@tr1@std@@2_NB
.rdata	SEGMENT
?value@?$integral_constant@_N$00@tr1@std@@2_NB DB 01H	; std::tr1::integral_constant<bool,1>::value
;	COMDAT ?value@?$integral_constant@_N$0A@@tr1@std@@2_NB
.rdata	SEGMENT
?value@?$integral_constant@_N$0A@@tr1@std@@2_NB DB 00H	; std::tr1::integral_constant<bool,0>::value
;	COMDAT ?min_exponent10@?$numeric_limits@O@std@@2HB
.rdata	SEGMENT
?min_exponent10@?$numeric_limits@O@std@@2HB DD 0fffffecdH ; std::numeric_limits<long double>::min_exponent10
;	COMDAT ?min_exponent@?$numeric_limits@O@std@@2HB
.rdata	SEGMENT
?min_exponent@?$numeric_limits@O@std@@2HB DD 0fffffc03H	; std::numeric_limits<long double>::min_exponent
;	COMDAT ?max_exponent10@?$numeric_limits@O@std@@2HB
.rdata	SEGMENT
?max_exponent10@?$numeric_limits@O@std@@2HB DD 0134H	; std::numeric_limits<long double>::max_exponent10
;	COMDAT ?max_exponent@?$numeric_limits@O@std@@2HB
.rdata	SEGMENT
?max_exponent@?$numeric_limits@O@std@@2HB DD 0400H	; std::numeric_limits<long double>::max_exponent
;	COMDAT ?max_digits10@?$numeric_limits@O@std@@2HB
.rdata	SEGMENT
?max_digits10@?$numeric_limits@O@std@@2HB DD 011H	; std::numeric_limits<long double>::max_digits10
;	COMDAT ?digits10@?$numeric_limits@O@std@@2HB
.rdata	SEGMENT
?digits10@?$numeric_limits@O@std@@2HB DD 0fH		; std::numeric_limits<long double>::digits10
;	COMDAT ?digits@?$numeric_limits@O@std@@2HB
.rdata	SEGMENT
?digits@?$numeric_limits@O@std@@2HB DD 035H		; std::numeric_limits<long double>::digits
;	COMDAT ?min_exponent10@?$numeric_limits@N@std@@2HB
.rdata	SEGMENT
?min_exponent10@?$numeric_limits@N@std@@2HB DD 0fffffecdH ; std::numeric_limits<double>::min_exponent10
;	COMDAT ?min_exponent@?$numeric_limits@N@std@@2HB
.rdata	SEGMENT
?min_exponent@?$numeric_limits@N@std@@2HB DD 0fffffc03H	; std::numeric_limits<double>::min_exponent
;	COMDAT ?max_exponent10@?$numeric_limits@N@std@@2HB
.rdata	SEGMENT
?max_exponent10@?$numeric_limits@N@std@@2HB DD 0134H	; std::numeric_limits<double>::max_exponent10
;	COMDAT ?max_exponent@?$numeric_limits@N@std@@2HB
.rdata	SEGMENT
?max_exponent@?$numeric_limits@N@std@@2HB DD 0400H	; std::numeric_limits<double>::max_exponent
;	COMDAT ?max_digits10@?$numeric_limits@N@std@@2HB
.rdata	SEGMENT
?max_digits10@?$numeric_limits@N@std@@2HB DD 011H	; std::numeric_limits<double>::max_digits10
;	COMDAT ?digits10@?$numeric_limits@N@std@@2HB
.rdata	SEGMENT
?digits10@?$numeric_limits@N@std@@2HB DD 0fH		; std::numeric_limits<double>::digits10
;	COMDAT ?digits@?$numeric_limits@N@std@@2HB
.rdata	SEGMENT
?digits@?$numeric_limits@N@std@@2HB DD 035H		; std::numeric_limits<double>::digits
;	COMDAT ?min_exponent10@?$numeric_limits@M@std@@2HB
.rdata	SEGMENT
?min_exponent10@?$numeric_limits@M@std@@2HB DD 0ffffffdbH ; std::numeric_limits<float>::min_exponent10
;	COMDAT ?min_exponent@?$numeric_limits@M@std@@2HB
.rdata	SEGMENT
?min_exponent@?$numeric_limits@M@std@@2HB DD 0ffffff83H	; std::numeric_limits<float>::min_exponent
;	COMDAT ?max_exponent10@?$numeric_limits@M@std@@2HB
.rdata	SEGMENT
?max_exponent10@?$numeric_limits@M@std@@2HB DD 026H	; std::numeric_limits<float>::max_exponent10
;	COMDAT ?max_exponent@?$numeric_limits@M@std@@2HB
.rdata	SEGMENT
?max_exponent@?$numeric_limits@M@std@@2HB DD 080H	; std::numeric_limits<float>::max_exponent
;	COMDAT ?max_digits10@?$numeric_limits@M@std@@2HB
.rdata	SEGMENT
?max_digits10@?$numeric_limits@M@std@@2HB DD 08H	; std::numeric_limits<float>::max_digits10
;	COMDAT ?digits10@?$numeric_limits@M@std@@2HB
.rdata	SEGMENT
?digits10@?$numeric_limits@M@std@@2HB DD 06H		; std::numeric_limits<float>::digits10
;	COMDAT ?digits@?$numeric_limits@M@std@@2HB
.rdata	SEGMENT
?digits@?$numeric_limits@M@std@@2HB DD 018H		; std::numeric_limits<float>::digits
;	COMDAT ?max_digits10@?$numeric_limits@_K@std@@2HB
.rdata	SEGMENT
?max_digits10@?$numeric_limits@_K@std@@2HB DD 015H	; std::numeric_limits<unsigned __int64>::max_digits10
;	COMDAT ?digits10@?$numeric_limits@_K@std@@2HB
.rdata	SEGMENT
?digits10@?$numeric_limits@_K@std@@2HB DD 013H		; std::numeric_limits<unsigned __int64>::digits10
;	COMDAT ?digits@?$numeric_limits@_K@std@@2HB
.rdata	SEGMENT
?digits@?$numeric_limits@_K@std@@2HB DD 040H		; std::numeric_limits<unsigned __int64>::digits
;	COMDAT ?is_signed@?$numeric_limits@_K@std@@2_NB
.rdata	SEGMENT
?is_signed@?$numeric_limits@_K@std@@2_NB DB 00H		; std::numeric_limits<unsigned __int64>::is_signed
;	COMDAT ?max_digits10@?$numeric_limits@_J@std@@2HB
.rdata	SEGMENT
?max_digits10@?$numeric_limits@_J@std@@2HB DD 014H	; std::numeric_limits<__int64>::max_digits10
;	COMDAT ?digits10@?$numeric_limits@_J@std@@2HB
.rdata	SEGMENT
?digits10@?$numeric_limits@_J@std@@2HB DD 012H		; std::numeric_limits<__int64>::digits10
;	COMDAT ?digits@?$numeric_limits@_J@std@@2HB
.rdata	SEGMENT
?digits@?$numeric_limits@_J@std@@2HB DD 03fH		; std::numeric_limits<__int64>::digits
;	COMDAT ?is_signed@?$numeric_limits@_J@std@@2_NB
.rdata	SEGMENT
?is_signed@?$numeric_limits@_J@std@@2_NB DB 01H		; std::numeric_limits<__int64>::is_signed
;	COMDAT ?max_digits10@?$numeric_limits@K@std@@2HB
.rdata	SEGMENT
?max_digits10@?$numeric_limits@K@std@@2HB DD 0bH	; std::numeric_limits<unsigned long>::max_digits10
;	COMDAT ?digits10@?$numeric_limits@K@std@@2HB
.rdata	SEGMENT
?digits10@?$numeric_limits@K@std@@2HB DD 09H		; std::numeric_limits<unsigned long>::digits10
;	COMDAT ?digits@?$numeric_limits@K@std@@2HB
.rdata	SEGMENT
?digits@?$numeric_limits@K@std@@2HB DD 020H		; std::numeric_limits<unsigned long>::digits
;	COMDAT ?is_signed@?$numeric_limits@K@std@@2_NB
.rdata	SEGMENT
?is_signed@?$numeric_limits@K@std@@2_NB DB 00H		; std::numeric_limits<unsigned long>::is_signed
;	COMDAT ?max_digits10@?$numeric_limits@J@std@@2HB
.rdata	SEGMENT
?max_digits10@?$numeric_limits@J@std@@2HB DD 0bH	; std::numeric_limits<long>::max_digits10
;	COMDAT ?digits10@?$numeric_limits@J@std@@2HB
.rdata	SEGMENT
?digits10@?$numeric_limits@J@std@@2HB DD 09H		; std::numeric_limits<long>::digits10
;	COMDAT ?digits@?$numeric_limits@J@std@@2HB
.rdata	SEGMENT
?digits@?$numeric_limits@J@std@@2HB DD 01fH		; std::numeric_limits<long>::digits
;	COMDAT ?is_signed@?$numeric_limits@J@std@@2_NB
.rdata	SEGMENT
?is_signed@?$numeric_limits@J@std@@2_NB DB 01H		; std::numeric_limits<long>::is_signed
;	COMDAT ?max_digits10@?$numeric_limits@I@std@@2HB
.rdata	SEGMENT
?max_digits10@?$numeric_limits@I@std@@2HB DD 0bH	; std::numeric_limits<unsigned int>::max_digits10
;	COMDAT ?digits10@?$numeric_limits@I@std@@2HB
.rdata	SEGMENT
?digits10@?$numeric_limits@I@std@@2HB DD 09H		; std::numeric_limits<unsigned int>::digits10
;	COMDAT ?digits@?$numeric_limits@I@std@@2HB
.rdata	SEGMENT
?digits@?$numeric_limits@I@std@@2HB DD 020H		; std::numeric_limits<unsigned int>::digits
;	COMDAT ?is_signed@?$numeric_limits@I@std@@2_NB
.rdata	SEGMENT
?is_signed@?$numeric_limits@I@std@@2_NB DB 00H		; std::numeric_limits<unsigned int>::is_signed
;	COMDAT ?max_digits10@?$numeric_limits@H@std@@2HB
.rdata	SEGMENT
?max_digits10@?$numeric_limits@H@std@@2HB DD 0bH	; std::numeric_limits<int>::max_digits10
;	COMDAT ?digits10@?$numeric_limits@H@std@@2HB
.rdata	SEGMENT
?digits10@?$numeric_limits@H@std@@2HB DD 09H		; std::numeric_limits<int>::digits10
;	COMDAT ?digits@?$numeric_limits@H@std@@2HB
.rdata	SEGMENT
?digits@?$numeric_limits@H@std@@2HB DD 01fH		; std::numeric_limits<int>::digits
;	COMDAT ?is_signed@?$numeric_limits@H@std@@2_NB
.rdata	SEGMENT
?is_signed@?$numeric_limits@H@std@@2_NB DB 01H		; std::numeric_limits<int>::is_signed
;	COMDAT ?max_digits10@?$numeric_limits@G@std@@2HB
.rdata	SEGMENT
?max_digits10@?$numeric_limits@G@std@@2HB DD 06H	; std::numeric_limits<unsigned short>::max_digits10
;	COMDAT ?digits10@?$numeric_limits@G@std@@2HB
.rdata	SEGMENT
?digits10@?$numeric_limits@G@std@@2HB DD 04H		; std::numeric_limits<unsigned short>::digits10
;	COMDAT ?digits@?$numeric_limits@G@std@@2HB
.rdata	SEGMENT
?digits@?$numeric_limits@G@std@@2HB DD 010H		; std::numeric_limits<unsigned short>::digits
;	COMDAT ?is_signed@?$numeric_limits@G@std@@2_NB
.rdata	SEGMENT
?is_signed@?$numeric_limits@G@std@@2_NB DB 00H		; std::numeric_limits<unsigned short>::is_signed
;	COMDAT ?max_digits10@?$numeric_limits@F@std@@2HB
.rdata	SEGMENT
?max_digits10@?$numeric_limits@F@std@@2HB DD 06H	; std::numeric_limits<short>::max_digits10
;	COMDAT ?digits10@?$numeric_limits@F@std@@2HB
.rdata	SEGMENT
?digits10@?$numeric_limits@F@std@@2HB DD 04H		; std::numeric_limits<short>::digits10
;	COMDAT ?digits@?$numeric_limits@F@std@@2HB
.rdata	SEGMENT
?digits@?$numeric_limits@F@std@@2HB DD 0fH		; std::numeric_limits<short>::digits
;	COMDAT ?is_signed@?$numeric_limits@F@std@@2_NB
.rdata	SEGMENT
?is_signed@?$numeric_limits@F@std@@2_NB DB 01H		; std::numeric_limits<short>::is_signed
;	COMDAT ?max_digits10@?$numeric_limits@E@std@@2HB
.rdata	SEGMENT
?max_digits10@?$numeric_limits@E@std@@2HB DD 04H	; std::numeric_limits<unsigned char>::max_digits10
;	COMDAT ?digits10@?$numeric_limits@E@std@@2HB
.rdata	SEGMENT
?digits10@?$numeric_limits@E@std@@2HB DD 02H		; std::numeric_limits<unsigned char>::digits10
;	COMDAT ?digits@?$numeric_limits@E@std@@2HB
.rdata	SEGMENT
?digits@?$numeric_limits@E@std@@2HB DD 08H		; std::numeric_limits<unsigned char>::digits
;	COMDAT ?is_signed@?$numeric_limits@E@std@@2_NB
.rdata	SEGMENT
?is_signed@?$numeric_limits@E@std@@2_NB DB 00H		; std::numeric_limits<unsigned char>::is_signed
;	COMDAT ?max_digits10@?$numeric_limits@C@std@@2HB
.rdata	SEGMENT
?max_digits10@?$numeric_limits@C@std@@2HB DD 04H	; std::numeric_limits<signed char>::max_digits10
;	COMDAT ?digits10@?$numeric_limits@C@std@@2HB
.rdata	SEGMENT
?digits10@?$numeric_limits@C@std@@2HB DD 02H		; std::numeric_limits<signed char>::digits10
;	COMDAT ?digits@?$numeric_limits@C@std@@2HB
.rdata	SEGMENT
?digits@?$numeric_limits@C@std@@2HB DD 07H		; std::numeric_limits<signed char>::digits
;	COMDAT ?is_signed@?$numeric_limits@C@std@@2_NB
.rdata	SEGMENT
?is_signed@?$numeric_limits@C@std@@2_NB DB 01H		; std::numeric_limits<signed char>::is_signed
;	COMDAT ?max_digits10@?$numeric_limits@_N@std@@2HB
.rdata	SEGMENT
?max_digits10@?$numeric_limits@_N@std@@2HB DD 00H	; std::numeric_limits<bool>::max_digits10
;	COMDAT ?digits10@?$numeric_limits@_N@std@@2HB
.rdata	SEGMENT
?digits10@?$numeric_limits@_N@std@@2HB DD 00H		; std::numeric_limits<bool>::digits10
;	COMDAT ?digits@?$numeric_limits@_N@std@@2HB
.rdata	SEGMENT
?digits@?$numeric_limits@_N@std@@2HB DD 01H		; std::numeric_limits<bool>::digits
;	COMDAT ?is_signed@?$numeric_limits@_N@std@@2_NB
.rdata	SEGMENT
?is_signed@?$numeric_limits@_N@std@@2_NB DB 00H		; std::numeric_limits<bool>::is_signed
;	COMDAT ?is_modulo@?$numeric_limits@_N@std@@2_NB
.rdata	SEGMENT
?is_modulo@?$numeric_limits@_N@std@@2_NB DB 00H		; std::numeric_limits<bool>::is_modulo
;	COMDAT ?max_digits10@?$numeric_limits@_W@std@@2HB
.rdata	SEGMENT
?max_digits10@?$numeric_limits@_W@std@@2HB DD 06H	; std::numeric_limits<wchar_t>::max_digits10
;	COMDAT ?digits10@?$numeric_limits@_W@std@@2HB
.rdata	SEGMENT
?digits10@?$numeric_limits@_W@std@@2HB DD 04H		; std::numeric_limits<wchar_t>::digits10
;	COMDAT ?digits@?$numeric_limits@_W@std@@2HB
.rdata	SEGMENT
?digits@?$numeric_limits@_W@std@@2HB DD 010H		; std::numeric_limits<wchar_t>::digits
;	COMDAT ?is_signed@?$numeric_limits@_W@std@@2_NB
.rdata	SEGMENT
?is_signed@?$numeric_limits@_W@std@@2_NB DB 00H		; std::numeric_limits<wchar_t>::is_signed
;	COMDAT ?max_digits10@?$numeric_limits@D@std@@2HB
.rdata	SEGMENT
?max_digits10@?$numeric_limits@D@std@@2HB DD 04H	; std::numeric_limits<char>::max_digits10
;	COMDAT ?digits10@?$numeric_limits@D@std@@2HB
.rdata	SEGMENT
?digits10@?$numeric_limits@D@std@@2HB DD 02H		; std::numeric_limits<char>::digits10
;	COMDAT ?digits@?$numeric_limits@D@std@@2HB
.rdata	SEGMENT
?digits@?$numeric_limits@D@std@@2HB DD 07H		; std::numeric_limits<char>::digits
;	COMDAT ?is_signed@?$numeric_limits@D@std@@2_NB
.rdata	SEGMENT
?is_signed@?$numeric_limits@D@std@@2_NB DB 01H		; std::numeric_limits<char>::is_signed
;	COMDAT ?radix@_Num_float_base@std@@2HB
.rdata	SEGMENT
?radix@_Num_float_base@std@@2HB DD 02H			; std::_Num_float_base::radix
;	COMDAT ?round_style@_Num_float_base@std@@2W4float_round_style@2@B
.rdata	SEGMENT
?round_style@_Num_float_base@std@@2W4float_round_style@2@B DD 01H ; std::_Num_float_base::round_style
;	COMDAT ?traps@_Num_float_base@std@@2_NB
.rdata	SEGMENT
?traps@_Num_float_base@std@@2_NB DB 01H			; std::_Num_float_base::traps
;	COMDAT ?tinyness_before@_Num_float_base@std@@2_NB
.rdata	SEGMENT
?tinyness_before@_Num_float_base@std@@2_NB DB 01H	; std::_Num_float_base::tinyness_before
;	COMDAT ?is_specialized@_Num_float_base@std@@2_NB
.rdata	SEGMENT
?is_specialized@_Num_float_base@std@@2_NB DB 01H	; std::_Num_float_base::is_specialized
;	COMDAT ?is_signed@_Num_float_base@std@@2_NB
.rdata	SEGMENT
?is_signed@_Num_float_base@std@@2_NB DB 01H		; std::_Num_float_base::is_signed
;	COMDAT ?is_modulo@_Num_float_base@std@@2_NB
.rdata	SEGMENT
?is_modulo@_Num_float_base@std@@2_NB DB 00H		; std::_Num_float_base::is_modulo
;	COMDAT ?is_integer@_Num_float_base@std@@2_NB
.rdata	SEGMENT
?is_integer@_Num_float_base@std@@2_NB DB 00H		; std::_Num_float_base::is_integer
;	COMDAT ?is_iec559@_Num_float_base@std@@2_NB
.rdata	SEGMENT
?is_iec559@_Num_float_base@std@@2_NB DB 01H		; std::_Num_float_base::is_iec559
;	COMDAT ?is_exact@_Num_float_base@std@@2_NB
.rdata	SEGMENT
?is_exact@_Num_float_base@std@@2_NB DB 00H		; std::_Num_float_base::is_exact
;	COMDAT ?is_bounded@_Num_float_base@std@@2_NB
.rdata	SEGMENT
?is_bounded@_Num_float_base@std@@2_NB DB 01H		; std::_Num_float_base::is_bounded
;	COMDAT ?has_signaling_NaN@_Num_float_base@std@@2_NB
.rdata	SEGMENT
?has_signaling_NaN@_Num_float_base@std@@2_NB DB 01H	; std::_Num_float_base::has_signaling_NaN
;	COMDAT ?has_quiet_NaN@_Num_float_base@std@@2_NB
.rdata	SEGMENT
?has_quiet_NaN@_Num_float_base@std@@2_NB DB 01H		; std::_Num_float_base::has_quiet_NaN
;	COMDAT ?has_infinity@_Num_float_base@std@@2_NB
.rdata	SEGMENT
?has_infinity@_Num_float_base@std@@2_NB DB 01H		; std::_Num_float_base::has_infinity
;	COMDAT ?has_denorm_loss@_Num_float_base@std@@2_NB
.rdata	SEGMENT
?has_denorm_loss@_Num_float_base@std@@2_NB DB 01H	; std::_Num_float_base::has_denorm_loss
;	COMDAT ?has_denorm@_Num_float_base@std@@2W4float_denorm_style@2@B
.rdata	SEGMENT
?has_denorm@_Num_float_base@std@@2W4float_denorm_style@2@B DD 01H ; std::_Num_float_base::has_denorm
;	COMDAT ?radix@_Num_int_base@std@@2HB
.rdata	SEGMENT
?radix@_Num_int_base@std@@2HB DD 02H			; std::_Num_int_base::radix
;	COMDAT ?is_specialized@_Num_int_base@std@@2_NB
.rdata	SEGMENT
?is_specialized@_Num_int_base@std@@2_NB DB 01H		; std::_Num_int_base::is_specialized
;	COMDAT ?is_modulo@_Num_int_base@std@@2_NB
.rdata	SEGMENT
?is_modulo@_Num_int_base@std@@2_NB DB 01H		; std::_Num_int_base::is_modulo
;	COMDAT ?is_integer@_Num_int_base@std@@2_NB
.rdata	SEGMENT
?is_integer@_Num_int_base@std@@2_NB DB 01H		; std::_Num_int_base::is_integer
;	COMDAT ?is_exact@_Num_int_base@std@@2_NB
.rdata	SEGMENT
?is_exact@_Num_int_base@std@@2_NB DB 01H		; std::_Num_int_base::is_exact
;	COMDAT ?is_bounded@_Num_int_base@std@@2_NB
.rdata	SEGMENT
?is_bounded@_Num_int_base@std@@2_NB DB 01H		; std::_Num_int_base::is_bounded
;	COMDAT ?radix@_Num_base@std@@2HB
.rdata	SEGMENT
?radix@_Num_base@std@@2HB DD 00H			; std::_Num_base::radix
;	COMDAT ?min_exponent10@_Num_base@std@@2HB
.rdata	SEGMENT
?min_exponent10@_Num_base@std@@2HB DD 00H		; std::_Num_base::min_exponent10
;	COMDAT ?min_exponent@_Num_base@std@@2HB
.rdata	SEGMENT
?min_exponent@_Num_base@std@@2HB DD 00H			; std::_Num_base::min_exponent
;	COMDAT ?max_exponent10@_Num_base@std@@2HB
.rdata	SEGMENT
?max_exponent10@_Num_base@std@@2HB DD 00H		; std::_Num_base::max_exponent10
;	COMDAT ?max_exponent@_Num_base@std@@2HB
.rdata	SEGMENT
?max_exponent@_Num_base@std@@2HB DD 00H			; std::_Num_base::max_exponent
;	COMDAT ?max_digits10@_Num_base@std@@2HB
.rdata	SEGMENT
?max_digits10@_Num_base@std@@2HB DD 00H			; std::_Num_base::max_digits10
;	COMDAT ?digits10@_Num_base@std@@2HB
.rdata	SEGMENT
?digits10@_Num_base@std@@2HB DD 00H			; std::_Num_base::digits10
;	COMDAT ?digits@_Num_base@std@@2HB
.rdata	SEGMENT
?digits@_Num_base@std@@2HB DD 00H			; std::_Num_base::digits
;	COMDAT ?round_style@_Num_base@std@@2W4float_round_style@2@B
.rdata	SEGMENT
?round_style@_Num_base@std@@2W4float_round_style@2@B DD 00H ; std::_Num_base::round_style
;	COMDAT ?traps@_Num_base@std@@2_NB
.rdata	SEGMENT
?traps@_Num_base@std@@2_NB DB 00H			; std::_Num_base::traps
;	COMDAT ?tinyness_before@_Num_base@std@@2_NB
.rdata	SEGMENT
?tinyness_before@_Num_base@std@@2_NB DB 00H		; std::_Num_base::tinyness_before
;	COMDAT ?is_specialized@_Num_base@std@@2_NB
.rdata	SEGMENT
?is_specialized@_Num_base@std@@2_NB DB 00H		; std::_Num_base::is_specialized
;	COMDAT ?is_signed@_Num_base@std@@2_NB
.rdata	SEGMENT
?is_signed@_Num_base@std@@2_NB DB 00H			; std::_Num_base::is_signed
;	COMDAT ?is_modulo@_Num_base@std@@2_NB
.rdata	SEGMENT
?is_modulo@_Num_base@std@@2_NB DB 00H			; std::_Num_base::is_modulo
;	COMDAT ?is_integer@_Num_base@std@@2_NB
.rdata	SEGMENT
?is_integer@_Num_base@std@@2_NB DB 00H			; std::_Num_base::is_integer
;	COMDAT ?is_iec559@_Num_base@std@@2_NB
.rdata	SEGMENT
?is_iec559@_Num_base@std@@2_NB DB 00H			; std::_Num_base::is_iec559
;	COMDAT ?is_exact@_Num_base@std@@2_NB
.rdata	SEGMENT
?is_exact@_Num_base@std@@2_NB DB 00H			; std::_Num_base::is_exact
;	COMDAT ?is_bounded@_Num_base@std@@2_NB
.rdata	SEGMENT
?is_bounded@_Num_base@std@@2_NB DB 00H			; std::_Num_base::is_bounded
;	COMDAT ?has_signaling_NaN@_Num_base@std@@2_NB
.rdata	SEGMENT
?has_signaling_NaN@_Num_base@std@@2_NB DB 00H		; std::_Num_base::has_signaling_NaN
;	COMDAT ?has_quiet_NaN@_Num_base@std@@2_NB
.rdata	SEGMENT
?has_quiet_NaN@_Num_base@std@@2_NB DB 00H		; std::_Num_base::has_quiet_NaN
;	COMDAT ?has_infinity@_Num_base@std@@2_NB
.rdata	SEGMENT
?has_infinity@_Num_base@std@@2_NB DB 00H		; std::_Num_base::has_infinity
;	COMDAT ?has_denorm_loss@_Num_base@std@@2_NB
.rdata	SEGMENT
?has_denorm_loss@_Num_base@std@@2_NB DB 00H		; std::_Num_base::has_denorm_loss
;	COMDAT ?has_denorm@_Num_base@std@@2W4float_denorm_style@2@B
.rdata	SEGMENT
?has_denorm@_Num_base@std@@2W4float_denorm_style@2@B DD 00H ; std::_Num_base::has_denorm
;	COMDAT ?g_XMUnsignedFix@@3UXMVECTORF32@@B
.rdata	SEGMENT
?g_XMUnsignedFix@@3UXMVECTORF32@@B DD 04f000000r ; 2.14748e+009 ; g_XMUnsignedFix
	DD	04f000000r			; 2.14748e+009
	DD	04f000000r			; 2.14748e+009
	DD	04f000000r			; 2.14748e+009
;	COMDAT ?g_XMMaxUInt@@3UXMVECTORF32@@B
.rdata	SEGMENT
?g_XMMaxUInt@@3UXMVECTORF32@@B DD 04f7fffffr	; 4.29497e+009 ; g_XMMaxUInt
	DD	04f7fffffr			; 4.29497e+009
	DD	04f7fffffr			; 4.29497e+009
	DD	04f7fffffr			; 4.29497e+009
;	COMDAT ?g_XMMaxInt@@3UXMVECTORF32@@B
.rdata	SEGMENT
?g_XMMaxInt@@3UXMVECTORF32@@B DD 04effffffr	; 2.14748e+009 ; g_XMMaxInt
	DD	04effffffr			; 2.14748e+009
	DD	04effffffr			; 2.14748e+009
	DD	04effffffr			; 2.14748e+009
;	COMDAT ?g_XMFixUnsigned@@3UXMVECTORF32@@B
.rdata	SEGMENT
?g_XMFixUnsigned@@3UXMVECTORF32@@B DD 04f000000r ; 2.14748e+009 ; g_XMFixUnsigned
	DD	04f000000r			; 2.14748e+009
	DD	04f000000r			; 2.14748e+009
	DD	04f000000r			; 2.14748e+009
;	COMDAT ?g_XMAddByte4@@3UXMVECTORF32@@B
.rdata	SEGMENT
?g_XMAddByte4@@3UXMVECTORF32@@B DD 0c3000000r	; -128	; g_XMAddByte4
	DD	0c7000000r			; -32768
	DD	0cb000000r			; -8.38861e+006
	DD	000000000r			; 0
;	COMDAT ?g_XMXorByte4@@3UXMVECTORI32@@B
.rdata	SEGMENT
?g_XMXorByte4@@3UXMVECTORI32@@B DD 080H			; g_XMXorByte4
	DD	08000H
	DD	0800000H
	DD	00H
;	COMDAT ?g_XMMaskByte4@@3UXMVECTORI32@@B
.rdata	SEGMENT
?g_XMMaskByte4@@3UXMVECTORI32@@B DD 0ffH		; g_XMMaskByte4
	DD	0ff00H
	DD	0ff0000H
	DD	0ff000000H
;	COMDAT ?g_XMMulDec4@@3UXMVECTORF32@@B
.rdata	SEGMENT
?g_XMMulDec4@@3UXMVECTORF32@@B DD 03f800000r	; 1	; g_XMMulDec4
	DD	03a800000r			; 0.000976563
	DD	035800000r			; 9.53674e-007
	DD	030800000r			; 9.31323e-010
;	COMDAT ?g_XMAddDec4@@3UXMVECTORF32@@B
.rdata	SEGMENT
?g_XMAddDec4@@3UXMVECTORF32@@B DD 0c4000000r	; -512	; g_XMAddDec4
	DD	0c9000000r			; -524288
	DD	0ce000000r			; -5.36871e+008
	DD	000000000r			; 0
;	COMDAT ?g_XMAddUDec4@@3UXMVECTORF32@@B
.rdata	SEGMENT
?g_XMAddUDec4@@3UXMVECTORF32@@B DD 000000000r	; 0	; g_XMAddUDec4
	DD	000000000r			; 0
	DD	000000000r			; 0
	DD	04f000000r			; 2.14748e+009
;	COMDAT ?g_XMXorDec4@@3UXMVECTORI32@@B
.rdata	SEGMENT
?g_XMXorDec4@@3UXMVECTORI32@@B DD 0200H			; g_XMXorDec4
	DD	080000H
	DD	020000000H
	DD	00H
;	COMDAT ?g_XMMaskDec4@@3UXMVECTORI32@@B
.rdata	SEGMENT
?g_XMMaskDec4@@3UXMVECTORI32@@B DD 03ffH		; g_XMMaskDec4
	DD	0ffc00H
	DD	03ff00000H
	DD	0c0000000H
;	COMDAT ?g_XMMulIco4@@3UXMVECTORF32@@B
.rdata	SEGMENT
?g_XMMulIco4@@3UXMVECTORF32@@B DD 03f800000r	; 1	; g_XMMulIco4
	DD	039800000r			; 0.000244141
	DD	03f800000r			; 1
	DD	031800000r			; 3.72529e-009
;	COMDAT ?g_XMAddIco4@@3UXMVECTORF32@@B
.rdata	SEGMENT
?g_XMAddIco4@@3UXMVECTORF32@@B DD 0c9000000r	; -524288 ; g_XMAddIco4
	DD	000000000r			; 0
	DD	0c9000000r			; -524288
	DD	000000000r			; 0
;	COMDAT ?g_XMAddUIco4@@3UXMVECTORF32@@B
.rdata	SEGMENT
?g_XMAddUIco4@@3UXMVECTORF32@@B DD 000000000r	; 0	; g_XMAddUIco4
	DD	04f000000r			; 2.14748e+009
	DD	000000000r			; 0
	DD	04f000000r			; 2.14748e+009
;	COMDAT ?g_XMAddXIco4@@3UXMVECTORF32@@B
.rdata	SEGMENT
?g_XMAddXIco4@@3UXMVECTORF32@@B DD 0c9000000r	; -524288 ; g_XMAddXIco4
	DD	000000000r			; 0
	DD	0c9000000r			; -524288
	DD	04f000000r			; 2.14748e+009
;	COMDAT ?g_XMXorIco4@@3UXMVECTORI32@@B
.rdata	SEGMENT
?g_XMXorIco4@@3UXMVECTORI32@@B DD 080000H		; g_XMXorIco4
	DD	00H
	DD	080000H
	DD	00H
;	COMDAT ?g_XMXorXIco4@@3UXMVECTORI32@@B
.rdata	SEGMENT
?g_XMXorXIco4@@3UXMVECTORI32@@B DD 080000H		; g_XMXorXIco4
	DD	00H
	DD	080000H
	DD	080000000H
;	COMDAT ?g_XMMaskIco4@@3UXMVECTORI32@@B
.rdata	SEGMENT
?g_XMMaskIco4@@3UXMVECTORI32@@B DD 0fffffH		; g_XMMaskIco4
	DD	0fffff000H
	DD	0fffffH
	DD	0f0000000H
;	COMDAT ?g_XMXorDHen3@@3UXMVECTORI32@@B
.rdata	SEGMENT
?g_XMXorDHen3@@3UXMVECTORI32@@B DD 0200H		; g_XMXorDHen3
	DD	0100000H
	DD	00H
	DD	00H
;	COMDAT ?g_XMXorHenD3@@3UXMVECTORI32@@B
.rdata	SEGMENT
?g_XMXorHenD3@@3UXMVECTORI32@@B DD 0400H		; g_XMXorHenD3
	DD	0200000H
	DD	00H
	DD	00H
;	COMDAT ?g_XMMulDHen3@@3UXMVECTORF32@@B
.rdata	SEGMENT
?g_XMMulDHen3@@3UXMVECTORF32@@B DD 03f800000r	; 1	; g_XMMulDHen3
	DD	03a800000r			; 0.000976563
	DD	035000000r			; 4.76837e-007
	DD	000000000r			; 0
;	COMDAT ?g_XMMulHenD3@@3UXMVECTORF32@@B
.rdata	SEGMENT
?g_XMMulHenD3@@3UXMVECTORF32@@B DD 03f800000r	; 1	; g_XMMulHenD3
	DD	03a000000r			; 0.000488281
	DD	034800000r			; 2.38419e-007
	DD	000000000r			; 0
;	COMDAT ?g_XMAddDHen3@@3UXMVECTORF32@@B
.rdata	SEGMENT
?g_XMAddDHen3@@3UXMVECTORF32@@B DD 0c4000000r	; -512	; g_XMAddDHen3
	DD	0c9800000r			; -1.04858e+006
	DD	000000000r			; 0
	DD	000000000r			; 0
;	COMDAT ?g_XMAddHenD3@@3UXMVECTORF32@@B
.rdata	SEGMENT
?g_XMAddHenD3@@3UXMVECTORF32@@B DD 0c4800000r	; -1024	; g_XMAddHenD3
	DD	0ca000000r			; -2.09715e+006
	DD	000000000r			; 0
	DD	000000000r			; 0
;	COMDAT ?g_XMAddUHenD3@@3UXMVECTORF32@@B
.rdata	SEGMENT
?g_XMAddUHenD3@@3UXMVECTORF32@@B DD 000000000r	; 0	; g_XMAddUHenD3
	DD	000000000r			; 0
	DD	04f000000r			; 2.14748e+009
	DD	000000000r			; 0
;	COMDAT ?g_XMMaskDHen3@@3UXMVECTORI32@@B
.rdata	SEGMENT
?g_XMMaskDHen3@@3UXMVECTORI32@@B DD 03ffH		; g_XMMaskDHen3
	DD	01ffc00H
	DD	0ffe00000H
	DD	00H
;	COMDAT ?g_XMMaskHenD3@@3UXMVECTORI32@@B
.rdata	SEGMENT
?g_XMMaskHenD3@@3UXMVECTORI32@@B DD 07ffH		; g_XMMaskHenD3
	DD	03ff800H
	DD	0ffc00000H
	DD	00H
;	COMDAT ?g_XMFlipYW@@3UXMVECTORI32@@B
.rdata	SEGMENT
?g_XMFlipYW@@3UXMVECTORI32@@B DD 00H			; g_XMFlipYW
	DD	080000000H
	DD	00H
	DD	080000000H
;	COMDAT ?g_XMFlipZW@@3UXMVECTORI32@@B
.rdata	SEGMENT
?g_XMFlipZW@@3UXMVECTORI32@@B DD 00H			; g_XMFlipZW
	DD	00H
	DD	080000000H
	DD	080000000H
;	COMDAT ?g_XMFlipYZ@@3UXMVECTORI32@@B
.rdata	SEGMENT
?g_XMFlipYZ@@3UXMVECTORI32@@B DD 00H			; g_XMFlipYZ
	DD	080000000H
	DD	080000000H
	DD	00H
;	COMDAT ?g_XMFlipW@@3UXMVECTORI32@@B
.rdata	SEGMENT
?g_XMFlipW@@3UXMVECTORI32@@B DD 00H			; g_XMFlipW
	DD	00H
	DD	00H
	DD	080000000H
;	COMDAT ?g_XMFlipZ@@3UXMVECTORI32@@B
.rdata	SEGMENT
?g_XMFlipZ@@3UXMVECTORI32@@B DD 00H			; g_XMFlipZ
	DD	00H
	DD	080000000H
	DD	00H
;	COMDAT ?g_XMFlipY@@3UXMVECTORI32@@B
.rdata	SEGMENT
?g_XMFlipY@@3UXMVECTORI32@@B DD 00H			; g_XMFlipY
	DD	080000000H
	DD	00H
	DD	00H
;	COMDAT ?g_XMFixupY16W16@@3UXMVECTORF32@@B
.rdata	SEGMENT
?g_XMFixupY16W16@@3UXMVECTORF32@@B DD 03f800000r ; 1	; g_XMFixupY16W16
	DD	03f800000r			; 1
	DD	037800000r			; 1.52588e-005
	DD	037800000r			; 1.52588e-005
;	COMDAT ?g_XMFixupY16@@3UXMVECTORF32@@B
.rdata	SEGMENT
?g_XMFixupY16@@3UXMVECTORF32@@B DD 03f800000r	; 1	; g_XMFixupY16
	DD	037800000r			; 1.52588e-005
	DD	000000000r			; 0
	DD	000000000r			; 0
;	COMDAT ?g_XMPermute0Z0W1Z1W@@3UXMVECTORI32@@B
.rdata	SEGMENT
?g_XMPermute0Z0W1Z1W@@3UXMVECTORI32@@B DD 08090a0bH	; g_XMPermute0Z0W1Z1W
	DD	0c0d0e0fH
	DD	018191a1bH
	DD	01c1d1e1fH
;	COMDAT ?g_XMPermute0X0Y1X1Y@@3UXMVECTORI32@@B
.rdata	SEGMENT
?g_XMPermute0X0Y1X1Y@@3UXMVECTORI32@@B DD 010203H	; g_XMPermute0X0Y1X1Y
	DD	04050607H
	DD	010111213H
	DD	014151617H
;	COMDAT ?g_XMSwizzleZXYW@@3UXMVECTORI32@@B
.rdata	SEGMENT
?g_XMSwizzleZXYW@@3UXMVECTORI32@@B DD 08090a0bH		; g_XMSwizzleZXYW
	DD	010203H
	DD	04050607H
	DD	0c0d0e0fH
;	COMDAT ?g_XMSwizzleYZXW@@3UXMVECTORI32@@B
.rdata	SEGMENT
?g_XMSwizzleYZXW@@3UXMVECTORI32@@B DD 04050607H		; g_XMSwizzleYZXW
	DD	08090a0bH
	DD	010203H
	DD	0c0d0e0fH
;	COMDAT ?g_XMSwizzleYXZW@@3UXMVECTORI32@@B
.rdata	SEGMENT
?g_XMSwizzleYXZW@@3UXMVECTORI32@@B DD 04050607H		; g_XMSwizzleYXZW
	DD	010203H
	DD	08090a0bH
	DD	0c0d0e0fH
;	COMDAT ?g_XMSwizzleXYZX@@3UXMVECTORI32@@B
.rdata	SEGMENT
?g_XMSwizzleXYZX@@3UXMVECTORI32@@B DD 010203H		; g_XMSwizzleXYZX
	DD	04050607H
	DD	08090a0bH
	DD	010203H
;	COMDAT ?g_XMSwizzleXYXY@@3UXMVECTORI32@@B
.rdata	SEGMENT
?g_XMSwizzleXYXY@@3UXMVECTORI32@@B DD 010203H		; g_XMSwizzleXYXY
	DD	04050607H
	DD	010203H
	DD	04050607H
;	COMDAT ?g_XMSelect1110@@3UXMVECTORI32@@B
.rdata	SEGMENT
?g_XMSelect1110@@3UXMVECTORI32@@B DD 0ffffffffH		; g_XMSelect1110
	DD	0ffffffffH
	DD	0ffffffffH
	DD	00H
;	COMDAT ?g_XMSelect1100@@3UXMVECTORI32@@B
.rdata	SEGMENT
?g_XMSelect1100@@3UXMVECTORI32@@B DD 0ffffffffH		; g_XMSelect1100
	DD	0ffffffffH
	DD	00H
	DD	00H
;	COMDAT ?g_XMSelect1000@@3UXMVECTORI32@@B
.rdata	SEGMENT
?g_XMSelect1000@@3UXMVECTORI32@@B DD 0ffffffffH		; g_XMSelect1000
	DD	00H
	DD	00H
	DD	00H
;	COMDAT ?g_XMOneHalfMinusEpsilon@@3UXMVECTORI32@@B
.rdata	SEGMENT
?g_XMOneHalfMinusEpsilon@@3UXMVECTORI32@@B DD 03efffffdH ; g_XMOneHalfMinusEpsilon
	DD	03efffffdH
	DD	03efffffdH
	DD	03efffffdH
;	COMDAT ?g_XMSelect1010@@3UXMVECTORI32@@B
.rdata	SEGMENT
?g_XMSelect1010@@3UXMVECTORI32@@B DD 0ffffffffH		; g_XMSelect1010
	DD	00H
	DD	0ffffffffH
	DD	00H
;	COMDAT ?g_XMSelect0101@@3UXMVECTORI32@@B
.rdata	SEGMENT
?g_XMSelect0101@@3UXMVECTORI32@@B DD 00H		; g_XMSelect0101
	DD	0ffffffffH
	DD	00H
	DD	0ffffffffH
;	COMDAT ?g_XMNegateW@@3UXMVECTORF32@@B
.rdata	SEGMENT
?g_XMNegateW@@3UXMVECTORF32@@B DD 03f800000r	; 1	; g_XMNegateW
	DD	03f800000r			; 1
	DD	03f800000r			; 1
	DD	0bf800000r			; -1
;	COMDAT ?g_XMNegateZ@@3UXMVECTORF32@@B
.rdata	SEGMENT
?g_XMNegateZ@@3UXMVECTORF32@@B DD 03f800000r	; 1	; g_XMNegateZ
	DD	03f800000r			; 1
	DD	0bf800000r			; -1
	DD	03f800000r			; 1
;	COMDAT ?g_XMNegateY@@3UXMVECTORF32@@B
.rdata	SEGMENT
?g_XMNegateY@@3UXMVECTORF32@@B DD 03f800000r	; 1	; g_XMNegateY
	DD	0bf800000r			; -1
	DD	03f800000r			; 1
	DD	03f800000r			; 1
;	COMDAT ?g_XMNegateX@@3UXMVECTORF32@@B
.rdata	SEGMENT
?g_XMNegateX@@3UXMVECTORF32@@B DD 0bf800000r	; -1	; g_XMNegateX
	DD	03f800000r			; 1
	DD	03f800000r			; 1
	DD	03f800000r			; 1
;	COMDAT ?g_XMMaskByte@@3UXMVECTORI32@@B
.rdata	SEGMENT
?g_XMMaskByte@@3UXMVECTORI32@@B DD 0ffH			; g_XMMaskByte
	DD	0ffH
	DD	0ffH
	DD	0ffH
;	COMDAT ?g_XMNoFraction@@3UXMVECTORF32@@B
.rdata	SEGMENT
?g_XMNoFraction@@3UXMVECTORF32@@B DD 04b000000r	; 8.38861e+006 ; g_XMNoFraction
	DD	04b000000r			; 8.38861e+006
	DD	04b000000r			; 8.38861e+006
	DD	04b000000r			; 8.38861e+006
;	COMDAT ?g_XMNormalizeX16Y16Z16W16@@3UXMVECTORF32@@B
.rdata	SEGMENT
?g_XMNormalizeX16Y16Z16W16@@3UXMVECTORF32@@B DD 038000100r ; 3.05185e-005 ; g_XMNormalizeX16Y16Z16W16
	DD	038000100r			; 3.05185e-005
	DD	030000100r			; 4.65675e-010
	DD	030000100r			; 4.65675e-010
;	COMDAT ?g_XMFixX16Y16Z16W16@@3UXMVECTORF32@@B
.rdata	SEGMENT
?g_XMFixX16Y16Z16W16@@3UXMVECTORF32@@B DD 0c7000000r ; -32768 ; g_XMFixX16Y16Z16W16
	DD	0c7000000r			; -32768
	DD	000000000r			; 0
	DD	000000000r			; 0
;	COMDAT ?g_XMFlipX16Y16Z16W16@@3UXMVECTORI32@@B
.rdata	SEGMENT
?g_XMFlipX16Y16Z16W16@@3UXMVECTORI32@@B DD 08000H	; g_XMFlipX16Y16Z16W16
	DD	08000H
	DD	00H
	DD	00H
;	COMDAT ?g_XMMaskX16Y16Z16W16@@3UXMVECTORI32@@B
.rdata	SEGMENT
?g_XMMaskX16Y16Z16W16@@3UXMVECTORI32@@B DD 0ffffH	; g_XMMaskX16Y16Z16W16
	DD	0ffffH
	DD	0ffff0000H
	DD	0ffff0000H
;	COMDAT ?g_XMNormalizeX16Y16@@3UXMVECTORF32@@B
.rdata	SEGMENT
?g_XMNormalizeX16Y16@@3UXMVECTORF32@@B DD 038000100r ; 3.05185e-005 ; g_XMNormalizeX16Y16
	DD	030000100r			; 4.65675e-010
	DD	000000000r			; 0
	DD	000000000r			; 0
;	COMDAT ?g_XMFixX16Y16@@3UXMVECTORF32@@B
.rdata	SEGMENT
?g_XMFixX16Y16@@3UXMVECTORF32@@B DD 0c7000000r	; -32768 ; g_XMFixX16Y16
	DD	000000000r			; 0
	DD	000000000r			; 0
	DD	000000000r			; 0
;	COMDAT ?g_XMFlipX16Y16@@3UXMVECTORI32@@B
.rdata	SEGMENT
?g_XMFlipX16Y16@@3UXMVECTORI32@@B DD 08000H		; g_XMFlipX16Y16
	DD	00H
	DD	00H
	DD	00H
;	COMDAT ?g_XMMaskX16Y16@@3UXMVECTORI32@@B
.rdata	SEGMENT
?g_XMMaskX16Y16@@3UXMVECTORI32@@B DD 0ffffH		; g_XMMaskX16Y16
	DD	0ffff0000H
	DD	00H
	DD	00H
;	COMDAT ?g_XMNormalizeA2B10G10R10@@3UXMVECTORF32@@B
.rdata	SEGMENT
?g_XMNormalizeA2B10G10R10@@3UXMVECTORF32@@B DD 03b004020r ; 0.00195695 ; g_XMNormalizeA2B10G10R10
	DD	036004020r			; 1.91108e-006
	DD	031004020r			; 1.86629e-009
	DD	02faaaaabr			; 3.10441e-010
;	COMDAT ?g_XMFixAA2B10G10R10@@3UXMVECTORF32@@B
.rdata	SEGMENT
?g_XMFixAA2B10G10R10@@3UXMVECTORF32@@B DD 0c4000000r ; -512 ; g_XMFixAA2B10G10R10
	DD	0c9000000r			; -524288
	DD	0ce000000r			; -5.36871e+008
	DD	04f000000r			; 2.14748e+009
;	COMDAT ?g_XMFlipA2B10G10R10@@3UXMVECTORI32@@B
.rdata	SEGMENT
?g_XMFlipA2B10G10R10@@3UXMVECTORI32@@B DD 0200H		; g_XMFlipA2B10G10R10
	DD	080000H
	DD	020000000H
	DD	080000000H
;	COMDAT ?g_XMMaskA2B10G10R10@@3UXMVECTORI32@@B
.rdata	SEGMENT
?g_XMMaskA2B10G10R10@@3UXMVECTORI32@@B DD 03ffH		; g_XMMaskA2B10G10R10
	DD	0ffc00H
	DD	03ff00000H
	DD	0c0000000H
;	COMDAT ?g_XMNormalizeA8R8G8B8@@3UXMVECTORF32@@B
.rdata	SEGMENT
?g_XMNormalizeA8R8G8B8@@3UXMVECTORF32@@B DD 033808081r ; 5.98384e-008 ; g_XMNormalizeA8R8G8B8
	DD	037808081r			; 1.53186e-005
	DD	03b808081r			; 0.00392157
	DD	02f808081r			; 2.33744e-010
;	COMDAT ?g_XMFixAA8R8G8B8@@3UXMVECTORF32@@B
.rdata	SEGMENT
?g_XMFixAA8R8G8B8@@3UXMVECTORF32@@B DD 000000000r ; 0	; g_XMFixAA8R8G8B8
	DD	000000000r			; 0
	DD	000000000r			; 0
	DD	04f000000r			; 2.14748e+009
;	COMDAT ?g_XMFlipA8R8G8B8@@3UXMVECTORI32@@B
.rdata	SEGMENT
?g_XMFlipA8R8G8B8@@3UXMVECTORI32@@B DD 00H		; g_XMFlipA8R8G8B8
	DD	00H
	DD	00H
	DD	080000000H
;	COMDAT ?g_XMMaskA8R8G8B8@@3UXMVECTORI32@@B
.rdata	SEGMENT
?g_XMMaskA8R8G8B8@@3UXMVECTORI32@@B DD 0ff0000H		; g_XMMaskA8R8G8B8
	DD	0ff00H
	DD	0ffH
	DD	0ff000000H
;	COMDAT ?g_XMNegOneMask@@3UXMVECTORI32@@B
.rdata	SEGMENT
?g_XMNegOneMask@@3UXMVECTORI32@@B DD 0ffffffffH		; g_XMNegOneMask
	DD	0ffffffffH
	DD	0ffffffffH
	DD	0ffffffffH
;	COMDAT ?g_XMFltMax@@3UXMVECTORI32@@B
.rdata	SEGMENT
?g_XMFltMax@@3UXMVECTORI32@@B DD 07f7fffffH		; g_XMFltMax
	DD	07f7fffffH
	DD	07f7fffffH
	DD	07f7fffffH
;	COMDAT ?g_XMFltMin@@3UXMVECTORI32@@B
.rdata	SEGMENT
?g_XMFltMin@@3UXMVECTORI32@@B DD 0800000H		; g_XMFltMin
	DD	0800000H
	DD	0800000H
	DD	0800000H
;	COMDAT ?g_XMAbsMask@@3UXMVECTORI32@@B
.rdata	SEGMENT
?g_XMAbsMask@@3UXMVECTORI32@@B DD 07fffffffH		; g_XMAbsMask
	DD	07fffffffH
	DD	07fffffffH
	DD	07fffffffH
;	COMDAT ?g_XMQNaNTest@@3UXMVECTORI32@@B
.rdata	SEGMENT
?g_XMQNaNTest@@3UXMVECTORI32@@B DD 07fffffH		; g_XMQNaNTest
	DD	07fffffH
	DD	07fffffH
	DD	07fffffH
;	COMDAT ?g_XMQNaN@@3UXMVECTORI32@@B
.rdata	SEGMENT
?g_XMQNaN@@3UXMVECTORI32@@B DD 07fc00000H		; g_XMQNaN
	DD	07fc00000H
	DD	07fc00000H
	DD	07fc00000H
;	COMDAT ?g_XMInfinity@@3UXMVECTORI32@@B
.rdata	SEGMENT
?g_XMInfinity@@3UXMVECTORI32@@B DD 07f800000H		; g_XMInfinity
	DD	07f800000H
	DD	07f800000H
	DD	07f800000H
;	COMDAT ?g_XMEpsilon@@3UXMVECTORF32@@B
.rdata	SEGMENT
?g_XMEpsilon@@3UXMVECTORF32@@B DD 034000000r	; 1.19209e-007 ; g_XMEpsilon
	DD	034000000r			; 1.19209e-007
	DD	034000000r			; 1.19209e-007
	DD	034000000r			; 1.19209e-007
;	COMDAT ?g_XMReciprocalTwoPi@@3UXMVECTORF32@@B
.rdata	SEGMENT
?g_XMReciprocalTwoPi@@3UXMVECTORF32@@B DD 03e22f983r ; 0.159155 ; g_XMReciprocalTwoPi
	DD	03e22f983r			; 0.159155
	DD	03e22f983r			; 0.159155
	DD	03e22f983r			; 0.159155
;	COMDAT ?g_XMTwoPi@@3UXMVECTORF32@@B
.rdata	SEGMENT
?g_XMTwoPi@@3UXMVECTORF32@@B DD 040c90fdbr	; 6.28319 ; g_XMTwoPi
	DD	040c90fdbr			; 6.28319
	DD	040c90fdbr			; 6.28319
	DD	040c90fdbr			; 6.28319
;	COMDAT ?g_XMReciprocalPi@@3UXMVECTORF32@@B
.rdata	SEGMENT
?g_XMReciprocalPi@@3UXMVECTORF32@@B DD 03ea2f983r ; 0.31831 ; g_XMReciprocalPi
	DD	03ea2f983r			; 0.31831
	DD	03ea2f983r			; 0.31831
	DD	03ea2f983r			; 0.31831
;	COMDAT ?g_XMPi@@3UXMVECTORF32@@B
.rdata	SEGMENT
?g_XMPi@@3UXMVECTORF32@@B DD 040490fdbr		; 3.14159 ; g_XMPi
	DD	040490fdbr			; 3.14159
	DD	040490fdbr			; 3.14159
	DD	040490fdbr			; 3.14159
;	COMDAT ?g_XMHalfPi@@3UXMVECTORF32@@B
.rdata	SEGMENT
?g_XMHalfPi@@3UXMVECTORF32@@B DD 03fc90fdbr	; 1.5708 ; g_XMHalfPi
	DD	03fc90fdbr			; 1.5708
	DD	03fc90fdbr			; 1.5708
	DD	03fc90fdbr			; 1.5708
;	COMDAT ?g_XMNegativePi@@3UXMVECTORF32@@B
.rdata	SEGMENT
?g_XMNegativePi@@3UXMVECTORF32@@B DD 0c0490fdbr	; -3.14159 ; g_XMNegativePi
	DD	0c0490fdbr			; -3.14159
	DD	0c0490fdbr			; -3.14159
	DD	0c0490fdbr			; -3.14159
;	COMDAT ?g_XMNegativeTwoPi@@3UXMVECTORF32@@B
.rdata	SEGMENT
?g_XMNegativeTwoPi@@3UXMVECTORF32@@B DD 0c0c90fdbr ; -6.28319 ; g_XMNegativeTwoPi
	DD	0c0c90fdbr			; -6.28319
	DD	0c0c90fdbr			; -6.28319
	DD	0c0c90fdbr			; -6.28319
;	COMDAT ?g_XMNegativeOneHalf@@3UXMVECTORF32@@B
.rdata	SEGMENT
?g_XMNegativeOneHalf@@3UXMVECTORF32@@B DD 0bf000000r ; -0.5 ; g_XMNegativeOneHalf
	DD	0bf000000r			; -0.5
	DD	0bf000000r			; -0.5
	DD	0bf000000r			; -0.5
;	COMDAT ?g_XMOneHalf@@3UXMVECTORF32@@B
.rdata	SEGMENT
?g_XMOneHalf@@3UXMVECTORF32@@B DD 03f000000r	; 0.5	; g_XMOneHalf
	DD	03f000000r			; 0.5
	DD	03f000000r			; 0.5
	DD	03f000000r			; 0.5
;	COMDAT ?g_XMNegativeOne@@3UXMVECTORF32@@B
.rdata	SEGMENT
?g_XMNegativeOne@@3UXMVECTORF32@@B DD 0bf800000r ; -1	; g_XMNegativeOne
	DD	0bf800000r			; -1
	DD	0bf800000r			; -1
	DD	0bf800000r			; -1
;	COMDAT ?g_XMZero@@3UXMVECTORF32@@B
.rdata	SEGMENT
?g_XMZero@@3UXMVECTORF32@@B DD 000000000r	; 0	; g_XMZero
	DD	000000000r			; 0
	DD	000000000r			; 0
	DD	000000000r			; 0
;	COMDAT ?g_XMOne3@@3UXMVECTORF32@@B
.rdata	SEGMENT
?g_XMOne3@@3UXMVECTORF32@@B DD 03f800000r	; 1	; g_XMOne3
	DD	03f800000r			; 1
	DD	03f800000r			; 1
	DD	000000000r			; 0
;	COMDAT ?g_XMOne@@3UXMVECTORF32@@B
.rdata	SEGMENT
?g_XMOne@@3UXMVECTORF32@@B DD 03f800000r	; 1	; g_XMOne
	DD	03f800000r			; 1
	DD	03f800000r			; 1
	DD	03f800000r			; 1
;	COMDAT ?g_XMMaskW@@3UXMVECTORI32@@B
.rdata	SEGMENT
?g_XMMaskW@@3UXMVECTORI32@@B DD 00H			; g_XMMaskW
	DD	00H
	DD	00H
	DD	0ffffffffH
;	COMDAT ?g_XMMaskZ@@3UXMVECTORI32@@B
.rdata	SEGMENT
?g_XMMaskZ@@3UXMVECTORI32@@B DD 00H			; g_XMMaskZ
	DD	00H
	DD	0ffffffffH
	DD	00H
;	COMDAT ?g_XMMaskY@@3UXMVECTORI32@@B
.rdata	SEGMENT
?g_XMMaskY@@3UXMVECTORI32@@B DD 00H			; g_XMMaskY
	DD	0ffffffffH
	DD	00H
	DD	00H
;	COMDAT ?g_XMMaskX@@3UXMVECTORI32@@B
.rdata	SEGMENT
?g_XMMaskX@@3UXMVECTORI32@@B DD 0ffffffffH		; g_XMMaskX
	DD	00H
	DD	00H
	DD	00H
;	COMDAT ?g_XMMask3@@3UXMVECTORI32@@B
.rdata	SEGMENT
?g_XMMask3@@3UXMVECTORI32@@B DD 0ffffffffH		; g_XMMask3
	DD	0ffffffffH
	DD	0ffffffffH
	DD	00H
;	COMDAT ?g_XMNegate3@@3UXMVECTORI32@@B
.rdata	SEGMENT
?g_XMNegate3@@3UXMVECTORI32@@B DD 080000000H		; g_XMNegate3
	DD	080000000H
	DD	080000000H
	DD	00H
;	COMDAT ?g_XMNegativeZero@@3UXMVECTORI32@@B
.rdata	SEGMENT
?g_XMNegativeZero@@3UXMVECTORI32@@B DD 080000000H	; g_XMNegativeZero
	DD	080000000H
	DD	080000000H
	DD	080000000H
;	COMDAT ?g_XMNegIdentityR3@@3UXMVECTORF32@@B
.rdata	SEGMENT
?g_XMNegIdentityR3@@3UXMVECTORF32@@B DD 000000000r ; 0	; g_XMNegIdentityR3
	DD	000000000r			; 0
	DD	000000000r			; 0
	DD	0bf800000r			; -1
;	COMDAT ?g_XMNegIdentityR2@@3UXMVECTORF32@@B
.rdata	SEGMENT
?g_XMNegIdentityR2@@3UXMVECTORF32@@B DD 000000000r ; 0	; g_XMNegIdentityR2
	DD	000000000r			; 0
	DD	0bf800000r			; -1
	DD	000000000r			; 0
;	COMDAT ?g_XMNegIdentityR1@@3UXMVECTORF32@@B
.rdata	SEGMENT
?g_XMNegIdentityR1@@3UXMVECTORF32@@B DD 000000000r ; 0	; g_XMNegIdentityR1
	DD	0bf800000r			; -1
	DD	000000000r			; 0
	DD	000000000r			; 0
;	COMDAT ?g_XMNegIdentityR0@@3UXMVECTORF32@@B
.rdata	SEGMENT
?g_XMNegIdentityR0@@3UXMVECTORF32@@B DD 0bf800000r ; -1	; g_XMNegIdentityR0
	DD	000000000r			; 0
	DD	000000000r			; 0
	DD	000000000r			; 0
;	COMDAT ?g_XMIdentityR3@@3UXMVECTORF32@@B
.rdata	SEGMENT
?g_XMIdentityR3@@3UXMVECTORF32@@B DD 000000000r	; 0	; g_XMIdentityR3
	DD	000000000r			; 0
	DD	000000000r			; 0
	DD	03f800000r			; 1
;	COMDAT ?g_XMIdentityR2@@3UXMVECTORF32@@B
.rdata	SEGMENT
?g_XMIdentityR2@@3UXMVECTORF32@@B DD 000000000r	; 0	; g_XMIdentityR2
	DD	000000000r			; 0
	DD	03f800000r			; 1
	DD	000000000r			; 0
;	COMDAT ?g_XMIdentityR1@@3UXMVECTORF32@@B
.rdata	SEGMENT
?g_XMIdentityR1@@3UXMVECTORF32@@B DD 000000000r	; 0	; g_XMIdentityR1
	DD	03f800000r			; 1
	DD	000000000r			; 0
	DD	000000000r			; 0
;	COMDAT ?g_XMIdentityR0@@3UXMVECTORF32@@B
.rdata	SEGMENT
?g_XMIdentityR0@@3UXMVECTORF32@@B DD 03f800000r	; 1	; g_XMIdentityR0
	DD	000000000r			; 0
	DD	000000000r			; 0
	DD	000000000r			; 0
;	COMDAT ?g_XMPiConstants0@@3UXMVECTORF32@@B
.rdata	SEGMENT
?g_XMPiConstants0@@3UXMVECTORF32@@B DD 040490fdbr ; 3.14159 ; g_XMPiConstants0
	DD	040c90fdbr			; 6.28319
	DD	03ea2f983r			; 0.31831
	DD	03e22f983r			; 0.159155
;	COMDAT ?g_XMASinEstConstants@@3UXMVECTORF32@@B
.rdata	SEGMENT
?g_XMASinEstConstants@@3UXMVECTORF32@@B DD 03f800001r ; 1 ; g_XMASinEstConstants
	DD	03fc90fdbr			; 1.5708
	DD	000000000r			; 0
	DD	000000000r			; 0
;	COMDAT ?g_XMASinEstCoefficients@@3UXMVECTORF32@@B
.rdata	SEGMENT
?g_XMASinEstCoefficients@@3UXMVECTORF32@@B DD 0bfae4ee5r ; -1.36178 ; g_XMASinEstCoefficients
	DD	0401849a5r			; 2.37949
	DD	0bf4ee811r			; -0.808229
	DD	03e8e8fb5r			; 0.27844
;	COMDAT ?g_XMATanEstCoefficients@@3UXMVECTORF32@@B
.rdata	SEGMENT
?g_XMATanEstCoefficients@@3UXMVECTORF32@@B DD 03f44dc79r ; 0.768989 ; g_XMATanEstCoefficients
	DD	03f8d6834r			; 1.10474
	DD	03f5dbe43r			; 0.866184
	DD	03fc90fdbr			; 1.5708
;	COMDAT ?g_XMTanEstCoefficients@@3UXMVECTORF32@@B
.rdata	SEGMENT
?g_XMTanEstCoefficients@@3UXMVECTORF32@@B DD 0401ef9dbr ; 2.484 ; g_XMTanEstCoefficients
	DD	0be482f23r			; -0.195492
	DD	0401de9e6r			; 2.4674
	DD	03ea2f983r			; 0.31831
;	COMDAT ?g_XMCosEstCoefficients@@3UXMVECTORF32@@B
.rdata	SEGMENT
?g_XMCosEstCoefficients@@3UXMVECTORF32@@B DD 03f800000r ; 1 ; g_XMCosEstCoefficients
	DD	0befd9e41r			; -0.495348
	DD	03d1eda81r			; 0.0387826
	DD	0ba72600cr			; -0.000924588
;	COMDAT ?g_XMSinEstCoefficients@@3UXMVECTORF32@@B
.rdata	SEGMENT
?g_XMSinEstCoefficients@@3UXMVECTORF32@@B DD 03f800000r ; 1 ; g_XMSinEstCoefficients
	DD	0be2a84b5r			; -0.166522
	DD	03c0658eer			; 0.00819991
	DD	0b92951der			; -0.000161476
;	COMDAT ?g_XMATanCoefficients2@@3UXMVECTORF32@@B
.rdata	SEGMENT
?g_XMATanCoefficients2@@3UXMVECTORF32@@B DD 03d70f0f1r ; 0.0588235 ; g_XMATanCoefficients2
	DD	03d579436r			; 0.0526316
	DD	03d430c31r			; 0.047619
	DD	03d321643r			; 0.0434783
;	COMDAT ?g_XMATanCoefficients1@@3UXMVECTORF32@@B
.rdata	SEGMENT
?g_XMATanCoefficients1@@3UXMVECTORF32@@B DD 03de38e39r ; 0.111111 ; g_XMATanCoefficients1
	DD	03dba2e8cr			; 0.0909091
	DD	03d9d89d9r			; 0.0769231
	DD	03d888889r			; 0.0666667
;	COMDAT ?g_XMATanCoefficients0@@3UXMVECTORF32@@B
.rdata	SEGMENT
?g_XMATanCoefficients0@@3UXMVECTORF32@@B DD 03f800000r ; 1 ; g_XMATanCoefficients0
	DD	03eaaaaabr			; 0.333333
	DD	03e4ccccdr			; 0.2
	DD	03e124925r			; 0.142857
;	COMDAT ?g_XMASinCoefficients2@@3UXMVECTORF32@@B
.rdata	SEGMENT
?g_XMASinCoefficients2@@3UXMVECTORF32@@B DD 0bfaf4418r ; -1.36927 ; g_XMASinCoefficients2
	DD	0c08f6ad9r			; -4.48179
	DD	03fb58485r			; 1.41811
	DD	040af6ad8r			; 5.48179
;	COMDAT ?g_XMASinCoefficients1@@3UXMVECTORF32@@B
.rdata	SEGMENT
?g_XMASinCoefficients1@@3UXMVECTORF32@@B DD 03f1dd7b6r ; 0.616573 ; g_XMASinCoefficients1
	DD	0408980bdr			; 4.29697
	DD	0bf983f2fr			; -1.18943
	DD	0c0d1360er			; -6.53785
;	COMDAT ?g_XMASinCoefficients0@@3UXMVECTORF32@@B
.rdata	SEGMENT
?g_XMASinCoefficients0@@3UXMVECTORF32@@B DD 0bd6dd42dr ; -0.0580637 ; g_XMASinCoefficients0
	DD	0bed65553r			; -0.41862
	DD	03e663246r			; 0.224801
	DD	0400b1889r			; 2.17337
;	COMDAT ?g_XMTanCoefficients2@@3UXMVECTORF32@@B
.rdata	SEGMENT
?g_XMTanCoefficients2@@3UXMVECTORF32@@B DD 03a1aac12r ; 0.000590027 ; g_XMTanCoefficients2
	DD	0397abeb9r			; 0.000239129
	DD	038cb3f0cr			; 9.69154e-005
	DD	03824bec9r			; 3.92783e-005
;	COMDAT ?g_XMTanCoefficients1@@3UXMVECTORF32@@B
.rdata	SEGMENT
?g_XMTanCoefficients1@@3UXMVECTORF32@@B DD 03cb327a4r ; 0.0218695 ; g_XMTanCoefficients1
	DD	03c11371br			; 0.00886324
	DD	03b6b69e9r			; 0.00359213
	DD	03abed1b3r			; 0.00145583
;	COMDAT ?g_XMTanCoefficients0@@3UXMVECTORF32@@B
.rdata	SEGMENT
?g_XMTanCoefficients0@@3UXMVECTORF32@@B DD 03f800000r ; 1 ; g_XMTanCoefficients0
	DD	03eaaaaabr			; 0.333333
	DD	03e088889r			; 0.133333
	DD	03d5d0dd1r			; 0.0539683
;	COMDAT ?g_XMCosCoefficients2@@3UXMVECTORF32@@B
.rdata	SEGMENT
?g_XMCosCoefficients2@@3UXMVECTORF32@@B DD 029573f9fr ; 4.77948e-014 ; g_XMCosCoefficients2
	DD	0a53413c3r			; -1.56192e-016
	DD	020f2a15dr			; 4.11032e-019
	DD	09c8671cbr			; -8.89679e-022
;	COMDAT ?g_XMCosCoefficients1@@3UXMVECTORF32@@B
.rdata	SEGMENT
?g_XMCosCoefficients1@@3UXMVECTORF32@@B DD 037d00d01r ; 2.48016e-005 ; g_XMCosCoefficients1
	DD	0b493f27er			; -2.75573e-007
	DD	0310f76c8r			; 2.08768e-009
	DD	0ad49cba5r			; -1.14707e-011
;	COMDAT ?g_XMCosCoefficients0@@3UXMVECTORF32@@B
.rdata	SEGMENT
?g_XMCosCoefficients0@@3UXMVECTORF32@@B DD 03f800000r ; 1 ; g_XMCosCoefficients0
	DD	0bf000000r			; -0.5
	DD	03d2aaaabr			; 0.0416667
	DD	0bab60b61r			; -0.00138889
;	COMDAT ?g_XMSinCoefficients2@@3UXMVECTORF32@@B
.rdata	SEGMENT
?g_XMSinCoefficients2@@3UXMVECTORF32@@B DD 0274a963cr ; 2.81146e-015 ; g_XMSinCoefficients2
	DD	0a317a4dar			; -8.22064e-018
	DD	01eb8dc78r			; 1.95729e-020
	DD	09a3b0da1r			; -3.86817e-023
;	COMDAT ?g_XMSinCoefficients1@@3UXMVECTORF32@@B
.rdata	SEGMENT
?g_XMSinCoefficients1@@3UXMVECTORF32@@B DD 03638ef1dr ; 2.75573e-006 ; g_XMSinCoefficients1
	DD	0b2d7322br			; -2.50521e-008
	DD	02f309231r			; 1.6059e-010
	DD	0ab573f9fr			; -7.64716e-013
;	COMDAT ?g_XMSinCoefficients0@@3UXMVECTORF32@@B
.rdata	SEGMENT
?g_XMSinCoefficients0@@3UXMVECTORF32@@B DD 03f800000r ; 1 ; g_XMSinCoefficients0
	DD	0be2aaaabr			; -0.166667
	DD	03c088889r			; 0.00833333
	DD	0b9500d01r			; -0.000198413
;	COMDAT D3DTESSPRIMITIVEVERTEXCOUNT
.rdata	SEGMENT
D3DTESSPRIMITIVEVERTEXCOUNT DD 00H
	DD	00H
	DD	00H
	DD	00H
	DD	02H
	DD	00H
	DD	01H
	DD	01H
	DD	03H
	DD	00H
	DD	01H
	DD	02H
	DD	01H
	DD	02H
	DD	00H
	DD	00H
	DD	00H
	DD	00H
	DD	00H
	DD	00H
	DD	00H
	DD	00H
	DD	00H
	DD	00H
	DD	00H
	DD	00H
	DD	04H
	DD	00H
	DD	00H
	DD	00H
	DD	00H
	DD	00H
	DD	01H
	DD	00H
	DD	01H
	DD	00H
	DD	01H
	DD	00H
;	COMDAT D3DPRIMITIVEVERTEXCOUNT
.rdata	SEGMENT
D3DPRIMITIVEVERTEXCOUNT DD 00H
	DD	00H
	DD	01H
	DD	00H
	DD	02H
	DD	00H
	DD	01H
	DD	01H
	DD	03H
	DD	00H
	DD	01H
	DD	02H
	DD	01H
	DD	02H
	DD	00H
	DD	00H
	DD	03H
	DD	00H
	DD	00H
	DD	00H
	DD	00H
	DD	00H
	DD	00H
	DD	00H
	DD	00H
	DD	00H
	DD	04H
	DD	00H
;	COMDAT __C1_11886
.XBLD$W	SEGMENT
__C1_11886 DW	04331H
	DW	00H
	DW	00H
	DW	00H
	DW	010H
	DW	00H
	DW	02e6eH
	DW	04400H
;	COMDAT __C2_11886
.XBLD$W	SEGMENT
__C2_11886 DB	'C2', 00H, 00H, 00H, 00H, 00H, 00H, 00H, 010H, 00H, 00H, '.'
	DB	'nD', 00H
PUBLIC	??8_Vector3@@QAA_NU0@@Z				; _Vector3::operator==
PUBLIC	??0_Vector3@@QAA@XZ				; _Vector3::_Vector3
PUBLIC	?NetworkPlayerIdToInt@@YAKXZ			; NetworkPlayerIdToInt
EXTRN	?Check_SpawnVeh_Handle@@3KA:DWORD		; Check_SpawnVeh_Handle
EXTRN	?SET_MODEL_AS_NO_LONGER_NEEDED@@YAXK@Z:PROC	; SET_MODEL_AS_NO_LONGER_NEEDED
EXTRN	?SET_VEHICLE_FORWARD_SPEED@@YAXKM@Z:PROC	; SET_VEHICLE_FORWARD_SPEED
EXTRN	?SET_HELI_BLADES_FULL_SPEED@@YAXK@Z:PROC	; SET_HELI_BLADES_FULL_SPEED
EXTRN	?SET_VEHICLE_ENGINE_ON@@YAXK_N0@Z:PROC		; SET_VEHICLE_ENGINE_ON
EXTRN	?SET_PED_INTO_VEHICLE@@YAXKKK@Z:PROC		; SET_PED_INTO_VEHICLE
EXTRN	?DOES_ENTITY_EXIST@@YA_NK@Z:PROC		; DOES_ENTITY_EXIST
EXTRN	?CREATE_VEHICLE@@YAKKMMMM_N0@Z:PROC		; CREATE_VEHICLE
EXTRN	?GET_ENTITY_HEADING@@YAMK@Z:PROC		; GET_ENTITY_HEADING
EXTRN	?HAS_MODEL_LOADED@@YA_NK@Z:PROC			; HAS_MODEL_LOADED
EXTRN	?_Position@@3U_Vector3@@A:BYTE			; _Position
EXTRN	?Check_SpawnVeh_Position@@3U_Vector3@@A:BYTE	; Check_SpawnVeh_Position
EXTRN	?_Ped@@3KA:DWORD				; _Ped
EXTRN	?DELETE_VEHICLE@@YAXK@Z:PROC			; DELETE_VEHICLE
EXTRN	?SET_ENTITY_AS_MISSION_ENTITY@@YAXK_N0@Z:PROC	; SET_ENTITY_AS_MISSION_ENTITY
EXTRN	?GET_ENTITY_SPEED@@YAMK@Z:PROC			; GET_ENTITY_SPEED
EXTRN	?_Vehicle@@3KA:DWORD				; _Vehicle
EXTRN	?REQUEST_MODEL@@YAXK@Z:PROC			; REQUEST_MODEL
EXTRN	?Check_SpawnVeh_Hash@@3KA:DWORD			; Check_SpawnVeh_Hash
EXTRN	?PLAYER_ID@@YAKXZ:PROC				; PLAYER_ID
EXTRN	_fltused:PROC
;	COMDAT .pdata
; File c:\users\s7clutch\documents\visual studio 2010\projects\the saiyan project\src\hooks.cpp
.pdata	SEGMENT
$T89984	DD	?NetworkPlayerIdToInt@@YAKXZ
	DD	040008103H
; Function compile flags: /Odtu

	.code
Result$ = 80						; size = 4
y$86433 = 84						; size = 4
x$86432 = 88						; size = 4
speed$86429 = 92					; size = 4
z$86434 = 96						; size = 4
vehicle$86439 = 100					; size = 4
$T89979 = 104						; size = 12
$T89980 = 120						; size = 12

?NetworkPlayerIdToInt@@YAKXZ PROC NEAR			; NetworkPlayerIdToInt, COMDAT

; Begin code for function: ?NetworkPlayerIdToInt@@YAKXZ
; Line 115
	mflr         r12
	stw          r12,-8(r1)
	stwu         r1,-90h(r1)
.endprolog
$M89982:
; Line 116
	bl           ?PLAYER_ID@@YAKXZ
	stw          r3,Result$(r1)		; 80 (50h)
; Line 119
	lis          r11,?Check_SpawnVeh_Hash@@3KA
	lwz          r10,?Check_SpawnVeh_Hash@@3KA(r11)
	cmplwi       cr6,r10,0
	beq          cr6,$LN7@NetworkPla
; Line 121
	lis          r9,?Check_SpawnVeh_Hash@@3KA
	lwz          r3,?Check_SpawnVeh_Hash@@3KA(r9)
	bl           ?REQUEST_MODEL@@YAXK@Z
; Line 124
	lis          r8,?_Vehicle@@3KA
	lwz          r7,?_Vehicle@@3KA(r8)
	cmplwi       cr6,r7,0
	beq          cr6,$LN6@NetworkPla
; Line 126
	lis          r6,?_Vehicle@@3KA
	lwz          r3,?_Vehicle@@3KA(r6)
	bl           ?GET_ENTITY_SPEED@@YAMK@Z
	stfs         fr1,speed$86429(r1)		; 92 (5Ch)
; Line 127
	li           r5,1
	li           r4,0
	lis          r3,?_Vehicle@@3KA
	lwz          r3,?_Vehicle@@3KA(r3)
	bl           ?SET_ENTITY_AS_MISSION_ENTITY@@YAXK_N0@Z
; Line 128
	lis          r11,?_Vehicle@@3KA
	lwz          r3,?_Vehicle@@3KA(r11)
	bl           ?DELETE_VEHICLE@@YAXK@Z
; Line 130
	b            $LN5@NetworkPla
$LN6@NetworkPla:
; Line 131
	lis          r10,?_Ped@@3KA
	lwz          r3,?_Ped@@3KA(r10)
	bl           ?GET_ENTITY_SPEED@@YAMK@Z
	stfs         fr1,speed$86429(r1)		; 92 (5Ch)
$LN5@NetworkPla:
; Line 134
	addi         r3,r1,$T89979
	bl           ??0_Vector3@@QAA@XZ
	ld           r4,0(r3)
	lwz          r9,8(r3)
	rldicr       r5,r9,32,31
	lis          r8,?Check_SpawnVeh_Position@@3U_Vector3@@A
	addi         r3,r8,?Check_SpawnVeh_Position@@3U_Vector3@@A
	bl           ??8_Vector3@@QAA_NU0@@Z
	clrlwi       r7,r3,24
	cmpwi        cr6,r7,0
	beq          cr6,$LN4@NetworkPla
; Line 136
	lis          r6,?_Position@@3U_Vector3@@A
	lfs          fr0,?_Position@@3U_Vector3@@A(r6)
	stfs         fr0,x$86432(r1)		; 88 (58h)
; Line 137
	lis          r5,?_Position@@3U_Vector3@@A
	addi         r4,r5,?_Position@@3U_Vector3@@A
	lfs          fr13,4(r4)
	stfs         fr13,y$86433(r1)		; 84 (54h)
; Line 138
	lis          r3,?_Position@@3U_Vector3@@A
	addi         r11,r3,?_Position@@3U_Vector3@@A
	lfs          fr12,8(r11)
	stfs         fr12,z$86434(r1)		; 96 (60h)
; Line 140
	b            $LN3@NetworkPla
$LN4@NetworkPla:
; Line 142
	lis          r10,?Check_SpawnVeh_Position@@3U_Vector3@@A
	lfs          fr11,?Check_SpawnVeh_Position@@3U_Vector3@@A(r10)
	stfs         fr11,x$86432(r1)		; 88 (58h)
; Line 143
	lis          r9,?Check_SpawnVeh_Position@@3U_Vector3@@A
	addi         r8,r9,?Check_SpawnVeh_Position@@3U_Vector3@@A
	lfs          fr10,4(r8)
	stfs         fr10,y$86433(r1)		; 84 (54h)
; Line 144
	lis          r7,?Check_SpawnVeh_Position@@3U_Vector3@@A
	addi         r6,r7,?Check_SpawnVeh_Position@@3U_Vector3@@A
	lfs          fr9,8(r6)
	stfs         fr9,z$86434(r1)		; 96 (60h)
$LN3@NetworkPla:
; Line 147
	lis          r5,?Check_SpawnVeh_Hash@@3KA
	lwz          r3,?Check_SpawnVeh_Hash@@3KA(r5)
	bl           ?HAS_MODEL_LOADED@@YA_NK@Z
	clrlwi       r4,r3,24
	cmpwi        cr6,r4,0
	beq          cr6,$LN7@NetworkPla
; Line 149
	lis          r3,?_Ped@@3KA
	lwz          r3,?_Ped@@3KA(r3)
	bl           ?GET_ENTITY_HEADING@@YAMK@Z
	fmr          fr4,fr1
	lfs          fr3,z$86434(r1)		; 96 (60h)
	lfs          fr2,y$86433(r1)		; 84 (54h)
	lfs          fr1,x$86432(r1)		; 88 (58h)
	lis          r11,?Check_SpawnVeh_Hash@@3KA
	lwz          r3,?Check_SpawnVeh_Hash@@3KA(r11)
	li           r8,1
	li           r9,0
	bl           ?CREATE_VEHICLE@@YAKKMMMM_N0@Z
	stw          r3,vehicle$86439(r1)		; 100 (64h)
; Line 150
	lwz          r3,vehicle$86439(r1)		; 100 (64h)
	bl           ?DOES_ENTITY_EXIST@@YA_NK@Z
	clrlwi       r10,r3,24
	cmpwi        cr6,r10,0
	beq          cr6,$LN7@NetworkPla
; Line 152
	li           r5,-1		; 0FFFFh
	lwz          r4,vehicle$86439(r1)		; 100 (64h)
	lis          r9,?_Ped@@3KA
	lwz          r3,?_Ped@@3KA(r9)
	bl           ?SET_PED_INTO_VEHICLE@@YAXKKK@Z
; Line 153
	li           r5,1
	li           r4,1
	lwz          r3,vehicle$86439(r1)		; 100 (64h)
	bl           ?SET_VEHICLE_ENGINE_ON@@YAXK_N0@Z
; Line 154
	lwz          r3,vehicle$86439(r1)		; 100 (64h)
	bl           ?SET_HELI_BLADES_FULL_SPEED@@YAXK@Z
; Line 155
	lfs          fr1,speed$86429(r1)		; 92 (5Ch)
	lwz          r3,vehicle$86439(r1)		; 100 (64h)
	bl           ?SET_VEHICLE_FORWARD_SPEED@@YAXKM@Z
; Line 156
	lis          r8,?Check_SpawnVeh_Hash@@3KA
	lwz          r3,?Check_SpawnVeh_Hash@@3KA(r8)
	bl           ?SET_MODEL_AS_NO_LONGER_NEEDED@@YAXK@Z
; Line 158
	lis          r7,?Check_SpawnVeh_Hash@@3KA
	li           r6,0
	stw          r6,?Check_SpawnVeh_Hash@@3KA(r7)
; Line 159
	lwz          r5,vehicle$86439(r1)		; 100 (64h)
	lis          r4,?Check_SpawnVeh_Handle@@3KA
	stw          r5,?Check_SpawnVeh_Handle@@3KA(r4)
; Line 160
	addi         r3,r1,$T89980
	bl           ??0_Vector3@@QAA@XZ
	lis          r11,?Check_SpawnVeh_Position@@3U_Vector3@@A
	addi         r10,r11,?Check_SpawnVeh_Position@@3U_Vector3@@A
	lwz          r9,0(r3)
	stw          r9,0(r10)
	lwz          r8,4(r3)
	stw          r8,4(r10)
	lwz          r7,8(r3)
	stw          r7,8(r10)
$LN7@NetworkPla:
; Line 166
	lwz          r3,Result$(r1)		; 80 (50h)
; Line 167
	addi         r1,r1,144		; 90h
	lwz          r12,-8(r1)
	mtlr         r12
	blr
$M89983:
; End code for function: ?NetworkPlayerIdToInt@@YAKXZ
?NetworkPlayerIdToInt@@YAKXZ ENDP
							; NetworkPlayerIdToInt
PUBLIC	__real@00000000
;	COMDAT __real@00000000
; File c:\users\s7clutch\documents\visual studio 2010\projects\the saiyan project\src\globals.h
.rdata	SEGMENT
__real@00000000 DD 000000000r			; 0
; Function compile flags: /Odtu

	.code

??0_Vector3@@QAA@XZ PROC NEAR				; _Vector3::_Vector3, COMDAT

; Begin code for function: ??0_Vector3@@QAA@XZ
; Line 1916
	stw          r3,this$(r1)		; 20 (14h)
; Line 1918
	lwz          r11,this$(r1)		; 20 (14h)
	lis          r10,__real@00000000
	lfs          fr0,__real@00000000(r10)
	stfs         fr0,8(r11)
	lwz          r9,this$(r1)		; 20 (14h)
	lis          r8,__real@00000000
	lfs          fr13,__real@00000000(r8)
	stfs         fr13,4(r9)
	lis          r7,__real@00000000
	lfs          fr12,__real@00000000(r7)
	lwz          r6,this$(r1)		; 20 (14h)
	stfs         fr12,0(r6)
; Line 1919
	lwz          r3,this$(r1)		; 20 (14h)
	blr
; End code for function: ??0_Vector3@@QAA@XZ
??0_Vector3@@QAA@XZ ENDP
							; _Vector3::_Vector3
; Function compile flags: /Odtu

	.code
tv69 = -16						; size = 4

??8_Vector3@@QAA_NU0@@Z	PROC NEAR			; _Vector3::operator==, COMDAT

; Begin code for function: ??8_Vector3@@QAA_NU0@@Z
; Line 1925
	stw          r3,this$(r1)		; 20 (14h)
	std          r4,Vector$(r1)
	std          r5,Vector$+8(r1)
; Line 1926
	lwz          r11,this$(r1)		; 20 (14h)
	lfs          fr0,0(r11)
	lfs          fr13,Vector$(r1)		; 32 (20h)
	fcmpu        cr6,fr0,fr13
	bne          cr6,$LN3@operator
	lwz          r10,this$(r1)		; 20 (14h)
	lfs          fr12,4(r10)
	lfs          fr11,Vector$+4(r1)		; 36 (24h)
	fcmpu        cr6,fr12,fr11
	bne          cr6,$LN3@operator
	lwz          r9,this$(r1)		; 20 (14h)
	lfs          fr10,8(r9)
	lfs          fr9,Vector$+8(r1)		; 40 (28h)
	fcmpu        cr6,fr10,fr9
	bne          cr6,$LN3@operator
	li           r8,1
	stw          r8,-10h(r1)
	b            $LN4@operator
$LN3@operator:
	li           r7,0
	stw          r7,-10h(r1)
$LN4@operator:
	lwz          r6,-10h(r1)
	clrlwi       r3,r6,24
; Line 1927
	blr
; End code for function: ??8_Vector3@@QAA_NU0@@Z
??8_Vector3@@QAA_NU0@@Z ENDP
							; _Vector3::operator==
PUBLIC	__real@3dcccccd
PUBLIC	__real@3d8f5c29
PUBLIC	__real@3b03126f
PUBLIC	??_C@_0BI@GAGKNDKF@DEFAULT_SCRIPTED_CAMERA?$AA@	; `string'
PUBLIC	??_C@_00CNPNBAHC@?$AA@				; `string'
PUBLIC	??_C@_0BB@NKANCPHB@?$HOr?$HOInvalid?5Model?$AA@	; `string'
PUBLIC	??_C@_0BE@PFGOMKIL@?$HOr?$HOPlease?5try?5again?$AA@ ; `string'
PUBLIC	?ParseScript@@YA_KKKKK_K0@Z			; ParseScript
EXTRN	?SET_CAM_ROT@@YAXKMMMK@Z:PROC			; SET_CAM_ROT
EXTRN	?GET_GAMEPLAY_CAM_ROT@@YA?AU_Vector3@@K@Z:PROC	; GET_GAMEPLAY_CAM_ROT
EXTRN	?FirstPerson_Check@@3_NA:BYTE			; FirstPerson_Check
EXTRN	?RENDER_SCRIPT_CAMS@@YAX_N0K00@Z:PROC		; RENDER_SCRIPT_CAMS
EXTRN	?SET_CAM_ACTIVE@@YAXK_N@Z:PROC			; SET_CAM_ACTIVE
EXTRN	?ATTACH_CAM_TO_PED_BONE@@YAXKKKMMM_N@Z:PROC	; ATTACH_CAM_TO_PED_BONE
EXTRN	?FirstPerson_Camera@@3KA:DWORD			; FirstPerson_Camera
EXTRN	?CREATE_CAM@@YAKPAD_N@Z:PROC			; CREATE_CAM
EXTRN	?FirstPerson_Load@@3_NA:BYTE			; FirstPerson_Load
EXTRN	?GET_VEHICLE_PED_IS_IN@@YAKKK@Z:PROC		; GET_VEHICLE_PED_IS_IN
EXTRN	?IS_PED_IN_ANY_VEHICLE@@YA_NKK@Z:PROC		; IS_PED_IN_ANY_VEHICLE
EXTRN	?_Entity@@3KA:DWORD				; _Entity
EXTRN	?PLAYER_PED_ID@@YAKXZ:PROC			; PLAYER_PED_ID
EXTRN	?Menu_Index@@3KA:DWORD				; Menu_Index
EXTRN	?NativeHitCount@@3KA:DWORD			; NativeHitCount
EXTRN	?_REQUEST_CLIP_SET@@YA_NPAD@Z:PROC		; _REQUEST_CLIP_SET
EXTRN	?Request_ClipSet@@3PADA:DWORD			; Request_ClipSet
EXTRN	memset:PROC
EXTRN	?_REQUEST_ANIM_DICT@@YA_NPAD@Z:PROC		; _REQUEST_ANIM_DICT
EXTRN	strcmp:PROC
EXTRN	?Request_AnimDict@@3PADA:DWORD			; Request_AnimDict
EXTRN	?Request_Hash@@3KA:DWORD			; Request_Hash
EXTRN	?_PRINT_TEXT@@YAXPADZZ:PROC			; _PRINT_TEXT
EXTRN	?SET_PED_RANDOM_COMPONENT_VARIATION@@YAXKK@Z:PROC ; SET_PED_RANDOM_COMPONENT_VARIATION
EXTRN	?SET_PLAYER_MODEL@@YAXKK@Z:PROC			; SET_PLAYER_MODEL
EXTRN	?_Player@@3KA:DWORD				; _Player
EXTRN	?IS_MODEL_IN_CDIMAGE@@YA_NK@Z:PROC		; IS_MODEL_IN_CDIMAGE
EXTRN	?Check_SetModel@@3KA:DWORD			; Check_SetModel
EXTRN	?_CALL_AIRSTRIKE@@YAXMMM@Z:PROC			; _CALL_AIRSTRIKE
EXTRN	?GET_ENTITY_COORDS@@YA?AU_Vector3@@K_N@Z:PROC	; GET_ENTITY_COORDS
EXTRN	?GET_PLAYER_PED@@YAKK@Z:PROC			; GET_PLAYER_PED
EXTRN	?Check_Airstrike@@3KA:DWORD			; Check_Airstrike
;	COMDAT .pdata
; File c:\users\s7clutch\documents\visual studio 2010\projects\the saiyan project\src\hooks.cpp
.pdata	SEGMENT
$T90009	DD	?ParseScript@@YA_KKKKK_K0@Z
	DD	040010203H
;	COMDAT __real@3dcccccd
.rdata	SEGMENT
__real@3dcccccd DD 03dcccccdr			; 0.1
;	COMDAT __real@3d8f5c29
.rdata	SEGMENT
__real@3d8f5c29 DD 03d8f5c29r			; 0.07
;	COMDAT __real@3b03126f
.rdata	SEGMENT
__real@3b03126f DD 03b03126fr			; 0.002
;	COMDAT ??_C@_0BI@GAGKNDKF@DEFAULT_SCRIPTED_CAMERA?$AA@
.rdata	SEGMENT
??_C@_0BI@GAGKNDKF@DEFAULT_SCRIPTED_CAMERA?$AA@ DB 'DEFAULT_SCRIPTED_CAME'
	DB	'RA', 00H					; `string'
;	COMDAT ??_C@_00CNPNBAHC@?$AA@
.rdata	SEGMENT
??_C@_00CNPNBAHC@?$AA@ DB 00H				; `string'
;	COMDAT ??_C@_0BB@NKANCPHB@?$HOr?$HOInvalid?5Model?$AA@
.rdata	SEGMENT
??_C@_0BB@NKANCPHB@?$HOr?$HOInvalid?5Model?$AA@ DB '~r~Invalid Model', 00H ; `string'
;	COMDAT ??_C@_0BE@PFGOMKIL@?$HOr?$HOPlease?5try?5again?$AA@
.rdata	SEGMENT
??_C@_0BE@PFGOMKIL@?$HOr?$HOPlease?5try?5again?$AA@ DB '~r~Please try aga'
	DB	'in', 00H					; `string'
; Function compile flags: /Odtu

	.code
Result$ = 80						; size = 8
pos$86452 = 88						; size = 12
rot$86472 = 104						; size = 12
$T90000 = 120						; size = 12
tv162 = 132						; size = 4
tv166 = 136						; size = 4

?ParseScript@@YA_KKKKK_K0@Z PROC NEAR			; ParseScript, COMDAT

; Begin code for function: ?ParseScript@@YA_KKKKK_K0@Z
; Line 169
	mflr         r12
	stw          r12,-8(r1)
	stwu         r1,-0A0h(r1)
.endprolog
$M90007:
	stw          r3,dwStatics$(r1)		; 180 (0B4h)
	stw          r4,dwGlobalVars$(r1)		; 188 (0BCh)
	stw          r5,dwHeader$(r1)		; 196 (0C4h)
	stw          r6,unk2$(r1)		; 204 (0CCh)
	std          r7,unk3$(r1)
	std          r8,unk4$(r1)
; Line 170
	ld           r8,unk4$(r1)
	ld           r7,unk3$(r1)
	lwz          r6,unk2$(r1)		; 204 (0CCh)
	lwz          r5,dwHeader$(r1)		; 196 (0C4h)
	lwz          r4,dwGlobalVars$(r1)		; 188 (0BCh)
	lwz          r3,dwStatics$(r1)		; 180 (0B4h)
	bl           ?ParseScript_Stub@@YA_KKKKK_K0@Z
	std          r3,Result$(r1)
; Line 173
	lis          r11,?Check_Airstrike@@3KA
	lwz          r10,?Check_Airstrike@@3KA(r11)
	cmpwi        cr6,r10,65535		; 0FFFFh
	beq          cr6,$LN14@ParseScrip
; Line 175
	lis          r9,?Check_Airstrike@@3KA
	lwz          r3,?Check_Airstrike@@3KA(r9)
	bl           ?GET_PLAYER_PED@@YAKK@Z
	mr           r4,r3
	addi         r3,r1,pos$86452
	li           r5,1
	bl           ?GET_ENTITY_COORDS@@YA?AU_Vector3@@K_N@Z
; Line 176
	lfs          fr3,pos$86452+8(r1)		; 96 (60h)
	lfs          fr2,pos$86452+4(r1)		; 92 (5Ch)
	lfs          fr1,pos$86452(r1)		; 88 (58h)
	bl           ?_CALL_AIRSTRIKE@@YAXMMM@Z
; Line 177
	lis          r8,?Check_Airstrike@@3KA
	li           r7,-1		; 0FFFFh
	stw          r7,?Check_Airstrike@@3KA(r8)
$LN14@ParseScrip:
; Line 179
	lis          r6,?Check_SetModel@@3KA
	lwz          r5,?Check_SetModel@@3KA(r6)
	cmplwi       cr6,r5,0
	beq          cr6,$LN13@ParseScrip
; Line 181
	lis          r4,?Check_SetModel@@3KA
	lwz          r3,?Check_SetModel@@3KA(r4)
	bl           ?IS_MODEL_IN_CDIMAGE@@YA_NK@Z
	clrlwi       r3,r3,24
	cmpwi        cr6,r3,0
	beq          cr6,$LN12@ParseScrip
; Line 183
	lis          r11,?Check_SetModel@@3KA
	lwz          r3,?Check_SetModel@@3KA(r11)
	bl           ?REQUEST_MODEL@@YAXK@Z
; Line 184
	lis          r10,?Check_SetModel@@3KA
	lwz          r3,?Check_SetModel@@3KA(r10)
	bl           ?HAS_MODEL_LOADED@@YA_NK@Z
	clrlwi       r9,r3,24
	cmpwi        cr6,r9,0
	beq          cr6,$LN11@ParseScrip
; Line 186
	lis          r8,?Check_SetModel@@3KA
	lwz          r4,?Check_SetModel@@3KA(r8)
	lis          r7,?_Player@@3KA
	lwz          r3,?_Player@@3KA(r7)
	bl           ?SET_PLAYER_MODEL@@YAXKK@Z
; Line 187
	lis          r6,?Check_SetModel@@3KA
	lwz          r3,?Check_SetModel@@3KA(r6)
	bl           ?SET_MODEL_AS_NO_LONGER_NEEDED@@YAXK@Z
; Line 188
	li           r4,0
	lis          r5,?_Ped@@3KA
	lwz          r3,?_Ped@@3KA(r5)
	bl           ?SET_PED_RANDOM_COMPONENT_VARIATION@@YAXKK@Z
; Line 189
	lis          r4,?Check_SetModel@@3KA
	li           r3,0
	stw          r3,?Check_SetModel@@3KA(r4)
; Line 191
	b            $LN10@ParseScrip
$LN11@ParseScrip:
; Line 192
	lis          r11,??_C@_0BE@PFGOMKIL@?$HOr?$HOPlease?5try?5again?$AA@
	addi         r3,r11,??_C@_0BE@PFGOMKIL@?$HOr?$HOPlease?5try?5again?$AA@
	bl           ?_PRINT_TEXT@@YAXPADZZ
$LN10@ParseScrip:
; Line 194
	b            $LN13@ParseScrip
$LN12@ParseScrip:
; Line 196
	lis          r10,??_C@_0BB@NKANCPHB@?$HOr?$HOInvalid?5Model?$AA@
	addi         r3,r10,??_C@_0BB@NKANCPHB@?$HOr?$HOInvalid?5Model?$AA@
	bl           ?_PRINT_TEXT@@YAXPADZZ
; Line 197
	lis          r9,?Check_SetModel@@3KA
	li           r8,0
	stw          r8,?Check_SetModel@@3KA(r9)
$LN13@ParseScrip:
; Line 213
	lis          r7,?Request_Hash@@3KA
	lwz          r6,?Request_Hash@@3KA(r7)
	cmplwi       cr6,r6,0
	beq          cr6,$LN8@ParseScrip
; Line 215
	lis          r5,?Request_Hash@@3KA
	lwz          r3,?Request_Hash@@3KA(r5)
	bl           ?REQUEST_MODEL@@YAXK@Z
; Line 216
	lis          r4,?Request_Hash@@3KA
	li           r3,0
	stw          r3,?Request_Hash@@3KA(r4)
$LN8@ParseScrip:
; Line 218
	lis          r11,??_C@_00CNPNBAHC@?$AA@
	addi         r4,r11,??_C@_00CNPNBAHC@?$AA@
	lis          r10,?Request_AnimDict@@3PADA
	lwz          r3,?Request_AnimDict@@3PADA(r10)
	bl           strcmp
	cmpwi        cr6,r3,0
	beq          cr6,$LN7@ParseScrip
; Line 220
	lis          r9,?Request_AnimDict@@3PADA
	lwz          r3,?Request_AnimDict@@3PADA(r9)
	bl           ?_REQUEST_ANIM_DICT@@YA_NPAD@Z
; Line 221
	li           r5,4
	li           r4,0
	lis          r8,?Request_AnimDict@@3PADA
	lwz          r3,?Request_AnimDict@@3PADA(r8)
	bl           memset
$LN7@ParseScrip:
; Line 223
	lis          r7,??_C@_00CNPNBAHC@?$AA@
	addi         r4,r7,??_C@_00CNPNBAHC@?$AA@
	lis          r6,?Request_ClipSet@@3PADA
	lwz          r3,?Request_ClipSet@@3PADA(r6)
	bl           strcmp
	cmpwi        cr6,r3,0
	beq          cr6,$LN6@ParseScrip
; Line 225
	lis          r5,?Request_ClipSet@@3PADA
	lwz          r3,?Request_ClipSet@@3PADA(r5)
	bl           ?_REQUEST_CLIP_SET@@YA_NPAD@Z
; Line 226
	li           r5,4
	li           r4,0
	lis          r3,?Request_ClipSet@@3PADA
	lwz          r3,?Request_ClipSet@@3PADA(r3)
	bl           memset
$LN6@ParseScrip:
; Line 231
	lis          r11,?NativeHitCount@@3KA
	lwz          r10,?NativeHitCount@@3KA(r11)
	addi         r9,r10,1
	lis          r8,?NativeHitCount@@3KA
	stw          r9,?NativeHitCount@@3KA(r8)
; Line 232
	lis          r7,?NativeHitCount@@3KA
	lwz          r6,?NativeHitCount@@3KA(r7)
	cmplwi       cr6,r6,1
	beq          cr6,$LN5@ParseScrip
; Line 234
	lis          r5,?NativeHitCount@@3KA
	lwz          r4,?NativeHitCount@@3KA(r5)
	cmplwi       cr6,r4,40		; 28h
	ble          cr6,$LN4@ParseScrip
; Line 235
	lis          r3,?NativeHitCount@@3KA
	li           r11,0
	stw          r11,?NativeHitCount@@3KA(r3)
$LN4@ParseScrip:
; Line 236
	ld           r3,Result$(r1)
	b            $LN15@ParseScrip
$LN5@ParseScrip:
; Line 241
	lis          r10,?Menu_Index@@3KA
	lwz          r9,?Menu_Index@@3KA(r10)
	cmpwi        cr6,r9,65535		; 0FFFFh
	beq          cr6,$LN3@ParseScrip
; Line 243
	bl           ?PLAYER_PED_ID@@YAKXZ
	lis          r8,?_Ped@@3KA
	stw          r3,?_Ped@@3KA(r8)
	lis          r7,?_Ped@@3KA
	lwz          r6,?_Ped@@3KA(r7)
	lis          r5,?_Entity@@3KA
	stw          r6,?_Entity@@3KA(r5)
; Line 244
	bl           ?PLAYER_ID@@YAKXZ
	lis          r4,?_Player@@3KA
	stw          r3,?_Player@@3KA(r4)
; Line 245
	li           r4,0
	lis          r3,?_Ped@@3KA
	lwz          r3,?_Ped@@3KA(r3)
	bl           ?IS_PED_IN_ANY_VEHICLE@@YA_NKK@Z
	clrlwi       r11,r3,24
	cmpwi        cr6,r11,0
	beq          cr6,$LN17@ParseScrip
	li           r4,0
	lis          r10,?_Ped@@3KA
	lwz          r3,?_Ped@@3KA(r10)
	bl           ?GET_VEHICLE_PED_IS_IN@@YAKKK@Z
	stw          r3,84h(r1)
	b            $LN18@ParseScrip
$LN17@ParseScrip:
	li           r9,0
	stw          r9,84h(r1)
$LN18@ParseScrip:
	lwz          r8,84h(r1)
	lis          r7,?_Vehicle@@3KA
	stw          r8,?_Vehicle@@3KA(r7)
; Line 246
	lis          r6,?_Vehicle@@3KA
	lwz          r5,?_Vehicle@@3KA(r6)
	cmplwi       cr6,r5,0
	bne          cr6,$LN19@ParseScrip
	lis          r4,?_Ped@@3KA
	lwz          r3,?_Ped@@3KA(r4)
	stw          r3,88h(r1)
	b            $LN20@ParseScrip
$LN19@ParseScrip:
	lis          r11,?_Vehicle@@3KA
	lwz          r10,?_Vehicle@@3KA(r11)
	stw          r10,88h(r1)
$LN20@ParseScrip:
	li           r5,1
	lwz          r4,88h(r1)
	addi         r3,r1,$T90000
	bl           ?GET_ENTITY_COORDS@@YA?AU_Vector3@@K_N@Z
	lis          r9,?_Position@@3U_Vector3@@A
	addi         r8,r9,?_Position@@3U_Vector3@@A
	lwz          r7,0(r3)
	stw          r7,0(r8)
	lwz          r6,4(r3)
	stw          r6,4(r8)
	lwz          r5,8(r3)
	stw          r5,8(r8)
$LN3@ParseScrip:
; Line 251
	lis          r4,?FirstPerson_Load@@3_NA
	lbz          r3,?FirstPerson_Load@@3_NA(r4)
	cmpwi        cr6,r3,0
	beq          cr6,$LN2@ParseScrip
; Line 253
	li           r4,1
	lis          r11,??_C@_0BI@GAGKNDKF@DEFAULT_SCRIPTED_CAMERA?$AA@
	addi         r3,r11,??_C@_0BI@GAGKNDKF@DEFAULT_SCRIPTED_CAMERA?$AA@
	bl           ?CREATE_CAM@@YAKPAD_N@Z
	lis          r10,?FirstPerson_Camera@@3KA
	stw          r3,?FirstPerson_Camera@@3KA(r10)
; Line 254
	li           r9,1
	lis          r8,__real@3b03126f
	lfs          fr3,__real@3b03126f(r8)
	lis          r7,__real@3d8f5c29
	lfs          fr2,__real@3d8f5c29(r7)
	lis          r6,__real@3dcccccd
	lfs          fr1,__real@3dcccccd(r6)
	li           r5,31086		; 796Eh
	lis          r4,?_Ped@@3KA
	lwz          r4,?_Ped@@3KA(r4)
	lis          r3,?FirstPerson_Camera@@3KA
	lwz          r3,?FirstPerson_Camera@@3KA(r3)
	bl           ?ATTACH_CAM_TO_PED_BONE@@YAXKKKMMM_N@Z
; Line 255
	li           r4,1
	lis          r11,?FirstPerson_Camera@@3KA
	lwz          r3,?FirstPerson_Camera@@3KA(r11)
	bl           ?SET_CAM_ACTIVE@@YAXK_N@Z
; Line 256
	li           r7,0
	li           r6,1
	li           r5,3000		; 0BB8h
	li           r4,0
	li           r3,1
	bl           ?RENDER_SCRIPT_CAMS@@YAX_N0K00@Z
; Line 257
	lis          r10,?FirstPerson_Check@@3_NA
	li           r9,1
	stb          r9,?FirstPerson_Check@@3_NA(r10)
; Line 258
	lis          r8,?FirstPerson_Load@@3_NA
	li           r7,0
	stb          r7,?FirstPerson_Load@@3_NA(r8)
$LN2@ParseScrip:
; Line 260
	lis          r6,?FirstPerson_Check@@3_NA
	lbz          r5,?FirstPerson_Check@@3_NA(r6)
	cmpwi        cr6,r5,0
	beq          cr6,$LN1@ParseScrip
; Line 262
	li           r4,1
	lis          r3,?FirstPerson_Camera@@3KA
	lwz          r3,?FirstPerson_Camera@@3KA(r3)
	bl           ?SET_CAM_ACTIVE@@YAXK_N@Z
; Line 263
	li           r4,2
	addi         r3,r1,rot$86472
	bl           ?GET_GAMEPLAY_CAM_ROT@@YA?AU_Vector3@@K@Z
; Line 264
	li           r7,2
	lfs          fr3,rot$86472+8(r1)		; 112 (70h)
	lfs          fr2,rot$86472+4(r1)		; 108 (6Ch)
	lfs          fr1,rot$86472(r1)		; 104 (68h)
	lis          r11,?FirstPerson_Camera@@3KA
	lwz          r3,?FirstPerson_Camera@@3KA(r11)
	bl           ?SET_CAM_ROT@@YAXKMMMK@Z
$LN1@ParseScrip:
; Line 268
	lis          r10,?NativeHitCount@@3KA
	li           r9,0
	stw          r9,?NativeHitCount@@3KA(r10)
; Line 269
	ld           r3,Result$(r1)
$LN15@ParseScrip:
; Line 270
	addi         r1,r1,160		; 0A0h
	lwz          r12,-8(r1)
	mtlr         r12
	blr
$M90008:
; End code for function: ?ParseScript@@YA_KKKKK_K0@Z
?ParseScript@@YA_KKKKK_K0@Z ENDP
							; ParseScript
; Function compile flags: /Odtu

	.code

?ParseScript_Stub@@YA_KKKKK_K0@Z PROC NEAR		; ParseScript_Stub, COMDAT

; Begin code for function: ?ParseScript_Stub@@YA_KKKKK_K0@Z
; File c:\users\s7clutch\documents\visual studio 2010\projects\the saiyan project\src\hooks.h
; Line 25
	li           r3,1
; Line 26
	nop
; Line 27
	nop
; Line 28
	nop
; Line 29
	nop
; Line 30
	nop
; Line 31
	nop
; Line 32
	blr
; End code for function: ?ParseScript_Stub@@YA_KKKKK_K0@Z
?ParseScript_Stub@@YA_KKKKK_K0@Z ENDP
							; ParseScript_Stub
PUBLIC	??0_Node@@QAA@KK@Z				; _Node::_Node
PUBLIC	?PushNative@@YAXKKK@Z				; PushNative
EXTRN	?NativePool@@3PAU_Node@@A:DWORD			; NativePool
EXTRN	?NativePoolHead@@3PAU_Node@@A:DWORD		; NativePoolHead
EXTRN	??2@YAPAXI@Z:PROC				; operator new
EXTRN	?bListInitialized@@3_NA:BYTE			; bListInitialized
;	COMDAT .pdata
; File c:\users\s7clutch\documents\visual studio 2010\projects\the saiyan project\src\hooks.cpp
.pdata	SEGMENT
$T90025	DD	?PushNative@@YAXKKK@Z
	DD	040004d03H
; Function compile flags: /Odtu

	.code
newNode$86484 = 80					; size = 4
$T90015 = 84						; size = 4
$T90018 = 88						; size = 4
tv73 = 92						; size = 4
tv80 = 96						; size = 4
tv83 = 100						; size = 4

?PushNative@@YAXKKK@Z PROC NEAR				; PushNative, COMDAT

; Begin code for function: ?PushNative@@YAXKKK@Z
; Line 272
	mflr         r12
	stw          r12,-8(r1)
	stwu         r1,-70h(r1)
.endprolog
$M90023:
	stw          r3,dwNativePoolPointer$(r1)		; 132 (84h)
	stw          r4,dwNativeHash$(r1)		; 140 (8Ch)
	stw          r5,dwNativeAddress$(r1)		; 148 (94h)
; Line 273
	lis          r11,?bListInitialized@@3_NA
	lbz          r10,?bListInitialized@@3_NA(r11)
	cmpwi        cr6,r10,0
	bne          cr6,$LN2@PushNative
; Line 275
	li           r3,12		; 0Ch
	bl           ??2@YAPAXI@Z
	stw          r3,$T90015(r1)		; 84 (54h)
	lwz          r9,$T90015(r1)		; 84 (54h)
	cmplwi       cr6,r9,0
	beq          cr6,$LN5@PushNative
	lwz          r5,dwNativeAddress$(r1)		; 148 (94h)
	lwz          r4,dwNativeHash$(r1)		; 140 (8Ch)
	lwz          r3,$T90015(r1)		; 84 (54h)
	bl           ??0_Node@@QAA@KK@Z
	stw          r3,5Ch(r1)
	b            $LN6@PushNative
$LN5@PushNative:
	li           r8,0
	stw          r8,5Ch(r1)
$LN6@PushNative:
	lwz          r7,5Ch(r1)
	lis          r6,?NativePoolHead@@3PAU_Node@@A
	stw          r7,?NativePoolHead@@3PAU_Node@@A(r6)
; Line 276
	lis          r5,?NativePoolHead@@3PAU_Node@@A
	lwz          r4,?NativePoolHead@@3PAU_Node@@A(r5)
	lis          r3,?NativePool@@3PAU_Node@@A
	stw          r4,?NativePool@@3PAU_Node@@A(r3)
; Line 277
	lis          r11,?bListInitialized@@3_NA
	li           r10,1
	stb          r10,?bListInitialized@@3_NA(r11)
; Line 279
	b            $LN1@PushNative
$LN2@PushNative:
; Line 281
	li           r3,12		; 0Ch
	bl           ??2@YAPAXI@Z
	stw          r3,$T90018(r1)		; 88 (58h)
	lwz          r9,$T90018(r1)		; 88 (58h)
	cmplwi       cr6,r9,0
	beq          cr6,$LN9@PushNative
	lwz          r8,dwNativeHash$(r1)		; 140 (8Ch)
	lis          r7,-29227		; 8DD5h
	ori          r6,r7,47160		; 0B838h
	cmplw        cr6,r8,r6
	bne          cr6,$LN7@PushNative
	lis          r5,?NetworkPlayerIdToInt@@YAKXZ
	addi         r4,r5,?NetworkPlayerIdToInt@@YAKXZ
	stw          r4,60h(r1)
	b            $LN8@PushNative
$LN7@PushNative:
	lwz          r3,dwNativeAddress$(r1)		; 148 (94h)
	stw          r3,60h(r1)
$LN8@PushNative:
	lwz          r5,60h(r1)
	lwz          r4,dwNativeHash$(r1)		; 140 (8Ch)
	lwz          r3,$T90018(r1)		; 88 (58h)
	bl           ??0_Node@@QAA@KK@Z
	stw          r3,64h(r1)
	b            $LN10@PushNative
$LN9@PushNative:
	li           r11,0
	stw          r11,64h(r1)
$LN10@PushNative:
	lwz          r10,64h(r1)
	stw          r10,newNode$86484(r1)		; 80 (50h)
; Line 282
	lis          r9,?NativePool@@3PAU_Node@@A
	lwz          r8,?NativePool@@3PAU_Node@@A(r9)
	lwz          r7,newNode$86484(r1)		; 80 (50h)
	stw          r7,8(r8)
; Line 283
	lwz          r6,newNode$86484(r1)		; 80 (50h)
	lis          r5,?NativePool@@3PAU_Node@@A
	stw          r6,?NativePool@@3PAU_Node@@A(r5)
$LN1@PushNative:
; Line 285
	lwz          r5,dwNativeAddress$(r1)		; 148 (94h)
	lwz          r4,dwNativeHash$(r1)		; 140 (8Ch)
	lwz          r3,dwNativePoolPointer$(r1)		; 132 (84h)
	bl           ?PushNative_Stub@@YAXKKK@Z
; Line 286
	addi         r1,r1,112		; 70h
	lwz          r12,-8(r1)
	mtlr         r12
	blr
$M90024:
; End code for function: ?PushNative@@YAXKKK@Z
?PushNative@@YAXKKK@Z ENDP
							; PushNative
; Function compile flags: /Odtu

	.code

??0_Node@@QAA@KK@Z PROC NEAR				; _Node::_Node, COMDAT

; Begin code for function: ??0_Node@@QAA@KK@Z
; File c:\users\s7clutch\documents\visual studio 2010\projects\the saiyan project\src\globals.h
; Line 1902
	stw          r3,this$(r1)		; 20 (14h)
	stw          r4,hashIn$(r1)		; 28 (1Ch)
	stw          r5,address$(r1)		; 36 (24h)
; Line 1904
	lwz          r11,hashIn$(r1)		; 28 (1Ch)
	lwz          r10,this$(r1)		; 20 (14h)
	stw          r11,0(r10)
; Line 1905
	lwz          r9,this$(r1)		; 20 (14h)
	lwz          r8,address$(r1)		; 36 (24h)
	stw          r8,4(r9)
; Line 1906
	lwz          r7,this$(r1)		; 20 (14h)
	li           r6,0
	stw          r6,8(r7)
; Line 1907
	lwz          r3,this$(r1)		; 20 (14h)
	blr
; End code for function: ??0_Node@@QAA@KK@Z
??0_Node@@QAA@KK@Z ENDP
							; _Node::_Node
; Function compile flags: /Odtu

	.code

?PushNative_Stub@@YAXKKK@Z PROC NEAR			; PushNative_Stub, COMDAT

; Begin code for function: ?PushNative_Stub@@YAXKKK@Z
; File c:\users\s7clutch\documents\visual studio 2010\projects\the saiyan project\src\hooks.h
; Line 39
	nop
; Line 40
	nop
; Line 41
	nop
; Line 42
	nop
; Line 43
	nop
; Line 44
	nop
; Line 45
	nop
; Line 46
	blr
; End code for function: ?PushNative_Stub@@YAXKKK@Z
?PushNative_Stub@@YAXKKK@Z ENDP
							; PushNative_Stub
PUBLIC	??_C@_0BI@OMEGJCHD@The?5Saiyan?5Project?5v0?48?$AA@ ; `string'
PUBLIC	??A?$vector@PADV?$allocator@PAD@std@@@std@@QAAAAPADI@Z ; std::vector<char *,std::allocator<char *> >::operator[]
PUBLIC	__real@3ecccccd
PUBLIC	__real@3eb851ec
PUBLIC	__real@3e19999a
PUBLIC	??_C@_01PPODPGHN@?$DO?$AA@			; `string'
PUBLIC	__real@3ec28f5c
PUBLIC	__real@3fc999999999999a
PUBLIC	__real@3f9eb851eb851eb8
PUBLIC	??_C@_0BD@JJMGBALB@The?5Saiyan?5Project?$AA@	; `string'
PUBLIC	__real@3eae147b
PUBLIC	__real@3f266666
PUBLIC	?SetTitle@MenuDisplay@@QAAXPAD@Z		; MenuDisplay::SetTitle
PUBLIC	??_C@_0O@EGHBNPME@?$HOr?$HOSCTV?$HOw?$HO?5?$CFs?$AA@ ; `string'
PUBLIC	?AddOption@MenuDisplay@@QAAXPAD@Z		; MenuDisplay::AddOption
PUBLIC	?Copy@MenuDisplay@@QAAXV1@@Z			; MenuDisplay::Copy
PUBLIC	??0MenuDisplay@@QAA@ABV0@@Z			; MenuDisplay::MenuDisplay
PUBLIC	?Clear@MenuDisplay@@QAAXXZ			; MenuDisplay::Clear
PUBLIC	__real@41200000
PUBLIC	__real@3e99999a
PUBLIC	__real@3d4ccccd
PUBLIC	__real@3eb33333
PUBLIC	??_C@_0BA@KHKAIFAB@MPH?3?5?$CFf?6KMH?3?5?$CFf?$AA@ ; `string'
PUBLIC	__real@3ff9bfdf7e8038a0
PUBLIC	__real@400f2a06
PUBLIC	__real@41a00000
PUBLIC	__real@428c0000
PUBLIC	__real@c28c0000
PUBLIC	__real@3ff0cccccccccccd
PUBLIC	__real@3fd999999999999a
PUBLIC	__real@3f7fffef
PUBLIC	__real@40000000
PUBLIC	__real@40400000
PUBLIC	__real@40800000
PUBLIC	__real@40a00000
PUBLIC	__real@ff7fffff
PUBLIC	__real@3cfdf3b6
PUBLIC	__real@3cf5c28f
PUBLIC	__real@3f4ccccd
PUBLIC	??_C@_07JKGCDPCB@FPS?3?5?$CFf?$AA@		; `string'
PUBLIC	__real@3f000000
PUBLIC	__real@bf800000
PUBLIC	??H_Vector3@@QAA?AU0@U0@@Z			; _Vector3::operator+
PUBLIC	??0_Vector3@@QAA@MMM@Z				; _Vector3::_Vector3
PUBLIC	__real@bf000000
PUBLIC	__real@3f800000
PUBLIC	?Timer@@YAXXZ					; Timer
EXTRN	?_PRINT_HELP_TEXT@@YAXPADZZ:PROC		; _PRINT_HELP_TEXT
EXTRN	?Menu_Scroll@@3KA:DWORD				; Menu_Scroll
EXTRN	?_DISABLE_CONTROLS@@YAXXZ:PROC			; _DISABLE_CONTROLS
EXTRN	?mdTeleportMenu@@3VMenuDisplay@@A:BYTE		; mdTeleportMenu
EXTRN	?mdWorldEditor_Weather@@3VMenuDisplay@@A:BYTE	; mdWorldEditor_Weather
EXTRN	?mdWorldEditor_Forge_ObjectEditor@@3VMenuDisplay@@A:BYTE ; mdWorldEditor_Forge_ObjectEditor
EXTRN	?mdWorldEditor_Forge@@3VMenuDisplay@@A:BYTE	; mdWorldEditor_Forge
EXTRN	?mdWorldEditor@@3VMenuDisplay@@A:BYTE		; mdWorldEditor
EXTRN	?mdVehicleMods_VehicleSpawner@@3VMenuDisplay@@A:BYTE ; mdVehicleMods_VehicleSpawner
EXTRN	?mdVehicleMods_VehicleEditor@@3VMenuDisplay@@A:BYTE ; mdVehicleMods_VehicleEditor
EXTRN	?mdVehicleMods@@3VMenuDisplay@@A:BYTE		; mdVehicleMods
EXTRN	?mdWeaponMods_CannonOptions@@3VMenuDisplay@@A:BYTE ; mdWeaponMods_CannonOptions
EXTRN	?mdWeaponMods@@3VMenuDisplay@@A:BYTE		; mdWeaponMods
EXTRN	?mdPlayerMods_OnlinePlayers_SelectedPlayer_TeleportOptions@@3VMenuDisplay@@A:BYTE ; mdPlayerMods_OnlinePlayers_SelectedPlayer_TeleportOptions
EXTRN	?mdPlayerMods_OnlinePlayers_SelectedPlayer_VehicleOptions@@3VMenuDisplay@@A:BYTE ; mdPlayerMods_OnlinePlayers_SelectedPlayer_VehicleOptions
EXTRN	?mdPlayerMods_OnlinePlayers_SelectedPlayer_WeaponOptions@@3VMenuDisplay@@A:BYTE ; mdPlayerMods_OnlinePlayers_SelectedPlayer_WeaponOptions
EXTRN	?mdPlayerMods_OnlinePlayers_SelectedPlayer_ExplosionOptions@@3VMenuDisplay@@A:BYTE ; mdPlayerMods_OnlinePlayers_SelectedPlayer_ExplosionOptions
EXTRN	?mdPlayerMods_OnlinePlayers_SelectedPlayer_CashDropOptions@@3VMenuDisplay@@A:BYTE ; mdPlayerMods_OnlinePlayers_SelectedPlayer_CashDropOptions
EXTRN	?mdPlayerMods_OnlinePlayers_SelectedPlayer@@3VMenuDisplay@@A:BYTE ; mdPlayerMods_OnlinePlayers_SelectedPlayer
EXTRN	?Menu_SelectedPlayer@@3KA:DWORD			; Menu_SelectedPlayer
EXTRN	?va@@YAPADPAD0ZZ:PROC				; va
EXTRN	?GET_PLAYER_NAME@@YAPADK@Z:PROC			; GET_PLAYER_NAME
EXTRN	?mdPlayerMods_OnlinePlayers@@3VMenuDisplay@@A:BYTE ; mdPlayerMods_OnlinePlayers
EXTRN	?mdPlayerMods@@3VMenuDisplay@@A:BYTE		; mdPlayerMods
EXTRN	?mdMainMods@@3VMenuDisplay@@A:BYTE		; mdMainMods
EXTRN	?mdMainMenu@@3VMenuDisplay@@A:BYTE		; mdMainMenu
EXTRN	?mdCurrentMenu@@3VMenuDisplay@@A:BYTE		; mdCurrentMenu
EXTRN	?Menu_Open@@3_NA:BYTE				; Menu_Open
EXTRN	?SET_RANDOM_VEHICLE_DENSITY_MULTIPLIER_THIS_FRAME@@YAXM@Z:PROC ; SET_RANDOM_VEHICLE_DENSITY_MULTIPLIER_THIS_FRAME
EXTRN	?SET_VEHICLE_DENSITY_MULTIPLIER_THIS_FRAME@@YAXM@Z:PROC ; SET_VEHICLE_DENSITY_MULTIPLIER_THIS_FRAME
EXTRN	?Zombies_Toggle@@3_NA:BYTE			; Zombies_Toggle
EXTRN	?_APPLY_RELATIVE_FORCE@@YAXKU_Vector3@@@Z:PROC	; _APPLY_RELATIVE_FORCE
EXTRN	?Toggle_Whiplash@@3_NA:BYTE			; Toggle_Whiplash
EXTRN	?SET_EXPLOSIVE_MELEE_THIS_FRAME@@YAXK@Z:PROC	; SET_EXPLOSIVE_MELEE_THIS_FRAME
EXTRN	?Toggle_SupermanPunch@@3_NA:BYTE		; Toggle_SupermanPunch
EXTRN	?SET_SUPER_JUMP_THIS_FRAME@@YAXK@Z:PROC		; SET_SUPER_JUMP_THIS_FRAME
EXTRN	?Toggle_SuperJump@@3_NA:BYTE			; Toggle_SuperJump
EXTRN	?_TELEPORT@@YAXU_Vector3@@@Z:PROC		; _TELEPORT
EXTRN	?GET_PED_LAST_WEAPON_IMPACT_COORD@@YA?AU_Vector3@@K@Z:PROC ; GET_PED_LAST_WEAPON_IMPACT_COORD
EXTRN	?IS_PED_SHOOTING@@YA_NK@Z:PROC			; IS_PED_SHOOTING
EXTRN	?Toggle_TeleportGun@@3_NA:BYTE			; Toggle_TeleportGun
EXTRN	?SET_FIRE_AMMO_THIS_FRAME@@YAXK@Z:PROC		; SET_FIRE_AMMO_THIS_FRAME
EXTRN	?Toggle_FireAmmo@@3_NA:BYTE			; Toggle_FireAmmo
EXTRN	?SET_EXPLOSIVE_AMMO_THIS_FRAME@@YAXK@Z:PROC	; SET_EXPLOSIVE_AMMO_THIS_FRAME
EXTRN	?Toggle_ExplosiveAmmo@@3_NA:BYTE		; Toggle_ExplosiveAmmo
EXTRN	?Toggle_Speedometer@@3_NA:BYTE			; Toggle_Speedometer
EXTRN	?SET_VEHICLE_TYRE_SMOKE_COLOR@@YAXKEEE@Z:PROC	; SET_VEHICLE_TYRE_SMOKE_COLOR
EXTRN	?Toggle_RainbowSmoke@@3_NA:BYTE			; Toggle_RainbowSmoke
EXTRN	?SET_VEHICLE_CUSTOM_SECONDARY_COLOUR@@YAXKEEE@Z:PROC ; SET_VEHICLE_CUSTOM_SECONDARY_COLOUR
EXTRN	?SET_VEHICLE_CUSTOM_PRIMARY_COLOUR@@YAXKEEE@Z:PROC ; SET_VEHICLE_CUSTOM_PRIMARY_COLOUR
EXTRN	?Toggle_RainbowPaint@@3_NA:BYTE			; Toggle_RainbowPaint
EXTRN	?SET_VEHICLE_BOOST_ACTIVE@@YAXK_N@Z:PROC	; SET_VEHICLE_BOOST_ACTIVE
EXTRN	?IS_PLAYER_PRESSING_HORN@@YA_NK@Z:PROC		; IS_PLAYER_PRESSING_HORN
EXTRN	?Toggle_NOS@@3_NA:BYTE				; Toggle_NOS
EXTRN	?APPLY_FORCE_TO_ENTITY@@YAXKKMMMMMM_N00000@Z:PROC ; APPLY_FORCE_TO_ENTITY
EXTRN	?Toggle_Hydraulics@@3_NA:BYTE			; Toggle_Hydraulics
EXTRN	?SET_VEHICLE_REDUCE_GRIP@@YAXK_N@Z:PROC		; SET_VEHICLE_REDUCE_GRIP
EXTRN	?Toggle_HandbrakeDrift@@3_NA:BYTE		; Toggle_HandbrakeDrift
EXTRN	?IS_VEHICLE_ON_ALL_WHEELS@@YA_NK@Z:PROC		; IS_VEHICLE_ON_ALL_WHEELS
EXTRN	?Controller@@3PAVButtonMonitor@@A:DWORD		; Controller
EXTRN	?IS_PED_ON_ANY_BIKE@@YA_NK@Z:PROC		; IS_PED_ON_ANY_BIKE
EXTRN	?Toggle_FlyingBikes@@3_NA:BYTE			; Toggle_FlyingBikes
EXTRN	?LOAD_ALL_OBJECTS_NOW@@YAXXZ:PROC		; LOAD_ALL_OBJECTS_NOW
EXTRN	?SET_ENTITY_COORDS@@YAXKMMMKKKK@Z:PROC		; SET_ENTITY_COORDS
EXTRN	?SET_ENTITY_ROTATION@@YAXKMMMK_N@Z:PROC		; SET_ENTITY_ROTATION
EXTRN	?SET_ENTITY_COLLISION@@YAXK_N@Z:PROC		; SET_ENTITY_COLLISION
EXTRN	?IS_CONTROL_PRESSED@@YA_NKK@Z:PROC		; IS_CONTROL_PRESSED
EXTRN	?_GET_CAMERA_DIRECTION@@YA?AU_Vector3@@XZ:PROC	; _GET_CAMERA_DIRECTION
EXTRN	?Toggle_Noclip@@3_NA:BYTE			; Toggle_Noclip
EXTRN	?MODIFY_WATER@@YAXMMMM@Z:PROC			; MODIFY_WATER
EXTRN	?Toggle_Moses@@3_NA:BYTE			; Toggle_Moses
EXTRN	?_DISPLAY_TEXT@@YAXPADKMMMMEEEE_N1MM@Z:PROC	; _DISPLAY_TEXT
EXTRN	sprintf:PROC
EXTRN	?_GET_FPS@@YAMXZ:PROC				; _GET_FPS
EXTRN	?Toggle_FPSCounter@@3_NA:BYTE			; Toggle_FPSCounter
EXTRN	?DRAW_LINE@@YAXMMMMMMEEEE@Z:PROC		; DRAW_LINE
EXTRN	?Toggle_ESP@@3_NA:BYTE				; Toggle_ESP
EXTRN	rand:PROC
EXTRN	srand:PROC
EXTRN	__restfpr_26:PROC
EXTRN	__savefpr_26:PROC
;	COMDAT .pdata
; File c:\users\s7clutch\documents\visual studio 2010\projects\the saiyan project\src\hooks.cpp
.pdata	SEGMENT
$T90153	DD	?Timer@@YAXXZ
	DD	040064405H
;	COMDAT ??_C@_0BI@OMEGJCHD@The?5Saiyan?5Project?5v0?48?$AA@
.rdata	SEGMENT
??_C@_0BI@OMEGJCHD@The?5Saiyan?5Project?5v0?48?$AA@ DB 'The Saiyan Projec'
	DB	't v0.8', 00H				; `string'
;	COMDAT __real@3ecccccd
.rdata	SEGMENT
__real@3ecccccd DD 03ecccccdr			; 0.4
;	COMDAT __real@3eb851ec
.rdata	SEGMENT
__real@3eb851ec DD 03eb851ecr			; 0.36
;	COMDAT __real@3e19999a
.rdata	SEGMENT
__real@3e19999a DD 03e19999ar			; 0.15
;	COMDAT ??_C@_01PPODPGHN@?$DO?$AA@
.rdata	SEGMENT
??_C@_01PPODPGHN@?$DO?$AA@ DB '>', 00H			; `string'
;	COMDAT __real@3ec28f5c
.rdata	SEGMENT
__real@3ec28f5c DD 03ec28f5cr			; 0.38
;	COMDAT __real@3fc999999999999a
.rdata	SEGMENT
__real@3fc999999999999a DQ 03fc999999999999ar	; 0.2
;	COMDAT __real@3f9eb851eb851eb8
.rdata	SEGMENT
__real@3f9eb851eb851eb8 DQ 03f9eb851eb851eb8r	; 0.03
;	COMDAT ??_C@_0BD@JJMGBALB@The?5Saiyan?5Project?$AA@
.rdata	SEGMENT
??_C@_0BD@JJMGBALB@The?5Saiyan?5Project?$AA@ DB 'The Saiyan Project', 00H ; `string'
;	COMDAT __real@3eae147b
.rdata	SEGMENT
__real@3eae147b DD 03eae147br			; 0.34
;	COMDAT __real@3f266666
.rdata	SEGMENT
__real@3f266666 DD 03f266666r			; 0.65
;	COMDAT ??_C@_0O@EGHBNPME@?$HOr?$HOSCTV?$HOw?$HO?5?$CFs?$AA@
.rdata	SEGMENT
??_C@_0O@EGHBNPME@?$HOr?$HOSCTV?$HOw?$HO?5?$CFs?$AA@ DB '~r~SCTV~w~ %s', 00H ; `string'
;	COMDAT __real@41200000
.rdata	SEGMENT
__real@41200000 DD 041200000r			; 10
;	COMDAT __real@3e99999a
.rdata	SEGMENT
__real@3e99999a DD 03e99999ar			; 0.3
;	COMDAT __real@3d4ccccd
.rdata	SEGMENT
__real@3d4ccccd DD 03d4ccccdr			; 0.05
;	COMDAT __real@3eb33333
.rdata	SEGMENT
__real@3eb33333 DD 03eb33333r			; 0.35
;	COMDAT ??_C@_0BA@KHKAIFAB@MPH?3?5?$CFf?6KMH?3?5?$CFf?$AA@
.rdata	SEGMENT
??_C@_0BA@KHKAIFAB@MPH?3?5?$CFf?6KMH?3?5?$CFf?$AA@ DB 'MPH: %f', 0aH, 'KM'
	DB	'H: %f', 00H					; `string'
;	COMDAT __real@3ff9bfdf7e8038a0
.rdata	SEGMENT
__real@3ff9bfdf7e8038a0 DQ 03ff9bfdf7e8038a0r	; 1.60934
;	COMDAT __real@400f2a06
.rdata	SEGMENT
__real@400f2a06 DD 0400f2a06r			; 2.23694
;	COMDAT __real@41a00000
.rdata	SEGMENT
__real@41a00000 DD 041a00000r			; 20
;	COMDAT __real@428c0000
.rdata	SEGMENT
__real@428c0000 DD 0428c0000r			; 70
;	COMDAT __real@c28c0000
.rdata	SEGMENT
__real@c28c0000 DD 0c28c0000r			; -70
;	COMDAT __real@3ff0cccccccccccd
.rdata	SEGMENT
__real@3ff0cccccccccccd DQ 03ff0cccccccccccdr	; 1.05
;	COMDAT __real@3fd999999999999a
.rdata	SEGMENT
__real@3fd999999999999a DQ 03fd999999999999ar	; 0.4
;	COMDAT __real@3f7fffef
.rdata	SEGMENT
__real@3f7fffef DD 03f7fffefr			; 0.999999
;	COMDAT __real@40000000
.rdata	SEGMENT
__real@40000000 DD 040000000r			; 2
;	COMDAT __real@40400000
.rdata	SEGMENT
__real@40400000 DD 040400000r			; 3
;	COMDAT __real@40800000
.rdata	SEGMENT
__real@40800000 DD 040800000r			; 4
;	COMDAT __real@40a00000
.rdata	SEGMENT
__real@40a00000 DD 040a00000r			; 5
;	COMDAT __real@ff7fffff
.rdata	SEGMENT
__real@ff7fffff DD 0ff7fffffr			; -3.40282e+038
;	COMDAT __real@3cfdf3b6
.rdata	SEGMENT
__real@3cfdf3b6 DD 03cfdf3b6r			; 0.031
;	COMDAT __real@3cf5c28f
.rdata	SEGMENT
__real@3cf5c28f DD 03cf5c28fr			; 0.03
;	COMDAT __real@3f4ccccd
.rdata	SEGMENT
__real@3f4ccccd DD 03f4ccccdr			; 0.8
;	COMDAT ??_C@_07JKGCDPCB@FPS?3?5?$CFf?$AA@
.rdata	SEGMENT
??_C@_07JKGCDPCB@FPS?3?5?$CFf?$AA@ DB 'FPS: %f', 00H	; `string'
;	COMDAT __real@3f000000
.rdata	SEGMENT
__real@3f000000 DD 03f000000r			; 0.5
;	COMDAT __real@bf800000
.rdata	SEGMENT
__real@bf800000 DD 0bf800000r			; -1
;	COMDAT __real@bf000000
.rdata	SEGMENT
__real@bf000000 DD 0bf000000r			; -0.5
;	COMDAT __real@3f800000
.rdata	SEGMENT
__real@3f800000 DD 03f800000r			; 1
; Function compile flags: /Odtu

	.code
RGB$ = 128						; size = 3
i$86492 = 132						; size = 4
i$86498 = 136						; size = 4
player$86502 = 140					; size = 4
ped$86503 = 144						; size = 4
c7$86525 = 152						; size = 12
position$86505 = 168					; size = 12
c8$86528 = 184						; size = 12
c3$86513 = 200						; size = 12
c1$86507 = 216						; size = 12
c2$86510 = 232						; size = 12
c5$86519 = 248						; size = 12
c4$86516 = 264						; size = 12
c6$86522 = 280						; size = 12
fps$86532 = 292						; size = 4
ent$86543 = 296						; size = 4
rot$86538 = 304						; size = 12
d$86540 = 316						; size = 4
dir$86536 = 320						; size = 12
pos$86544 = 336						; size = 12
horn$86558 = 348					; size = 1
mph$86564 = 352						; size = 4
kmh$86565 = 356						; size = 4
mps$86563 = 360						; size = 4
speedotext$86566 = 364					; size = 4
i$86589 = 368						; size = 4
i$86593 = 372						; size = 4
i$86649 = 376						; size = 4
$T90033 = 384						; size = 12
$T90034 = 400						; size = 12
$T90035 = 416						; size = 12
$T90036 = 432						; size = 12
$T90037 = 448						; size = 12
$T90038 = 464						; size = 12
$T90039 = 480						; size = 12
$T90040 = 496						; size = 12
$T90043 = 512						; size = 12
$T90044 = 528						; size = 12
$T90045 = 544						; size = 24
$T90046 = 568						; size = 4
$T90047 = 576						; size = 24
$T90048 = 600						; size = 4
$T90049 = 608						; size = 24
$T90050 = 632						; size = 4
$T90051 = 640						; size = 24
$T90052 = 664						; size = 4
$T90053 = 672						; size = 24
$T90054 = 696						; size = 4
$T90055 = 704						; size = 24
$T90056 = 728						; size = 4
$T90057 = 736						; size = 24
$T90058 = 760						; size = 4
$T90059 = 768						; size = 24
$T90060 = 792						; size = 4
$T90061 = 800						; size = 24
$T90062 = 824						; size = 4
$T90063 = 832						; size = 24
$T90064 = 856						; size = 4
$T90065 = 864						; size = 24
$T90066 = 888						; size = 4
$T90067 = 896						; size = 24
$T90068 = 920						; size = 4
$T90069 = 928						; size = 24
$T90070 = 952						; size = 4
$T90071 = 960						; size = 24
$T90072 = 984						; size = 4
$T90073 = 992						; size = 24
$T90074 = 1016						; size = 4
$T90075 = 1024						; size = 24
$T90076 = 1048						; size = 4
$T90077 = 1056						; size = 24
$T90078 = 1080						; size = 4
$T90079 = 1088						; size = 24
$T90080 = 1112						; size = 4
$T90081 = 1120						; size = 24
$T90082 = 1144						; size = 4
$T90083 = 1152						; size = 24
$T90084 = 1176						; size = 4
tv497 = 1180						; size = 4
tv2532 = 1184						; size = 8
tv2598 = 1192						; size = 8

?Timer@@YAXXZ PROC NEAR					; Timer, COMDAT

; Begin code for function: ?Timer@@YAXXZ
; Line 288
	mflr         r12
	stw          r12,-8(r1)
	addi         r12,r1,-8		; 0FFF8h
	bl           __savefpr_26
	stwu         r1,-4F0h(r1)
.endprolog
$M90151:
; Line 291
	lwz          r11,0(r13)
; Line 292
	li           r10,308		; 134h
; Line 293
	lwz          r9,0(r3)
; Line 294
	lwzx         r8,r10,r11
; Line 295
	lwz          r7,1Ch(r8)
; Line 296
	stw          r7,0(r9)
; Line 299
	li           r11,0
	stb          r11,RGB$(r1)		; 128 (80h)
	li           r10,0
	stb          r10,RGB$+1(r1)		; 129 (81h)
	li           r9,0
	stb          r9,RGB$+2(r1)		; 130 (82h)
; Line 300
	li           r8,0
	stw          r8,i$86492(r1)		; 132 (84h)
	b            $LN87@Timer
$LN86@Timer:
	lwz          r11,i$86492(r1)		; 132 (84h)
	addi         r10,r11,1
	stw          r10,i$86492(r1)		; 132 (84h)
$LN87@Timer:
	lwz          r11,i$86492(r1)		; 132 (84h)
	cmpwi        cr6,r11,3
	bge          cr6,$LN85@Timer
; Line 302
	li           r3,0
	bl           time
	rlwinm       r3,r3,0,0,31
	bl           srand
; Line 303
	bl           rand
	li           r11,255		; 0FFh
	divw         r10,r3,r11
	mulli        r9,r10,255		; 0FFh
	subf         r8,r9,r3
	clrlwi       r7,r8,24
	addi         r6,r1,RGB$
	lwz          r5,i$86492(r1)		; 132 (84h)
	stbx         r7,r6,r5
; Line 304
	b            $LN86@Timer
$LN85@Timer:
; Line 307
	lis          r11,?Toggle_ESP@@3_NA
	lbz          r10,?Toggle_ESP@@3_NA(r11)
	cmpwi        cr6,r10,0
	beq          cr6,$LN81@Timer
; Line 309
	li           r11,0
	stw          r11,i$86498(r1)		; 136 (88h)
	b            $LN83@Timer
$LN82@Timer:
	lwz          r11,i$86498(r1)		; 136 (88h)
	addi         r10,r11,1
	stw          r10,i$86498(r1)		; 136 (88h)
$LN83@Timer:
	lwz          r11,i$86498(r1)		; 136 (88h)
	cmpwi        cr6,r11,16		; 10h
	bge          cr6,$LN81@Timer
; Line 311
	lwz          r11,i$86498(r1)		; 136 (88h)
	stw          r11,player$86502(r1)		; 140 (8Ch)
; Line 312
	lwz          r3,player$86502(r1)		; 140 (8Ch)
	bl           ?GET_PLAYER_PED@@YAKK@Z
	stw          r3,ped$86503(r1)		; 144 (90h)
; Line 313
	lwz          r10,ped$86503(r1)		; 144 (90h)
	cmplwi       cr6,r10,0
	beq          cr6,$LN80@Timer
	lwz          r11,player$86502(r1)		; 140 (8Ch)
	lis          r10,?_Player@@3KA
	lwz          r9,?_Player@@3KA(r10)
	cmplw        cr6,r11,r9
	beq          cr6,$LN80@Timer
; Line 315
	li           r5,1
	lwz          r4,ped$86503(r1)		; 144 (90h)
	addi         r3,r1,position$86505
	bl           ?GET_ENTITY_COORDS@@YA?AU_Vector3@@K_N@Z
; Line 316
	lis          r11,__real@3f800000
	lfs          fr3,__real@3f800000(r11)
	lis          r10,__real@bf000000
	lfs          fr2,__real@bf000000(r10)
	lis          r9,__real@bf000000
	lfs          fr1,__real@bf000000(r9)
	addi         r3,r1,$T90033
	bl           ??0_Vector3@@QAA@MMM@Z
	ld           r5,0(r3)
	lwz          r8,8(r3)
	rldicr       r6,r8,32,31
	addi         r3,r1,c1$86507
	addi         r4,r1,position$86505
	bl           ??H_Vector3@@QAA?AU0@U0@@Z
; Line 317
	lis          r7,__real@bf800000
	lfs          fr3,__real@bf800000(r7)
	lis          r6,__real@bf000000
	lfs          fr2,__real@bf000000(r6)
	lis          r5,__real@bf000000
	lfs          fr1,__real@bf000000(r5)
	addi         r3,r1,$T90034
	bl           ??0_Vector3@@QAA@MMM@Z
	ld           r5,0(r3)
	lwz          r4,8(r3)
	rldicr       r6,r4,32,31
	addi         r3,r1,c2$86510
	addi         r4,r1,position$86505
	bl           ??H_Vector3@@QAA?AU0@U0@@Z
; Line 318
	lis          r3,__real@bf800000
	lfs          fr3,__real@bf800000(r3)
	lis          r11,__real@3f000000
	lfs          fr2,__real@3f000000(r11)
	lis          r10,__real@bf000000
	lfs          fr1,__real@bf000000(r10)
	addi         r3,r1,$T90035
	bl           ??0_Vector3@@QAA@MMM@Z
	ld           r5,0(r3)
	lwz          r9,8(r3)
	rldicr       r6,r9,32,31
	addi         r3,r1,c3$86513
	addi         r4,r1,position$86505
	bl           ??H_Vector3@@QAA?AU0@U0@@Z
; Line 319
	lis          r8,__real@3f800000
	lfs          fr3,__real@3f800000(r8)
	lis          r7,__real@3f000000
	lfs          fr2,__real@3f000000(r7)
	lis          r6,__real@bf000000
	lfs          fr1,__real@bf000000(r6)
	addi         r3,r1,$T90036
	bl           ??0_Vector3@@QAA@MMM@Z
	ld           r5,0(r3)
	lwz          r4,8(r3)
	rldicr       r6,r4,32,31
	addi         r3,r1,c4$86516
	addi         r4,r1,position$86505
	bl           ??H_Vector3@@QAA?AU0@U0@@Z
; Line 320
	lis          r3,__real@3f800000
	lfs          fr3,__real@3f800000(r3)
	lis          r11,__real@bf000000
	lfs          fr2,__real@bf000000(r11)
	lis          r10,__real@3f000000
	lfs          fr1,__real@3f000000(r10)
	addi         r3,r1,$T90037
	bl           ??0_Vector3@@QAA@MMM@Z
	ld           r5,0(r3)
	lwz          r9,8(r3)
	rldicr       r6,r9,32,31
	addi         r3,r1,c5$86519
	addi         r4,r1,position$86505
	bl           ??H_Vector3@@QAA?AU0@U0@@Z
; Line 321
	lis          r8,__real@bf800000
	lfs          fr3,__real@bf800000(r8)
	lis          r7,__real@bf000000
	lfs          fr2,__real@bf000000(r7)
	lis          r6,__real@3f000000
	lfs          fr1,__real@3f000000(r6)
	addi         r3,r1,$T90038
	bl           ??0_Vector3@@QAA@MMM@Z
	ld           r5,0(r3)
	lwz          r4,8(r3)
	rldicr       r6,r4,32,31
	addi         r3,r1,c6$86522
	addi         r4,r1,position$86505
	bl           ??H_Vector3@@QAA?AU0@U0@@Z
; Line 322
	lis          r3,__real@bf800000
	lfs          fr3,__real@bf800000(r3)
	lis          r11,__real@3f000000
	lfs          fr2,__real@3f000000(r11)
	lis          r10,__real@3f000000
	lfs          fr1,__real@3f000000(r10)
	addi         r3,r1,$T90039
	bl           ??0_Vector3@@QAA@MMM@Z
	ld           r5,0(r3)
	lwz          r9,8(r3)
	rldicr       r6,r9,32,31
	addi         r3,r1,c7$86525
	addi         r4,r1,position$86505
	bl           ??H_Vector3@@QAA?AU0@U0@@Z
; Line 323
	lis          r8,__real@3f800000
	lfs          fr3,__real@3f800000(r8)
	lis          r7,__real@3f000000
	lfs          fr2,__real@3f000000(r7)
	lis          r6,__real@3f000000
	lfs          fr1,__real@3f000000(r6)
	addi         r3,r1,$T90040
	bl           ??0_Vector3@@QAA@MMM@Z
	ld           r5,0(r3)
	lwz          r4,8(r3)
	rldicr       r6,r4,32,31
	addi         r3,r1,c8$86528
	addi         r4,r1,position$86505
	bl           ??H_Vector3@@QAA?AU0@U0@@Z
; Line 325
	li           r3,255		; 0FFh
	stb          r3,5Fh(r1)
	li           r11,0
	stb          r11,57h(r1)
	li           r10,255		; 0FFh
	li           r9,72		; 48h
	lfs          fr6,c2$86510+8(r1)		; 240 (0F0h)
	lfs          fr5,c2$86510+4(r1)		; 236 (0ECh)
	lfs          fr4,c2$86510(r1)		; 232 (0E8h)
	lfs          fr3,c1$86507+8(r1)		; 224 (0E0h)
	lfs          fr2,c1$86507+4(r1)		; 220 (0DCh)
	lfs          fr1,c1$86507(r1)		; 216 (0D8h)
	bl           ?DRAW_LINE@@YAXMMMMMMEEEE@Z
; Line 326
	li           r10,255		; 0FFh
	stb          r10,5Fh(r1)
	li           r9,0
	stb          r9,57h(r1)
	li           r10,255		; 0FFh
	li           r9,72		; 48h
	lfs          fr6,c3$86513+8(r1)		; 208 (0D0h)
	lfs          fr5,c3$86513+4(r1)		; 204 (0CCh)
	lfs          fr4,c3$86513(r1)		; 200 (0C8h)
	lfs          fr3,c2$86510+8(r1)		; 240 (0F0h)
	lfs          fr2,c2$86510+4(r1)		; 236 (0ECh)
	lfs          fr1,c2$86510(r1)		; 232 (0E8h)
	bl           ?DRAW_LINE@@YAXMMMMMMEEEE@Z
; Line 327
	li           r8,255		; 0FFh
	stb          r8,5Fh(r1)
	li           r7,0
	stb          r7,57h(r1)
	li           r10,255		; 0FFh
	li           r9,72		; 48h
	lfs          fr6,c4$86516+8(r1)		; 272 (110h)
	lfs          fr5,c4$86516+4(r1)		; 268 (10Ch)
	lfs          fr4,c4$86516(r1)		; 264 (108h)
	lfs          fr3,c3$86513+8(r1)		; 208 (0D0h)
	lfs          fr2,c3$86513+4(r1)		; 204 (0CCh)
	lfs          fr1,c3$86513(r1)		; 200 (0C8h)
	bl           ?DRAW_LINE@@YAXMMMMMMEEEE@Z
; Line 328
	li           r6,255		; 0FFh
	stb          r6,5Fh(r1)
	li           r5,0
	stb          r5,57h(r1)
	li           r10,255		; 0FFh
	li           r9,72		; 48h
	lfs          fr6,c1$86507+8(r1)		; 224 (0E0h)
	lfs          fr5,c1$86507+4(r1)		; 220 (0DCh)
	lfs          fr4,c1$86507(r1)		; 216 (0D8h)
	lfs          fr3,c4$86516+8(r1)		; 272 (110h)
	lfs          fr2,c4$86516+4(r1)		; 268 (10Ch)
	lfs          fr1,c4$86516(r1)		; 264 (108h)
	bl           ?DRAW_LINE@@YAXMMMMMMEEEE@Z
; Line 329
	li           r4,255		; 0FFh
	stb          r4,5Fh(r1)
	li           r3,0
	stb          r3,57h(r1)
	li           r10,255		; 0FFh
	li           r9,72		; 48h
	lfs          fr6,c6$86522+8(r1)		; 288 (120h)
	lfs          fr5,c6$86522+4(r1)		; 284 (11Ch)
	lfs          fr4,c6$86522(r1)		; 280 (118h)
	lfs          fr3,c5$86519+8(r1)		; 256 (100h)
	lfs          fr2,c5$86519+4(r1)		; 252 (0FCh)
	lfs          fr1,c5$86519(r1)		; 248 (0F8h)
	bl           ?DRAW_LINE@@YAXMMMMMMEEEE@Z
; Line 330
	li           r11,255		; 0FFh
	stb          r11,5Fh(r1)
	li           r10,0
	stb          r10,57h(r1)
	li           r10,255		; 0FFh
	li           r9,72		; 48h
	lfs          fr6,c7$86525+8(r1)		; 160 (0A0h)
	lfs          fr5,c7$86525+4(r1)		; 156 (9Ch)
	lfs          fr4,c7$86525(r1)		; 152 (98h)
	lfs          fr3,c6$86522+8(r1)		; 288 (120h)
	lfs          fr2,c6$86522+4(r1)		; 284 (11Ch)
	lfs          fr1,c6$86522(r1)		; 280 (118h)
	bl           ?DRAW_LINE@@YAXMMMMMMEEEE@Z
; Line 331
	li           r9,255		; 0FFh
	stb          r9,5Fh(r1)
	li           r8,0
	stb          r8,57h(r1)
	li           r10,255		; 0FFh
	li           r9,72		; 48h
	lfs          fr6,c8$86528+8(r1)		; 192 (0C0h)
	lfs          fr5,c8$86528+4(r1)		; 188 (0BCh)
	lfs          fr4,c8$86528(r1)		; 184 (0B8h)
	lfs          fr3,c7$86525+8(r1)		; 160 (0A0h)
	lfs          fr2,c7$86525+4(r1)		; 156 (9Ch)
	lfs          fr1,c7$86525(r1)		; 152 (98h)
	bl           ?DRAW_LINE@@YAXMMMMMMEEEE@Z
; Line 332
	li           r7,255		; 0FFh
	stb          r7,5Fh(r1)
	li           r6,0
	stb          r6,57h(r1)
	li           r10,255		; 0FFh
	li           r9,72		; 48h
	lfs          fr6,c5$86519+8(r1)		; 256 (100h)
	lfs          fr5,c5$86519+4(r1)		; 252 (0FCh)
	lfs          fr4,c5$86519(r1)		; 248 (0F8h)
	lfs          fr3,c8$86528+8(r1)		; 192 (0C0h)
	lfs          fr2,c8$86528+4(r1)		; 188 (0BCh)
	lfs          fr1,c8$86528(r1)		; 184 (0B8h)
	bl           ?DRAW_LINE@@YAXMMMMMMEEEE@Z
; Line 334
	li           r5,255		; 0FFh
	stb          r5,5Fh(r1)
	li           r4,0
	stb          r4,57h(r1)
	li           r10,255		; 0FFh
	li           r9,72		; 48h
	lfs          fr6,c5$86519+8(r1)		; 256 (100h)
	lfs          fr5,c5$86519+4(r1)		; 252 (0FCh)
	lfs          fr4,c5$86519(r1)		; 248 (0F8h)
	lfs          fr3,c1$86507+8(r1)		; 224 (0E0h)
	lfs          fr2,c1$86507+4(r1)		; 220 (0DCh)
	lfs          fr1,c1$86507(r1)		; 216 (0D8h)
	bl           ?DRAW_LINE@@YAXMMMMMMEEEE@Z
; Line 335
	li           r3,255		; 0FFh
	stb          r3,5Fh(r1)
	li           r11,0
	stb          r11,57h(r1)
	li           r10,255		; 0FFh
	li           r9,72		; 48h
	lfs          fr6,c6$86522+8(r1)		; 288 (120h)
	lfs          fr5,c6$86522+4(r1)		; 284 (11Ch)
	lfs          fr4,c6$86522(r1)		; 280 (118h)
	lfs          fr3,c2$86510+8(r1)		; 240 (0F0h)
	lfs          fr2,c2$86510+4(r1)		; 236 (0ECh)
	lfs          fr1,c2$86510(r1)		; 232 (0E8h)
	bl           ?DRAW_LINE@@YAXMMMMMMEEEE@Z
; Line 336
	li           r10,255		; 0FFh
	stb          r10,5Fh(r1)
	li           r9,0
	stb          r9,57h(r1)
	li           r10,255		; 0FFh
	li           r9,72		; 48h
	lfs          fr6,c7$86525+8(r1)		; 160 (0A0h)
	lfs          fr5,c7$86525+4(r1)		; 156 (9Ch)
	lfs          fr4,c7$86525(r1)		; 152 (98h)
	lfs          fr3,c3$86513+8(r1)		; 208 (0D0h)
	lfs          fr2,c3$86513+4(r1)		; 204 (0CCh)
	lfs          fr1,c3$86513(r1)		; 200 (0C8h)
	bl           ?DRAW_LINE@@YAXMMMMMMEEEE@Z
; Line 337
	li           r8,255		; 0FFh
	stb          r8,5Fh(r1)
	li           r7,0
	stb          r7,57h(r1)
	li           r10,255		; 0FFh
	li           r9,72		; 48h
	lfs          fr6,c8$86528+8(r1)		; 192 (0C0h)
	lfs          fr5,c8$86528+4(r1)		; 188 (0BCh)
	lfs          fr4,c8$86528(r1)		; 184 (0B8h)
	lfs          fr3,c4$86516+8(r1)		; 272 (110h)
	lfs          fr2,c4$86516+4(r1)		; 268 (10Ch)
	lfs          fr1,c4$86516(r1)		; 264 (108h)
	bl           ?DRAW_LINE@@YAXMMMMMMEEEE@Z
$LN80@Timer:
; Line 339
	b            $LN82@Timer
$LN81@Timer:
; Line 344
	lis          r11,?Toggle_FPSCounter@@3_NA
	lbz          r10,?Toggle_FPSCounter@@3_NA(r11)
	cmpwi        cr6,r10,0
	beq          cr6,$LN79@Timer
; Line 347
	bl           ?_GET_FPS@@YAMXZ
	stfd         fr1,20h(r1)
	ld           r5,20h(r1)
	lis          r11,??_C@_07JKGCDPCB@FPS?3?5?$CFf?$AA@
	addi         r4,r11,??_C@_07JKGCDPCB@FPS?3?5?$CFf?$AA@
	lwz          r3,fps$86532(r1)		; 292 (124h)
	bl           sprintf
; Line 348
	lis          r10,__real@3f800000
	lfs          fr6,__real@3f800000(r10)
	lis          r9,__real@00000000
	lfs          fr5,__real@00000000(r9)
	li           r8,0
	stb          r8,6Fh(r1)
	li           r7,1
	stb          r7,67h(r1)
	li           r6,255		; 0FFh
	stb          r6,5Fh(r1)
	li           r5,255		; 0FFh
	stb          r5,57h(r1)
	li           r10,255		; 0FFh
	li           r9,255		; 0FFh
	lis          r4,__real@3f4ccccd
	lfs          fr4,__real@3f4ccccd(r4)
	lis          r3,__real@3f4ccccd
	lfs          fr3,__real@3f4ccccd(r3)
	lis          r11,__real@3cf5c28f
	lfs          fr2,__real@3cf5c28f(r11)
	lis          r8,__real@3cfdf3b6
	lfs          fr1,__real@3cfdf3b6(r8)
	li           r4,0
	lwz          r3,fps$86532(r1)		; 292 (124h)
	bl           ?_DISPLAY_TEXT@@YAXPADKMMMMEEEE_N1MM@Z
$LN79@Timer:
; Line 353
	lis          r11,?Toggle_Moses@@3_NA
	lbz          r10,?Toggle_Moses@@3_NA(r11)
	cmpwi        cr6,r10,0
	beq          cr6,$LN78@Timer
; Line 355
	lis          r11,__real@ff7fffff
	lfs          fr4,__real@ff7fffff(r11)
	lis          r10,?_Position@@3U_Vector3@@A
	addi         r9,r10,?_Position@@3U_Vector3@@A
	lfs          fr3,8(r9)
	lis          r8,?_Position@@3U_Vector3@@A
	addi         r7,r8,?_Position@@3U_Vector3@@A
	lfs          fr2,4(r7)
	lis          r6,?_Position@@3U_Vector3@@A
	lfs          fr1,?_Position@@3U_Vector3@@A(r6)
	bl           ?MODIFY_WATER@@YAXMMMM@Z
; Line 356
	lis          r5,__real@ff7fffff
	lfs          fr4,__real@ff7fffff(r5)
	lis          r4,?_Position@@3U_Vector3@@A
	addi         r3,r4,?_Position@@3U_Vector3@@A
	lfs          fr3,8(r3)
	lis          r11,?_Position@@3U_Vector3@@A
	addi         r10,r11,?_Position@@3U_Vector3@@A
	lfs          fr2,4(r10)
	lis          r9,?_Position@@3U_Vector3@@A
	lfs          fr1,?_Position@@3U_Vector3@@A(r9)
	bl           ?MODIFY_WATER@@YAXMMMM@Z
; Line 357
	lis          r8,__real@ff7fffff
	lfs          fr4,__real@ff7fffff(r8)
	lis          r7,?_Position@@3U_Vector3@@A
	addi         r6,r7,?_Position@@3U_Vector3@@A
	lfs          fr3,8(r6)
	lis          r5,?_Position@@3U_Vector3@@A
	addi         r4,r5,?_Position@@3U_Vector3@@A
	lfs          fr0,4(r4)
	lis          r3,__real@40a00000
	lfs          fr13,__real@40a00000(r3)
	fadds        fr2,fr0,fr13
	lis          r11,?_Position@@3U_Vector3@@A
	lfs          fr1,?_Position@@3U_Vector3@@A(r11)
	bl           ?MODIFY_WATER@@YAXMMMM@Z
; Line 358
	lis          r10,__real@ff7fffff
	lfs          fr4,__real@ff7fffff(r10)
	lis          r9,?_Position@@3U_Vector3@@A
	addi         r8,r9,?_Position@@3U_Vector3@@A
	lfs          fr3,8(r8)
	lis          r7,?_Position@@3U_Vector3@@A
	addi         r6,r7,?_Position@@3U_Vector3@@A
	lfs          fr12,4(r6)
	lis          r5,__real@40800000
	lfs          fr11,__real@40800000(r5)
	fadds        fr2,fr12,fr11
	lis          r4,?_Position@@3U_Vector3@@A
	lfs          fr1,?_Position@@3U_Vector3@@A(r4)
	bl           ?MODIFY_WATER@@YAXMMMM@Z
; Line 359
	lis          r3,__real@ff7fffff
	lfs          fr4,__real@ff7fffff(r3)
	lis          r11,?_Position@@3U_Vector3@@A
	addi         r10,r11,?_Position@@3U_Vector3@@A
	lfs          fr3,8(r10)
	lis          r9,?_Position@@3U_Vector3@@A
	addi         r8,r9,?_Position@@3U_Vector3@@A
	lfs          fr10,4(r8)
	lis          r7,__real@40400000
	lfs          fr9,__real@40400000(r7)
	fadds        fr2,fr10,fr9
	lis          r6,?_Position@@3U_Vector3@@A
	lfs          fr1,?_Position@@3U_Vector3@@A(r6)
	bl           ?MODIFY_WATER@@YAXMMMM@Z
; Line 360
	lis          r5,__real@ff7fffff
	lfs          fr4,__real@ff7fffff(r5)
	lis          r4,?_Position@@3U_Vector3@@A
	addi         r3,r4,?_Position@@3U_Vector3@@A
	lfs          fr3,8(r3)
	lis          r11,?_Position@@3U_Vector3@@A
	addi         r10,r11,?_Position@@3U_Vector3@@A
	lfs          fr8,4(r10)
	lis          r9,__real@40000000
	lfs          fr7,__real@40000000(r9)
	fadds        fr2,fr8,fr7
	lis          r8,?_Position@@3U_Vector3@@A
	lfs          fr1,?_Position@@3U_Vector3@@A(r8)
	bl           ?MODIFY_WATER@@YAXMMMM@Z
; Line 361
	lis          r7,__real@ff7fffff
	lfs          fr4,__real@ff7fffff(r7)
	lis          r6,?_Position@@3U_Vector3@@A
	addi         r5,r6,?_Position@@3U_Vector3@@A
	lfs          fr3,8(r5)
	lis          r4,?_Position@@3U_Vector3@@A
	addi         r3,r4,?_Position@@3U_Vector3@@A
	lfs          fr6,4(r3)
	lis          r11,__real@3f800000
	lfs          fr5,__real@3f800000(r11)
	fadds        fr2,fr6,fr5
	lis          r10,?_Position@@3U_Vector3@@A
	lfs          fr1,?_Position@@3U_Vector3@@A(r10)
	bl           ?MODIFY_WATER@@YAXMMMM@Z
; Line 362
	lis          r9,__real@ff7fffff
	lfs          fr4,__real@ff7fffff(r9)
	lis          r8,?_Position@@3U_Vector3@@A
	addi         r7,r8,?_Position@@3U_Vector3@@A
	lfs          fr3,8(r7)
	lis          r6,?_Position@@3U_Vector3@@A
	addi         r5,r6,?_Position@@3U_Vector3@@A
	lfs          fr2,4(r5)
	lis          r4,__real@3f800000
	lfs          fr1,__real@3f800000(r4)
	fsubs        fr2,fr2,fr1
	lis          r3,?_Position@@3U_Vector3@@A
	lfs          fr1,?_Position@@3U_Vector3@@A(r3)
	bl           ?MODIFY_WATER@@YAXMMMM@Z
; Line 363
	lis          r11,__real@ff7fffff
	lfs          fr4,__real@ff7fffff(r11)
	lis          r10,?_Position@@3U_Vector3@@A
	addi         r9,r10,?_Position@@3U_Vector3@@A
	lfs          fr3,8(r9)
	lis          r8,?_Position@@3U_Vector3@@A
	addi         r7,r8,?_Position@@3U_Vector3@@A
	lfs          fr0,4(r7)
	lis          r6,__real@40000000
	lfs          fr13,__real@40000000(r6)
	fsubs        fr2,fr0,fr13
	lis          r5,?_Position@@3U_Vector3@@A
	lfs          fr1,?_Position@@3U_Vector3@@A(r5)
	bl           ?MODIFY_WATER@@YAXMMMM@Z
; Line 364
	lis          r4,__real@ff7fffff
	lfs          fr4,__real@ff7fffff(r4)
	lis          r3,?_Position@@3U_Vector3@@A
	addi         r11,r3,?_Position@@3U_Vector3@@A
	lfs          fr3,8(r11)
	lis          r10,?_Position@@3U_Vector3@@A
	addi         r9,r10,?_Position@@3U_Vector3@@A
	lfs          fr12,4(r9)
	lis          r8,__real@40400000
	lfs          fr11,__real@40400000(r8)
	fsubs        fr2,fr12,fr11
	lis          r7,?_Position@@3U_Vector3@@A
	lfs          fr1,?_Position@@3U_Vector3@@A(r7)
	bl           ?MODIFY_WATER@@YAXMMMM@Z
; Line 365
	lis          r6,__real@ff7fffff
	lfs          fr4,__real@ff7fffff(r6)
	lis          r5,?_Position@@3U_Vector3@@A
	addi         r4,r5,?_Position@@3U_Vector3@@A
	lfs          fr3,8(r4)
	lis          r3,?_Position@@3U_Vector3@@A
	addi         r11,r3,?_Position@@3U_Vector3@@A
	lfs          fr10,4(r11)
	lis          r10,__real@40800000
	lfs          fr9,__real@40800000(r10)
	fsubs        fr2,fr10,fr9
	lis          r9,?_Position@@3U_Vector3@@A
	lfs          fr1,?_Position@@3U_Vector3@@A(r9)
	bl           ?MODIFY_WATER@@YAXMMMM@Z
; Line 366
	lis          r8,__real@ff7fffff
	lfs          fr4,__real@ff7fffff(r8)
	lis          r7,?_Position@@3U_Vector3@@A
	addi         r6,r7,?_Position@@3U_Vector3@@A
	lfs          fr3,8(r6)
	lis          r5,?_Position@@3U_Vector3@@A
	addi         r4,r5,?_Position@@3U_Vector3@@A
	lfs          fr8,4(r4)
	lis          r3,__real@40a00000
	lfs          fr7,__real@40a00000(r3)
	fsubs        fr2,fr8,fr7
	lis          r11,?_Position@@3U_Vector3@@A
	lfs          fr1,?_Position@@3U_Vector3@@A(r11)
	bl           ?MODIFY_WATER@@YAXMMMM@Z
; Line 367
	lis          r10,__real@ff7fffff
	lfs          fr4,__real@ff7fffff(r10)
	lis          r9,?_Position@@3U_Vector3@@A
	addi         r8,r9,?_Position@@3U_Vector3@@A
	lfs          fr3,8(r8)
	lis          r7,?_Position@@3U_Vector3@@A
	addi         r6,r7,?_Position@@3U_Vector3@@A
	lfs          fr6,4(r6)
	lis          r5,__real@40400000
	lfs          fr5,__real@40400000(r5)
	fadds        fr2,fr6,fr5
	lis          r4,?_Position@@3U_Vector3@@A
	lfs          fr1,?_Position@@3U_Vector3@@A(r4)
	bl           ?MODIFY_WATER@@YAXMMMM@Z
; Line 368
	lis          r3,__real@ff7fffff
	lfs          fr4,__real@ff7fffff(r3)
	lis          r11,?_Position@@3U_Vector3@@A
	addi         r10,r11,?_Position@@3U_Vector3@@A
	lfs          fr3,8(r10)
	lis          r9,__real@40400000
	lfs          fr2,__real@40400000(r9)
	fadds        fr3,fr3,fr2
	lis          r8,?_Position@@3U_Vector3@@A
	addi         r7,r8,?_Position@@3U_Vector3@@A
	lfs          fr2,4(r7)
	lis          r6,?_Position@@3U_Vector3@@A
	lfs          fr1,?_Position@@3U_Vector3@@A(r6)
	bl           ?MODIFY_WATER@@YAXMMMM@Z
; Line 369
	lis          r5,__real@ff7fffff
	lfs          fr4,__real@ff7fffff(r5)
	lis          r4,?_Position@@3U_Vector3@@A
	addi         r3,r4,?_Position@@3U_Vector3@@A
	lfs          fr3,8(r3)
	lis          r11,?_Position@@3U_Vector3@@A
	addi         r10,r11,?_Position@@3U_Vector3@@A
	lfs          fr2,4(r10)
	lis          r9,?_Position@@3U_Vector3@@A
	lfs          fr1,?_Position@@3U_Vector3@@A(r9)
	lis          r8,__real@40400000
	lfs          fr0,__real@40400000(r8)
	fadds        fr1,fr1,fr0
	bl           ?MODIFY_WATER@@YAXMMMM@Z
; Line 370
	lis          r7,__real@ff7fffff
	lfs          fr4,__real@ff7fffff(r7)
	lis          r6,?_Position@@3U_Vector3@@A
	addi         r5,r6,?_Position@@3U_Vector3@@A
	lfs          fr13,8(r5)
	lis          r4,__real@40400000
	lfs          fr12,__real@40400000(r4)
	fsubs        fr3,fr13,fr12
	lis          r3,?_Position@@3U_Vector3@@A
	addi         r11,r3,?_Position@@3U_Vector3@@A
	lfs          fr2,4(r11)
	lis          r10,?_Position@@3U_Vector3@@A
	lfs          fr1,?_Position@@3U_Vector3@@A(r10)
	bl           ?MODIFY_WATER@@YAXMMMM@Z
; Line 371
	lis          r9,__real@ff7fffff
	lfs          fr4,__real@ff7fffff(r9)
	lis          r8,?_Position@@3U_Vector3@@A
	addi         r7,r8,?_Position@@3U_Vector3@@A
	lfs          fr3,8(r7)
	lis          r6,?_Position@@3U_Vector3@@A
	addi         r5,r6,?_Position@@3U_Vector3@@A
	lfs          fr2,4(r5)
	lis          r4,?_Position@@3U_Vector3@@A
	lfs          fr11,?_Position@@3U_Vector3@@A(r4)
	lis          r3,__real@40400000
	lfs          fr10,__real@40400000(r3)
	fsubs        fr1,fr11,fr10
	bl           ?MODIFY_WATER@@YAXMMMM@Z
$LN78@Timer:
; Line 376
	lis          r11,?Toggle_Noclip@@3_NA
	lbz          r10,?Toggle_Noclip@@3_NA(r11)
	cmpwi        cr6,r10,0
	beq          cr6,$LN74@Timer
; Line 378
	addi         r3,r1,dir$86536
	bl           ?_GET_CAMERA_DIRECTION@@YA?AU_Vector3@@XZ
; Line 379
	li           r4,0
	addi         r3,r1,rot$86538
	bl           ?GET_GAMEPLAY_CAM_ROT@@YA?AU_Vector3@@K@Z
; Line 380
	lis          r11,__real@3f7fffef
	lfs          fr0,__real@3f7fffef(r11)
	stfs         fr0,d$86540(r1)		; 316 (13Ch)
; Line 382
	li           r4,52		; 34h
	li           r3,0
	bl           ?IS_CONTROL_PRESSED@@YA_NKK@Z
	clrlwi       r10,r3,24
	cmpwi        cr6,r10,0
	bne          cr6,$LN75@Timer
	li           r4,55		; 37h
	li           r3,0
	bl           ?IS_CONTROL_PRESSED@@YA_NKK@Z
	clrlwi       r11,r3,24
	cmpwi        cr6,r11,0
	beq          cr6,$LN76@Timer
$LN75@Timer:
; Line 383
	lfs          fr0,d$86540(r1)		; 316 (13Ch)
	lis          r11,__real@3fd999999999999a
	lfd          fr13,__real@3fd999999999999a(r11)
	fsub         fr12,fr0,fr13
	frsp         fr11,fr12
	stfs         fr11,d$86540(r1)		; 316 (13Ch)
$LN76@Timer:
; Line 385
	lis          r11,?_Vehicle@@3KA
	lwz          r10,?_Vehicle@@3KA(r11)
	cmplwi       cr6,r10,0
	bne          cr6,$LN90@Timer
	lis          r11,?_Ped@@3KA
	lwz          r10,?_Ped@@3KA(r11)
	stw          r10,49Ch(r1)
	b            $LN91@Timer
$LN90@Timer:
	lis          r11,?_Vehicle@@3KA
	lwz          r10,?_Vehicle@@3KA(r11)
	stw          r10,49Ch(r1)
$LN91@Timer:
	lwz          r11,49Ch(r1)
	stw          r11,ent$86543(r1)		; 296 (128h)
; Line 386
	lis          r10,?_Position@@3U_Vector3@@A
	addi         r9,r10,?_Position@@3U_Vector3@@A
	lwz          r8,0(r9)
	stw          r8,pos$86544(r1)		; 336 (150h)
	lwz          r7,4(r9)
	stw          r7,pos$86544+4(r1)		; 340 (154h)
	lwz          r6,8(r9)
	stw          r6,pos$86544+8(r1)		; 344 (158h)
; Line 388
	li           r4,1
	lwz          r3,ent$86543(r1)		; 296 (128h)
	bl           ?SET_ENTITY_COLLISION@@YAXK_N@Z
; Line 389
	li           r8,1
	li           r7,2
	lfs          fr3,rot$86538+8(r1)		; 312 (138h)
	lfs          fr2,rot$86538+4(r1)		; 308 (134h)
	lfs          fr1,rot$86538(r1)		; 304 (130h)
	lwz          r3,ent$86543(r1)		; 296 (128h)
	bl           ?SET_ENTITY_ROTATION@@YAXKMMMK_N@Z
; Line 390
	li           r10,1
	li           r9,0
	li           r8,0
	li           r7,0
	lfs          fr3,pos$86544+8(r1)		; 344 (158h)
	lfs          fr2,pos$86544+4(r1)		; 340 (154h)
	lfs          fr1,pos$86544(r1)		; 336 (150h)
	lwz          r3,ent$86543(r1)		; 296 (128h)
	bl           ?SET_ENTITY_COORDS@@YAXKMMMKKKK@Z
; Line 391
	bl           ?LOAD_ALL_OBJECTS_NOW@@YAXXZ
; Line 392
	li           r4,24		; 18h
	li           r3,0
	bl           ?IS_CONTROL_PRESSED@@YA_NKK@Z
	clrlwi       r5,r3,24
	cmpwi        cr6,r5,0
	beq          cr6,$LN74@Timer
; Line 394
	lwz          r11,ent$86543(r1)		; 296 (128h)
	lis          r10,?_Vehicle@@3KA
	lwz          r9,?_Vehicle@@3KA(r10)
	cmplw        cr6,r11,r9
	bne          cr6,$LN73@Timer
; Line 396
	li           r4,0
	lwz          r3,ent$86543(r1)		; 296 (128h)
	bl           ?SET_ENTITY_COLLISION@@YAXK_N@Z
; Line 397
	li           r8,1
	li           r7,2
	lfs          fr3,rot$86538+8(r1)		; 312 (138h)
	lfs          fr2,rot$86538+4(r1)		; 308 (134h)
	lfs          fr1,rot$86538(r1)		; 304 (130h)
	lwz          r3,ent$86543(r1)		; 296 (128h)
	bl           ?SET_ENTITY_ROTATION@@YAXKMMMK_N@Z
$LN73@Timer:
; Line 399
	li           r10,1
	li           r9,0
	li           r8,0
	li           r7,0
	lfs          fr0,dir$86536+8(r1)		; 328 (148h)
	lfs          fr13,d$86540(r1)		; 316 (13Ch)
	fmuls        fr12,fr0,fr13
	lfs          fr11,pos$86544+8(r1)		; 344 (158h)
	fadds        fr3,fr11,fr12
	lfs          fr10,dir$86536+4(r1)		; 324 (144h)
	lfs          fr9,d$86540(r1)		; 316 (13Ch)
	fmuls        fr8,fr10,fr9
	lfs          fr7,pos$86544+4(r1)		; 340 (154h)
	fadds        fr2,fr7,fr8
	lfs          fr6,dir$86536(r1)		; 320 (140h)
	lfs          fr5,d$86540(r1)		; 316 (13Ch)
	fmuls        fr4,fr6,fr5
	lfs          fr1,pos$86544(r1)		; 336 (150h)
	fadds        fr1,fr1,fr4
	lwz          r3,ent$86543(r1)		; 296 (128h)
	bl           ?SET_ENTITY_COORDS@@YAXKMMMKKKK@Z
; Line 400
	bl           ?LOAD_ALL_OBJECTS_NOW@@YAXXZ
$LN74@Timer:
; Line 406
	lis          r11,?_Vehicle@@3KA
	lwz          r10,?_Vehicle@@3KA(r11)
	cmplwi       cr6,r10,0
	beq          cr6,$LN58@Timer
; Line 409
	lis          r11,?Toggle_FlyingBikes@@3_NA
	lbz          r10,?Toggle_FlyingBikes@@3_NA(r11)
	cmpwi        cr6,r10,0
	beq          cr6,$LN67@Timer
; Line 411
	lis          r11,?_Ped@@3KA
	lwz          r3,?_Ped@@3KA(r11)
	bl           ?IS_PED_ON_ANY_BIKE@@YA_NK@Z
	clrlwi       r10,r3,24
	cmpwi        cr6,r10,0
	beq          cr6,$LN67@Timer
; Line 413
	lis          r11,?Controller@@3PAVButtonMonitor@@A
	lwz          r10,?Controller@@3PAVButtonMonitor@@A(r11)
	lbz          r9,3Fh(r10)
	cmpwi        cr6,r9,0
	beq          cr6,$LN68@Timer
; Line 414
	lis          r11,?_Vehicle@@3KA
	lwz          r3,?_Vehicle@@3KA(r11)
	bl           ?IS_VEHICLE_ON_ALL_WHEELS@@YA_NK@Z
	clrlwi       r10,r3,24
	cmpwi        cr6,r10,0
	bne          cr6,$LN68@Timer
; Line 415
	lis          r11,?_Vehicle@@3KA
	lwz          r3,?_Vehicle@@3KA(r11)
	bl           ?GET_ENTITY_SPEED@@YAMK@Z
	lis          r10,__real@3ff0cccccccccccd
	lfd          fr0,__real@3ff0cccccccccccd(r10)
	fdiv         fr13,fr1,fr0
	frsp         fr1,fr13
	lis          r9,?_Vehicle@@3KA
	lwz          r3,?_Vehicle@@3KA(r9)
	bl           ?SET_VEHICLE_FORWARD_SPEED@@YAXKM@Z
$LN68@Timer:
; Line 417
	lis          r11,?Controller@@3PAVButtonMonitor@@A
	lwz          r10,?Controller@@3PAVButtonMonitor@@A(r11)
	lbz          r9,41h(r10)
	cmpwi        cr6,r9,0
	beq          cr6,$LN67@Timer
; Line 418
	lis          r11,?_Vehicle@@3KA
	lwz          r3,?_Vehicle@@3KA(r11)
	bl           ?GET_ENTITY_SPEED@@YAMK@Z
	lis          r10,__real@3ff0cccccccccccd
	lfd          fr0,__real@3ff0cccccccccccd(r10)
	fmul         fr13,fr1,fr0
	frsp         fr1,fr13
	lis          r9,?_Vehicle@@3KA
	lwz          r3,?_Vehicle@@3KA(r9)
	bl           ?SET_VEHICLE_FORWARD_SPEED@@YAXKM@Z
$LN67@Timer:
; Line 424
	lis          r11,?Toggle_HandbrakeDrift@@3_NA
	lbz          r10,?Toggle_HandbrakeDrift@@3_NA(r11)
	cmpwi        cr6,r10,0
	beq          cr6,$LN66@Timer
; Line 426
	lis          r11,?Controller@@3PAVButtonMonitor@@A
	lwz          r10,?Controller@@3PAVButtonMonitor@@A(r11)
	lbz          r4,25h(r10)
	lis          r9,?_Vehicle@@3KA
	lwz          r3,?_Vehicle@@3KA(r9)
	bl           ?SET_VEHICLE_REDUCE_GRIP@@YAXK_N@Z
$LN66@Timer:
; Line 431
	lis          r11,?Toggle_Hydraulics@@3_NA
	lbz          r10,?Toggle_Hydraulics@@3_NA(r11)
	cmpwi        cr6,r10,0
	beq          cr6,$LN63@Timer
; Line 433
	lis          r11,?Controller@@3PAVButtonMonitor@@A
	lwz          r10,?Controller@@3PAVButtonMonitor@@A(r11)
	lbz          r9,33h(r10)
	cmpwi        cr6,r9,0
	beq          cr6,$LN63@Timer
; Line 434
	lis          r11,?_Vehicle@@3KA
	lwz          r3,?_Vehicle@@3KA(r11)
	bl           ?IS_VEHICLE_ON_ALL_WHEELS@@YA_NK@Z
	clrlwi       r10,r3,24
	cmpwi        cr6,r10,0
	beq          cr6,$LN63@Timer
; Line 435
	li           r11,1
	stb          r11,7Fh(r1)
	li           r10,0
	stb          r10,77h(r1)
	li           r9,0
	stb          r9,6Fh(r1)
	li           r8,1
	stb          r8,67h(r1)
	li           r7,1
	stb          r7,5Fh(r1)
	li           r6,0
	stb          r6,57h(r1)
	lis          r5,__real@c28c0000
	lfs          fr6,__real@c28c0000(r5)
	lis          r4,__real@00000000
	lfs          fr5,__real@00000000(r4)
	lis          r3,__real@00000000
	lfs          fr4,__real@00000000(r3)
	lis          r11,__real@428c0000
	lfs          fr3,__real@428c0000(r11)
	lis          r10,__real@00000000
	lfs          fr2,__real@00000000(r10)
	lis          r9,__real@00000000
	lfs          fr1,__real@00000000(r9)
	li           r4,0
	lis          r8,?_Vehicle@@3KA
	lwz          r3,?_Vehicle@@3KA(r8)
	bl           ?APPLY_FORCE_TO_ENTITY@@YAXKKMMMMMM_N00000@Z
$LN63@Timer:
; Line 440
	lis          r11,?Toggle_NOS@@3_NA
	lbz          r10,?Toggle_NOS@@3_NA(r11)
	cmpwi        cr6,r10,0
	beq          cr6,$LN61@Timer
; Line 442
	lis          r11,?_Player@@3KA
	lwz          r3,?_Player@@3KA(r11)
	bl           ?IS_PLAYER_PRESSING_HORN@@YA_NK@Z
	stb          r3,horn$86558(r1)		; 348 (15Ch)
; Line 443
	lbz          r4,horn$86558(r1)		; 348 (15Ch)
	lis          r10,?_Vehicle@@3KA
	lwz          r3,?_Vehicle@@3KA(r10)
	bl           ?SET_VEHICLE_BOOST_ACTIVE@@YAXK_N@Z
; Line 444
	lbz          r9,horn$86558(r1)		; 348 (15Ch)
	cmpwi        cr6,r9,0
	beq          cr6,$LN61@Timer
; Line 445
	li           r11,1
	stb          r11,7Fh(r1)
	li           r10,0
	stb          r10,77h(r1)
	li           r9,1
	stb          r9,6Fh(r1)
	li           r8,1
	stb          r8,67h(r1)
	li           r7,1
	stb          r7,5Fh(r1)
	li           r6,0
	stb          r6,57h(r1)
	lis          r5,__real@00000000
	lfs          fr6,__real@00000000(r5)
	lis          r4,__real@00000000
	lfs          fr5,__real@00000000(r4)
	lis          r3,__real@00000000
	lfs          fr4,__real@00000000(r3)
	lis          r11,__real@00000000
	lfs          fr3,__real@00000000(r11)
	lis          r10,__real@41a00000
	lfs          fr2,__real@41a00000(r10)
	lis          r9,__real@00000000
	lfs          fr1,__real@00000000(r9)
	li           r4,0
	lis          r8,?_Vehicle@@3KA
	lwz          r3,?_Vehicle@@3KA(r8)
	bl           ?APPLY_FORCE_TO_ENTITY@@YAXKKMMMMMM_N00000@Z
$LN61@Timer:
; Line 450
	lis          r11,?Toggle_RainbowPaint@@3_NA
	lbz          r10,?Toggle_RainbowPaint@@3_NA(r11)
	cmpwi        cr6,r10,0
	beq          cr6,$LN60@Timer
; Line 452
	lbz          r6,RGB$+2(r1)		; 130 (82h)
	lbz          r5,RGB$+1(r1)		; 129 (81h)
	lbz          r4,RGB$(r1)		; 128 (80h)
	lis          r11,?_Vehicle@@3KA
	lwz          r3,?_Vehicle@@3KA(r11)
	bl           ?SET_VEHICLE_CUSTOM_PRIMARY_COLOUR@@YAXKEEE@Z
; Line 453
	lbz          r6,RGB$(r1)		; 128 (80h)
	lbz          r5,RGB$+2(r1)		; 130 (82h)
	lbz          r4,RGB$+1(r1)		; 129 (81h)
	lis          r10,?_Vehicle@@3KA
	lwz          r3,?_Vehicle@@3KA(r10)
	bl           ?SET_VEHICLE_CUSTOM_SECONDARY_COLOUR@@YAXKEEE@Z
$LN60@Timer:
; Line 458
	lis          r11,?Toggle_RainbowSmoke@@3_NA
	lbz          r10,?Toggle_RainbowSmoke@@3_NA(r11)
	cmpwi        cr6,r10,0
	beq          cr6,$LN59@Timer
; Line 460
	lbz          r6,RGB$(r1)		; 128 (80h)
	lbz          r5,RGB$+1(r1)		; 129 (81h)
	lbz          r4,RGB$+2(r1)		; 130 (82h)
	lis          r11,?_Vehicle@@3KA
	lwz          r3,?_Vehicle@@3KA(r11)
	bl           ?SET_VEHICLE_TYRE_SMOKE_COLOR@@YAXKEEE@Z
$LN59@Timer:
; Line 465
	lis          r11,?Toggle_Speedometer@@3_NA
	lbz          r10,?Toggle_Speedometer@@3_NA(r11)
	cmpwi        cr6,r10,0
	beq          cr6,$LN58@Timer
; Line 467
	lis          r11,?_Vehicle@@3KA
	lwz          r3,?_Vehicle@@3KA(r11)
	bl           ?GET_ENTITY_SPEED@@YAMK@Z
	stfs         fr1,mps$86563(r1)		; 360 (168h)
; Line 468
	lfs          fr0,mps$86563(r1)		; 360 (168h)
	lis          r10,__real@400f2a06
	lfs          fr13,__real@400f2a06(r10)
	fmuls        fr12,fr0,fr13
	stfs         fr12,mph$86564(r1)		; 352 (160h)
; Line 469
	lfs          fr11,mph$86564(r1)		; 352 (160h)
	lis          r9,__real@3ff9bfdf7e8038a0
	lfd          fr10,__real@3ff9bfdf7e8038a0(r9)
	fmul         fr9,fr11,fr10
	frsp         fr8,fr9
	stfs         fr8,kmh$86565(r1)		; 356 (164h)
; Line 471
	lfs          fr2,kmh$86565(r1)		; 356 (164h)
	stfd         fr2,28h(r1)
	ld           r6,28h(r1)
	lfs          fr1,mph$86564(r1)		; 352 (160h)
	stfd         fr1,20h(r1)
	ld           r5,20h(r1)
	lis          r8,??_C@_0BA@KHKAIFAB@MPH?3?5?$CFf?6KMH?3?5?$CFf?$AA@
	addi         r4,r8,??_C@_0BA@KHKAIFAB@MPH?3?5?$CFf?6KMH?3?5?$CFf?$AA@
	lwz          r3,speedotext$86566(r1)		; 364 (16Ch)
	bl           sprintf
; Line 472
	lis          r7,__real@3f800000
	lfs          fr6,__real@3f800000(r7)
	lis          r6,__real@00000000
	lfs          fr5,__real@00000000(r6)
	li           r5,0
	stb          r5,6Fh(r1)
	li           r4,1
	stb          r4,67h(r1)
	li           r3,255		; 0FFh
	stb          r3,5Fh(r1)
	li           r11,255		; 0FFh
	stb          r11,57h(r1)
	li           r10,255		; 0FFh
	li           r9,255		; 0FFh
	lis          r8,__real@3eb33333
	lfs          fr4,__real@3eb33333(r8)
	lis          r7,__real@3eb33333
	lfs          fr3,__real@3eb33333(r7)
	lis          r6,__real@3d4ccccd
	lfs          fr2,__real@3d4ccccd(r6)
	lis          r5,__real@3e99999a
	lfs          fr1,__real@3e99999a(r5)
	li           r4,0
	lwz          r3,speedotext$86566(r1)		; 364 (16Ch)
	bl           ?_DISPLAY_TEXT@@YAXPADKMMMMEEEE_N1MM@Z
$LN58@Timer:
; Line 479
	lis          r11,?Toggle_ExplosiveAmmo@@3_NA
	lbz          r10,?Toggle_ExplosiveAmmo@@3_NA(r11)
	cmpwi        cr6,r10,0
	beq          cr6,$LN57@Timer
; Line 480
	lis          r11,?_Player@@3KA
	lwz          r3,?_Player@@3KA(r11)
	bl           ?SET_EXPLOSIVE_AMMO_THIS_FRAME@@YAXK@Z
$LN57@Timer:
; Line 481
	lis          r11,?Toggle_FireAmmo@@3_NA
	lbz          r10,?Toggle_FireAmmo@@3_NA(r11)
	cmpwi        cr6,r10,0
	beq          cr6,$LN56@Timer
; Line 482
	lis          r11,?_Player@@3KA
	lwz          r3,?_Player@@3KA(r11)
	bl           ?SET_FIRE_AMMO_THIS_FRAME@@YAXK@Z
$LN56@Timer:
; Line 483
	lis          r11,?Toggle_TeleportGun@@3_NA
	lbz          r10,?Toggle_TeleportGun@@3_NA(r11)
	cmpwi        cr6,r10,0
	beq          cr6,$LN55@Timer
	lis          r11,?_Ped@@3KA
	lwz          r3,?_Ped@@3KA(r11)
	bl           ?IS_PED_SHOOTING@@YA_NK@Z
	clrlwi       r10,r3,24
	cmpwi        cr6,r10,0
	beq          cr6,$LN55@Timer
; Line 484
	lis          r11,?_Ped@@3KA
	lwz          r4,?_Ped@@3KA(r11)
	addi         r3,r1,$T90043
	bl           ?GET_PED_LAST_WEAPON_IMPACT_COORD@@YA?AU_Vector3@@K@Z
	mr           r10,r3
	ld           r3,0(r10)
	lwz          r9,8(r10)
	rldicr       r4,r9,32,31
	bl           ?_TELEPORT@@YAXU_Vector3@@@Z
$LN55@Timer:
; Line 485
	lis          r11,?Toggle_SuperJump@@3_NA
	lbz          r10,?Toggle_SuperJump@@3_NA(r11)
	cmpwi        cr6,r10,0
	beq          cr6,$LN54@Timer
; Line 486
	lis          r11,?_Player@@3KA
	lwz          r3,?_Player@@3KA(r11)
	bl           ?SET_SUPER_JUMP_THIS_FRAME@@YAXK@Z
$LN54@Timer:
; Line 487
	lis          r11,?Toggle_SupermanPunch@@3_NA
	lbz          r10,?Toggle_SupermanPunch@@3_NA(r11)
	cmpwi        cr6,r10,0
	beq          cr6,$LN53@Timer
; Line 488
	lis          r11,?_Player@@3KA
	lwz          r3,?_Player@@3KA(r11)
	bl           ?SET_EXPLOSIVE_MELEE_THIS_FRAME@@YAXK@Z
$LN53@Timer:
; Line 492
	lis          r11,?Toggle_Whiplash@@3_NA
	lbz          r10,?Toggle_Whiplash@@3_NA(r11)
	cmpwi        cr6,r10,0
	beq          cr6,$LN51@Timer
; Line 494
	lis          r11,?_Vehicle@@3KA
	lwz          r10,?_Vehicle@@3KA(r11)
	cmplwi       cr6,r10,0
	bne          cr6,$LN51@Timer
	lis          r11,?Controller@@3PAVButtonMonitor@@A
	lwz          r10,?Controller@@3PAVButtonMonitor@@A(r11)
	lbz          r9,23h(r10)
	cmpwi        cr6,r9,0
	beq          cr6,$LN51@Timer
; Line 495
	lis          r11,__real@41200000
	lfs          fr3,__real@41200000(r11)
	lis          r10,__real@00000000
	lfs          fr2,__real@00000000(r10)
	lis          r9,__real@00000000
	lfs          fr1,__real@00000000(r9)
	addi         r3,r1,$T90044
	bl           ??0_Vector3@@QAA@MMM@Z
	ld           r4,0(r3)
	lwz          r8,8(r3)
	rldicr       r5,r8,32,31
	lis          r7,?_Ped@@3KA
	lwz          r3,?_Ped@@3KA(r7)
	bl           ?_APPLY_RELATIVE_FORCE@@YAXKU_Vector3@@@Z
$LN51@Timer:
; Line 500
	lis          r11,?Zombies_Toggle@@3_NA
	lbz          r10,?Zombies_Toggle@@3_NA(r11)
	cmpwi        cr6,r10,0
	beq          cr6,$LN50@Timer
; Line 502
	lis          r11,__real@00000000
	lfs          fr1,__real@00000000(r11)
	bl           ?SET_VEHICLE_DENSITY_MULTIPLIER_THIS_FRAME@@YAXM@Z
; Line 503
	lis          r10,__real@00000000
	lfs          fr1,__real@00000000(r10)
	bl           ?SET_RANDOM_VEHICLE_DENSITY_MULTIPLIER_THIS_FRAME@@YAXM@Z
$LN50@Timer:
; Line 508
	lis          r11,?Menu_Open@@3_NA
	lbz          r10,?Menu_Open@@3_NA(r11)
	cmpwi        cr6,r10,0
	beq          cr6,$LN49@Timer
; Line 510
	lis          r11,?mdCurrentMenu@@3VMenuDisplay@@A
	addi         r3,r11,?mdCurrentMenu@@3VMenuDisplay@@A
	bl           ?Clear@MenuDisplay@@QAAXXZ
; Line 511
	lis          r10,?Menu_Index@@3KA
	lwz          r9,?Menu_Index@@3KA(r10)
	cmplwi       cr6,r9,0
	bne          cr6,$LN48@Timer
	addi         r11,r1,$T90045
	stw          r11,$T90046(r1)		; 568 (238h)
	lis          r10,?mdMainMenu@@3VMenuDisplay@@A
	addi         r4,r10,?mdMainMenu@@3VMenuDisplay@@A
	lwz          r3,$T90046(r1)		; 568 (238h)
	bl           ??0MenuDisplay@@QAA@ABV0@@Z
	mr           r4,r3
	lis          r9,?mdCurrentMenu@@3VMenuDisplay@@A
	addi         r3,r9,?mdCurrentMenu@@3VMenuDisplay@@A
	bl           ?Copy@MenuDisplay@@QAAXV1@@Z
	b            $LN4@Timer
$LN48@Timer:
; Line 512
	lis          r11,?Menu_Index@@3KA
	lwz          r10,?Menu_Index@@3KA(r11)
	cmplwi       cr6,r10,1
	bne          cr6,$LN46@Timer
	addi         r11,r1,$T90047
	stw          r11,$T90048(r1)		; 600 (258h)
	lis          r10,?mdMainMods@@3VMenuDisplay@@A
	addi         r4,r10,?mdMainMods@@3VMenuDisplay@@A
	lwz          r3,$T90048(r1)		; 600 (258h)
	bl           ??0MenuDisplay@@QAA@ABV0@@Z
	mr           r4,r3
	lis          r9,?mdCurrentMenu@@3VMenuDisplay@@A
	addi         r3,r9,?mdCurrentMenu@@3VMenuDisplay@@A
	bl           ?Copy@MenuDisplay@@QAAXV1@@Z
	b            $LN4@Timer
$LN46@Timer:
; Line 513
	lis          r11,?Menu_Index@@3KA
	lwz          r10,?Menu_Index@@3KA(r11)
	cmplwi       cr6,r10,2
	bne          cr6,$LN44@Timer
	addi         r11,r1,$T90049
	stw          r11,$T90050(r1)		; 632 (278h)
	lis          r10,?mdPlayerMods@@3VMenuDisplay@@A
	addi         r4,r10,?mdPlayerMods@@3VMenuDisplay@@A
	lwz          r3,$T90050(r1)		; 632 (278h)
	bl           ??0MenuDisplay@@QAA@ABV0@@Z
	mr           r4,r3
	lis          r9,?mdCurrentMenu@@3VMenuDisplay@@A
	addi         r3,r9,?mdCurrentMenu@@3VMenuDisplay@@A
	bl           ?Copy@MenuDisplay@@QAAXV1@@Z
	b            $LN4@Timer
$LN44@Timer:
; Line 514
	lis          r11,?Menu_Index@@3KA
	lwz          r10,?Menu_Index@@3KA(r11)
	cmplwi       cr6,r10,3
	bne          cr6,$LN42@Timer
	lis          r11,?mdPlayerMods_OnlinePlayers@@3VMenuDisplay@@A
	addi         r3,r11,?mdPlayerMods_OnlinePlayers@@3VMenuDisplay@@A
	bl           ?Clear@MenuDisplay@@QAAXXZ
	li           r10,0
	stw          r10,i$86589(r1)		; 368 (170h)
	b            $LN41@Timer
$LN40@Timer:
	lwz          r11,i$86589(r1)		; 368 (170h)
	addi         r10,r11,1
	stw          r10,i$86589(r1)		; 368 (170h)
$LN41@Timer:
	lwz          r11,i$86589(r1)		; 368 (170h)
	cmpwi        cr6,r11,16		; 10h
	bge          cr6,$LN39@Timer
	lwz          r3,i$86589(r1)		; 368 (170h)
	bl           ?GET_PLAYER_NAME@@YAPADK@Z
	mr           r4,r3
	lis          r11,?mdPlayerMods_OnlinePlayers@@3VMenuDisplay@@A
	addi         r3,r11,?mdPlayerMods_OnlinePlayers@@3VMenuDisplay@@A
	bl           ?AddOption@MenuDisplay@@QAAXPAD@Z
	b            $LN40@Timer
$LN39@Timer:
	li           r11,16		; 10h
	stw          r11,i$86593(r1)		; 372 (174h)
	b            $LN38@Timer
$LN37@Timer:
	lwz          r11,i$86593(r1)		; 372 (174h)
	addi         r10,r11,1
	stw          r10,i$86593(r1)		; 372 (174h)
$LN38@Timer:
	lwz          r11,i$86593(r1)		; 372 (174h)
	cmpwi        cr6,r11,18		; 12h
	bge          cr6,$LN36@Timer
	lwz          r3,i$86593(r1)		; 372 (174h)
	bl           ?GET_PLAYER_NAME@@YAPADK@Z
	mr           r4,r3
	lis          r11,??_C@_0O@EGHBNPME@?$HOr?$HOSCTV?$HOw?$HO?5?$CFs?$AA@
	addi         r3,r11,??_C@_0O@EGHBNPME@?$HOr?$HOSCTV?$HOw?$HO?5?$CFs?$AA@
	bl           ?va@@YAPADPAD0ZZ
	mr           r4,r3
	lis          r10,?mdPlayerMods_OnlinePlayers@@3VMenuDisplay@@A
	addi         r3,r10,?mdPlayerMods_OnlinePlayers@@3VMenuDisplay@@A
	bl           ?AddOption@MenuDisplay@@QAAXPAD@Z
	b            $LN37@Timer
$LN36@Timer:
	addi         r11,r1,$T90051
	stw          r11,$T90052(r1)		; 664 (298h)
	lis          r10,?mdPlayerMods_OnlinePlayers@@3VMenuDisplay@@A
	addi         r4,r10,?mdPlayerMods_OnlinePlayers@@3VMenuDisplay@@A
	lwz          r3,$T90052(r1)		; 664 (298h)
	bl           ??0MenuDisplay@@QAA@ABV0@@Z
	mr           r4,r3
	lis          r9,?mdCurrentMenu@@3VMenuDisplay@@A
	addi         r3,r9,?mdCurrentMenu@@3VMenuDisplay@@A
	bl           ?Copy@MenuDisplay@@QAAXV1@@Z
	b            $LN4@Timer
$LN42@Timer:
; Line 515
	lis          r11,?Menu_Index@@3KA
	lwz          r10,?Menu_Index@@3KA(r11)
	cmplwi       cr6,r10,4
	bne          cr6,$LN34@Timer
	lis          r11,?Menu_SelectedPlayer@@3KA
	lwz          r3,?Menu_SelectedPlayer@@3KA(r11)
	bl           ?GET_PLAYER_NAME@@YAPADK@Z
	mr           r4,r3
	lis          r10,?mdPlayerMods_OnlinePlayers_SelectedPlayer@@3VMenuDisplay@@A
	lwz          r3,?mdPlayerMods_OnlinePlayers_SelectedPlayer@@3VMenuDisplay@@A(r10)
	bl           ?va@@YAPADPAD0ZZ
	mr           r4,r3
	lis          r9,?mdPlayerMods_OnlinePlayers_SelectedPlayer@@3VMenuDisplay@@A
	addi         r3,r9,?mdPlayerMods_OnlinePlayers_SelectedPlayer@@3VMenuDisplay@@A
	bl           ?SetTitle@MenuDisplay@@QAAXPAD@Z
	addi         r8,r1,$T90053
	stw          r8,$T90054(r1)		; 696 (2B8h)
	lis          r7,?mdPlayerMods_OnlinePlayers_SelectedPlayer@@3VMenuDisplay@@A
	addi         r4,r7,?mdPlayerMods_OnlinePlayers_SelectedPlayer@@3VMenuDisplay@@A
	lwz          r3,$T90054(r1)		; 696 (2B8h)
	bl           ??0MenuDisplay@@QAA@ABV0@@Z
	mr           r4,r3
	lis          r6,?mdCurrentMenu@@3VMenuDisplay@@A
	addi         r3,r6,?mdCurrentMenu@@3VMenuDisplay@@A
	bl           ?Copy@MenuDisplay@@QAAXV1@@Z
	b            $LN4@Timer
$LN34@Timer:
; Line 516
	lis          r11,?Menu_Index@@3KA
	lwz          r10,?Menu_Index@@3KA(r11)
	cmplwi       cr6,r10,5
	bne          cr6,$LN32@Timer
	lis          r11,?Menu_SelectedPlayer@@3KA
	lwz          r3,?Menu_SelectedPlayer@@3KA(r11)
	bl           ?GET_PLAYER_NAME@@YAPADK@Z
	mr           r4,r3
	lis          r10,?mdPlayerMods_OnlinePlayers_SelectedPlayer_CashDropOptions@@3VMenuDisplay@@A
	lwz          r3,?mdPlayerMods_OnlinePlayers_SelectedPlayer_CashDropOptions@@3VMenuDisplay@@A(r10)
	bl           ?va@@YAPADPAD0ZZ
	mr           r4,r3
	lis          r9,?mdPlayerMods_OnlinePlayers_SelectedPlayer_CashDropOptions@@3VMenuDisplay@@A
	addi         r3,r9,?mdPlayerMods_OnlinePlayers_SelectedPlayer_CashDropOptions@@3VMenuDisplay@@A
	bl           ?SetTitle@MenuDisplay@@QAAXPAD@Z
	addi         r8,r1,$T90055
	stw          r8,$T90056(r1)		; 728 (2D8h)
	lis          r7,?mdPlayerMods_OnlinePlayers_SelectedPlayer_CashDropOptions@@3VMenuDisplay@@A
	addi         r4,r7,?mdPlayerMods_OnlinePlayers_SelectedPlayer_CashDropOptions@@3VMenuDisplay@@A
	lwz          r3,$T90056(r1)		; 728 (2D8h)
	bl           ??0MenuDisplay@@QAA@ABV0@@Z
	mr           r4,r3
	lis          r6,?mdCurrentMenu@@3VMenuDisplay@@A
	addi         r3,r6,?mdCurrentMenu@@3VMenuDisplay@@A
	bl           ?Copy@MenuDisplay@@QAAXV1@@Z
	b            $LN4@Timer
$LN32@Timer:
; Line 517
	lis          r11,?Menu_Index@@3KA
	lwz          r10,?Menu_Index@@3KA(r11)
	cmplwi       cr6,r10,6
	bne          cr6,$LN30@Timer
	lis          r11,?Menu_SelectedPlayer@@3KA
	lwz          r3,?Menu_SelectedPlayer@@3KA(r11)
	bl           ?GET_PLAYER_NAME@@YAPADK@Z
	mr           r4,r3
	lis          r10,?mdPlayerMods_OnlinePlayers_SelectedPlayer_ExplosionOptions@@3VMenuDisplay@@A
	lwz          r3,?mdPlayerMods_OnlinePlayers_SelectedPlayer_ExplosionOptions@@3VMenuDisplay@@A(r10)
	bl           ?va@@YAPADPAD0ZZ
	mr           r4,r3
	lis          r9,?mdPlayerMods_OnlinePlayers_SelectedPlayer_ExplosionOptions@@3VMenuDisplay@@A
	addi         r3,r9,?mdPlayerMods_OnlinePlayers_SelectedPlayer_ExplosionOptions@@3VMenuDisplay@@A
	bl           ?SetTitle@MenuDisplay@@QAAXPAD@Z
	addi         r8,r1,$T90057
	stw          r8,$T90058(r1)		; 760 (2F8h)
	lis          r7,?mdPlayerMods_OnlinePlayers_SelectedPlayer_ExplosionOptions@@3VMenuDisplay@@A
	addi         r4,r7,?mdPlayerMods_OnlinePlayers_SelectedPlayer_ExplosionOptions@@3VMenuDisplay@@A
	lwz          r3,$T90058(r1)		; 760 (2F8h)
	bl           ??0MenuDisplay@@QAA@ABV0@@Z
	mr           r4,r3
	lis          r6,?mdCurrentMenu@@3VMenuDisplay@@A
	addi         r3,r6,?mdCurrentMenu@@3VMenuDisplay@@A
	bl           ?Copy@MenuDisplay@@QAAXV1@@Z
	b            $LN4@Timer
$LN30@Timer:
; Line 518
	lis          r11,?Menu_Index@@3KA
	lwz          r10,?Menu_Index@@3KA(r11)
	cmplwi       cr6,r10,8
	bne          cr6,$LN28@Timer
	lis          r11,?Menu_SelectedPlayer@@3KA
	lwz          r3,?Menu_SelectedPlayer@@3KA(r11)
	bl           ?GET_PLAYER_NAME@@YAPADK@Z
	mr           r4,r3
	lis          r10,?mdPlayerMods_OnlinePlayers_SelectedPlayer_WeaponOptions@@3VMenuDisplay@@A
	lwz          r3,?mdPlayerMods_OnlinePlayers_SelectedPlayer_WeaponOptions@@3VMenuDisplay@@A(r10)
	bl           ?va@@YAPADPAD0ZZ
	mr           r4,r3
	lis          r9,?mdPlayerMods_OnlinePlayers_SelectedPlayer_WeaponOptions@@3VMenuDisplay@@A
	addi         r3,r9,?mdPlayerMods_OnlinePlayers_SelectedPlayer_WeaponOptions@@3VMenuDisplay@@A
	bl           ?SetTitle@MenuDisplay@@QAAXPAD@Z
	addi         r8,r1,$T90059
	stw          r8,$T90060(r1)		; 792 (318h)
	lis          r7,?mdPlayerMods_OnlinePlayers_SelectedPlayer_WeaponOptions@@3VMenuDisplay@@A
	addi         r4,r7,?mdPlayerMods_OnlinePlayers_SelectedPlayer_WeaponOptions@@3VMenuDisplay@@A
	lwz          r3,$T90060(r1)		; 792 (318h)
	bl           ??0MenuDisplay@@QAA@ABV0@@Z
	mr           r4,r3
	lis          r6,?mdCurrentMenu@@3VMenuDisplay@@A
	addi         r3,r6,?mdCurrentMenu@@3VMenuDisplay@@A
	bl           ?Copy@MenuDisplay@@QAAXV1@@Z
	b            $LN4@Timer
$LN28@Timer:
; Line 519
	lis          r11,?Menu_Index@@3KA
	lwz          r10,?Menu_Index@@3KA(r11)
	cmplwi       cr6,r10,9
	bne          cr6,$LN26@Timer
	lis          r11,?Menu_SelectedPlayer@@3KA
	lwz          r3,?Menu_SelectedPlayer@@3KA(r11)
	bl           ?GET_PLAYER_NAME@@YAPADK@Z
	mr           r4,r3
	lis          r10,?mdPlayerMods_OnlinePlayers_SelectedPlayer_VehicleOptions@@3VMenuDisplay@@A
	lwz          r3,?mdPlayerMods_OnlinePlayers_SelectedPlayer_VehicleOptions@@3VMenuDisplay@@A(r10)
	bl           ?va@@YAPADPAD0ZZ
	mr           r4,r3
	lis          r9,?mdPlayerMods_OnlinePlayers_SelectedPlayer_VehicleOptions@@3VMenuDisplay@@A
	addi         r3,r9,?mdPlayerMods_OnlinePlayers_SelectedPlayer_VehicleOptions@@3VMenuDisplay@@A
	bl           ?SetTitle@MenuDisplay@@QAAXPAD@Z
	addi         r8,r1,$T90061
	stw          r8,$T90062(r1)		; 824 (338h)
	lis          r7,?mdPlayerMods_OnlinePlayers_SelectedPlayer_VehicleOptions@@3VMenuDisplay@@A
	addi         r4,r7,?mdPlayerMods_OnlinePlayers_SelectedPlayer_VehicleOptions@@3VMenuDisplay@@A
	lwz          r3,$T90062(r1)		; 824 (338h)
	bl           ??0MenuDisplay@@QAA@ABV0@@Z
	mr           r4,r3
	lis          r6,?mdCurrentMenu@@3VMenuDisplay@@A
	addi         r3,r6,?mdCurrentMenu@@3VMenuDisplay@@A
	bl           ?Copy@MenuDisplay@@QAAXV1@@Z
	b            $LN4@Timer
$LN26@Timer:
; Line 520
	lis          r11,?Menu_Index@@3KA
	lwz          r10,?Menu_Index@@3KA(r11)
	cmplwi       cr6,r10,7
	bne          cr6,$LN24@Timer
	lis          r11,?Menu_SelectedPlayer@@3KA
	lwz          r3,?Menu_SelectedPlayer@@3KA(r11)
	bl           ?GET_PLAYER_NAME@@YAPADK@Z
	mr           r4,r3
	lis          r10,?mdPlayerMods_OnlinePlayers_SelectedPlayer_TeleportOptions@@3VMenuDisplay@@A
	lwz          r3,?mdPlayerMods_OnlinePlayers_SelectedPlayer_TeleportOptions@@3VMenuDisplay@@A(r10)
	bl           ?va@@YAPADPAD0ZZ
	mr           r4,r3
	lis          r9,?mdPlayerMods_OnlinePlayers_SelectedPlayer_TeleportOptions@@3VMenuDisplay@@A
	addi         r3,r9,?mdPlayerMods_OnlinePlayers_SelectedPlayer_TeleportOptions@@3VMenuDisplay@@A
	bl           ?SetTitle@MenuDisplay@@QAAXPAD@Z
	addi         r8,r1,$T90063
	stw          r8,$T90064(r1)		; 856 (358h)
	lis          r7,?mdPlayerMods_OnlinePlayers_SelectedPlayer_TeleportOptions@@3VMenuDisplay@@A
	addi         r4,r7,?mdPlayerMods_OnlinePlayers_SelectedPlayer_TeleportOptions@@3VMenuDisplay@@A
	lwz          r3,$T90064(r1)		; 856 (358h)
	bl           ??0MenuDisplay@@QAA@ABV0@@Z
	mr           r4,r3
	lis          r6,?mdCurrentMenu@@3VMenuDisplay@@A
	addi         r3,r6,?mdCurrentMenu@@3VMenuDisplay@@A
	bl           ?Copy@MenuDisplay@@QAAXV1@@Z
	b            $LN4@Timer
$LN24@Timer:
; Line 521
	lis          r11,?Menu_Index@@3KA
	lwz          r10,?Menu_Index@@3KA(r11)
	cmplwi       cr6,r10,10		; 0Ah
	bne          cr6,$LN22@Timer
	addi         r11,r1,$T90065
	stw          r11,$T90066(r1)		; 888 (378h)
	lis          r10,?mdWeaponMods@@3VMenuDisplay@@A
	addi         r4,r10,?mdWeaponMods@@3VMenuDisplay@@A
	lwz          r3,$T90066(r1)		; 888 (378h)
	bl           ??0MenuDisplay@@QAA@ABV0@@Z
	mr           r4,r3
	lis          r9,?mdCurrentMenu@@3VMenuDisplay@@A
	addi         r3,r9,?mdCurrentMenu@@3VMenuDisplay@@A
	bl           ?Copy@MenuDisplay@@QAAXV1@@Z
	b            $LN4@Timer
$LN22@Timer:
; Line 522
	lis          r11,?Menu_Index@@3KA
	lwz          r10,?Menu_Index@@3KA(r11)
	cmplwi       cr6,r10,11		; 0Bh
	bne          cr6,$LN20@Timer
	addi         r11,r1,$T90067
	stw          r11,$T90068(r1)		; 920 (398h)
	lis          r10,?mdWeaponMods_CannonOptions@@3VMenuDisplay@@A
	addi         r4,r10,?mdWeaponMods_CannonOptions@@3VMenuDisplay@@A
	lwz          r3,$T90068(r1)		; 920 (398h)
	bl           ??0MenuDisplay@@QAA@ABV0@@Z
	mr           r4,r3
	lis          r9,?mdCurrentMenu@@3VMenuDisplay@@A
	addi         r3,r9,?mdCurrentMenu@@3VMenuDisplay@@A
	bl           ?Copy@MenuDisplay@@QAAXV1@@Z
	b            $LN4@Timer
$LN20@Timer:
; Line 523
	lis          r11,?Menu_Index@@3KA
	lwz          r10,?Menu_Index@@3KA(r11)
	cmplwi       cr6,r10,12		; 0Ch
	bne          cr6,$LN18@Timer
	addi         r11,r1,$T90069
	stw          r11,$T90070(r1)		; 952 (3B8h)
	lis          r10,?mdVehicleMods@@3VMenuDisplay@@A
	addi         r4,r10,?mdVehicleMods@@3VMenuDisplay@@A
	lwz          r3,$T90070(r1)		; 952 (3B8h)
	bl           ??0MenuDisplay@@QAA@ABV0@@Z
	mr           r4,r3
	lis          r9,?mdCurrentMenu@@3VMenuDisplay@@A
	addi         r3,r9,?mdCurrentMenu@@3VMenuDisplay@@A
	bl           ?Copy@MenuDisplay@@QAAXV1@@Z
	b            $LN4@Timer
$LN18@Timer:
; Line 524
	lis          r11,?Menu_Index@@3KA
	lwz          r10,?Menu_Index@@3KA(r11)
	cmplwi       cr6,r10,13		; 0Dh
	bne          cr6,$LN16@Timer
	addi         r11,r1,$T90071
	stw          r11,$T90072(r1)		; 984 (3D8h)
	lis          r10,?mdVehicleMods_VehicleEditor@@3VMenuDisplay@@A
	addi         r4,r10,?mdVehicleMods_VehicleEditor@@3VMenuDisplay@@A
	lwz          r3,$T90072(r1)		; 984 (3D8h)
	bl           ??0MenuDisplay@@QAA@ABV0@@Z
	mr           r4,r3
	lis          r9,?mdCurrentMenu@@3VMenuDisplay@@A
	addi         r3,r9,?mdCurrentMenu@@3VMenuDisplay@@A
	bl           ?Copy@MenuDisplay@@QAAXV1@@Z
	b            $LN4@Timer
$LN16@Timer:
; Line 525
	lis          r11,?Menu_Index@@3KA
	lwz          r10,?Menu_Index@@3KA(r11)
	cmplwi       cr6,r10,32		; 20h
	bne          cr6,$LN14@Timer
	addi         r11,r1,$T90073
	stw          r11,$T90074(r1)		; 1016 (3F8h)
	lis          r10,?mdVehicleMods_VehicleSpawner@@3VMenuDisplay@@A
	addi         r4,r10,?mdVehicleMods_VehicleSpawner@@3VMenuDisplay@@A
	lwz          r3,$T90074(r1)		; 1016 (3F8h)
	bl           ??0MenuDisplay@@QAA@ABV0@@Z
	mr           r4,r3
	lis          r9,?mdCurrentMenu@@3VMenuDisplay@@A
	addi         r3,r9,?mdCurrentMenu@@3VMenuDisplay@@A
	bl           ?Copy@MenuDisplay@@QAAXV1@@Z
	b            $LN4@Timer
$LN14@Timer:
; Line 526
	lis          r11,?Menu_Index@@3KA
	lwz          r10,?Menu_Index@@3KA(r11)
	cmplwi       cr6,r10,54		; 36h
	bne          cr6,$LN12@Timer
	addi         r11,r1,$T90075
	stw          r11,$T90076(r1)		; 1048 (418h)
	lis          r10,?mdWorldEditor@@3VMenuDisplay@@A
	addi         r4,r10,?mdWorldEditor@@3VMenuDisplay@@A
	lwz          r3,$T90076(r1)		; 1048 (418h)
	bl           ??0MenuDisplay@@QAA@ABV0@@Z
	mr           r4,r3
	lis          r9,?mdCurrentMenu@@3VMenuDisplay@@A
	addi         r3,r9,?mdCurrentMenu@@3VMenuDisplay@@A
	bl           ?Copy@MenuDisplay@@QAAXV1@@Z
	b            $LN4@Timer
$LN12@Timer:
; Line 527
	lis          r11,?Menu_Index@@3KA
	lwz          r10,?Menu_Index@@3KA(r11)
	cmplwi       cr6,r10,55		; 37h
	bne          cr6,$LN10@Timer
	addi         r11,r1,$T90077
	stw          r11,$T90078(r1)		; 1080 (438h)
	lis          r10,?mdWorldEditor_Forge@@3VMenuDisplay@@A
	addi         r4,r10,?mdWorldEditor_Forge@@3VMenuDisplay@@A
	lwz          r3,$T90078(r1)		; 1080 (438h)
	bl           ??0MenuDisplay@@QAA@ABV0@@Z
	mr           r4,r3
	lis          r9,?mdCurrentMenu@@3VMenuDisplay@@A
	addi         r3,r9,?mdCurrentMenu@@3VMenuDisplay@@A
	bl           ?Copy@MenuDisplay@@QAAXV1@@Z
	b            $LN4@Timer
$LN10@Timer:
; Line 528
	lis          r11,?Menu_Index@@3KA
	lwz          r10,?Menu_Index@@3KA(r11)
	cmplwi       cr6,r10,56		; 38h
	bne          cr6,$LN8@Timer
	addi         r11,r1,$T90079
	stw          r11,$T90080(r1)		; 1112 (458h)
	lis          r10,?mdWorldEditor_Forge_ObjectEditor@@3VMenuDisplay@@A
	addi         r4,r10,?mdWorldEditor_Forge_ObjectEditor@@3VMenuDisplay@@A
	lwz          r3,$T90080(r1)		; 1112 (458h)
	bl           ??0MenuDisplay@@QAA@ABV0@@Z
	mr           r4,r3
	lis          r9,?mdCurrentMenu@@3VMenuDisplay@@A
	addi         r3,r9,?mdCurrentMenu@@3VMenuDisplay@@A
	bl           ?Copy@MenuDisplay@@QAAXV1@@Z
	b            $LN4@Timer
$LN8@Timer:
; Line 529
	lis          r11,?Menu_Index@@3KA
	lwz          r10,?Menu_Index@@3KA(r11)
	cmplwi       cr6,r10,57		; 39h
	bne          cr6,$LN6@Timer
	addi         r11,r1,$T90081
	stw          r11,$T90082(r1)		; 1144 (478h)
	lis          r10,?mdWorldEditor_Weather@@3VMenuDisplay@@A
	addi         r4,r10,?mdWorldEditor_Weather@@3VMenuDisplay@@A
	lwz          r3,$T90082(r1)		; 1144 (478h)
	bl           ??0MenuDisplay@@QAA@ABV0@@Z
	mr           r4,r3
	lis          r9,?mdCurrentMenu@@3VMenuDisplay@@A
	addi         r3,r9,?mdCurrentMenu@@3VMenuDisplay@@A
	bl           ?Copy@MenuDisplay@@QAAXV1@@Z
	b            $LN4@Timer
$LN6@Timer:
; Line 530
	lis          r11,?Menu_Index@@3KA
	lwz          r10,?Menu_Index@@3KA(r11)
	cmplwi       cr6,r10,58		; 3Ah
	bne          cr6,$LN4@Timer
	addi         r11,r1,$T90083
	stw          r11,$T90084(r1)		; 1176 (498h)
	lis          r10,?mdTeleportMenu@@3VMenuDisplay@@A
	addi         r4,r10,?mdTeleportMenu@@3VMenuDisplay@@A
	lwz          r3,$T90084(r1)		; 1176 (498h)
	bl           ??0MenuDisplay@@QAA@ABV0@@Z
	mr           r4,r3
	lis          r9,?mdCurrentMenu@@3VMenuDisplay@@A
	addi         r3,r9,?mdCurrentMenu@@3VMenuDisplay@@A
	bl           ?Copy@MenuDisplay@@QAAXV1@@Z
$LN4@Timer:
; Line 532
	bl           ?_DISABLE_CONTROLS@@YAXXZ
; Line 534
	lis          r11,__real@3f800000
	lfs          fr6,__real@3f800000(r11)
	lis          r10,__real@00000000
	lfs          fr5,__real@00000000(r10)
	li           r9,0
	stb          r9,6Fh(r1)
	li           r8,1
	stb          r8,67h(r1)
	li           r7,255		; 0FFh
	stb          r7,5Fh(r1)
	li           r6,255		; 0FFh
	stb          r6,57h(r1)
	li           r10,0
	li           r9,0
	lis          r5,__real@3f266666
	lfs          fr4,__real@3f266666(r5)
	lis          r4,__real@3f266666
	lfs          fr3,__real@3f266666(r4)
	lis          r3,__real@3dcccccd
	lfs          fr2,__real@3dcccccd(r3)
	lis          r11,__real@3eae147b
	lfs          fr1,__real@3eae147b(r11)
	li           r4,1
	lis          r8,??_C@_0BD@JJMGBALB@The?5Saiyan?5Project?$AA@
	addi         r3,r8,??_C@_0BD@JJMGBALB@The?5Saiyan?5Project?$AA@
	bl           ?_DISPLAY_TEXT@@YAXPADKMMMMEEEE_N1MM@Z
; Line 535
	lis          r7,__real@3f800000
	lfs          fr6,__real@3f800000(r7)
	lis          r6,__real@00000000
	lfs          fr5,__real@00000000(r6)
	li           r5,0
	stb          r5,6Fh(r1)
	li           r4,1
	stb          r4,67h(r1)
	li           r3,255		; 0FFh
	stb          r3,5Fh(r1)
	lbz          r11,RGB$+1(r1)		; 129 (81h)
	stb          r11,57h(r1)
	lbz          r10,RGB$(r1)		; 128 (80h)
	lbz          r9,RGB$+2(r1)		; 130 (82h)
	lis          r8,__real@3eb33333
	lfs          fr4,__real@3eb33333(r8)
	lis          r7,__real@3eb33333
	lfs          fr3,__real@3eb33333(r7)
	lis          r6,?Menu_Scroll@@3KA
	lwz          r5,?Menu_Scroll@@3KA(r6)
	rldicl       r4,r5,0,32
	std          r4,4A0h(r1)
	lfd          fr0,4A0h(r1)
	fcfid        fr13,fr0
	lis          r3,__real@3f9eb851eb851eb8
	lfd          fr12,__real@3f9eb851eb851eb8(r3)
	fmul         fr11,fr13,fr12
	lis          r11,__real@3fc999999999999a
	lfd          fr10,__real@3fc999999999999a(r11)
	fadd         fr9,fr10,fr11
	frsp         fr2,fr9
	lis          r8,__real@3ec28f5c
	lfs          fr1,__real@3ec28f5c(r8)
	li           r4,0
	lis          r7,??_C@_01PPODPGHN@?$DO?$AA@
	addi         r3,r7,??_C@_01PPODPGHN@?$DO?$AA@
	bl           ?_DISPLAY_TEXT@@YAXPADKMMMMEEEE_N1MM@Z
; Line 537
	lis          r6,__real@3f800000
	lfs          fr6,__real@3f800000(r6)
	lis          r5,__real@00000000
	lfs          fr5,__real@00000000(r5)
	li           r4,0
	stb          r4,6Fh(r1)
	li           r3,1
	stb          r3,67h(r1)
	li           r11,255		; 0FFh
	stb          r11,5Fh(r1)
	li           r10,255		; 0FFh
	stb          r10,57h(r1)
	li           r10,255		; 0FFh
	li           r9,255		; 0FFh
	lis          r8,__real@3f000000
	lfs          fr4,__real@3f000000(r8)
	lis          r7,__real@3f000000
	lfs          fr3,__real@3f000000(r7)
	lis          r6,__real@3e19999a
	lfs          fr2,__real@3e19999a(r6)
	lis          r5,__real@3eb851ec
	lfs          fr1,__real@3eb851ec(r5)
	li           r4,0
	lis          r3,?mdCurrentMenu@@3VMenuDisplay@@A
	lwz          r3,?mdCurrentMenu@@3VMenuDisplay@@A(r3)
	bl           ?_DISPLAY_TEXT@@YAXPADKMMMMEEEE_N1MM@Z
; Line 538
	li           r11,0
	stw          r11,i$86649(r1)		; 376 (178h)
	b            $LN3@Timer
$LN2@Timer:
	lwz          r11,i$86649(r1)		; 376 (178h)
	addi         r10,r11,1
	stw          r10,i$86649(r1)		; 376 (178h)
$LN3@Timer:
	lwz          r11,i$86649(r1)		; 376 (178h)
	lis          r10,?mdCurrentMenu@@3VMenuDisplay@@A
	addi         r9,r10,?mdCurrentMenu@@3VMenuDisplay@@A
	lwz          r8,4(r9)
	cmplw        cr6,r11,r8
	bge          cr6,$LN1@Timer
; Line 539
	lis          r11,__real@3f800000
	lfs          fr31,__real@3f800000(r11)
	lis          r10,__real@00000000
	lfs          fr30,__real@00000000(r10)
	lis          r9,__real@3eb33333
	lfs          fr29,__real@3eb33333(r9)
	lis          r8,__real@3eb33333
	lfs          fr28,__real@3eb33333(r8)
	lwz          r7,i$86649(r1)		; 376 (178h)
	extsw        r6,r7
	std          r6,4A8h(r1)
	lfd          fr0,4A8h(r1)
	fcfid        fr13,fr0
	lis          r5,__real@3f9eb851eb851eb8
	lfd          fr12,__real@3f9eb851eb851eb8(r5)
	fmul         fr11,fr13,fr12
	lis          r4,__real@3fc999999999999a
	lfd          fr10,__real@3fc999999999999a(r4)
	fadd         fr9,fr10,fr11
	frsp         fr27,fr9
	lis          r3,__real@3ecccccd
	lfs          fr26,__real@3ecccccd(r3)
	lwz          r4,i$86649(r1)		; 376 (178h)
	lis          r11,?mdCurrentMenu@@3VMenuDisplay@@A
	addi         r10,r11,?mdCurrentMenu@@3VMenuDisplay@@A
	addi         r3,r10,8
	bl           ??A?$vector@PADV?$allocator@PAD@std@@@std@@QAAAAPADI@Z
	lwz          r3,0(r3)
	li           r4,0
	fmr          fr1,fr26
	fmr          fr2,fr27
	fmr          fr3,fr28
	fmr          fr4,fr29
	li           r9,255		; 0FFh
	li           r10,255		; 0FFh
	li           r8,255		; 0FFh
	stb          r8,57h(r1)
	li           r7,255		; 0FFh
	stb          r7,5Fh(r1)
	li           r6,1
	stb          r6,67h(r1)
	li           r5,0
	stb          r5,6Fh(r1)
	fmr          fr5,fr30
	fmr          fr6,fr31
	bl           ?_DISPLAY_TEXT@@YAXPADKMMMMEEEE_N1MM@Z
	b            $LN2@Timer
$LN1@Timer:
; Line 541
	lis          r11,??_C@_0BI@OMEGJCHD@The?5Saiyan?5Project?5v0?48?$AA@
	addi         r3,r11,??_C@_0BI@OMEGJCHD@The?5Saiyan?5Project?5v0?48?$AA@
	bl           ?_PRINT_HELP_TEXT@@YAXPADZZ
$LN49@Timer:
; Line 830
	addi         r1,r1,1264		; 4F0h
	addi         r12,r1,-8		; 0FFF8h
	bl           __restfpr_26
	lwz          r12,-8(r1)
	mtlr         r12
	blr
$M90152:
; End code for function: ?Timer@@YAXXZ
?Timer@@YAXXZ ENDP
							; Timer
; Function compile flags: /Odtu

	.code

??0_Vector3@@QAA@MMM@Z PROC NEAR				; _Vector3::_Vector3, COMDAT

; Begin code for function: ??0_Vector3@@QAA@MMM@Z
; File c:\users\s7clutch\documents\visual studio 2010\projects\the saiyan project\src\globals.h
; Line 1920
	stw          r3,this$(r1)		; 20 (14h)
	stfs         fr1,x$(r1)		; 28 (1Ch)
	stfs         fr2,y$(r1)		; 36 (24h)
	stfs         fr3,z$(r1)		; 44 (2Ch)
; Line 1922
	lfs          fr0,x$(r1)		; 28 (1Ch)
	lwz          r11,this$(r1)		; 20 (14h)
	stfs         fr0,0(r11)
	lwz          r10,this$(r1)		; 20 (14h)
	lfs          fr13,y$(r1)		; 36 (24h)
	stfs         fr13,4(r10)
	lwz          r9,this$(r1)		; 20 (14h)
	lfs          fr12,z$(r1)		; 44 (2Ch)
	stfs         fr12,8(r9)
; Line 1923
	lwz          r3,this$(r1)		; 20 (14h)
	blr
; End code for function: ??0_Vector3@@QAA@MMM@Z
??0_Vector3@@QAA@MMM@Z ENDP
							; _Vector3::_Vector3
;	COMDAT .pdata
.pdata	SEGMENT
$T90161	DD	??H_Vector3@@QAA?AU0@U0@@Z
	DD	040001a03H
; Function compile flags: /Odtu

	.code

??H_Vector3@@QAA?AU0@U0@@Z PROC NEAR			; _Vector3::operator+, COMDAT

; Begin code for function: ??H_Vector3@@QAA?AU0@U0@@Z
; Line 1933
	mflr         r12
	stw          r12,-8(r1)
	stwu         r1,-60h(r1)
.endprolog
$M90159:
	stw          r3,__$ReturnUdt$(r1)		; 116 (74h)
	stw          r4,this$(r1)		; 124 (7Ch)
	std          r5,Vector$(r1)
	std          r6,Vector$+8(r1)
; Line 1934
	lwz          r11,this$(r1)		; 124 (7Ch)
	lfs          fr0,8(r11)
	lfs          fr13,Vector$+8(r1)		; 136 (88h)
	fadds        fr3,fr0,fr13
	lwz          r10,this$(r1)		; 124 (7Ch)
	lfs          fr12,4(r10)
	lfs          fr11,Vector$+4(r1)		; 132 (84h)
	fadds        fr2,fr12,fr11
	lwz          r9,this$(r1)		; 124 (7Ch)
	lfs          fr10,0(r9)
	lfs          fr9,Vector$(r1)		; 128 (80h)
	fadds        fr1,fr10,fr9
	lwz          r3,__$ReturnUdt$(r1)		; 116 (74h)
	bl           ??0_Vector3@@QAA@MMM@Z
	lwz          r3,__$ReturnUdt$(r1)		; 116 (74h)
; Line 1935
	addi         r1,r1,96		; 60h
	lwz          r12,-8(r1)
	mtlr         r12
	blr
$M90160:
; End code for function: ??H_Vector3@@QAA?AU0@U0@@Z
??H_Vector3@@QAA?AU0@U0@@Z ENDP
							; _Vector3::operator+
PUBLIC	?push_back@?$vector@PADV?$allocator@PAD@std@@@std@@QAAXABQAD@Z ; std::vector<char *,std::allocator<char *> >::push_back
;	COMDAT .pdata
; File c:\users\s7clutch\documents\visual studio 2010\projects\the saiyan project\src\menudisplay.h
.pdata	SEGMENT
$T90167	DD	?AddOption@MenuDisplay@@QAAXPAD@Z
	DD	040001203H
; Function compile flags: /Odtu

	.code

?AddOption@MenuDisplay@@QAAXPAD@Z PROC NEAR		; MenuDisplay::AddOption, COMDAT

; Begin code for function: ?AddOption@MenuDisplay@@QAAXPAD@Z
; Line 20
	mflr         r12
	stw          r12,-8(r1)
	stwu         r1,-60h(r1)
.endprolog
$M90165:
	stw          r3,this$(r1)		; 116 (74h)
	stw          r4,option$(r1)		; 124 (7Ch)
; Line 21
	lwz          r11,this$(r1)		; 116 (74h)
	lwz          r10,4(r11)
	addi         r9,r10,1
	lwz          r8,this$(r1)		; 116 (74h)
	stw          r9,4(r8)
; Line 22
	addi         r4,r1,option$
	lwz          r7,this$(r1)		; 116 (74h)
	addi         r3,r7,8
	bl           ?push_back@?$vector@PADV?$allocator@PAD@std@@@std@@QAAXABQAD@Z
; Line 23
	addi         r1,r1,96		; 60h
	lwz          r12,-8(r1)
	mtlr         r12
	blr
$M90166:
; End code for function: ?AddOption@MenuDisplay@@QAAXPAD@Z
?AddOption@MenuDisplay@@QAAXPAD@Z ENDP
							; MenuDisplay::AddOption
PUBLIC	?clear@?$vector@PADV?$allocator@PAD@std@@@std@@QAAXXZ ; std::vector<char *,std::allocator<char *> >::clear
;	COMDAT .pdata
.pdata	SEGMENT
$T90173	DD	?Clear@MenuDisplay@@QAAXXZ
	DD	040000e03H
; Function compile flags: /Odtu

	.code

?Clear@MenuDisplay@@QAAXXZ PROC NEAR			; MenuDisplay::Clear, COMDAT

; Begin code for function: ?Clear@MenuDisplay@@QAAXXZ
; Line 25
	mflr         r12
	stw          r12,-8(r1)
	stwu         r1,-60h(r1)
.endprolog
$M90171:
	stw          r3,this$(r1)		; 116 (74h)
; Line 26
	lwz          r11,this$(r1)		; 116 (74h)
	li           r10,0
	stw          r10,4(r11)
; Line 27
	lwz          r9,this$(r1)		; 116 (74h)
	addi         r3,r9,8
	bl           ?clear@?$vector@PADV?$allocator@PAD@std@@@std@@QAAXXZ
; Line 28
	addi         r1,r1,96		; 60h
	lwz          r12,-8(r1)
	mtlr         r12
	blr
$M90172:
; End code for function: ?Clear@MenuDisplay@@QAAXXZ
?Clear@MenuDisplay@@QAAXXZ ENDP
							; MenuDisplay::Clear
PUBLIC	??1MenuDisplay@@QAA@XZ				; MenuDisplay::~MenuDisplay
PUBLIC	??4?$vector@PADV?$allocator@PAD@std@@@std@@QAAAAV01@ABV01@@Z ; std::vector<char *,std::allocator<char *> >::operator=
;	COMDAT .pdata
.pdata	SEGMENT
$T90179	DD	?Copy@MenuDisplay@@QAAXV1@@Z
	DD	040001803H
; Function compile flags: /Odtu

	.code

?Copy@MenuDisplay@@QAAXV1@@Z PROC NEAR			; MenuDisplay::Copy, COMDAT

; Begin code for function: ?Copy@MenuDisplay@@QAAXV1@@Z
; Line 30
	mflr         r12
	stw          r12,-8(r1)
	stwu         r1,-60h(r1)
.endprolog
$M90177:
	stw          r3,this$(r1)		; 116 (74h)
	stw          r4,display$(r1)		; 124 (7Ch)
; Line 31
	lwz          r11,display$(r1)		; 124 (7Ch)
	lwz          r10,0(r11)
	lwz          r9,this$(r1)		; 116 (74h)
	stw          r10,0(r9)
; Line 32
	lwz          r8,display$(r1)		; 124 (7Ch)
	lwz          r7,this$(r1)		; 116 (74h)
	lwz          r6,4(r8)
	stw          r6,4(r7)
; Line 33
	lwz          r5,display$(r1)		; 124 (7Ch)
	addi         r4,r5,8
	lwz          r3,this$(r1)		; 116 (74h)
	addi         r3,r3,8
	bl           ??4?$vector@PADV?$allocator@PAD@std@@@std@@QAAAAV01@ABV01@@Z
; Line 34
	lwz          r3,display$(r1)		; 124 (7Ch)
	bl           ??1MenuDisplay@@QAA@XZ
	addi         r1,r1,96		; 60h
	lwz          r12,-8(r1)
	mtlr         r12
	blr
$M90178:
; End code for function: ?Copy@MenuDisplay@@QAAXV1@@Z
?Copy@MenuDisplay@@QAAXV1@@Z ENDP
							; MenuDisplay::Copy
EXTRN	strcpy:PROC
;	COMDAT .pdata
.pdata	SEGMENT
$T90185	DD	?SetTitle@MenuDisplay@@QAAXPAD@Z
	DD	040000d03H
; Function compile flags: /Odtu

	.code

?SetTitle@MenuDisplay@@QAAXPAD@Z PROC NEAR		; MenuDisplay::SetTitle, COMDAT

; Begin code for function: ?SetTitle@MenuDisplay@@QAAXPAD@Z
; Line 40
	mflr         r12
	stw          r12,-8(r1)
	stwu         r1,-60h(r1)
.endprolog
$M90183:
	stw          r3,this$(r1)		; 116 (74h)
	stw          r4,title$(r1)		; 124 (7Ch)
; Line 41
	lwz          r4,title$(r1)		; 124 (7Ch)
	lwz          r11,this$(r1)		; 116 (74h)
	lwz          r3,0(r11)
	bl           strcpy
; Line 42
	addi         r1,r1,96		; 60h
	lwz          r12,-8(r1)
	mtlr         r12
	blr
$M90184:
; End code for function: ?SetTitle@MenuDisplay@@QAAXPAD@Z
?SetTitle@MenuDisplay@@QAAXPAD@Z ENDP
							; MenuDisplay::SetTitle
PUBLIC	??1?$vector@PADV?$allocator@PAD@std@@@std@@QAA@XZ ; std::vector<char *,std::allocator<char *> >::~vector<char *,std::allocator<char *> >
;	COMDAT .pdata
.pdata	SEGMENT
$T90191	DD	??1MenuDisplay@@QAA@XZ
	DD	040000b03H
; Function compile flags: /Odtu

	.code

??1MenuDisplay@@QAA@XZ PROC NEAR				; MenuDisplay::~MenuDisplay, COMDAT

; Begin code for function: ??1MenuDisplay@@QAA@XZ
	mflr         r12
	stw          r12,-8(r1)
	stwu         r1,-60h(r1)
.endprolog
$M90189:
	stw          r3,this$(r1)		; 116 (74h)
	lwz          r11,this$(r1)		; 116 (74h)
	addi         r3,r11,8
	bl           ??1?$vector@PADV?$allocator@PAD@std@@@std@@QAA@XZ
	addi         r1,r1,96		; 60h
	lwz          r12,-8(r1)
	mtlr         r12
	blr
$M90190:
; End code for function: ??1MenuDisplay@@QAA@XZ
??1MenuDisplay@@QAA@XZ ENDP
							; MenuDisplay::~MenuDisplay
EXTRN	_time64:PROC
;	COMDAT .pdata
; File c:\program files (x86)\microsoft xbox 360 sdk\include\xbox\time.inl
.pdata	SEGMENT
$T90197	DD	time
	DD	040000a03H
; Function compile flags: /Odtu

	.code

time PROC NEAR						; COMDAT

; Begin code for function: time
; Line 128
	mflr         r12
	stw          r12,-8(r1)
	stwu         r1,-60h(r1)
.endprolog
$M90195:
	stw          r3,_Time$(r1)		; 116 (74h)
; Line 129
	lwz          r3,_Time$(r1)		; 116 (74h)
	bl           _time64
; Line 130
	addi         r1,r1,96		; 60h
	lwz          r12,-8(r1)
	mtlr         r12
	blr
$M90196:
; End code for function: time
time	ENDP

PUBLIC	??0?$vector@PADV?$allocator@PAD@std@@@std@@QAA@ABV01@@Z ; std::vector<char *,std::allocator<char *> >::vector<char *,std::allocator<char *> >
;	COMDAT .pdata
.pdata	SEGMENT
$T90203	DD	??0MenuDisplay@@QAA@ABV0@@Z
	DD	040001703H
; Function compile flags: /Odtu

	.code

??0MenuDisplay@@QAA@ABV0@@Z PROC NEAR			; MenuDisplay::MenuDisplay, COMDAT

; Begin code for function: ??0MenuDisplay@@QAA@ABV0@@Z
	mflr         r12
	stw          r12,-8(r1)
	stwu         r1,-60h(r1)
.endprolog
$M90201:
	stw          r3,this$(r1)		; 116 (74h)
	stw          r4,__that$(r1)		; 124 (7Ch)
	lwz          r11,__that$(r1)		; 124 (7Ch)
	lwz          r10,0(r11)
	lwz          r9,this$(r1)		; 116 (74h)
	stw          r10,0(r9)
	lwz          r8,__that$(r1)		; 124 (7Ch)
	lwz          r7,this$(r1)		; 116 (74h)
	lwz          r6,4(r8)
	stw          r6,4(r7)
	lwz          r5,__that$(r1)		; 124 (7Ch)
	addi         r4,r5,8
	lwz          r3,this$(r1)		; 116 (74h)
	addi         r3,r3,8
	bl           ??0?$vector@PADV?$allocator@PAD@std@@@std@@QAA@ABV01@@Z
	lwz          r3,this$(r1)		; 116 (74h)
	addi         r1,r1,96		; 60h
	lwz          r12,-8(r1)
	mtlr         r12
	blr
$M90202:
; End code for function: ??0MenuDisplay@@QAA@ABV0@@Z
??0MenuDisplay@@QAA@ABV0@@Z ENDP
							; MenuDisplay::MenuDisplay
PUBLIC	?XamUserGetNameHook@@YAKKPADK@Z			; XamUserGetNameHook
EXTRN	XamUserGetName:PROC
EXTRN	strncpy:PROC
EXTRN	?XUIDSpoof_Gamertag@@3PADA:DWORD		; XUIDSpoof_Gamertag
;	COMDAT .pdata
; File c:\users\s7clutch\documents\visual studio 2010\projects\the saiyan project\src\hooks.cpp
.pdata	SEGMENT
$T90209	DD	?XamUserGetNameHook@@YAKKPADK@Z
	DD	040001903H
; Function compile flags: /Odtu

	.code

?XamUserGetNameHook@@YAKKPADK@Z	PROC NEAR		; XamUserGetNameHook, COMDAT

; Begin code for function: ?XamUserGetNameHook@@YAKKPADK@Z
; Line 832
	mflr         r12
	stw          r12,-8(r1)
	stwu         r1,-60h(r1)
.endprolog
$M90207:
	stw          r3,dwUserIndex$(r1)		; 116 (74h)
	stw          r4,szUserName$(r1)		; 124 (7Ch)
	stw          r5,cchUserName$(r1)		; 132 (84h)
; Line 833
	lwz          r11,dwUserIndex$(r1)		; 116 (74h)
	cmplwi       cr6,r11,0
	bne          cr6,$LN2@XamUserGet
; Line 835
	lwz          r5,cchUserName$(r1)		; 132 (84h)
	lis          r10,?XUIDSpoof_Gamertag@@3PADA
	lwz          r4,?XUIDSpoof_Gamertag@@3PADA(r10)
	lwz          r3,szUserName$(r1)		; 124 (7Ch)
	bl           strncpy
; Line 836
	li           r3,0
	b            $LN3@XamUserGet
; Line 838
	b            $LN3@XamUserGet
$LN2@XamUserGet:
; Line 839
	lwz          r5,cchUserName$(r1)		; 132 (84h)
	lwz          r4,szUserName$(r1)		; 124 (7Ch)
	lwz          r3,dwUserIndex$(r1)		; 116 (74h)
	bl           XamUserGetName
$LN3@XamUserGet:
; Line 840
	addi         r1,r1,96		; 60h
	lwz          r12,-8(r1)
	mtlr         r12
	blr
$M90208:
; End code for function: ?XamUserGetNameHook@@YAKKPADK@Z
?XamUserGetNameHook@@YAKKPADK@Z ENDP
							; XamUserGetNameHook
PUBLIC	?XamUserGetXUIDHook@@YAKKKPA_K@Z		; XamUserGetXUIDHook
EXTRN	XamUserGetXUID:PROC
EXTRN	?XUIDSpoof_XUID@@3_KA:QWORD			; XUIDSpoof_XUID
;	COMDAT .pdata
.pdata	SEGMENT
$T90215	DD	?XamUserGetXUIDHook@@YAKKKPA_K@Z
	DD	040001803H
; Function compile flags: /Odtu

	.code

?XamUserGetXUIDHook@@YAKKKPA_K@Z PROC NEAR		; XamUserGetXUIDHook, COMDAT

; Begin code for function: ?XamUserGetXUIDHook@@YAKKKPA_K@Z
; Line 842
	mflr         r12
	stw          r12,-8(r1)
	stwu         r1,-60h(r1)
.endprolog
$M90213:
	stw          r3,dwUserIndex$(r1)		; 116 (74h)
	stw          r4,unk$(r1)		; 124 (7Ch)
	stw          r5,pxuid$(r1)		; 132 (84h)
; Line 843
	lwz          r11,dwUserIndex$(r1)		; 116 (74h)
	cmplwi       cr6,r11,0
	bne          cr6,$LN2@XamUserGet@2
; Line 845
	lis          r10,?XUIDSpoof_XUID@@3_KA
	ld           r9,?XUIDSpoof_XUID@@3_KA(r10)
	lwz          r8,pxuid$(r1)		; 132 (84h)
	std          r9,0(r8)
; Line 846
	li           r3,0
	b            $LN3@XamUserGet@2
; Line 848
	b            $LN3@XamUserGet@2
$LN2@XamUserGet@2:
; Line 849
	lwz          r5,pxuid$(r1)		; 132 (84h)
	lwz          r4,unk$(r1)		; 124 (7Ch)
	lwz          r3,dwUserIndex$(r1)		; 116 (74h)
	bl           XamUserGetXUID
$LN3@XamUserGet@2:
; Line 850
	addi         r1,r1,96		; 60h
	lwz          r12,-8(r1)
	mtlr         r12
	blr
$M90214:
; End code for function: ?XamUserGetXUIDHook@@YAKKKPA_K@Z
?XamUserGetXUIDHook@@YAKKKPA_K@Z ENDP
							; XamUserGetXUIDHook
PUBLIC	?XamUserGetSigninInfoHook@@YAKKKPAU_XUSER_SIGNIN_INFO@@@Z ; XamUserGetSigninInfoHook
EXTRN	XamUserGetSigninInfo:PROC
;	COMDAT .pdata
.pdata	SEGMENT
$T90221	DD	?XamUserGetSigninInfoHook@@YAKKKPAU_XUSER_SIGNIN_INFO@@@Z
	DD	040002903H
; Function compile flags: /Odtu

	.code
signinInfo$86677 = 80					; size = 4
ret$86678 = 84						; size = 4

?XamUserGetSigninInfoHook@@YAKKKPAU_XUSER_SIGNIN_INFO@@@Z PROC NEAR ; XamUserGetSigninInfoHook, COMDAT

; Begin code for function: ?XamUserGetSigninInfoHook@@YAKKKPAU_XUSER_SIGNIN_INFO@@@Z
; Line 852
	mflr         r12
	stw          r12,-8(r1)
	stwu         r1,-60h(r1)
.endprolog
$M90219:
	stw          r3,dwUserIndex$(r1)		; 116 (74h)
	stw          r4,dwFlags$(r1)		; 124 (7Ch)
	stw          r5,pSigninInfo$(r1)		; 132 (84h)
; Line 853
	lwz          r11,dwUserIndex$(r1)		; 116 (74h)
	cmplwi       cr6,r11,0
	bne          cr6,$LN2@XamUserGet@3
; Line 856
	lwz          r5,signinInfo$86677(r1)		; 80 (50h)
	lwz          r4,dwFlags$(r1)		; 124 (7Ch)
	lwz          r3,dwUserIndex$(r1)		; 116 (74h)
	bl           XamUserGetSigninInfo
	stw          r3,ret$86678(r1)		; 84 (54h)
; Line 857
	li           r5,16		; 10h
	li           r4,0
	lwz          r10,signinInfo$86677(r1)		; 80 (50h)
	addi         r3,r10,24		; 18h
	bl           memset
; Line 858
	lis          r9,?XUIDSpoof_Gamertag@@3PADA
	lwz          r4,?XUIDSpoof_Gamertag@@3PADA(r9)
	lwz          r8,signinInfo$86677(r1)		; 80 (50h)
	addi         r3,r8,24		; 18h
	bl           strcpy
; Line 859
	lis          r7,?XUIDSpoof_XUID@@3_KA
	ld           r6,?XUIDSpoof_XUID@@3_KA(r7)
	lwz          r5,signinInfo$86677(r1)		; 80 (50h)
	std          r6,0(r5)
; Line 860
	lwz          r4,signinInfo$86677(r1)		; 80 (50h)
	stw          r4,pSigninInfo$(r1)		; 132 (84h)
; Line 861
	lwz          r3,ret$86678(r1)		; 84 (54h)
	b            $LN3@XamUserGet@3
; Line 863
	b            $LN3@XamUserGet@3
$LN2@XamUserGet@3:
; Line 864
	lwz          r5,pSigninInfo$(r1)		; 132 (84h)
	lwz          r4,dwFlags$(r1)		; 124 (7Ch)
	lwz          r3,dwUserIndex$(r1)		; 116 (74h)
	bl           XamUserGetSigninInfo
$LN3@XamUserGet@3:
; Line 865
	addi         r1,r1,96		; 60h
	lwz          r12,-8(r1)
	mtlr         r12
	blr
$M90220:
; End code for function: ?XamUserGetSigninInfoHook@@YAKKKPAU_XUSER_SIGNIN_INFO@@@Z
?XamUserGetSigninInfoHook@@YAKKKPAU_XUSER_SIGNIN_INFO@@@Z ENDP
							; XamUserGetSigninInfoHook
PUBLIC	?_Tidy@?$vector@PADV?$allocator@PAD@std@@@std@@IAAXXZ ; std::vector<char *,std::allocator<char *> >::_Tidy
PUBLIC	??$_Ucopy@V?$_Vector_const_iterator@V?$_Vector_val@PADV?$allocator@PAD@std@@@std@@@std@@@?$vector@PADV?$allocator@PAD@std@@@std@@IAAPAPADV?$_Vector_const_iterator@V?$_Vector_val@PADV?$allocator@PAD@std@@@std@@@1@0PAPAD@Z ; std::vector<char *,std::allocator<char *> >::_Ucopy<std::_Vector_const_iterator<std::_Vector_val<char *,std::allocator<char *> > > >
PUBLIC	?begin@?$vector@PADV?$allocator@PAD@std@@@std@@QBA?AV?$_Vector_const_iterator@V?$_Vector_val@PADV?$allocator@PAD@std@@@std@@@2@XZ ; std::vector<char *,std::allocator<char *> >::begin
PUBLIC	?end@?$vector@PADV?$allocator@PAD@std@@@std@@QBA?AV?$_Vector_const_iterator@V?$_Vector_val@PADV?$allocator@PAD@std@@@std@@@2@XZ ; std::vector<char *,std::allocator<char *> >::end
PUBLIC	?_Buy@?$vector@PADV?$allocator@PAD@std@@@std@@IAA_NI@Z ; std::vector<char *,std::allocator<char *> >::_Buy
PUBLIC	?size@?$vector@PADV?$allocator@PAD@std@@@std@@QBAIXZ ; std::vector<char *,std::allocator<char *> >::size
PUBLIC	??0?$_Vector_val@PADV?$allocator@PAD@std@@@std@@QAA@V?$allocator@PAD@1@@Z ; std::_Vector_val<char *,std::allocator<char *> >::_Vector_val<char *,std::allocator<char *> >
PUBLIC	??0?$allocator@PAD@std@@QAA@ABV01@@Z		; std::allocator<char *>::allocator<char *>
;	COMDAT .pdata
; File c:\program files (x86)\microsoft xbox 360 sdk\include\xbox\vector
.pdata	SEGMENT
$T90231	DD	??0?$vector@PADV?$allocator@PAD@std@@@std@@QAA@ABV01@@Z
	DD	040003003H
; Function compile flags: /Odtu

	.code
$T90225 = 80						; size = 1
$T90226 = 84						; size = 4
$T90227 = 88						; size = 4
$T90228 = 92						; size = 4
tv167 = 96						; size = 4
tv164 = 100						; size = 4

??0?$vector@PADV?$allocator@PAD@std@@@std@@QAA@ABV01@@Z	PROC NEAR ; std::vector<char *,std::allocator<char *> >::vector<char *,std::allocator<char *> >, COMDAT

; Begin code for function: ??0?$vector@PADV?$allocator@PAD@std@@@std@@QAA@ABV01@@Z
; Line 535
	mflr         r12
	stw          r12,-8(r1)
	stwu         r1,-70h(r1)
.endprolog
$M90229:
	stw          r3,this$(r1)		; 132 (84h)
	stw          r4,_Right$(r1)		; 140 (8Ch)
	addi         r11,r1,$T90225
	stw          r11,$T90226(r1)		; 84 (54h)
	lwz          r10,_Right$(r1)		; 140 (8Ch)
	addi         r4,r10,12		; 0Ch
	lwz          r3,$T90226(r1)		; 84 (54h)
	bl           ??0?$allocator@PAD@std@@QAA@ABV01@@Z
	mr           r4,r3
	lwz          r3,this$(r1)		; 132 (84h)
	bl           ??0?$_Vector_val@PADV?$allocator@PAD@std@@@std@@QAA@V?$allocator@PAD@1@@Z
; Line 536
	lwz          r3,_Right$(r1)		; 140 (8Ch)
	bl           ?size@?$vector@PADV?$allocator@PAD@std@@@std@@QBAIXZ
	mr           r4,r3
	lwz          r3,this$(r1)		; 132 (84h)
	bl           ?_Buy@?$vector@PADV?$allocator@PAD@std@@@std@@IAA_NI@Z
	clrlwi       r9,r3,24
	cmpwi        cr6,r9,0
	beq          cr6,$LN3@vector
; Line 539
	lwz          r8,this$(r1)		; 132 (84h)
	lwz          r7,0(r8)
	stw          r7,60h(r1)
	addi         r3,r1,$T90227
	lwz          r4,_Right$(r1)		; 140 (8Ch)
	bl           ?end@?$vector@PADV?$allocator@PAD@std@@@std@@QBA?AV?$_Vector_const_iterator@V?$_Vector_val@PADV?$allocator@PAD@std@@@std@@@2@XZ
	lwz          r6,0(r3)
	stw          r6,64h(r1)
	addi         r3,r1,$T90228
	lwz          r4,_Right$(r1)		; 140 (8Ch)
	bl           ?begin@?$vector@PADV?$allocator@PAD@std@@@std@@QBA?AV?$_Vector_const_iterator@V?$_Vector_val@PADV?$allocator@PAD@std@@@std@@@2@XZ
	lwz          r4,0(r3)
	lwz          r3,this$(r1)		; 132 (84h)
	lwz          r5,64h(r1)
	lwz          r6,60h(r1)
	bl           ??$_Ucopy@V?$_Vector_const_iterator@V?$_Vector_val@PADV?$allocator@PAD@std@@@std@@@std@@@?$vector@PADV?$allocator@PAD@std@@@std@@IAAPAPADV?$_Vector_const_iterator@V?$_Vector_val@PADV?$allocator@PAD@std@@@std@@@1@0PAPAD@Z
	lwz          r5,this$(r1)		; 132 (84h)
	stw          r3,4(r5)
; Line 540
	b            $LN3@vector
; Line 541
	lwz          r3,this$(r1)		; 132 (84h)
	bl           ?_Tidy@?$vector@PADV?$allocator@PAD@std@@@std@@IAAXXZ
$LN3@vector:
; Line 544
	lwz          r3,this$(r1)		; 132 (84h)
	addi         r1,r1,112		; 70h
	lwz          r12,-8(r1)
	mtlr         r12
	blr
$M90230:
; End code for function: ??0?$vector@PADV?$allocator@PAD@std@@@std@@QAA@ABV01@@Z
??0?$vector@PADV?$allocator@PAD@std@@@std@@QAA@ABV01@@Z ENDP
							; std::vector<char *,std::allocator<char *> >::vector<char *,std::allocator<char *> >
PUBLIC	??1?$_Vector_val@PADV?$allocator@PAD@std@@@std@@QAA@XZ ; std::_Vector_val<char *,std::allocator<char *> >::~_Vector_val<char *,std::allocator<char *> >
;	COMDAT .pdata
.pdata	SEGMENT
$T90237	DD	??1?$vector@PADV?$allocator@PAD@std@@@std@@QAA@XZ
	DD	040000c03H
; Function compile flags: /Odtu

	.code

??1?$vector@PADV?$allocator@PAD@std@@@std@@QAA@XZ PROC NEAR ; std::vector<char *,std::allocator<char *> >::~vector<char *,std::allocator<char *> >, COMDAT

; Begin code for function: ??1?$vector@PADV?$allocator@PAD@std@@@std@@QAA@XZ
; Line 704
	mflr         r12
	stw          r12,-8(r1)
	stwu         r1,-60h(r1)
.endprolog
$M90235:
	stw          r3,this$(r1)		; 116 (74h)
; Line 705
	lwz          r3,this$(r1)		; 116 (74h)
	bl           ?_Tidy@?$vector@PADV?$allocator@PAD@std@@@std@@IAAXXZ
; Line 706
	lwz          r3,this$(r1)		; 116 (74h)
	bl           ??1?$_Vector_val@PADV?$allocator@PAD@std@@@std@@QAA@XZ
	addi         r1,r1,96		; 60h
	lwz          r12,-8(r1)
	mtlr         r12
	blr
$M90236:
; End code for function: ??1?$vector@PADV?$allocator@PAD@std@@@std@@QAA@XZ
??1?$vector@PADV?$allocator@PAD@std@@@std@@QAA@XZ ENDP
							; std::vector<char *,std::allocator<char *> >::~vector<char *,std::allocator<char *> >
PUBLIC	?deallocate@?$allocator@PAD@std@@QAAXPAPADI@Z	; std::allocator<char *>::deallocate
PUBLIC	??$_Ucopy@PAPAD@?$vector@PADV?$allocator@PAD@std@@@std@@IAAPAPADPAPAD00@Z ; std::vector<char *,std::allocator<char *> >::_Ucopy<char * *>
PUBLIC	?capacity@?$vector@PADV?$allocator@PAD@std@@@std@@QBAIXZ ; std::vector<char *,std::allocator<char *> >::capacity
PUBLIC	?_Destroy@?$vector@PADV?$allocator@PAD@std@@@std@@IAAXPAPAD0@Z ; std::vector<char *,std::allocator<char *> >::_Destroy
PUBLIC	??$_Copy_impl@PAPADPAPAD@std@@YAPAPADPAPAD00@Z	; std::_Copy_impl<char * *,char * *>
PUBLIC	?_Orphan_all@_Container_base0@std@@QAAXXZ	; std::_Container_base0::_Orphan_all
;	COMDAT .pdata
.pdata	SEGMENT
$T90243	DD	??4?$vector@PADV?$allocator@PAD@std@@@std@@QAAAAV01@ABV01@@Z
	DD	040007b04H
; Function compile flags: /Odtu

	.code
_Ptr$86829 = 80						; size = 4
_Ptr$86839 = 84						; size = 4

??4?$vector@PADV?$allocator@PAD@std@@@std@@QAAAAV01@ABV01@@Z PROC NEAR ; std::vector<char *,std::allocator<char *> >::operator=, COMDAT

; Begin code for function: ??4?$vector@PADV?$allocator@PAD@std@@@std@@QAAAAV01@ABV01@@Z
; Line 709
	mflr         r12
	stw          r12,-8(r1)
	std          r31,-10h(r1)
	stwu         r1,-70h(r1)
.endprolog
$M90241:
	stw          r3,this$(r1)		; 132 (84h)
	stw          r4,_Right$(r1)		; 140 (8Ch)
; Line 710
	lwz          r11,this$(r1)		; 132 (84h)
	lwz          r10,_Right$(r1)		; 140 (8Ch)
	cmplw        cr6,r11,r10
	beq          cr6,$LN9@operator@2
; Line 712
	lwz          r3,this$(r1)		; 132 (84h)
	bl           ?_Orphan_all@_Container_base0@std@@QAAXXZ
; Line 714
	lwz          r3,_Right$(r1)		; 140 (8Ch)
	bl           ?size@?$vector@PADV?$allocator@PAD@std@@@std@@QBAIXZ
	cmplwi       cr6,r3,0
	bne          cr6,$LN8@operator@2
; Line 715
	lwz          r3,this$(r1)		; 132 (84h)
	bl           ?clear@?$vector@PADV?$allocator@PAD@std@@@std@@QAAXXZ
	b            $LN9@operator@2
$LN8@operator@2:
; Line 716
	lwz          r3,_Right$(r1)		; 140 (8Ch)
	bl           ?size@?$vector@PADV?$allocator@PAD@std@@@std@@QBAIXZ
	mr           r31,r3
	lwz          r3,this$(r1)		; 132 (84h)
	bl           ?size@?$vector@PADV?$allocator@PAD@std@@@std@@QBAIXZ
	cmplw        cr6,r31,r3
	bgt          cr6,$LN6@operator@2
; Line 719
	lwz          r9,this$(r1)		; 132 (84h)
	lwz          r5,0(r9)
	lwz          r8,_Right$(r1)		; 140 (8Ch)
	lwz          r4,4(r8)
	lwz          r7,_Right$(r1)		; 140 (8Ch)
	lwz          r3,0(r7)
	bl           ??$_Copy_impl@PAPADPAPAD@std@@YAPAPADPAPAD00@Z
	stw          r3,_Ptr$86829(r1)		; 80 (50h)
; Line 720
	lwz          r6,this$(r1)		; 132 (84h)
	lwz          r5,4(r6)
	lwz          r4,_Ptr$86829(r1)		; 80 (50h)
	lwz          r3,this$(r1)		; 132 (84h)
	bl           ?_Destroy@?$vector@PADV?$allocator@PAD@std@@@std@@IAAXPAPAD0@Z
; Line 721
	lwz          r3,_Right$(r1)		; 140 (8Ch)
	bl           ?size@?$vector@PADV?$allocator@PAD@std@@@std@@QBAIXZ
	slwi         r5,r3,2
	lwz          r4,this$(r1)		; 132 (84h)
	lwz          r3,0(r4)
	add          r11,r3,r5
	lwz          r10,this$(r1)		; 132 (84h)
	stw          r11,4(r10)
	b            $LN9@operator@2
$LN6@operator@2:
; Line 723
	lwz          r3,_Right$(r1)		; 140 (8Ch)
	bl           ?size@?$vector@PADV?$allocator@PAD@std@@@std@@QBAIXZ
	mr           r31,r3
	lwz          r3,this$(r1)		; 132 (84h)
	bl           ?capacity@?$vector@PADV?$allocator@PAD@std@@@std@@QBAIXZ
	cmplw        cr6,r31,r3
	bgt          cr6,$LN4@operator@2
; Line 725
	lwz          r3,this$(r1)		; 132 (84h)
	bl           ?size@?$vector@PADV?$allocator@PAD@std@@@std@@QBAIXZ
	slwi         r9,r3,2
	lwz          r8,_Right$(r1)		; 140 (8Ch)
	lwz          r7,0(r8)
	add          r6,r7,r9
	stw          r6,_Ptr$86839(r1)		; 84 (54h)
; Line 726
	lwz          r5,this$(r1)		; 132 (84h)
	lwz          r5,0(r5)
	lwz          r4,_Ptr$86839(r1)		; 84 (54h)
	lwz          r3,_Right$(r1)		; 140 (8Ch)
	lwz          r3,0(r3)
	bl           ??$_Copy_impl@PAPADPAPAD@std@@YAPAPADPAPAD00@Z
; Line 727
	lwz          r11,this$(r1)		; 132 (84h)
	lwz          r6,4(r11)
	lwz          r10,_Right$(r1)		; 140 (8Ch)
	lwz          r5,4(r10)
	lwz          r4,_Ptr$86839(r1)		; 84 (54h)
	lwz          r3,this$(r1)		; 132 (84h)
	bl           ??$_Ucopy@PAPAD@?$vector@PADV?$allocator@PAD@std@@@std@@IAAPAPADPAPAD00@Z
	lwz          r9,this$(r1)		; 132 (84h)
	stw          r3,4(r9)
; Line 729
	b            $LN9@operator@2
$LN4@operator@2:
; Line 731
	lwz          r8,this$(r1)		; 132 (84h)
	lwz          r7,0(r8)
	cmplwi       cr6,r7,0
	beq          cr6,$LN2@operator@2
; Line 733
	lwz          r6,this$(r1)		; 132 (84h)
	lwz          r5,4(r6)
	lwz          r4,this$(r1)		; 132 (84h)
	lwz          r4,0(r4)
	lwz          r3,this$(r1)		; 132 (84h)
	bl           ?_Destroy@?$vector@PADV?$allocator@PAD@std@@@std@@IAAXPAPAD0@Z
; Line 735
	lwz          r3,this$(r1)		; 132 (84h)
	lwz          r11,8(r3)
	lwz          r10,this$(r1)		; 132 (84h)
	lwz          r9,0(r10)
	subf         r8,r9,r11
	srawi        r5,r8,2
	lwz          r7,this$(r1)		; 132 (84h)
	lwz          r4,0(r7)
	lwz          r6,this$(r1)		; 132 (84h)
	addi         r3,r6,12		; 0Ch
	bl           ?deallocate@?$allocator@PAD@std@@QAAXPAPADI@Z
$LN2@operator@2:
; Line 737
	lwz          r3,_Right$(r1)		; 140 (8Ch)
	bl           ?size@?$vector@PADV?$allocator@PAD@std@@@std@@QBAIXZ
	mr           r4,r3
	lwz          r3,this$(r1)		; 132 (84h)
	bl           ?_Buy@?$vector@PADV?$allocator@PAD@std@@@std@@IAA_NI@Z
	clrlwi       r5,r3,24
	cmpwi        cr6,r5,0
	beq          cr6,$LN9@operator@2
; Line 739
	lwz          r4,this$(r1)		; 132 (84h)
	lwz          r6,0(r4)
	lwz          r3,_Right$(r1)		; 140 (8Ch)
	lwz          r5,4(r3)
	lwz          r11,_Right$(r1)		; 140 (8Ch)
	lwz          r4,0(r11)
	lwz          r3,this$(r1)		; 132 (84h)
	bl           ??$_Ucopy@PAPAD@?$vector@PADV?$allocator@PAD@std@@@std@@IAAPAPADPAPAD00@Z
	lwz          r10,this$(r1)		; 132 (84h)
	stw          r3,4(r10)
$LN9@operator@2:
; Line 742
	lwz          r3,this$(r1)		; 132 (84h)
; Line 743
	addi         r1,r1,112		; 70h
	lwz          r12,-8(r1)
	mtlr         r12
	ld           r31,-10h(r1)
	blr
$M90242:
; End code for function: ??4?$vector@PADV?$allocator@PAD@std@@@std@@QAAAAV01@ABV01@@Z
??4?$vector@PADV?$allocator@PAD@std@@@std@@QAAAAV01@ABV01@@Z ENDP
							; std::vector<char *,std::allocator<char *> >::operator=
; Function compile flags: /Odtu

	.code

?_Orphan_all@_Container_base0@std@@QAAXXZ PROC NEAR	; std::_Container_base0::_Orphan_all, COMDAT

; Begin code for function: ?_Orphan_all@_Container_base0@std@@QAAXXZ
; File c:\program files (x86)\microsoft xbox 360 sdk\include\xbox\xutility
; Line 37
	stw          r3,this$(r1)		; 20 (14h)
; Line 38
	blr
; End code for function: ?_Orphan_all@_Container_base0@std@@QAAXXZ
?_Orphan_all@_Container_base0@std@@QAAXXZ ENDP
							; std::_Container_base0::_Orphan_all
; Function compile flags: /Odtu

	.code

??A?$vector@PADV?$allocator@PAD@std@@@std@@QAAAAPADI@Z PROC NEAR ; std::vector<char *,std::allocator<char *> >::operator[], COMDAT

; Begin code for function: ??A?$vector@PADV?$allocator@PAD@std@@@std@@QAAAAPADI@Z
; File c:\program files (x86)\microsoft xbox 360 sdk\include\xbox\vector
; Line 928
	stw          r3,this$(r1)		; 20 (14h)
	stw          r4,_Pos$(r1)		; 28 (1Ch)
; Line 940
	lwz          r11,_Pos$(r1)		; 28 (1Ch)
	slwi         r10,r11,2
	lwz          r9,this$(r1)		; 20 (14h)
	lwz          r8,0(r9)
	add          r3,r8,r10
; Line 941
	blr
; End code for function: ??A?$vector@PADV?$allocator@PAD@std@@@std@@QAAAAPADI@Z
??A?$vector@PADV?$allocator@PAD@std@@@std@@QAAAAPADI@Z ENDP
							; std::vector<char *,std::allocator<char *> >::operator[]
PUBLIC	??$_Cons_val@V?$allocator@PAD@std@@PADABQAD@std@@YAXAAV?$allocator@PAD@0@PAPADABQAD@Z ; std::_Cons_val<std::allocator<char *>,char *,char * const &>
PUBLIC	??$_Cons_val@V?$allocator@PAD@std@@PADAAPAD@std@@YAXAAV?$allocator@PAD@0@PAPADAAPAD@Z ; std::_Cons_val<std::allocator<char *>,char *,char * &>
PUBLIC	?_Orphan_range@?$vector@PADV?$allocator@PAD@std@@@std@@IBAXPAPAD0@Z ; std::vector<char *,std::allocator<char *> >::_Orphan_range
PUBLIC	?_Reserve@?$vector@PADV?$allocator@PAD@std@@@std@@IAAXI@Z ; std::vector<char *,std::allocator<char *> >::_Reserve
PUBLIC	?_Inside@?$vector@PADV?$allocator@PAD@std@@@std@@IBA_NPBQAD@Z ; std::vector<char *,std::allocator<char *> >::_Inside
PUBLIC	??$addressof@QAD@std@@YAPBQADABQAD@Z		; std::addressof<char * const>
;	COMDAT .pdata
.pdata	SEGMENT
$T90253	DD	?push_back@?$vector@PADV?$allocator@PAD@std@@@std@@QAAXABQAD@Z
	DD	040005103H
; Function compile flags: /Odtu

	.code
_Idx$86857 = 80						; size = 4

?push_back@?$vector@PADV?$allocator@PAD@std@@@std@@QAAXABQAD@Z PROC NEAR ; std::vector<char *,std::allocator<char *> >::push_back, COMDAT

; Begin code for function: ?push_back@?$vector@PADV?$allocator@PAD@std@@@std@@QAAXABQAD@Z
; Line 976
	mflr         r12
	stw          r12,-8(r1)
	stwu         r1,-60h(r1)
.endprolog
$M90251:
	stw          r3,this$(r1)		; 116 (74h)
	stw          r4,_Val$(r1)		; 124 (7Ch)
; Line 977
	lwz          r3,_Val$(r1)		; 124 (7Ch)
	bl           ??$addressof@QAD@std@@YAPBQADABQAD@Z
	mr           r4,r3
	lwz          r3,this$(r1)		; 116 (74h)
	bl           ?_Inside@?$vector@PADV?$allocator@PAD@std@@@std@@IBA_NPBQAD@Z
	clrlwi       r11,r3,24
	cmpwi        cr6,r11,0
	beq          cr6,$LN4@push_back
; Line 979
	lwz          r3,_Val$(r1)		; 124 (7Ch)
	bl           ??$addressof@QAD@std@@YAPBQADABQAD@Z
	lwz          r10,this$(r1)		; 116 (74h)
	lwz          r9,0(r10)
	subf         r8,r9,r3
	srawi        r7,r8,2
	stw          r7,_Idx$86857(r1)		; 80 (50h)
; Line 980
	lwz          r6,this$(r1)		; 116 (74h)
	lwz          r5,this$(r1)		; 116 (74h)
	lwz          r4,4(r6)
	lwz          r3,8(r5)
	cmplw        cr6,r4,r3
	bne          cr6,$LN3@push_back
; Line 981
	li           r4,1
	lwz          r3,this$(r1)		; 116 (74h)
	bl           ?_Reserve@?$vector@PADV?$allocator@PAD@std@@@std@@IAAXI@Z
$LN3@push_back:
; Line 982
	lwz          r11,this$(r1)		; 116 (74h)
	lwz          r5,4(r11)
	lwz          r10,this$(r1)		; 116 (74h)
	lwz          r4,4(r10)
	lwz          r3,this$(r1)		; 116 (74h)
	bl           ?_Orphan_range@?$vector@PADV?$allocator@PAD@std@@@std@@IBAXPAPAD0@Z
; Line 985
	lwz          r9,_Idx$86857(r1)		; 80 (50h)
	slwi         r8,r9,2
	lwz          r7,this$(r1)		; 116 (74h)
	lwz          r6,0(r7)
	add          r5,r6,r8
	lwz          r4,this$(r1)		; 116 (74h)
	lwz          r4,4(r4)
	lwz          r3,this$(r1)		; 116 (74h)
	addi         r3,r3,12		; 0Ch
	bl           ??$_Cons_val@V?$allocator@PAD@std@@PADAAPAD@std@@YAXAAV?$allocator@PAD@0@PAPADAAPAD@Z
; Line 986
	lwz          r11,this$(r1)		; 116 (74h)
	lwz          r10,4(r11)
	addi         r9,r10,4
	lwz          r8,this$(r1)		; 116 (74h)
	stw          r9,4(r8)
; Line 988
	b            $LN5@push_back
$LN4@push_back:
; Line 990
	lwz          r7,this$(r1)		; 116 (74h)
	lwz          r6,this$(r1)		; 116 (74h)
	lwz          r5,4(r7)
	lwz          r4,8(r6)
	cmplw        cr6,r5,r4
	bne          cr6,$LN1@push_back
; Line 991
	li           r4,1
	lwz          r3,this$(r1)		; 116 (74h)
	bl           ?_Reserve@?$vector@PADV?$allocator@PAD@std@@@std@@IAAXI@Z
$LN1@push_back:
; Line 992
	lwz          r3,this$(r1)		; 116 (74h)
	lwz          r5,4(r3)
	lwz          r11,this$(r1)		; 116 (74h)
	lwz          r4,4(r11)
	lwz          r3,this$(r1)		; 116 (74h)
	bl           ?_Orphan_range@?$vector@PADV?$allocator@PAD@std@@@std@@IBAXPAPAD0@Z
; Line 995
	lwz          r5,_Val$(r1)		; 124 (7Ch)
	lwz          r10,this$(r1)		; 116 (74h)
	lwz          r4,4(r10)
	lwz          r9,this$(r1)		; 116 (74h)
	addi         r3,r9,12		; 0Ch
	bl           ??$_Cons_val@V?$allocator@PAD@std@@PADABQAD@std@@YAXAAV?$allocator@PAD@0@PAPADABQAD@Z
; Line 996
	lwz          r8,this$(r1)		; 116 (74h)
	lwz          r7,4(r8)
	addi         r6,r7,4
	lwz          r5,this$(r1)		; 116 (74h)
	stw          r6,4(r5)
$LN5@push_back:
; Line 998
	addi         r1,r1,96		; 60h
	lwz          r12,-8(r1)
	mtlr         r12
	blr
$M90252:
; End code for function: ?push_back@?$vector@PADV?$allocator@PAD@std@@@std@@QAAXABQAD@Z
?push_back@?$vector@PADV?$allocator@PAD@std@@@std@@QAAXABQAD@Z ENDP
							; std::vector<char *,std::allocator<char *> >::push_back
PUBLIC	?erase@?$vector@PADV?$allocator@PAD@std@@@std@@QAA?AV?$_Vector_iterator@V?$_Vector_val@PADV?$allocator@PAD@std@@@std@@@2@V?$_Vector_const_iterator@V?$_Vector_val@PADV?$allocator@PAD@std@@@std@@@2@0@Z ; std::vector<char *,std::allocator<char *> >::erase
PUBLIC	?begin@?$vector@PADV?$allocator@PAD@std@@@std@@QAA?AV?$_Vector_iterator@V?$_Vector_val@PADV?$allocator@PAD@std@@@std@@@2@XZ ; std::vector<char *,std::allocator<char *> >::begin
PUBLIC	?end@?$vector@PADV?$allocator@PAD@std@@@std@@QAA?AV?$_Vector_iterator@V?$_Vector_val@PADV?$allocator@PAD@std@@@std@@@2@XZ ; std::vector<char *,std::allocator<char *> >::end
;	COMDAT .pdata
.pdata	SEGMENT
$T90264	DD	?clear@?$vector@PADV?$allocator@PAD@std@@@std@@QAAXXZ
	DD	040001703H
; Function compile flags: /Odtu

	.code
$T90257 = 80						; size = 4
$T90258 = 84						; size = 4
$T90259 = 88						; size = 4
$T90260 = 92						; size = 4
$T90261 = 96						; size = 4

?clear@?$vector@PADV?$allocator@PAD@std@@@std@@QAAXXZ PROC NEAR ; std::vector<char *,std::allocator<char *> >::clear, COMDAT

; Begin code for function: ?clear@?$vector@PADV?$allocator@PAD@std@@@std@@QAAXXZ
; Line 1217
	mflr         r12
	stw          r12,-8(r1)
	stwu         r1,-70h(r1)
.endprolog
$M90262:
	stw          r3,this$(r1)		; 132 (84h)
; Line 1218
	addi         r3,r1,$T90258
	lwz          r4,this$(r1)		; 132 (84h)
	bl           ?end@?$vector@PADV?$allocator@PAD@std@@@std@@QAA?AV?$_Vector_iterator@V?$_Vector_val@PADV?$allocator@PAD@std@@@std@@@2@XZ
	lwz          r11,0(r3)
	stw          r11,$T90257(r1)		; 80 (50h)
	addi         r3,r1,$T90260
	lwz          r4,this$(r1)		; 132 (84h)
	bl           ?begin@?$vector@PADV?$allocator@PAD@std@@@std@@QAA?AV?$_Vector_iterator@V?$_Vector_val@PADV?$allocator@PAD@std@@@std@@@2@XZ
	lwz          r10,0(r3)
	stw          r10,$T90259(r1)		; 88 (58h)
	lwz          r6,$T90257(r1)		; 80 (50h)
	lwz          r5,$T90259(r1)		; 88 (58h)
	addi         r3,r1,$T90261
	lwz          r4,this$(r1)		; 132 (84h)
	bl           ?erase@?$vector@PADV?$allocator@PAD@std@@@std@@QAA?AV?$_Vector_iterator@V?$_Vector_val@PADV?$allocator@PAD@std@@@std@@@2@V?$_Vector_const_iterator@V?$_Vector_val@PADV?$allocator@PAD@std@@@std@@@2@0@Z
; Line 1219
	addi         r1,r1,112		; 70h
	lwz          r12,-8(r1)
	mtlr         r12
	blr
$M90263:
; End code for function: ?clear@?$vector@PADV?$allocator@PAD@std@@@std@@QAAXXZ
?clear@?$vector@PADV?$allocator@PAD@std@@@std@@QAAXXZ ENDP
							; std::vector<char *,std::allocator<char *> >::clear
; Function compile flags: /Odtu

	.code

?capacity@?$vector@PADV?$allocator@PAD@std@@@std@@QBAIXZ PROC NEAR ; std::vector<char *,std::allocator<char *> >::capacity, COMDAT

; Begin code for function: ?capacity@?$vector@PADV?$allocator@PAD@std@@@std@@QBAIXZ
; Line 776
	stw          r3,this$(r1)		; 20 (14h)
; Line 777
	lwz          r11,this$(r1)		; 20 (14h)
	lwz          r10,8(r11)
	lwz          r9,this$(r1)		; 20 (14h)
	lwz          r8,0(r9)
	subf         r7,r8,r10
	srawi        r3,r7,2
; Line 778
	blr
; End code for function: ?capacity@?$vector@PADV?$allocator@PAD@std@@@std@@QBAIXZ
?capacity@?$vector@PADV?$allocator@PAD@std@@@std@@QBAIXZ ENDP
							; std::vector<char *,std::allocator<char *> >::capacity
PUBLIC	??0?$_Vector_iterator@V?$_Vector_val@PADV?$allocator@PAD@std@@@std@@@std@@QAA@PAPADPBU_Container_base0@1@@Z ; std::_Vector_iterator<std::_Vector_val<char *,std::allocator<char *> > >::_Vector_iterator<std::_Vector_val<char *,std::allocator<char *> > >
;	COMDAT .pdata
.pdata	SEGMENT
$T90272	DD	?begin@?$vector@PADV?$allocator@PAD@std@@@std@@QAA?AV?$_Vector_iterator@V?$_Vector_val@PADV?$allocator@PAD@std@@@std@@@2@XZ
	DD	040000f03H
; Function compile flags: /Odtu

	.code

?begin@?$vector@PADV?$allocator@PAD@std@@@std@@QAA?AV?$_Vector_iterator@V?$_Vector_val@PADV?$allocator@PAD@std@@@std@@@2@XZ PROC NEAR ; std::vector<char *,std::allocator<char *> >::begin, COMDAT

; Begin code for function: ?begin@?$vector@PADV?$allocator@PAD@std@@@std@@QAA?AV?$_Vector_iterator@V?$_Vector_val@PADV?$allocator@PAD@std@@@std@@@2@XZ
; Line 781
	mflr         r12
	stw          r12,-8(r1)
	stwu         r1,-60h(r1)
.endprolog
$M90270:
	stw          r3,__$ReturnUdt$(r1)		; 116 (74h)
	stw          r4,this$(r1)		; 124 (7Ch)
; Line 782
	lwz          r5,this$(r1)		; 124 (7Ch)
	lwz          r11,this$(r1)		; 124 (7Ch)
	lwz          r4,0(r11)
	lwz          r3,__$ReturnUdt$(r1)		; 116 (74h)
	bl           ??0?$_Vector_iterator@V?$_Vector_val@PADV?$allocator@PAD@std@@@std@@@std@@QAA@PAPADPBU_Container_base0@1@@Z
	lwz          r3,__$ReturnUdt$(r1)		; 116 (74h)
; Line 783
	addi         r1,r1,96		; 60h
	lwz          r12,-8(r1)
	mtlr         r12
	blr
$M90271:
; End code for function: ?begin@?$vector@PADV?$allocator@PAD@std@@@std@@QAA?AV?$_Vector_iterator@V?$_Vector_val@PADV?$allocator@PAD@std@@@std@@@2@XZ
?begin@?$vector@PADV?$allocator@PAD@std@@@std@@QAA?AV?$_Vector_iterator@V?$_Vector_val@PADV?$allocator@PAD@std@@@std@@@2@XZ ENDP
							; std::vector<char *,std::allocator<char *> >::begin
PUBLIC	??0?$_Vector_const_iterator@V?$_Vector_val@PADV?$allocator@PAD@std@@@std@@@std@@QAA@PAPADPBU_Container_base0@1@@Z ; std::_Vector_const_iterator<std::_Vector_val<char *,std::allocator<char *> > >::_Vector_const_iterator<std::_Vector_val<char *,std::allocator<char *> > >
;	COMDAT .pdata
.pdata	SEGMENT
$T90278	DD	?begin@?$vector@PADV?$allocator@PAD@std@@@std@@QBA?AV?$_Vector_const_iterator@V?$_Vector_val@PADV?$allocator@PAD@std@@@std@@@2@XZ
	DD	040000f03H
; Function compile flags: /Odtu

	.code

?begin@?$vector@PADV?$allocator@PAD@std@@@std@@QBA?AV?$_Vector_const_iterator@V?$_Vector_val@PADV?$allocator@PAD@std@@@std@@@2@XZ PROC NEAR ; std::vector<char *,std::allocator<char *> >::begin, COMDAT

; Begin code for function: ?begin@?$vector@PADV?$allocator@PAD@std@@@std@@QBA?AV?$_Vector_const_iterator@V?$_Vector_val@PADV?$allocator@PAD@std@@@std@@@2@XZ
; Line 786
	mflr         r12
	stw          r12,-8(r1)
	stwu         r1,-60h(r1)
.endprolog
$M90276:
	stw          r3,__$ReturnUdt$(r1)		; 116 (74h)
	stw          r4,this$(r1)		; 124 (7Ch)
; Line 787
	lwz          r5,this$(r1)		; 124 (7Ch)
	lwz          r11,this$(r1)		; 124 (7Ch)
	lwz          r4,0(r11)
	lwz          r3,__$ReturnUdt$(r1)		; 116 (74h)
	bl           ??0?$_Vector_const_iterator@V?$_Vector_val@PADV?$allocator@PAD@std@@@std@@@std@@QAA@PAPADPBU_Container_base0@1@@Z
	lwz          r3,__$ReturnUdt$(r1)		; 116 (74h)
; Line 788
	addi         r1,r1,96		; 60h
	lwz          r12,-8(r1)
	mtlr         r12
	blr
$M90277:
; End code for function: ?begin@?$vector@PADV?$allocator@PAD@std@@@std@@QBA?AV?$_Vector_const_iterator@V?$_Vector_val@PADV?$allocator@PAD@std@@@std@@@2@XZ
?begin@?$vector@PADV?$allocator@PAD@std@@@std@@QBA?AV?$_Vector_const_iterator@V?$_Vector_val@PADV?$allocator@PAD@std@@@std@@@2@XZ ENDP
							; std::vector<char *,std::allocator<char *> >::begin
;	COMDAT .pdata
.pdata	SEGMENT
$T90284	DD	?end@?$vector@PADV?$allocator@PAD@std@@@std@@QAA?AV?$_Vector_iterator@V?$_Vector_val@PADV?$allocator@PAD@std@@@std@@@2@XZ
	DD	040000f03H
; Function compile flags: /Odtu

	.code

?end@?$vector@PADV?$allocator@PAD@std@@@std@@QAA?AV?$_Vector_iterator@V?$_Vector_val@PADV?$allocator@PAD@std@@@std@@@2@XZ PROC NEAR ; std::vector<char *,std::allocator<char *> >::end, COMDAT

; Begin code for function: ?end@?$vector@PADV?$allocator@PAD@std@@@std@@QAA?AV?$_Vector_iterator@V?$_Vector_val@PADV?$allocator@PAD@std@@@std@@@2@XZ
; Line 791
	mflr         r12
	stw          r12,-8(r1)
	stwu         r1,-60h(r1)
.endprolog
$M90282:
	stw          r3,__$ReturnUdt$(r1)		; 116 (74h)
	stw          r4,this$(r1)		; 124 (7Ch)
; Line 792
	lwz          r5,this$(r1)		; 124 (7Ch)
	lwz          r11,this$(r1)		; 124 (7Ch)
	lwz          r4,4(r11)
	lwz          r3,__$ReturnUdt$(r1)		; 116 (74h)
	bl           ??0?$_Vector_iterator@V?$_Vector_val@PADV?$allocator@PAD@std@@@std@@@std@@QAA@PAPADPBU_Container_base0@1@@Z
	lwz          r3,__$ReturnUdt$(r1)		; 116 (74h)
; Line 793
	addi         r1,r1,96		; 60h
	lwz          r12,-8(r1)
	mtlr         r12
	blr
$M90283:
; End code for function: ?end@?$vector@PADV?$allocator@PAD@std@@@std@@QAA?AV?$_Vector_iterator@V?$_Vector_val@PADV?$allocator@PAD@std@@@std@@@2@XZ
?end@?$vector@PADV?$allocator@PAD@std@@@std@@QAA?AV?$_Vector_iterator@V?$_Vector_val@PADV?$allocator@PAD@std@@@std@@@2@XZ ENDP
							; std::vector<char *,std::allocator<char *> >::end
;	COMDAT .pdata
.pdata	SEGMENT
$T90290	DD	?end@?$vector@PADV?$allocator@PAD@std@@@std@@QBA?AV?$_Vector_const_iterator@V?$_Vector_val@PADV?$allocator@PAD@std@@@std@@@2@XZ
	DD	040000f03H
; Function compile flags: /Odtu

	.code

?end@?$vector@PADV?$allocator@PAD@std@@@std@@QBA?AV?$_Vector_const_iterator@V?$_Vector_val@PADV?$allocator@PAD@std@@@std@@@2@XZ	PROC NEAR ; std::vector<char *,std::allocator<char *> >::end, COMDAT

; Begin code for function: ?end@?$vector@PADV?$allocator@PAD@std@@@std@@QBA?AV?$_Vector_const_iterator@V?$_Vector_val@PADV?$allocator@PAD@std@@@std@@@2@XZ
; Line 796
	mflr         r12
	stw          r12,-8(r1)
	stwu         r1,-60h(r1)
.endprolog
$M90288:
	stw          r3,__$ReturnUdt$(r1)		; 116 (74h)
	stw          r4,this$(r1)		; 124 (7Ch)
; Line 797
	lwz          r5,this$(r1)		; 124 (7Ch)
	lwz          r11,this$(r1)		; 124 (7Ch)
	lwz          r4,4(r11)
	lwz          r3,__$ReturnUdt$(r1)		; 116 (74h)
	bl           ??0?$_Vector_const_iterator@V?$_Vector_val@PADV?$allocator@PAD@std@@@std@@@std@@QAA@PAPADPBU_Container_base0@1@@Z
	lwz          r3,__$ReturnUdt$(r1)		; 116 (74h)
; Line 798
	addi         r1,r1,96		; 60h
	lwz          r12,-8(r1)
	mtlr         r12
	blr
$M90289:
; End code for function: ?end@?$vector@PADV?$allocator@PAD@std@@@std@@QBA?AV?$_Vector_const_iterator@V?$_Vector_val@PADV?$allocator@PAD@std@@@std@@@2@XZ
?end@?$vector@PADV?$allocator@PAD@std@@@std@@QBA?AV?$_Vector_const_iterator@V?$_Vector_val@PADV?$allocator@PAD@std@@@std@@@2@XZ ENDP
							; std::vector<char *,std::allocator<char *> >::end
; Function compile flags: /Odtu

	.code

?size@?$vector@PADV?$allocator@PAD@std@@@std@@QBAIXZ PROC NEAR ; std::vector<char *,std::allocator<char *> >::size, COMDAT

; Begin code for function: ?size@?$vector@PADV?$allocator@PAD@std@@@std@@QBAIXZ
; Line 878
	stw          r3,this$(r1)		; 20 (14h)
; Line 879
	lwz          r11,this$(r1)		; 20 (14h)
	lwz          r10,4(r11)
	lwz          r9,this$(r1)		; 20 (14h)
	lwz          r8,0(r9)
	subf         r7,r8,r10
	srawi        r3,r7,2
; Line 880
	blr
; End code for function: ?size@?$vector@PADV?$allocator@PAD@std@@@std@@QBAIXZ
?size@?$vector@PADV?$allocator@PAD@std@@@std@@QBAIXZ ENDP
							; std::vector<char *,std::allocator<char *> >::size
PUBLIC	??$_Move@PAPADPAPAD@std@@YAPAPADPAPAD00@Z	; std::_Move<char * *,char * *>
PUBLIC	??9?$_Vector_const_iterator@V?$_Vector_val@PADV?$allocator@PAD@std@@@std@@@std@@QBA_NABV01@@Z ; std::_Vector_const_iterator<std::_Vector_val<char *,std::allocator<char *> > >::operator!=
PUBLIC	?_Make_iter@?$vector@PADV?$allocator@PAD@std@@@std@@QBA?AV?$_Vector_iterator@V?$_Vector_val@PADV?$allocator@PAD@std@@@std@@@2@V?$_Vector_const_iterator@V?$_Vector_val@PADV?$allocator@PAD@std@@@std@@@2@@Z ; std::vector<char *,std::allocator<char *> >::_Make_iter
;	COMDAT .pdata
.pdata	SEGMENT
$T90298	DD	?erase@?$vector@PADV?$allocator@PAD@std@@@std@@QAA?AV?$_Vector_iterator@V?$_Vector_val@PADV?$allocator@PAD@std@@@std@@@2@V?$_Vector_const_iterator@V?$_Vector_val@PADV?$allocator@PAD@std@@@std@@@2@0@Z
	DD	040002b03H
; Function compile flags: /Odtu

	.code
_First$ = 80						; size = 4
_Last$ = 84						; size = 4
_Ptr$87000 = 88						; size = 4

?erase@?$vector@PADV?$allocator@PAD@std@@@std@@QAA?AV?$_Vector_iterator@V?$_Vector_val@PADV?$allocator@PAD@std@@@std@@@2@V?$_Vector_const_iterator@V?$_Vector_val@PADV?$allocator@PAD@std@@@std@@@2@0@Z	PROC NEAR ; std::vector<char *,std::allocator<char *> >::erase, COMDAT

; Begin code for function: ?erase@?$vector@PADV?$allocator@PAD@std@@@std@@QAA?AV?$_Vector_iterator@V?$_Vector_val@PADV?$allocator@PAD@std@@@std@@@2@V?$_Vector_const_iterator@V?$_Vector_val@PADV?$allocator@PAD@std@@@std@@@2@0@Z
; Line 1190
	mflr         r12
	stw          r12,-8(r1)
	stwu         r1,-70h(r1)
.endprolog
$M90296:
	stw          r3,__$ReturnUdt$(r1)		; 132 (84h)
	stw          r4,this$(r1)		; 140 (8Ch)
	stw          r5,_First_arg$(r1)		; 148 (94h)
	stw          r6,_Last_arg$(r1)		; 156 (9Ch)
; Line 1191
	lwz          r5,_First_arg$(r1)		; 148 (94h)
	addi         r3,r1,_First$
	lwz          r4,this$(r1)		; 140 (8Ch)
	bl           ?_Make_iter@?$vector@PADV?$allocator@PAD@std@@@std@@QBA?AV?$_Vector_iterator@V?$_Vector_val@PADV?$allocator@PAD@std@@@std@@@2@V?$_Vector_const_iterator@V?$_Vector_val@PADV?$allocator@PAD@std@@@std@@@2@@Z
; Line 1192
	lwz          r5,_Last_arg$(r1)		; 156 (9Ch)
	addi         r3,r1,_Last$
	lwz          r4,this$(r1)		; 140 (8Ch)
	bl           ?_Make_iter@?$vector@PADV?$allocator@PAD@std@@@std@@QBA?AV?$_Vector_iterator@V?$_Vector_val@PADV?$allocator@PAD@std@@@std@@@2@V?$_Vector_const_iterator@V?$_Vector_val@PADV?$allocator@PAD@std@@@std@@@2@@Z
; Line 1194
	addi         r4,r1,_Last$
	addi         r3,r1,_First$
	bl           ??9?$_Vector_const_iterator@V?$_Vector_val@PADV?$allocator@PAD@std@@@std@@@std@@QBA_NABV01@@Z
	clrlwi       r11,r3,24
	cmpwi        cr6,r11,0
	beq          cr6,$LN1@erase
; Line 1207
	lwz          r5,_First$(r1)		; 80 (50h)
	lwz          r10,this$(r1)		; 140 (8Ch)
	lwz          r4,4(r10)
	lwz          r3,_Last$(r1)		; 84 (54h)
	bl           ??$_Move@PAPADPAPAD@std@@YAPAPADPAPAD00@Z
	stw          r3,_Ptr$87000(r1)		; 88 (58h)
; Line 1210
	lwz          r9,this$(r1)		; 140 (8Ch)
	lwz          r5,4(r9)
	lwz          r4,_Ptr$87000(r1)		; 88 (58h)
	lwz          r3,this$(r1)		; 140 (8Ch)
	bl           ?_Destroy@?$vector@PADV?$allocator@PAD@std@@@std@@IAAXPAPAD0@Z
; Line 1211
	lwz          r8,this$(r1)		; 140 (8Ch)
	lwz          r7,_Ptr$87000(r1)		; 88 (58h)
	stw          r7,4(r8)
$LN1@erase:
; Line 1213
	lwz          r6,__$ReturnUdt$(r1)		; 132 (84h)
	lwz          r5,_First$(r1)		; 80 (50h)
	stw          r5,0(r6)
	lwz          r3,__$ReturnUdt$(r1)		; 132 (84h)
; Line 1214
	addi         r1,r1,112		; 70h
	lwz          r12,-8(r1)
	mtlr         r12
	blr
$M90297:
; End code for function: ?erase@?$vector@PADV?$allocator@PAD@std@@@std@@QAA?AV?$_Vector_iterator@V?$_Vector_val@PADV?$allocator@PAD@std@@@std@@@2@V?$_Vector_const_iterator@V?$_Vector_val@PADV?$allocator@PAD@std@@@std@@@2@0@Z
?erase@?$vector@PADV?$allocator@PAD@std@@@std@@QAA?AV?$_Vector_iterator@V?$_Vector_val@PADV?$allocator@PAD@std@@@std@@@2@V?$_Vector_const_iterator@V?$_Vector_val@PADV?$allocator@PAD@std@@@std@@@2@0@Z ENDP
							; std::vector<char *,std::allocator<char *> >::erase
PUBLIC	?allocate@?$allocator@PAD@std@@QAAPAPADI@Z	; std::allocator<char *>::allocate
PUBLIC	?_Xlen@?$vector@PADV?$allocator@PAD@std@@@std@@IBAXXZ ; std::vector<char *,std::allocator<char *> >::_Xlen
PUBLIC	?max_size@?$vector@PADV?$allocator@PAD@std@@@std@@QBAIXZ ; std::vector<char *,std::allocator<char *> >::max_size
;	COMDAT .pdata
.pdata	SEGMENT
$T90304	DD	?_Buy@?$vector@PADV?$allocator@PAD@std@@@std@@IAA_NI@Z
	DD	040003203H
; Function compile flags: /Odtu

	.code

?_Buy@?$vector@PADV?$allocator@PAD@std@@@std@@IAA_NI@Z PROC NEAR ; std::vector<char *,std::allocator<char *> >::_Buy, COMDAT

; Begin code for function: ?_Buy@?$vector@PADV?$allocator@PAD@std@@@std@@IAA_NI@Z
; Line 1250
	mflr         r12
	stw          r12,-8(r1)
	stwu         r1,-60h(r1)
.endprolog
$M90302:
	stw          r3,this$(r1)		; 116 (74h)
	stw          r4,_Capacity$(r1)		; 124 (7Ch)
; Line 1251
	lwz          r11,this$(r1)		; 116 (74h)
	li           r10,0
	stw          r10,0(r11)
; Line 1252
	lwz          r9,this$(r1)		; 116 (74h)
	li           r8,0
	stw          r8,4(r9)
; Line 1253
	lwz          r7,this$(r1)		; 116 (74h)
	li           r6,0
	stw          r6,8(r7)
; Line 1255
	lwz          r5,_Capacity$(r1)		; 124 (7Ch)
	cmplwi       cr6,r5,0
	bne          cr6,$LN4@Buy
; Line 1256
	li           r3,0
	b            $LN6@Buy
	b            $LN3@Buy
$LN4@Buy:
; Line 1257
	lwz          r3,this$(r1)		; 116 (74h)
	bl           ?max_size@?$vector@PADV?$allocator@PAD@std@@@std@@QBAIXZ
	lwz          r4,_Capacity$(r1)		; 124 (7Ch)
	cmplw        cr6,r3,r4
	bge          cr6,$LN2@Buy
; Line 1258
	lwz          r3,this$(r1)		; 116 (74h)
	bl           ?_Xlen@?$vector@PADV?$allocator@PAD@std@@@std@@IBAXXZ
; Line 1259
	b            $LN3@Buy
$LN2@Buy:
; Line 1261
	lwz          r4,_Capacity$(r1)		; 124 (7Ch)
	lwz          r3,this$(r1)		; 116 (74h)
	addi         r3,r3,12		; 0Ch
	bl           ?allocate@?$allocator@PAD@std@@QAAPAPADI@Z
	lwz          r11,this$(r1)		; 116 (74h)
	stw          r3,0(r11)
; Line 1262
	lwz          r10,this$(r1)		; 116 (74h)
	lwz          r9,this$(r1)		; 116 (74h)
	lwz          r8,0(r9)
	stw          r8,4(r10)
; Line 1263
	lwz          r7,_Capacity$(r1)		; 124 (7Ch)
	slwi         r6,r7,2
	lwz          r5,this$(r1)		; 116 (74h)
	lwz          r4,0(r5)
	add          r3,r4,r6
	lwz          r11,this$(r1)		; 116 (74h)
	stw          r3,8(r11)
$LN3@Buy:
; Line 1265
	li           r3,1
$LN6@Buy:
; Line 1266
	addi         r1,r1,96		; 60h
	lwz          r12,-8(r1)
	mtlr         r12
	blr
$M90303:
; End code for function: ?_Buy@?$vector@PADV?$allocator@PAD@std@@@std@@IAA_NI@Z
?_Buy@?$vector@PADV?$allocator@PAD@std@@@std@@IAA_NI@Z ENDP
							; std::vector<char *,std::allocator<char *> >::_Buy
PUBLIC	??$_Destroy_range@V?$allocator@PAD@std@@@std@@YAXPAPAD0AAV?$allocator@PAD@0@@Z ; std::_Destroy_range<std::allocator<char *> >
;	COMDAT .pdata
.pdata	SEGMENT
$T90310	DD	?_Destroy@?$vector@PADV?$allocator@PAD@std@@@std@@IAAXPAPAD0@Z
	DD	040000f03H
; Function compile flags: /Odtu

	.code

?_Destroy@?$vector@PADV?$allocator@PAD@std@@@std@@IAAXPAPAD0@Z PROC NEAR ; std::vector<char *,std::allocator<char *> >::_Destroy, COMDAT

; Begin code for function: ?_Destroy@?$vector@PADV?$allocator@PAD@std@@@std@@IAAXPAPAD0@Z
; Line 1269
	mflr         r12
	stw          r12,-8(r1)
	stwu         r1,-60h(r1)
.endprolog
$M90308:
	stw          r3,this$(r1)		; 116 (74h)
	stw          r4,_First$(r1)		; 124 (7Ch)
	stw          r5,_Last$(r1)		; 132 (84h)
; Line 1270
	lwz          r11,this$(r1)		; 116 (74h)
	addi         r5,r11,12		; 0Ch
	lwz          r4,_Last$(r1)		; 132 (84h)
	lwz          r3,_First$(r1)		; 124 (7Ch)
	bl           ??$_Destroy_range@V?$allocator@PAD@std@@@std@@YAXPAPAD0AAV?$allocator@PAD@0@@Z
; Line 1271
	addi         r1,r1,96		; 60h
	lwz          r12,-8(r1)
	mtlr         r12
	blr
$M90309:
; End code for function: ?_Destroy@?$vector@PADV?$allocator@PAD@std@@@std@@IAAXPAPAD0@Z
?_Destroy@?$vector@PADV?$allocator@PAD@std@@@std@@IAAXPAPAD0@Z ENDP
							; std::vector<char *,std::allocator<char *> >::_Destroy
; Function compile flags: /Odtu

	.code
tv76 = -16						; size = 4

?_Inside@?$vector@PADV?$allocator@PAD@std@@@std@@IBA_NPBQAD@Z PROC NEAR ; std::vector<char *,std::allocator<char *> >::_Inside, COMDAT

; Begin code for function: ?_Inside@?$vector@PADV?$allocator@PAD@std@@@std@@IBA_NPBQAD@Z
; Line 1285
	stw          r3,this$(r1)		; 20 (14h)
	stw          r4,_Ptr$(r1)		; 28 (1Ch)
; Line 1286
	lwz          r11,this$(r1)		; 20 (14h)
	lwz          r10,_Ptr$(r1)		; 28 (1Ch)
	lwz          r9,4(r11)
	cmplw        cr6,r10,r9
	bge          cr6,$LN3@Inside
	lwz          r8,this$(r1)		; 20 (14h)
	lwz          r7,0(r8)
	lwz          r6,_Ptr$(r1)		; 28 (1Ch)
	cmplw        cr6,r7,r6
	bgt          cr6,$LN3@Inside
	li           r5,1
	stw          r5,-10h(r1)
	b            $LN4@Inside
$LN3@Inside:
	li           r4,0
	stw          r4,-10h(r1)
$LN4@Inside:
	lwz          r3,-10h(r1)
	clrlwi       r3,r3,24
; Line 1287
	blr
; End code for function: ?_Inside@?$vector@PADV?$allocator@PAD@std@@@std@@IBA_NPBQAD@Z
?_Inside@?$vector@PADV?$allocator@PAD@std@@@std@@IBA_NPBQAD@Z ENDP
							; std::vector<char *,std::allocator<char *> >::_Inside
PUBLIC	?reserve@?$vector@PADV?$allocator@PAD@std@@@std@@QAAXI@Z ; std::vector<char *,std::allocator<char *> >::reserve
PUBLIC	?_Grow_to@?$vector@PADV?$allocator@PAD@std@@@std@@IBAII@Z ; std::vector<char *,std::allocator<char *> >::_Grow_to
;	COMDAT .pdata
.pdata	SEGMENT
$T90320	DD	?_Reserve@?$vector@PADV?$allocator@PAD@std@@@std@@IAAXI@Z
	DD	040002603H
; Function compile flags: /Odtu

	.code
_Size$ = 80						; size = 4

?_Reserve@?$vector@PADV?$allocator@PAD@std@@@std@@IAAXI@Z PROC NEAR ; std::vector<char *,std::allocator<char *> >::_Reserve, COMDAT

; Begin code for function: ?_Reserve@?$vector@PADV?$allocator@PAD@std@@@std@@IAAXI@Z
; Line 1290
	mflr         r12
	stw          r12,-8(r1)
	stwu         r1,-60h(r1)
.endprolog
$M90318:
	stw          r3,this$(r1)		; 116 (74h)
	stw          r4,_Count$(r1)		; 124 (7Ch)
; Line 1291
	lwz          r3,this$(r1)		; 116 (74h)
	bl           ?size@?$vector@PADV?$allocator@PAD@std@@@std@@QBAIXZ
	stw          r3,_Size$(r1)		; 80 (50h)
; Line 1292
	lwz          r3,this$(r1)		; 116 (74h)
	bl           ?max_size@?$vector@PADV?$allocator@PAD@std@@@std@@QBAIXZ
	lwz          r11,_Count$(r1)		; 124 (7Ch)
	subf         r10,r11,r3
	lwz          r9,_Size$(r1)		; 80 (50h)
	cmplw        cr6,r10,r9
	bge          cr6,$LN4@Reserve
; Line 1293
	lwz          r3,this$(r1)		; 116 (74h)
	bl           ?_Xlen@?$vector@PADV?$allocator@PAD@std@@@std@@IBAXXZ
	b            $LN6@Reserve
$LN4@Reserve:
; Line 1294
	lwz          r8,_Size$(r1)		; 80 (50h)
	lwz          r7,_Count$(r1)		; 124 (7Ch)
	add          r6,r8,r7
	stw          r6,_Size$(r1)		; 80 (50h)
	lwz          r3,this$(r1)		; 116 (74h)
	bl           ?capacity@?$vector@PADV?$allocator@PAD@std@@@std@@QBAIXZ
	lwz          r5,_Size$(r1)		; 80 (50h)
	cmplw        cr6,r5,r3
	bgt          cr6,$LN2@Reserve
; Line 1296
	b            $LN6@Reserve
$LN2@Reserve:
; Line 1297
	lwz          r4,_Size$(r1)		; 80 (50h)
	lwz          r3,this$(r1)		; 116 (74h)
	bl           ?_Grow_to@?$vector@PADV?$allocator@PAD@std@@@std@@IBAII@Z
	mr           r4,r3
	lwz          r3,this$(r1)		; 116 (74h)
	bl           ?reserve@?$vector@PADV?$allocator@PAD@std@@@std@@QAAXI@Z
$LN6@Reserve:
; Line 1298
	addi         r1,r1,96		; 60h
	lwz          r12,-8(r1)
	mtlr         r12
	blr
$M90319:
; End code for function: ?_Reserve@?$vector@PADV?$allocator@PAD@std@@@std@@IAAXI@Z
?_Reserve@?$vector@PADV?$allocator@PAD@std@@@std@@IAAXI@Z ENDP
							; std::vector<char *,std::allocator<char *> >::_Reserve
;	COMDAT .pdata
.pdata	SEGMENT
$T90326	DD	?_Tidy@?$vector@PADV?$allocator@PAD@std@@@std@@IAAXXZ
	DD	040002803H
; Function compile flags: /Odtu

	.code

?_Tidy@?$vector@PADV?$allocator@PAD@std@@@std@@IAAXXZ PROC NEAR ; std::vector<char *,std::allocator<char *> >::_Tidy, COMDAT

; Begin code for function: ?_Tidy@?$vector@PADV?$allocator@PAD@std@@@std@@IAAXXZ
; Line 1301
	mflr         r12
	stw          r12,-8(r1)
	stwu         r1,-60h(r1)
.endprolog
$M90324:
	stw          r3,this$(r1)		; 116 (74h)
; Line 1302
	lwz          r11,this$(r1)		; 116 (74h)
	lwz          r10,0(r11)
	cmplwi       cr6,r10,0
	beq          cr6,$LN1@Tidy
; Line 1304
	lwz          r3,this$(r1)		; 116 (74h)
	bl           ?_Orphan_all@_Container_base0@std@@QAAXXZ
; Line 1305
	lwz          r9,this$(r1)		; 116 (74h)
	lwz          r5,4(r9)
	lwz          r8,this$(r1)		; 116 (74h)
	lwz          r4,0(r8)
	lwz          r3,this$(r1)		; 116 (74h)
	bl           ?_Destroy@?$vector@PADV?$allocator@PAD@std@@@std@@IAAXPAPAD0@Z
; Line 1307
	lwz          r7,this$(r1)		; 116 (74h)
	lwz          r6,8(r7)
	lwz          r5,this$(r1)		; 116 (74h)
	lwz          r4,0(r5)
	subf         r3,r4,r6
	srawi        r5,r3,2
	lwz          r11,this$(r1)		; 116 (74h)
	lwz          r4,0(r11)
	lwz          r10,this$(r1)		; 116 (74h)
	addi         r3,r10,12		; 0Ch
	bl           ?deallocate@?$allocator@PAD@std@@QAAXPAPADI@Z
$LN1@Tidy:
; Line 1309
	lwz          r9,this$(r1)		; 116 (74h)
	li           r8,0
	stw          r8,0(r9)
; Line 1310
	lwz          r7,this$(r1)		; 116 (74h)
	li           r6,0
	stw          r6,4(r7)
; Line 1311
	lwz          r5,this$(r1)		; 116 (74h)
	li           r4,0
	stw          r4,8(r5)
; Line 1312
	addi         r1,r1,96		; 60h
	lwz          r12,-8(r1)
	mtlr         r12
	blr
$M90325:
; End code for function: ?_Tidy@?$vector@PADV?$allocator@PAD@std@@@std@@IAAXXZ
?_Tidy@?$vector@PADV?$allocator@PAD@std@@@std@@IAAXXZ ENDP
							; std::vector<char *,std::allocator<char *> >::_Tidy
; Function compile flags: /Odtu

	.code

?_Orphan_range@?$vector@PADV?$allocator@PAD@std@@@std@@IBAXPAPAD0@Z PROC NEAR ; std::vector<char *,std::allocator<char *> >::_Orphan_range, COMDAT

; Begin code for function: ?_Orphan_range@?$vector@PADV?$allocator@PAD@std@@@std@@IBAXPAPAD0@Z
; Line 1453
	stw          r3,this$(r1)		; 20 (14h)
	stw          r4,__formal$(r1)		; 28 (1Ch)
	stw          r5,__formal$(r1)		; 36 (24h)
; Line 1454
	blr
; End code for function: ?_Orphan_range@?$vector@PADV?$allocator@PAD@std@@@std@@IBAXPAPAD0@Z
?_Orphan_range@?$vector@PADV?$allocator@PAD@std@@@std@@IBAXPAPAD0@Z ENDP
							; std::vector<char *,std::allocator<char *> >::_Orphan_range
;	COMDAT .pdata
.pdata	SEGMENT
$T90334	DD	??0?$_Vector_val@PADV?$allocator@PAD@std@@@std@@QAA@V?$allocator@PAD@1@@Z
	DD	040001703H
; Function compile flags: /Odtu

	.code

??0?$_Vector_val@PADV?$allocator@PAD@std@@@std@@QAA@V?$allocator@PAD@1@@Z PROC NEAR ; std::_Vector_val<char *,std::allocator<char *> >::_Vector_val<char *,std::allocator<char *> >, COMDAT

; Begin code for function: ??0?$_Vector_val@PADV?$allocator@PAD@std@@@std@@QAA@V?$allocator@PAD@1@@Z
; Line 426
	mflr         r12
	stw          r12,-8(r1)
	stwu         r1,-60h(r1)
.endprolog
$M90332:
	stw          r3,this$(r1)		; 116 (74h)
	stw          r4,_Al$(r1)		; 124 (7Ch)
	lwz          r4,_Al$(r1)		; 124 (7Ch)
	lwz          r11,this$(r1)		; 116 (74h)
	addi         r3,r11,12		; 0Ch
	bl           ??0?$allocator@PAD@std@@QAA@ABV01@@Z
; Line 427
	lwz          r10,this$(r1)		; 116 (74h)
	li           r9,0
	stw          r9,0(r10)
; Line 428
	lwz          r8,this$(r1)		; 116 (74h)
	li           r7,0
	stw          r7,4(r8)
; Line 429
	lwz          r6,this$(r1)		; 116 (74h)
	li           r5,0
	stw          r5,8(r6)
; Line 430
	lwz          r3,this$(r1)		; 116 (74h)
	addi         r1,r1,96		; 60h
	lwz          r12,-8(r1)
	mtlr         r12
	blr
$M90333:
; End code for function: ??0?$_Vector_val@PADV?$allocator@PAD@std@@@std@@QAA@V?$allocator@PAD@1@@Z
??0?$_Vector_val@PADV?$allocator@PAD@std@@@std@@QAA@V?$allocator@PAD@1@@Z ENDP
							; std::_Vector_val<char *,std::allocator<char *> >::_Vector_val<char *,std::allocator<char *> >
; Function compile flags: /Odtu

	.code

??1?$_Vector_val@PADV?$allocator@PAD@std@@@std@@QAA@XZ PROC NEAR ; std::_Vector_val<char *,std::allocator<char *> >::~_Vector_val<char *,std::allocator<char *> >, COMDAT

; Begin code for function: ??1?$_Vector_val@PADV?$allocator@PAD@std@@@std@@QAA@XZ
; Line 433
	stw          r3,this$(r1)		; 20 (14h)
; Line 434
	blr
; End code for function: ??1?$_Vector_val@PADV?$allocator@PAD@std@@@std@@QAA@XZ
??1?$_Vector_val@PADV?$allocator@PAD@std@@@std@@QAA@XZ ENDP
							; std::_Vector_val<char *,std::allocator<char *> >::~_Vector_val<char *,std::allocator<char *> >
; Function compile flags: /Odtu

	.code

??0?$allocator@PAD@std@@QAA@ABV01@@Z PROC NEAR		; std::allocator<char *>::allocator<char *>, COMDAT

; Begin code for function: ??0?$allocator@PAD@std@@QAA@ABV01@@Z
; File c:\program files (x86)\microsoft xbox 360 sdk\include\xbox\xmemory
; Line 165
	stw          r3,this$(r1)		; 20 (14h)
	stw          r4,__formal$(r1)		; 28 (1Ch)
; Line 167
	lwz          r3,this$(r1)		; 20 (14h)
	blr
; End code for function: ??0?$allocator@PAD@std@@QAA@ABV01@@Z
??0?$allocator@PAD@std@@QAA@ABV01@@Z ENDP
							; std::allocator<char *>::allocator<char *>
EXTRN	??3@YAXPAX@Z:PROC				; operator delete
;	COMDAT .pdata
.pdata	SEGMENT
$T90344	DD	?deallocate@?$allocator@PAD@std@@QAAXPAPADI@Z
	DD	040000c03H
; Function compile flags: /Odtu

	.code

?deallocate@?$allocator@PAD@std@@QAAXPAPADI@Z PROC NEAR	; std::allocator<char *>::deallocate, COMDAT

; Begin code for function: ?deallocate@?$allocator@PAD@std@@QAAXPAPADI@Z
; Line 181
	mflr         r12
	stw          r12,-8(r1)
	stwu         r1,-60h(r1)
.endprolog
$M90342:
	stw          r3,this$(r1)		; 116 (74h)
	stw          r4,_Ptr$(r1)		; 124 (7Ch)
	stw          r5,__formal$(r1)		; 132 (84h)
; Line 182
	lwz          r3,_Ptr$(r1)		; 124 (7Ch)
	bl           ??3@YAXPAX@Z
; Line 183
	addi         r1,r1,96		; 60h
	lwz          r12,-8(r1)
	mtlr         r12
	blr
$M90343:
; End code for function: ?deallocate@?$allocator@PAD@std@@QAAXPAPADI@Z
?deallocate@?$allocator@PAD@std@@QAAXPAPADI@Z ENDP
							; std::allocator<char *>::deallocate
PUBLIC	??$_Umove@PAPAD@?$vector@PADV?$allocator@PAD@std@@@std@@IAAPAPADPAPAD00@Z ; std::vector<char *,std::allocator<char *> >::_Umove<char * *>
;	COMDAT .pdata
; File c:\program files (x86)\microsoft xbox 360 sdk\include\xbox\vector
.pdata	SEGMENT
$T90350	DD	?reserve@?$vector@PADV?$allocator@PAD@std@@@std@@QAAXI@Z
	DD	040005103H
; Function compile flags: /Odtu

	.code
_Ptr$87072 = 80						; size = 4
_Size$87079 = 84					; size = 4

?reserve@?$vector@PADV?$allocator@PAD@std@@@std@@QAAXI@Z PROC NEAR ; std::vector<char *,std::allocator<char *> >::reserve, COMDAT

; Begin code for function: ?reserve@?$vector@PADV?$allocator@PAD@std@@@std@@QAAXI@Z
; Line 746
	mflr         r12
	stw          r12,-8(r1)
	stwu         r1,-60h(r1)
.endprolog
$M90348:
	stw          r3,this$(r1)		; 116 (74h)
	stw          r4,_Count$(r1)		; 124 (7Ch)
; Line 747
	lwz          r3,this$(r1)		; 116 (74h)
	bl           ?max_size@?$vector@PADV?$allocator@PAD@std@@@std@@QBAIXZ
	lwz          r11,_Count$(r1)		; 124 (7Ch)
	cmplw        cr6,r3,r11
	bge          cr6,$LN5@reserve
; Line 748
	lwz          r3,this$(r1)		; 116 (74h)
	bl           ?_Xlen@?$vector@PADV?$allocator@PAD@std@@@std@@IBAXXZ
	b            $LN7@reserve
$LN5@reserve:
; Line 749
	lwz          r3,this$(r1)		; 116 (74h)
	bl           ?capacity@?$vector@PADV?$allocator@PAD@std@@@std@@QBAIXZ
	lwz          r10,_Count$(r1)		; 124 (7Ch)
	cmplw        cr6,r3,r10
	bge          cr6,$LN7@reserve
; Line 751
	lwz          r4,_Count$(r1)		; 124 (7Ch)
	lwz          r9,this$(r1)		; 116 (74h)
	addi         r3,r9,12		; 0Ch
	bl           ?allocate@?$allocator@PAD@std@@QAAPAPADI@Z
	stw          r3,_Ptr$87072(r1)		; 80 (50h)
; Line 754
	lwz          r6,_Ptr$87072(r1)		; 80 (50h)
	lwz          r8,this$(r1)		; 116 (74h)
	lwz          r5,4(r8)
	lwz          r7,this$(r1)		; 116 (74h)
	lwz          r4,0(r7)
	lwz          r3,this$(r1)		; 116 (74h)
	bl           ??$_Umove@PAPAD@?$vector@PADV?$allocator@PAD@std@@@std@@IAAPAPADPAPAD00@Z
; Line 755
	b            $LN2@reserve
; Line 756
	lwz          r5,_Count$(r1)		; 124 (7Ch)
	lwz          r4,_Ptr$87072(r1)		; 80 (50h)
	lwz          r6,this$(r1)		; 116 (74h)
	addi         r3,r6,12		; 0Ch
	bl           ?deallocate@?$allocator@PAD@std@@QAAXPAPADI@Z
$LN2@reserve:
; Line 760
	lwz          r3,this$(r1)		; 116 (74h)
	bl           ?size@?$vector@PADV?$allocator@PAD@std@@@std@@QBAIXZ
	stw          r3,_Size$87079(r1)		; 84 (54h)
; Line 761
	lwz          r5,this$(r1)		; 116 (74h)
	lwz          r4,0(r5)
	cmplwi       cr6,r4,0
	beq          cr6,$LN1@reserve
; Line 763
	lwz          r3,this$(r1)		; 116 (74h)
	lwz          r5,4(r3)
	lwz          r11,this$(r1)		; 116 (74h)
	lwz          r4,0(r11)
	lwz          r3,this$(r1)		; 116 (74h)
	bl           ?_Destroy@?$vector@PADV?$allocator@PAD@std@@@std@@IAAXPAPAD0@Z
; Line 765
	lwz          r10,this$(r1)		; 116 (74h)
	lwz          r9,8(r10)
	lwz          r8,this$(r1)		; 116 (74h)
	lwz          r7,0(r8)
	subf         r6,r7,r9
	srawi        r5,r6,2
	lwz          r4,this$(r1)		; 116 (74h)
	lwz          r4,0(r4)
	lwz          r3,this$(r1)		; 116 (74h)
	addi         r3,r3,12		; 0Ch
	bl           ?deallocate@?$allocator@PAD@std@@QAAXPAPADI@Z
$LN1@reserve:
; Line 768
	lwz          r3,this$(r1)		; 116 (74h)
	bl           ?_Orphan_all@_Container_base0@std@@QAAXXZ
; Line 769
	lwz          r11,_Count$(r1)		; 124 (7Ch)
	slwi         r10,r11,2
	lwz          r9,_Ptr$87072(r1)		; 80 (50h)
	add          r8,r9,r10
	lwz          r7,this$(r1)		; 116 (74h)
	stw          r8,8(r7)
; Line 770
	lwz          r6,_Size$87079(r1)		; 84 (54h)
	slwi         r5,r6,2
	lwz          r4,_Ptr$87072(r1)		; 80 (50h)
	add          r3,r4,r5
	lwz          r11,this$(r1)		; 116 (74h)
	stw          r3,4(r11)
; Line 771
	lwz          r10,_Ptr$87072(r1)		; 80 (50h)
	lwz          r9,this$(r1)		; 116 (74h)
	stw          r10,0(r9)
$LN7@reserve:
; Line 773
	addi         r1,r1,96		; 60h
	lwz          r12,-8(r1)
	mtlr         r12
	blr
$M90349:
; End code for function: ?reserve@?$vector@PADV?$allocator@PAD@std@@@std@@QAAXI@Z
?reserve@?$vector@PADV?$allocator@PAD@std@@@std@@QAAXI@Z ENDP
							; std::vector<char *,std::allocator<char *> >::reserve
;	COMDAT .pdata
.pdata	SEGMENT
$T90356	DD	?_Make_iter@?$vector@PADV?$allocator@PAD@std@@@std@@QBA?AV?$_Vector_iterator@V?$_Vector_val@PADV?$allocator@PAD@std@@@std@@@2@V?$_Vector_const_iterator@V?$_Vector_val@PADV?$allocator@PAD@std@@@std@@@2@@Z
	DD	040000f03H
; Function compile flags: /Odtu

	.code

?_Make_iter@?$vector@PADV?$allocator@PAD@std@@@std@@QBA?AV?$_Vector_iterator@V?$_Vector_val@PADV?$allocator@PAD@std@@@std@@@2@V?$_Vector_const_iterator@V?$_Vector_val@PADV?$allocator@PAD@std@@@std@@@2@@Z PROC NEAR ; std::vector<char *,std::allocator<char *> >::_Make_iter, COMDAT

; Begin code for function: ?_Make_iter@?$vector@PADV?$allocator@PAD@std@@@std@@QBA?AV?$_Vector_iterator@V?$_Vector_val@PADV?$allocator@PAD@std@@@std@@@2@V?$_Vector_const_iterator@V?$_Vector_val@PADV?$allocator@PAD@std@@@std@@@2@@Z
; Line 801
	mflr         r12
	stw          r12,-8(r1)
	stwu         r1,-60h(r1)
.endprolog
$M90354:
	stw          r3,__$ReturnUdt$(r1)		; 116 (74h)
	stw          r4,this$(r1)		; 124 (7Ch)
	stw          r5,_Where$(r1)		; 132 (84h)
; Line 802
	lwz          r5,this$(r1)		; 124 (7Ch)
	lwz          r4,_Where$(r1)		; 132 (84h)
	lwz          r3,__$ReturnUdt$(r1)		; 116 (74h)
	bl           ??0?$_Vector_iterator@V?$_Vector_val@PADV?$allocator@PAD@std@@@std@@@std@@QAA@PAPADPBU_Container_base0@1@@Z
	lwz          r3,__$ReturnUdt$(r1)		; 116 (74h)
; Line 803
	addi         r1,r1,96		; 60h
	lwz          r12,-8(r1)
	mtlr         r12
	blr
$M90355:
; End code for function: ?_Make_iter@?$vector@PADV?$allocator@PAD@std@@@std@@QBA?AV?$_Vector_iterator@V?$_Vector_val@PADV?$allocator@PAD@std@@@std@@@2@V?$_Vector_const_iterator@V?$_Vector_val@PADV?$allocator@PAD@std@@@std@@@2@@Z
?_Make_iter@?$vector@PADV?$allocator@PAD@std@@@std@@QBA?AV?$_Vector_iterator@V?$_Vector_val@PADV?$allocator@PAD@std@@@std@@@2@V?$_Vector_const_iterator@V?$_Vector_val@PADV?$allocator@PAD@std@@@std@@@2@@Z ENDP
							; std::vector<char *,std::allocator<char *> >::_Make_iter
PUBLIC	?max_size@?$allocator@PAD@std@@QBAIXZ		; std::allocator<char *>::max_size
;	COMDAT .pdata
.pdata	SEGMENT
$T90362	DD	?max_size@?$vector@PADV?$allocator@PAD@std@@@std@@QBAIXZ
	DD	040000b03H
; Function compile flags: /Odtu

	.code

?max_size@?$vector@PADV?$allocator@PAD@std@@@std@@QBAIXZ PROC NEAR ; std::vector<char *,std::allocator<char *> >::max_size, COMDAT

; Begin code for function: ?max_size@?$vector@PADV?$allocator@PAD@std@@@std@@QBAIXZ
; Line 883
	mflr         r12
	stw          r12,-8(r1)
	stwu         r1,-60h(r1)
.endprolog
$M90360:
	stw          r3,this$(r1)		; 116 (74h)
; Line 884
	lwz          r11,this$(r1)		; 116 (74h)
	addi         r3,r11,12		; 0Ch
	bl           ?max_size@?$allocator@PAD@std@@QBAIXZ
; Line 885
	addi         r1,r1,96		; 60h
	lwz          r12,-8(r1)
	mtlr         r12
	blr
$M90361:
; End code for function: ?max_size@?$vector@PADV?$allocator@PAD@std@@@std@@QBAIXZ
?max_size@?$vector@PADV?$allocator@PAD@std@@@std@@QBAIXZ ENDP
							; std::vector<char *,std::allocator<char *> >::max_size
;	COMDAT .pdata
.pdata	SEGMENT
$T90370	DD	?_Grow_to@?$vector@PADV?$allocator@PAD@std@@@std@@IBAII@Z
	DD	040002703H
; Function compile flags: /Odtu

	.code
_Capacity$ = 80						; size = 4
tv73 = 84						; size = 4

?_Grow_to@?$vector@PADV?$allocator@PAD@std@@@std@@IBAII@Z PROC NEAR ; std::vector<char *,std::allocator<char *> >::_Grow_to, COMDAT

; Begin code for function: ?_Grow_to@?$vector@PADV?$allocator@PAD@std@@@std@@IBAII@Z
; Line 1274
	mflr         r12
	stw          r12,-8(r1)
	stwu         r1,-60h(r1)
.endprolog
$M90368:
	stw          r3,this$(r1)		; 116 (74h)
	stw          r4,_Count$(r1)		; 124 (7Ch)
; Line 1275
	lwz          r3,this$(r1)		; 116 (74h)
	bl           ?capacity@?$vector@PADV?$allocator@PAD@std@@@std@@QBAIXZ
	stw          r3,_Capacity$(r1)		; 80 (50h)
; Line 1278
	lwz          r3,this$(r1)		; 116 (74h)
	bl           ?max_size@?$vector@PADV?$allocator@PAD@std@@@std@@QBAIXZ
	lwz          r11,_Capacity$(r1)		; 80 (50h)
	li           r10,2
	divwu        r9,r11,r10
	subf         r8,r9,r3
	lwz          r7,_Capacity$(r1)		; 80 (50h)
	cmplw        cr6,r8,r7
	bge          cr6,$LN4@Grow_to
	li           r6,0
	stw          r6,54h(r1)
	b            $LN5@Grow_to
$LN4@Grow_to:
	lwz          r5,_Capacity$(r1)		; 80 (50h)
	li           r4,2
	divwu        r3,r5,r4
	lwz          r11,_Capacity$(r1)		; 80 (50h)
	add          r10,r11,r3
	stw          r10,54h(r1)
$LN5@Grow_to:
	lwz          r9,54h(r1)
	stw          r9,_Capacity$(r1)		; 80 (50h)
; Line 1279
	lwz          r8,_Capacity$(r1)		; 80 (50h)
	lwz          r7,_Count$(r1)		; 124 (7Ch)
	cmplw        cr6,r8,r7
	bge          cr6,$LN1@Grow_to
; Line 1280
	lwz          r6,_Count$(r1)		; 124 (7Ch)
	stw          r6,_Capacity$(r1)		; 80 (50h)
$LN1@Grow_to:
; Line 1281
	lwz          r3,_Capacity$(r1)		; 80 (50h)
; Line 1282
	addi         r1,r1,96		; 60h
	lwz          r12,-8(r1)
	mtlr         r12
	blr
$M90369:
; End code for function: ?_Grow_to@?$vector@PADV?$allocator@PAD@std@@@std@@IBAII@Z
?_Grow_to@?$vector@PADV?$allocator@PAD@std@@@std@@IBAII@Z ENDP
							; std::vector<char *,std::allocator<char *> >::_Grow_to
PUBLIC	??_C@_0BD@OLBABOEK@vector?$DMT?$DO?5too?5long?$AA@ ; `string'
EXTRN	?_Xlength_error@std@@YAXPBD@Z:PROC		; std::_Xlength_error
;	COMDAT .pdata
.pdata	SEGMENT
$T90376	DD	?_Xlen@?$vector@PADV?$allocator@PAD@std@@@std@@IBAXXZ
	DD	040000b03H
;	COMDAT ??_C@_0BD@OLBABOEK@vector?$DMT?$DO?5too?5long?$AA@
.rdata	SEGMENT
??_C@_0BD@OLBABOEK@vector?$DMT?$DO?5too?5long?$AA@ DB 'vector<T> too long'
	DB	00H						; `string'
; Function compile flags: /Odtu

	.code

?_Xlen@?$vector@PADV?$allocator@PAD@std@@@std@@IBAXXZ PROC NEAR ; std::vector<char *,std::allocator<char *> >::_Xlen, COMDAT

; Begin code for function: ?_Xlen@?$vector@PADV?$allocator@PAD@std@@@std@@IBAXXZ
; Line 1426
	mflr         r12
	stw          r12,-8(r1)
	stwu         r1,-60h(r1)
.endprolog
$M90374:
	stw          r3,this$(r1)		; 116 (74h)
; Line 1427
	lis          r11,??_C@_0BD@OLBABOEK@vector?$DMT?$DO?5too?5long?$AA@
	addi         r3,r11,??_C@_0BD@OLBABOEK@vector?$DMT?$DO?5too?5long?$AA@
	bl           ?_Xlength_error@std@@YAXPBD@Z
$LN2@Xlen:
; Line 1428
	addi         r1,r1,96		; 60h
	lwz          r12,-8(r1)
	mtlr         r12
	blr
$M90375:
; End code for function: ?_Xlen@?$vector@PADV?$allocator@PAD@std@@@std@@IBAXXZ
?_Xlen@?$vector@PADV?$allocator@PAD@std@@@std@@IBAXXZ ENDP
							; std::vector<char *,std::allocator<char *> >::_Xlen
PUBLIC	??$_Allocate@PAD@std@@YAPAPADIPAPAD@Z		; std::_Allocate<char *>
;	COMDAT .pdata
; File c:\program files (x86)\microsoft xbox 360 sdk\include\xbox\xmemory
.pdata	SEGMENT
$T90382	DD	?allocate@?$allocator@PAD@std@@QAAPAPADI@Z
	DD	040000c03H
; Function compile flags: /Odtu

	.code

?allocate@?$allocator@PAD@std@@QAAPAPADI@Z PROC NEAR	; std::allocator<char *>::allocate, COMDAT

; Begin code for function: ?allocate@?$allocator@PAD@std@@QAAPAPADI@Z
; Line 186
	mflr         r12
	stw          r12,-8(r1)
	stwu         r1,-60h(r1)
.endprolog
$M90380:
	stw          r3,this$(r1)		; 116 (74h)
	stw          r4,_Count$(r1)		; 124 (7Ch)
; Line 187
	li           r4,0
	lwz          r3,_Count$(r1)		; 124 (7Ch)
	bl           ??$_Allocate@PAD@std@@YAPAPADIPAPAD@Z
; Line 188
	addi         r1,r1,96		; 60h
	lwz          r12,-8(r1)
	mtlr         r12
	blr
$M90381:
; End code for function: ?allocate@?$allocator@PAD@std@@QAAPAPADI@Z
?allocate@?$allocator@PAD@std@@QAAPAPADI@Z ENDP
							; std::allocator<char *>::allocate
PUBLIC	?_Adopt@_Iterator_base0@std@@QAAXPBX@Z		; std::_Iterator_base0::_Adopt
;	COMDAT .pdata
; File c:\program files (x86)\microsoft xbox 360 sdk\include\xbox\vector
.pdata	SEGMENT
$T90388	DD	??0?$_Vector_const_iterator@V?$_Vector_val@PADV?$allocator@PAD@std@@@std@@@std@@QAA@PAPADPBU_Container_base0@1@@Z
	DD	040001103H
; Function compile flags: /Odtu

	.code

??0?$_Vector_const_iterator@V?$_Vector_val@PADV?$allocator@PAD@std@@@std@@@std@@QAA@PAPADPBU_Container_base0@1@@Z PROC NEAR ; std::_Vector_const_iterator<std::_Vector_val<char *,std::allocator<char *> > >::_Vector_const_iterator<std::_Vector_val<char *,std::allocator<char *> > >, COMDAT

; Begin code for function: ??0?$_Vector_const_iterator@V?$_Vector_val@PADV?$allocator@PAD@std@@@std@@@std@@QAA@PAPADPBU_Container_base0@1@@Z
; Line 45
	mflr         r12
	stw          r12,-8(r1)
	stwu         r1,-60h(r1)
.endprolog
$M90386:
	stw          r3,this$(r1)		; 116 (74h)
	stw          r4,_Parg$(r1)		; 124 (7Ch)
	stw          r5,_Pvector$(r1)		; 132 (84h)
	lwz          r11,_Parg$(r1)		; 124 (7Ch)
	lwz          r10,this$(r1)		; 116 (74h)
	stw          r11,0(r10)
; Line 46
	lwz          r4,_Pvector$(r1)		; 132 (84h)
	lwz          r3,this$(r1)		; 116 (74h)
	bl           ?_Adopt@_Iterator_base0@std@@QAAXPBX@Z
; Line 47
	lwz          r3,this$(r1)		; 116 (74h)
	addi         r1,r1,96		; 60h
	lwz          r12,-8(r1)
	mtlr         r12
	blr
$M90387:
; End code for function: ??0?$_Vector_const_iterator@V?$_Vector_val@PADV?$allocator@PAD@std@@@std@@@std@@QAA@PAPADPBU_Container_base0@1@@Z
??0?$_Vector_const_iterator@V?$_Vector_val@PADV?$allocator@PAD@std@@@std@@@std@@QAA@PAPADPBU_Container_base0@1@@Z ENDP
							; std::_Vector_const_iterator<std::_Vector_val<char *,std::allocator<char *> > >::_Vector_const_iterator<std::_Vector_val<char *,std::allocator<char *> > >
; Function compile flags: /Odtu

	.code

?_Adopt@_Iterator_base0@std@@QAAXPBX@Z PROC NEAR		; std::_Iterator_base0::_Adopt, COMDAT

; Begin code for function: ?_Adopt@_Iterator_base0@std@@QAAXPBX@Z
; File c:\program files (x86)\microsoft xbox 360 sdk\include\xbox\xutility
; Line 48
	stw          r3,this$(r1)		; 20 (14h)
	stw          r4,__formal$(r1)		; 28 (1Ch)
; Line 49
	blr
; End code for function: ?_Adopt@_Iterator_base0@std@@QAAXPBX@Z
?_Adopt@_Iterator_base0@std@@QAAXPBX@Z ENDP
							; std::_Iterator_base0::_Adopt
PUBLIC	??8?$_Vector_const_iterator@V?$_Vector_val@PADV?$allocator@PAD@std@@@std@@@std@@QBA_NABV01@@Z ; std::_Vector_const_iterator<std::_Vector_val<char *,std::allocator<char *> > >::operator==
;	COMDAT .pdata
; File c:\program files (x86)\microsoft xbox 360 sdk\include\xbox\vector
.pdata	SEGMENT
$T90396	DD	??9?$_Vector_const_iterator@V?$_Vector_val@PADV?$allocator@PAD@std@@@std@@@std@@QBA_NABV01@@Z
	DD	040001003H
; Function compile flags: /Odtu

	.code

??9?$_Vector_const_iterator@V?$_Vector_val@PADV?$allocator@PAD@std@@@std@@@std@@QBA_NABV01@@Z PROC NEAR ; std::_Vector_const_iterator<std::_Vector_val<char *,std::allocator<char *> > >::operator!=, COMDAT

; Begin code for function: ??9?$_Vector_const_iterator@V?$_Vector_val@PADV?$allocator@PAD@std@@@std@@@std@@QBA_NABV01@@Z
; Line 207
	mflr         r12
	stw          r12,-8(r1)
	stwu         r1,-60h(r1)
.endprolog
$M90394:
	stw          r3,this$(r1)		; 116 (74h)
	stw          r4,_Right$(r1)		; 124 (7Ch)
; Line 208
	lwz          r4,_Right$(r1)		; 124 (7Ch)
	lwz          r3,this$(r1)		; 116 (74h)
	bl           ??8?$_Vector_const_iterator@V?$_Vector_val@PADV?$allocator@PAD@std@@@std@@@std@@QBA_NABV01@@Z
	clrlwi       r11,r3,24
	cntlzw       r10,r11
	rlwinm       r9,r10,27,31,31
	clrlwi       r3,r9,24
; Line 209
	addi         r1,r1,96		; 60h
	lwz          r12,-8(r1)
	mtlr         r12
	blr
$M90395:
; End code for function: ??9?$_Vector_const_iterator@V?$_Vector_val@PADV?$allocator@PAD@std@@@std@@@std@@QBA_NABV01@@Z
??9?$_Vector_const_iterator@V?$_Vector_val@PADV?$allocator@PAD@std@@@std@@@std@@QBA_NABV01@@Z ENDP
							; std::_Vector_const_iterator<std::_Vector_val<char *,std::allocator<char *> > >::operator!=
;	COMDAT .pdata
.pdata	SEGMENT
$T90402	DD	??0?$_Vector_iterator@V?$_Vector_val@PADV?$allocator@PAD@std@@@std@@@std@@QAA@PAPADPBU_Container_base0@1@@Z
	DD	040000f03H
; Function compile flags: /Odtu

	.code

??0?$_Vector_iterator@V?$_Vector_val@PADV?$allocator@PAD@std@@@std@@@std@@QAA@PAPADPBU_Container_base0@1@@Z PROC NEAR ; std::_Vector_iterator<std::_Vector_val<char *,std::allocator<char *> > >::_Vector_iterator<std::_Vector_val<char *,std::allocator<char *> > >, COMDAT

; Begin code for function: ??0?$_Vector_iterator@V?$_Vector_val@PADV?$allocator@PAD@std@@@std@@@std@@QAA@PAPADPBU_Container_base0@1@@Z
; Line 304
	mflr         r12
	stw          r12,-8(r1)
	stwu         r1,-60h(r1)
.endprolog
$M90400:
	stw          r3,this$(r1)		; 116 (74h)
	stw          r4,_Parg$(r1)		; 124 (7Ch)
	stw          r5,_Pvector$(r1)		; 132 (84h)
	lwz          r5,_Pvector$(r1)		; 132 (84h)
	lwz          r4,_Parg$(r1)		; 124 (7Ch)
	lwz          r3,this$(r1)		; 116 (74h)
	bl           ??0?$_Vector_const_iterator@V?$_Vector_val@PADV?$allocator@PAD@std@@@std@@@std@@QAA@PAPADPBU_Container_base0@1@@Z
; Line 305
	lwz          r3,this$(r1)		; 116 (74h)
	addi         r1,r1,96		; 60h
	lwz          r12,-8(r1)
	mtlr         r12
	blr
$M90401:
; End code for function: ??0?$_Vector_iterator@V?$_Vector_val@PADV?$allocator@PAD@std@@@std@@@std@@QAA@PAPADPBU_Container_base0@1@@Z
??0?$_Vector_iterator@V?$_Vector_val@PADV?$allocator@PAD@std@@@std@@@std@@QAA@PAPADPBU_Container_base0@1@@Z ENDP
							; std::_Vector_iterator<std::_Vector_val<char *,std::allocator<char *> > >::_Vector_iterator<std::_Vector_val<char *,std::allocator<char *> > >
; Function compile flags: /Odtu

	.code
_Count$ = -16						; size = 4
tv65 = -12						; size = 4

?max_size@?$allocator@PAD@std@@QBAIXZ PROC NEAR		; std::allocator<char *>::max_size, COMDAT

; Begin code for function: ?max_size@?$allocator@PAD@std@@QBAIXZ
; File c:\program files (x86)\microsoft xbox 360 sdk\include\xbox\xmemory
; Line 217
	stw          r3,this$(r1)		; 20 (14h)
; Line 218
	lis          r11,16383		; 3FFFh
	ori          r10,r11,65535		; 0FFFFh
