; Listing generated by Microsoft (R) Optimizing Compiler Version 16.00.11886.00 

	TITLE	C:\Users\S7Clutch\Documents\Visual Studio 2010\Projects\The Saiyan Project\src\Natives.cpp
	.PPC
	.MODEL FLAT
PUBLIC	__C2_11886
PUBLIC	__C1_11886
PUBLIC	D3DPRIMITIVEVERTEXCOUNT
PUBLIC	D3DTESSPRIMITIVEVERTEXCOUNT
PUBLIC	?g_XMSinCoefficients0@@3UXMVECTORF32@@B		; g_XMSinCoefficients0
PUBLIC	?g_XMSinCoefficients1@@3UXMVECTORF32@@B		; g_XMSinCoefficients1
PUBLIC	?g_XMSinCoefficients2@@3UXMVECTORF32@@B		; g_XMSinCoefficients2
PUBLIC	?g_XMCosCoefficients0@@3UXMVECTORF32@@B		; g_XMCosCoefficients0
PUBLIC	?g_XMCosCoefficients1@@3UXMVECTORF32@@B		; g_XMCosCoefficients1
PUBLIC	?g_XMCosCoefficients2@@3UXMVECTORF32@@B		; g_XMCosCoefficients2
PUBLIC	?g_XMTanCoefficients0@@3UXMVECTORF32@@B		; g_XMTanCoefficients0
PUBLIC	?g_XMTanCoefficients1@@3UXMVECTORF32@@B		; g_XMTanCoefficients1
PUBLIC	?g_XMTanCoefficients2@@3UXMVECTORF32@@B		; g_XMTanCoefficients2
PUBLIC	?g_XMASinCoefficients0@@3UXMVECTORF32@@B	; g_XMASinCoefficients0
PUBLIC	?g_XMASinCoefficients1@@3UXMVECTORF32@@B	; g_XMASinCoefficients1
PUBLIC	?g_XMASinCoefficients2@@3UXMVECTORF32@@B	; g_XMASinCoefficients2
PUBLIC	?g_XMATanCoefficients0@@3UXMVECTORF32@@B	; g_XMATanCoefficients0
PUBLIC	?g_XMATanCoefficients1@@3UXMVECTORF32@@B	; g_XMATanCoefficients1
PUBLIC	?g_XMATanCoefficients2@@3UXMVECTORF32@@B	; g_XMATanCoefficients2
PUBLIC	?g_XMSinEstCoefficients@@3UXMVECTORF32@@B	; g_XMSinEstCoefficients
PUBLIC	?g_XMCosEstCoefficients@@3UXMVECTORF32@@B	; g_XMCosEstCoefficients
PUBLIC	?g_XMTanEstCoefficients@@3UXMVECTORF32@@B	; g_XMTanEstCoefficients
PUBLIC	?g_XMATanEstCoefficients@@3UXMVECTORF32@@B	; g_XMATanEstCoefficients
PUBLIC	?g_XMASinEstCoefficients@@3UXMVECTORF32@@B	; g_XMASinEstCoefficients
PUBLIC	?g_XMASinEstConstants@@3UXMVECTORF32@@B		; g_XMASinEstConstants
PUBLIC	?g_XMPiConstants0@@3UXMVECTORF32@@B		; g_XMPiConstants0
PUBLIC	?g_XMIdentityR0@@3UXMVECTORF32@@B		; g_XMIdentityR0
PUBLIC	?g_XMIdentityR1@@3UXMVECTORF32@@B		; g_XMIdentityR1
PUBLIC	?g_XMIdentityR2@@3UXMVECTORF32@@B		; g_XMIdentityR2
PUBLIC	?g_XMIdentityR3@@3UXMVECTORF32@@B		; g_XMIdentityR3
PUBLIC	?g_XMNegIdentityR0@@3UXMVECTORF32@@B		; g_XMNegIdentityR0
PUBLIC	?g_XMNegIdentityR1@@3UXMVECTORF32@@B		; g_XMNegIdentityR1
PUBLIC	?g_XMNegIdentityR2@@3UXMVECTORF32@@B		; g_XMNegIdentityR2
PUBLIC	?g_XMNegIdentityR3@@3UXMVECTORF32@@B		; g_XMNegIdentityR3
PUBLIC	?g_XMNegativeZero@@3UXMVECTORI32@@B		; g_XMNegativeZero
PUBLIC	?g_XMNegate3@@3UXMVECTORI32@@B			; g_XMNegate3
PUBLIC	?g_XMMask3@@3UXMVECTORI32@@B			; g_XMMask3
PUBLIC	?g_XMMaskX@@3UXMVECTORI32@@B			; g_XMMaskX
PUBLIC	?g_XMMaskY@@3UXMVECTORI32@@B			; g_XMMaskY
PUBLIC	?g_XMMaskZ@@3UXMVECTORI32@@B			; g_XMMaskZ
PUBLIC	?g_XMMaskW@@3UXMVECTORI32@@B			; g_XMMaskW
PUBLIC	?g_XMOne@@3UXMVECTORF32@@B			; g_XMOne
PUBLIC	?g_XMOne3@@3UXMVECTORF32@@B			; g_XMOne3
PUBLIC	?g_XMZero@@3UXMVECTORF32@@B			; g_XMZero
PUBLIC	?g_XMNegativeOne@@3UXMVECTORF32@@B		; g_XMNegativeOne
PUBLIC	?g_XMOneHalf@@3UXMVECTORF32@@B			; g_XMOneHalf
PUBLIC	?g_XMNegativeOneHalf@@3UXMVECTORF32@@B		; g_XMNegativeOneHalf
PUBLIC	?g_XMNegativeTwoPi@@3UXMVECTORF32@@B		; g_XMNegativeTwoPi
PUBLIC	?g_XMNegativePi@@3UXMVECTORF32@@B		; g_XMNegativePi
PUBLIC	?g_XMHalfPi@@3UXMVECTORF32@@B			; g_XMHalfPi
PUBLIC	?g_XMPi@@3UXMVECTORF32@@B			; g_XMPi
PUBLIC	?g_XMReciprocalPi@@3UXMVECTORF32@@B		; g_XMReciprocalPi
PUBLIC	?g_XMTwoPi@@3UXMVECTORF32@@B			; g_XMTwoPi
PUBLIC	?g_XMReciprocalTwoPi@@3UXMVECTORF32@@B		; g_XMReciprocalTwoPi
PUBLIC	?g_XMEpsilon@@3UXMVECTORF32@@B			; g_XMEpsilon
PUBLIC	?g_XMInfinity@@3UXMVECTORI32@@B			; g_XMInfinity
PUBLIC	?g_XMQNaN@@3UXMVECTORI32@@B			; g_XMQNaN
PUBLIC	?g_XMQNaNTest@@3UXMVECTORI32@@B			; g_XMQNaNTest
PUBLIC	?g_XMAbsMask@@3UXMVECTORI32@@B			; g_XMAbsMask
PUBLIC	?g_XMFltMin@@3UXMVECTORI32@@B			; g_XMFltMin
PUBLIC	?g_XMFltMax@@3UXMVECTORI32@@B			; g_XMFltMax
PUBLIC	?g_XMNegOneMask@@3UXMVECTORI32@@B		; g_XMNegOneMask
PUBLIC	?g_XMMaskA8R8G8B8@@3UXMVECTORI32@@B		; g_XMMaskA8R8G8B8
PUBLIC	?g_XMFlipA8R8G8B8@@3UXMVECTORI32@@B		; g_XMFlipA8R8G8B8
PUBLIC	?g_XMFixAA8R8G8B8@@3UXMVECTORF32@@B		; g_XMFixAA8R8G8B8
PUBLIC	?g_XMNormalizeA8R8G8B8@@3UXMVECTORF32@@B	; g_XMNormalizeA8R8G8B8
PUBLIC	?g_XMMaskA2B10G10R10@@3UXMVECTORI32@@B		; g_XMMaskA2B10G10R10
PUBLIC	?g_XMFlipA2B10G10R10@@3UXMVECTORI32@@B		; g_XMFlipA2B10G10R10
PUBLIC	?g_XMFixAA2B10G10R10@@3UXMVECTORF32@@B		; g_XMFixAA2B10G10R10
PUBLIC	?g_XMNormalizeA2B10G10R10@@3UXMVECTORF32@@B	; g_XMNormalizeA2B10G10R10
PUBLIC	?g_XMMaskX16Y16@@3UXMVECTORI32@@B		; g_XMMaskX16Y16
PUBLIC	?g_XMFlipX16Y16@@3UXMVECTORI32@@B		; g_XMFlipX16Y16
PUBLIC	?g_XMFixX16Y16@@3UXMVECTORF32@@B		; g_XMFixX16Y16
PUBLIC	?g_XMNormalizeX16Y16@@3UXMVECTORF32@@B		; g_XMNormalizeX16Y16
PUBLIC	?g_XMMaskX16Y16Z16W16@@3UXMVECTORI32@@B		; g_XMMaskX16Y16Z16W16
PUBLIC	?g_XMFlipX16Y16Z16W16@@3UXMVECTORI32@@B		; g_XMFlipX16Y16Z16W16
PUBLIC	?g_XMFixX16Y16Z16W16@@3UXMVECTORF32@@B		; g_XMFixX16Y16Z16W16
PUBLIC	?g_XMNormalizeX16Y16Z16W16@@3UXMVECTORF32@@B	; g_XMNormalizeX16Y16Z16W16
PUBLIC	?g_XMNoFraction@@3UXMVECTORF32@@B		; g_XMNoFraction
PUBLIC	?g_XMMaskByte@@3UXMVECTORI32@@B			; g_XMMaskByte
PUBLIC	?g_XMNegateX@@3UXMVECTORF32@@B			; g_XMNegateX
PUBLIC	?g_XMNegateY@@3UXMVECTORF32@@B			; g_XMNegateY
PUBLIC	?g_XMNegateZ@@3UXMVECTORF32@@B			; g_XMNegateZ
PUBLIC	?g_XMNegateW@@3UXMVECTORF32@@B			; g_XMNegateW
PUBLIC	?g_XMSelect0101@@3UXMVECTORI32@@B		; g_XMSelect0101
PUBLIC	?g_XMSelect1010@@3UXMVECTORI32@@B		; g_XMSelect1010
PUBLIC	?g_XMOneHalfMinusEpsilon@@3UXMVECTORI32@@B	; g_XMOneHalfMinusEpsilon
PUBLIC	?g_XMSelect1000@@3UXMVECTORI32@@B		; g_XMSelect1000
PUBLIC	?g_XMSelect1100@@3UXMVECTORI32@@B		; g_XMSelect1100
PUBLIC	?g_XMSelect1110@@3UXMVECTORI32@@B		; g_XMSelect1110
PUBLIC	?g_XMSwizzleXYXY@@3UXMVECTORI32@@B		; g_XMSwizzleXYXY
PUBLIC	?g_XMSwizzleXYZX@@3UXMVECTORI32@@B		; g_XMSwizzleXYZX
PUBLIC	?g_XMSwizzleYXZW@@3UXMVECTORI32@@B		; g_XMSwizzleYXZW
PUBLIC	?g_XMSwizzleYZXW@@3UXMVECTORI32@@B		; g_XMSwizzleYZXW
PUBLIC	?g_XMSwizzleZXYW@@3UXMVECTORI32@@B		; g_XMSwizzleZXYW
PUBLIC	?g_XMPermute0X0Y1X1Y@@3UXMVECTORI32@@B		; g_XMPermute0X0Y1X1Y
PUBLIC	?g_XMPermute0Z0W1Z1W@@3UXMVECTORI32@@B		; g_XMPermute0Z0W1Z1W
PUBLIC	?g_XMFixupY16@@3UXMVECTORF32@@B			; g_XMFixupY16
PUBLIC	?g_XMFixupY16W16@@3UXMVECTORF32@@B		; g_XMFixupY16W16
PUBLIC	?g_XMFlipY@@3UXMVECTORI32@@B			; g_XMFlipY
PUBLIC	?g_XMFlipZ@@3UXMVECTORI32@@B			; g_XMFlipZ
PUBLIC	?g_XMFlipW@@3UXMVECTORI32@@B			; g_XMFlipW
PUBLIC	?g_XMFlipYZ@@3UXMVECTORI32@@B			; g_XMFlipYZ
PUBLIC	?g_XMFlipZW@@3UXMVECTORI32@@B			; g_XMFlipZW
PUBLIC	?g_XMFlipYW@@3UXMVECTORI32@@B			; g_XMFlipYW
PUBLIC	?g_XMMaskHenD3@@3UXMVECTORI32@@B		; g_XMMaskHenD3
PUBLIC	?g_XMMaskDHen3@@3UXMVECTORI32@@B		; g_XMMaskDHen3
PUBLIC	?g_XMAddUHenD3@@3UXMVECTORF32@@B		; g_XMAddUHenD3
PUBLIC	?g_XMAddHenD3@@3UXMVECTORF32@@B			; g_XMAddHenD3
PUBLIC	?g_XMAddDHen3@@3UXMVECTORF32@@B			; g_XMAddDHen3
PUBLIC	?g_XMMulHenD3@@3UXMVECTORF32@@B			; g_XMMulHenD3
PUBLIC	?g_XMMulDHen3@@3UXMVECTORF32@@B			; g_XMMulDHen3
PUBLIC	?g_XMXorHenD3@@3UXMVECTORI32@@B			; g_XMXorHenD3
PUBLIC	?g_XMXorDHen3@@3UXMVECTORI32@@B			; g_XMXorDHen3
PUBLIC	?g_XMMaskIco4@@3UXMVECTORI32@@B			; g_XMMaskIco4
PUBLIC	?g_XMXorXIco4@@3UXMVECTORI32@@B			; g_XMXorXIco4
PUBLIC	?g_XMXorIco4@@3UXMVECTORI32@@B			; g_XMXorIco4
PUBLIC	?g_XMAddXIco4@@3UXMVECTORF32@@B			; g_XMAddXIco4
PUBLIC	?g_XMAddUIco4@@3UXMVECTORF32@@B			; g_XMAddUIco4
PUBLIC	?g_XMAddIco4@@3UXMVECTORF32@@B			; g_XMAddIco4
PUBLIC	?g_XMMulIco4@@3UXMVECTORF32@@B			; g_XMMulIco4
PUBLIC	?g_XMMaskDec4@@3UXMVECTORI32@@B			; g_XMMaskDec4
PUBLIC	?g_XMXorDec4@@3UXMVECTORI32@@B			; g_XMXorDec4
PUBLIC	?g_XMAddUDec4@@3UXMVECTORF32@@B			; g_XMAddUDec4
PUBLIC	?g_XMAddDec4@@3UXMVECTORF32@@B			; g_XMAddDec4
PUBLIC	?g_XMMulDec4@@3UXMVECTORF32@@B			; g_XMMulDec4
PUBLIC	?g_XMMaskByte4@@3UXMVECTORI32@@B		; g_XMMaskByte4
PUBLIC	?g_XMXorByte4@@3UXMVECTORI32@@B			; g_XMXorByte4
PUBLIC	?g_XMAddByte4@@3UXMVECTORF32@@B			; g_XMAddByte4
PUBLIC	?g_XMFixUnsigned@@3UXMVECTORF32@@B		; g_XMFixUnsigned
PUBLIC	?g_XMMaxInt@@3UXMVECTORF32@@B			; g_XMMaxInt
PUBLIC	?g_XMMaxUInt@@3UXMVECTORF32@@B			; g_XMMaxUInt
PUBLIC	?g_XMUnsignedFix@@3UXMVECTORF32@@B		; g_XMUnsignedFix
PUBLIC	?has_denorm@_Num_base@std@@2W4float_denorm_style@2@B ; std::_Num_base::has_denorm
PUBLIC	?has_denorm_loss@_Num_base@std@@2_NB		; std::_Num_base::has_denorm_loss
PUBLIC	?has_infinity@_Num_base@std@@2_NB		; std::_Num_base::has_infinity
PUBLIC	?has_quiet_NaN@_Num_base@std@@2_NB		; std::_Num_base::has_quiet_NaN
PUBLIC	?has_signaling_NaN@_Num_base@std@@2_NB		; std::_Num_base::has_signaling_NaN
PUBLIC	?is_bounded@_Num_base@std@@2_NB			; std::_Num_base::is_bounded
PUBLIC	?is_exact@_Num_base@std@@2_NB			; std::_Num_base::is_exact
PUBLIC	?is_iec559@_Num_base@std@@2_NB			; std::_Num_base::is_iec559
PUBLIC	?is_integer@_Num_base@std@@2_NB			; std::_Num_base::is_integer
PUBLIC	?is_modulo@_Num_base@std@@2_NB			; std::_Num_base::is_modulo
PUBLIC	?is_signed@_Num_base@std@@2_NB			; std::_Num_base::is_signed
PUBLIC	?is_specialized@_Num_base@std@@2_NB		; std::_Num_base::is_specialized
PUBLIC	?tinyness_before@_Num_base@std@@2_NB		; std::_Num_base::tinyness_before
PUBLIC	?traps@_Num_base@std@@2_NB			; std::_Num_base::traps
PUBLIC	?round_style@_Num_base@std@@2W4float_round_style@2@B ; std::_Num_base::round_style
PUBLIC	?digits@_Num_base@std@@2HB			; std::_Num_base::digits
PUBLIC	?digits10@_Num_base@std@@2HB			; std::_Num_base::digits10
PUBLIC	?max_digits10@_Num_base@std@@2HB		; std::_Num_base::max_digits10
PUBLIC	?max_exponent@_Num_base@std@@2HB		; std::_Num_base::max_exponent
PUBLIC	?max_exponent10@_Num_base@std@@2HB		; std::_Num_base::max_exponent10
PUBLIC	?min_exponent@_Num_base@std@@2HB		; std::_Num_base::min_exponent
PUBLIC	?min_exponent10@_Num_base@std@@2HB		; std::_Num_base::min_exponent10
PUBLIC	?radix@_Num_base@std@@2HB			; std::_Num_base::radix
PUBLIC	?is_bounded@_Num_int_base@std@@2_NB		; std::_Num_int_base::is_bounded
PUBLIC	?is_exact@_Num_int_base@std@@2_NB		; std::_Num_int_base::is_exact
PUBLIC	?is_integer@_Num_int_base@std@@2_NB		; std::_Num_int_base::is_integer
PUBLIC	?is_modulo@_Num_int_base@std@@2_NB		; std::_Num_int_base::is_modulo
PUBLIC	?is_specialized@_Num_int_base@std@@2_NB		; std::_Num_int_base::is_specialized
PUBLIC	?radix@_Num_int_base@std@@2HB			; std::_Num_int_base::radix
PUBLIC	?has_denorm@_Num_float_base@std@@2W4float_denorm_style@2@B ; std::_Num_float_base::has_denorm
PUBLIC	?has_denorm_loss@_Num_float_base@std@@2_NB	; std::_Num_float_base::has_denorm_loss
PUBLIC	?has_infinity@_Num_float_base@std@@2_NB		; std::_Num_float_base::has_infinity
PUBLIC	?has_quiet_NaN@_Num_float_base@std@@2_NB	; std::_Num_float_base::has_quiet_NaN
PUBLIC	?has_signaling_NaN@_Num_float_base@std@@2_NB	; std::_Num_float_base::has_signaling_NaN
PUBLIC	?is_bounded@_Num_float_base@std@@2_NB		; std::_Num_float_base::is_bounded
PUBLIC	?is_exact@_Num_float_base@std@@2_NB		; std::_Num_float_base::is_exact
PUBLIC	?is_iec559@_Num_float_base@std@@2_NB		; std::_Num_float_base::is_iec559
PUBLIC	?is_integer@_Num_float_base@std@@2_NB		; std::_Num_float_base::is_integer
PUBLIC	?is_modulo@_Num_float_base@std@@2_NB		; std::_Num_float_base::is_modulo
PUBLIC	?is_signed@_Num_float_base@std@@2_NB		; std::_Num_float_base::is_signed
PUBLIC	?is_specialized@_Num_float_base@std@@2_NB	; std::_Num_float_base::is_specialized
PUBLIC	?tinyness_before@_Num_float_base@std@@2_NB	; std::_Num_float_base::tinyness_before
PUBLIC	?traps@_Num_float_base@std@@2_NB		; std::_Num_float_base::traps
PUBLIC	?round_style@_Num_float_base@std@@2W4float_round_style@2@B ; std::_Num_float_base::round_style
PUBLIC	?radix@_Num_float_base@std@@2HB			; std::_Num_float_base::radix
PUBLIC	?is_signed@?$numeric_limits@D@std@@2_NB		; std::numeric_limits<char>::is_signed
PUBLIC	?digits@?$numeric_limits@D@std@@2HB		; std::numeric_limits<char>::digits
PUBLIC	?digits10@?$numeric_limits@D@std@@2HB		; std::numeric_limits<char>::digits10
PUBLIC	?max_digits10@?$numeric_limits@D@std@@2HB	; std::numeric_limits<char>::max_digits10
PUBLIC	?is_signed@?$numeric_limits@_W@std@@2_NB	; std::numeric_limits<wchar_t>::is_signed
PUBLIC	?digits@?$numeric_limits@_W@std@@2HB		; std::numeric_limits<wchar_t>::digits
PUBLIC	?digits10@?$numeric_limits@_W@std@@2HB		; std::numeric_limits<wchar_t>::digits10
PUBLIC	?max_digits10@?$numeric_limits@_W@std@@2HB	; std::numeric_limits<wchar_t>::max_digits10
PUBLIC	?is_modulo@?$numeric_limits@_N@std@@2_NB	; std::numeric_limits<bool>::is_modulo
PUBLIC	?is_signed@?$numeric_limits@_N@std@@2_NB	; std::numeric_limits<bool>::is_signed
PUBLIC	?digits@?$numeric_limits@_N@std@@2HB		; std::numeric_limits<bool>::digits
PUBLIC	?digits10@?$numeric_limits@_N@std@@2HB		; std::numeric_limits<bool>::digits10
PUBLIC	?max_digits10@?$numeric_limits@_N@std@@2HB	; std::numeric_limits<bool>::max_digits10
PUBLIC	?is_signed@?$numeric_limits@C@std@@2_NB		; std::numeric_limits<signed char>::is_signed
PUBLIC	?digits@?$numeric_limits@C@std@@2HB		; std::numeric_limits<signed char>::digits
PUBLIC	?digits10@?$numeric_limits@C@std@@2HB		; std::numeric_limits<signed char>::digits10
PUBLIC	?max_digits10@?$numeric_limits@C@std@@2HB	; std::numeric_limits<signed char>::max_digits10
PUBLIC	?is_signed@?$numeric_limits@E@std@@2_NB		; std::numeric_limits<unsigned char>::is_signed
PUBLIC	?digits@?$numeric_limits@E@std@@2HB		; std::numeric_limits<unsigned char>::digits
PUBLIC	?digits10@?$numeric_limits@E@std@@2HB		; std::numeric_limits<unsigned char>::digits10
PUBLIC	?max_digits10@?$numeric_limits@E@std@@2HB	; std::numeric_limits<unsigned char>::max_digits10
PUBLIC	?is_signed@?$numeric_limits@F@std@@2_NB		; std::numeric_limits<short>::is_signed
PUBLIC	?digits@?$numeric_limits@F@std@@2HB		; std::numeric_limits<short>::digits
PUBLIC	?digits10@?$numeric_limits@F@std@@2HB		; std::numeric_limits<short>::digits10
PUBLIC	?max_digits10@?$numeric_limits@F@std@@2HB	; std::numeric_limits<short>::max_digits10
PUBLIC	?is_signed@?$numeric_limits@G@std@@2_NB		; std::numeric_limits<unsigned short>::is_signed
PUBLIC	?digits@?$numeric_limits@G@std@@2HB		; std::numeric_limits<unsigned short>::digits
PUBLIC	?digits10@?$numeric_limits@G@std@@2HB		; std::numeric_limits<unsigned short>::digits10
PUBLIC	?max_digits10@?$numeric_limits@G@std@@2HB	; std::numeric_limits<unsigned short>::max_digits10
PUBLIC	?is_signed@?$numeric_limits@H@std@@2_NB		; std::numeric_limits<int>::is_signed
PUBLIC	?digits@?$numeric_limits@H@std@@2HB		; std::numeric_limits<int>::digits
PUBLIC	?digits10@?$numeric_limits@H@std@@2HB		; std::numeric_limits<int>::digits10
PUBLIC	?max_digits10@?$numeric_limits@H@std@@2HB	; std::numeric_limits<int>::max_digits10
PUBLIC	?is_signed@?$numeric_limits@I@std@@2_NB		; std::numeric_limits<unsigned int>::is_signed
PUBLIC	?digits@?$numeric_limits@I@std@@2HB		; std::numeric_limits<unsigned int>::digits
PUBLIC	?digits10@?$numeric_limits@I@std@@2HB		; std::numeric_limits<unsigned int>::digits10
PUBLIC	?max_digits10@?$numeric_limits@I@std@@2HB	; std::numeric_limits<unsigned int>::max_digits10
PUBLIC	?is_signed@?$numeric_limits@J@std@@2_NB		; std::numeric_limits<long>::is_signed
PUBLIC	?digits@?$numeric_limits@J@std@@2HB		; std::numeric_limits<long>::digits
PUBLIC	?digits10@?$numeric_limits@J@std@@2HB		; std::numeric_limits<long>::digits10
PUBLIC	?max_digits10@?$numeric_limits@J@std@@2HB	; std::numeric_limits<long>::max_digits10
PUBLIC	?is_signed@?$numeric_limits@K@std@@2_NB		; std::numeric_limits<unsigned long>::is_signed
PUBLIC	?digits@?$numeric_limits@K@std@@2HB		; std::numeric_limits<unsigned long>::digits
PUBLIC	?digits10@?$numeric_limits@K@std@@2HB		; std::numeric_limits<unsigned long>::digits10
PUBLIC	?max_digits10@?$numeric_limits@K@std@@2HB	; std::numeric_limits<unsigned long>::max_digits10
PUBLIC	?is_signed@?$numeric_limits@_J@std@@2_NB	; std::numeric_limits<__int64>::is_signed
PUBLIC	?digits@?$numeric_limits@_J@std@@2HB		; std::numeric_limits<__int64>::digits
PUBLIC	?digits10@?$numeric_limits@_J@std@@2HB		; std::numeric_limits<__int64>::digits10
PUBLIC	?max_digits10@?$numeric_limits@_J@std@@2HB	; std::numeric_limits<__int64>::max_digits10
PUBLIC	?is_signed@?$numeric_limits@_K@std@@2_NB	; std::numeric_limits<unsigned __int64>::is_signed
PUBLIC	?digits@?$numeric_limits@_K@std@@2HB		; std::numeric_limits<unsigned __int64>::digits
PUBLIC	?digits10@?$numeric_limits@_K@std@@2HB		; std::numeric_limits<unsigned __int64>::digits10
PUBLIC	?max_digits10@?$numeric_limits@_K@std@@2HB	; std::numeric_limits<unsigned __int64>::max_digits10
PUBLIC	?digits@?$numeric_limits@M@std@@2HB		; std::numeric_limits<float>::digits
PUBLIC	?digits10@?$numeric_limits@M@std@@2HB		; std::numeric_limits<float>::digits10
PUBLIC	?max_digits10@?$numeric_limits@M@std@@2HB	; std::numeric_limits<float>::max_digits10
PUBLIC	?max_exponent@?$numeric_limits@M@std@@2HB	; std::numeric_limits<float>::max_exponent
PUBLIC	?max_exponent10@?$numeric_limits@M@std@@2HB	; std::numeric_limits<float>::max_exponent10
PUBLIC	?min_exponent@?$numeric_limits@M@std@@2HB	; std::numeric_limits<float>::min_exponent
PUBLIC	?min_exponent10@?$numeric_limits@M@std@@2HB	; std::numeric_limits<float>::min_exponent10
PUBLIC	?digits@?$numeric_limits@N@std@@2HB		; std::numeric_limits<double>::digits
PUBLIC	?digits10@?$numeric_limits@N@std@@2HB		; std::numeric_limits<double>::digits10
PUBLIC	?max_digits10@?$numeric_limits@N@std@@2HB	; std::numeric_limits<double>::max_digits10
PUBLIC	?max_exponent@?$numeric_limits@N@std@@2HB	; std::numeric_limits<double>::max_exponent
PUBLIC	?max_exponent10@?$numeric_limits@N@std@@2HB	; std::numeric_limits<double>::max_exponent10
PUBLIC	?min_exponent@?$numeric_limits@N@std@@2HB	; std::numeric_limits<double>::min_exponent
PUBLIC	?min_exponent10@?$numeric_limits@N@std@@2HB	; std::numeric_limits<double>::min_exponent10
PUBLIC	?digits@?$numeric_limits@O@std@@2HB		; std::numeric_limits<long double>::digits
PUBLIC	?digits10@?$numeric_limits@O@std@@2HB		; std::numeric_limits<long double>::digits10
PUBLIC	?max_digits10@?$numeric_limits@O@std@@2HB	; std::numeric_limits<long double>::max_digits10
PUBLIC	?max_exponent@?$numeric_limits@O@std@@2HB	; std::numeric_limits<long double>::max_exponent
PUBLIC	?max_exponent10@?$numeric_limits@O@std@@2HB	; std::numeric_limits<long double>::max_exponent10
PUBLIC	?min_exponent@?$numeric_limits@O@std@@2HB	; std::numeric_limits<long double>::min_exponent
PUBLIC	?min_exponent10@?$numeric_limits@O@std@@2HB	; std::numeric_limits<long double>::min_exponent10
PUBLIC	?value@?$integral_constant@_N$0A@@tr1@std@@2_NB	; std::tr1::integral_constant<bool,0>::value
PUBLIC	?value@?$integral_constant@_N$00@tr1@std@@2_NB	; std::tr1::integral_constant<bool,1>::value
PUBLIC	?value@?$integral_constant@I$0A@@tr1@std@@2IB	; std::tr1::integral_constant<unsigned int,0>::value
PUBLIC	?_Rank@?$_Arithmetic_traits@_N@std@@2HB		; std::_Arithmetic_traits<bool>::_Rank
PUBLIC	?_Rank@?$_Arithmetic_traits@D@std@@2HB		; std::_Arithmetic_traits<char>::_Rank
PUBLIC	?_Rank@?$_Arithmetic_traits@C@std@@2HB		; std::_Arithmetic_traits<signed char>::_Rank
PUBLIC	?_Rank@?$_Arithmetic_traits@E@std@@2HB		; std::_Arithmetic_traits<unsigned char>::_Rank
PUBLIC	?_Rank@?$_Arithmetic_traits@F@std@@2HB		; std::_Arithmetic_traits<short>::_Rank
PUBLIC	?_Rank@?$_Arithmetic_traits@G@std@@2HB		; std::_Arithmetic_traits<unsigned short>::_Rank
PUBLIC	?_Rank@?$_Arithmetic_traits@H@std@@2HB		; std::_Arithmetic_traits<int>::_Rank
PUBLIC	?_Rank@?$_Arithmetic_traits@I@std@@2HB		; std::_Arithmetic_traits<unsigned int>::_Rank
PUBLIC	?_Rank@?$_Arithmetic_traits@J@std@@2HB		; std::_Arithmetic_traits<long>::_Rank
PUBLIC	?_Rank@?$_Arithmetic_traits@K@std@@2HB		; std::_Arithmetic_traits<unsigned long>::_Rank
PUBLIC	?_Rank@?$_Arithmetic_traits@_J@std@@2HB		; std::_Arithmetic_traits<__int64>::_Rank
PUBLIC	?_Rank@?$_Arithmetic_traits@_K@std@@2HB		; std::_Arithmetic_traits<unsigned __int64>::_Rank
PUBLIC	?_Rank@?$_Arithmetic_traits@M@std@@2HB		; std::_Arithmetic_traits<float>::_Rank
PUBLIC	?_Rank@?$_Arithmetic_traits@N@std@@2HB		; std::_Arithmetic_traits<double>::_Rank
PUBLIC	?_Rank@?$_Arithmetic_traits@O@std@@2HB		; std::_Arithmetic_traits<long double>::_Rank
;	COMDAT ?_Rank@?$_Arithmetic_traits@O@std@@2HB
.rdata	SEGMENT
?_Rank@?$_Arithmetic_traits@O@std@@2HB DD 09H		; std::_Arithmetic_traits<long double>::_Rank
;	COMDAT ?_Rank@?$_Arithmetic_traits@N@std@@2HB
.rdata	SEGMENT
?_Rank@?$_Arithmetic_traits@N@std@@2HB DD 08H		; std::_Arithmetic_traits<double>::_Rank
;	COMDAT ?_Rank@?$_Arithmetic_traits@M@std@@2HB
.rdata	SEGMENT
?_Rank@?$_Arithmetic_traits@M@std@@2HB DD 07H		; std::_Arithmetic_traits<float>::_Rank
;	COMDAT ?_Rank@?$_Arithmetic_traits@_K@std@@2HB
.rdata	SEGMENT
?_Rank@?$_Arithmetic_traits@_K@std@@2HB DD 06H		; std::_Arithmetic_traits<unsigned __int64>::_Rank
;	COMDAT ?_Rank@?$_Arithmetic_traits@_J@std@@2HB
.rdata	SEGMENT
?_Rank@?$_Arithmetic_traits@_J@std@@2HB DD 06H		; std::_Arithmetic_traits<__int64>::_Rank
;	COMDAT ?_Rank@?$_Arithmetic_traits@K@std@@2HB
.rdata	SEGMENT
?_Rank@?$_Arithmetic_traits@K@std@@2HB DD 05H		; std::_Arithmetic_traits<unsigned long>::_Rank
;	COMDAT ?_Rank@?$_Arithmetic_traits@J@std@@2HB
.rdata	SEGMENT
?_Rank@?$_Arithmetic_traits@J@std@@2HB DD 05H		; std::_Arithmetic_traits<long>::_Rank
;	COMDAT ?_Rank@?$_Arithmetic_traits@I@std@@2HB
.rdata	SEGMENT
?_Rank@?$_Arithmetic_traits@I@std@@2HB DD 04H		; std::_Arithmetic_traits<unsigned int>::_Rank
;	COMDAT ?_Rank@?$_Arithmetic_traits@H@std@@2HB
.rdata	SEGMENT
?_Rank@?$_Arithmetic_traits@H@std@@2HB DD 04H		; std::_Arithmetic_traits<int>::_Rank
;	COMDAT ?_Rank@?$_Arithmetic_traits@G@std@@2HB
.rdata	SEGMENT
?_Rank@?$_Arithmetic_traits@G@std@@2HB DD 03H		; std::_Arithmetic_traits<unsigned short>::_Rank
;	COMDAT ?_Rank@?$_Arithmetic_traits@F@std@@2HB
.rdata	SEGMENT
?_Rank@?$_Arithmetic_traits@F@std@@2HB DD 03H		; std::_Arithmetic_traits<short>::_Rank
;	COMDAT ?_Rank@?$_Arithmetic_traits@E@std@@2HB
.rdata	SEGMENT
?_Rank@?$_Arithmetic_traits@E@std@@2HB DD 02H		; std::_Arithmetic_traits<unsigned char>::_Rank
;	COMDAT ?_Rank@?$_Arithmetic_traits@C@std@@2HB
.rdata	SEGMENT
?_Rank@?$_Arithmetic_traits@C@std@@2HB DD 02H		; std::_Arithmetic_traits<signed char>::_Rank
;	COMDAT ?_Rank@?$_Arithmetic_traits@D@std@@2HB
.rdata	SEGMENT
?_Rank@?$_Arithmetic_traits@D@std@@2HB DD 02H		; std::_Arithmetic_traits<char>::_Rank
;	COMDAT ?_Rank@?$_Arithmetic_traits@_N@std@@2HB
.rdata	SEGMENT
?_Rank@?$_Arithmetic_traits@_N@std@@2HB DD 01H		; std::_Arithmetic_traits<bool>::_Rank
;	COMDAT ?value@?$integral_constant@I$0A@@tr1@std@@2IB
.rdata	SEGMENT
?value@?$integral_constant@I$0A@@tr1@std@@2IB DD 00H	; std::tr1::integral_constant<unsigned int,0>::value
;	COMDAT ?value@?$integral_constant@_N$00@tr1@std@@2_NB
.rdata	SEGMENT
?value@?$integral_constant@_N$00@tr1@std@@2_NB DB 01H	; std::tr1::integral_constant<bool,1>::value
;	COMDAT ?value@?$integral_constant@_N$0A@@tr1@std@@2_NB
.rdata	SEGMENT
?value@?$integral_constant@_N$0A@@tr1@std@@2_NB DB 00H	; std::tr1::integral_constant<bool,0>::value
;	COMDAT ?min_exponent10@?$numeric_limits@O@std@@2HB
.rdata	SEGMENT
?min_exponent10@?$numeric_limits@O@std@@2HB DD 0fffffecdH ; std::numeric_limits<long double>::min_exponent10
;	COMDAT ?min_exponent@?$numeric_limits@O@std@@2HB
.rdata	SEGMENT
?min_exponent@?$numeric_limits@O@std@@2HB DD 0fffffc03H	; std::numeric_limits<long double>::min_exponent
;	COMDAT ?max_exponent10@?$numeric_limits@O@std@@2HB
.rdata	SEGMENT
?max_exponent10@?$numeric_limits@O@std@@2HB DD 0134H	; std::numeric_limits<long double>::max_exponent10
;	COMDAT ?max_exponent@?$numeric_limits@O@std@@2HB
.rdata	SEGMENT
?max_exponent@?$numeric_limits@O@std@@2HB DD 0400H	; std::numeric_limits<long double>::max_exponent
;	COMDAT ?max_digits10@?$numeric_limits@O@std@@2HB
.rdata	SEGMENT
?max_digits10@?$numeric_limits@O@std@@2HB DD 011H	; std::numeric_limits<long double>::max_digits10
;	COMDAT ?digits10@?$numeric_limits@O@std@@2HB
.rdata	SEGMENT
?digits10@?$numeric_limits@O@std@@2HB DD 0fH		; std::numeric_limits<long double>::digits10
;	COMDAT ?digits@?$numeric_limits@O@std@@2HB
.rdata	SEGMENT
?digits@?$numeric_limits@O@std@@2HB DD 035H		; std::numeric_limits<long double>::digits
;	COMDAT ?min_exponent10@?$numeric_limits@N@std@@2HB
.rdata	SEGMENT
?min_exponent10@?$numeric_limits@N@std@@2HB DD 0fffffecdH ; std::numeric_limits<double>::min_exponent10
;	COMDAT ?min_exponent@?$numeric_limits@N@std@@2HB
.rdata	SEGMENT
?min_exponent@?$numeric_limits@N@std@@2HB DD 0fffffc03H	; std::numeric_limits<double>::min_exponent
;	COMDAT ?max_exponent10@?$numeric_limits@N@std@@2HB
.rdata	SEGMENT
?max_exponent10@?$numeric_limits@N@std@@2HB DD 0134H	; std::numeric_limits<double>::max_exponent10
;	COMDAT ?max_exponent@?$numeric_limits@N@std@@2HB
.rdata	SEGMENT
?max_exponent@?$numeric_limits@N@std@@2HB DD 0400H	; std::numeric_limits<double>::max_exponent
;	COMDAT ?max_digits10@?$numeric_limits@N@std@@2HB
.rdata	SEGMENT
?max_digits10@?$numeric_limits@N@std@@2HB DD 011H	; std::numeric_limits<double>::max_digits10
;	COMDAT ?digits10@?$numeric_limits@N@std@@2HB
.rdata	SEGMENT
?digits10@?$numeric_limits@N@std@@2HB DD 0fH		; std::numeric_limits<double>::digits10
;	COMDAT ?digits@?$numeric_limits@N@std@@2HB
.rdata	SEGMENT
?digits@?$numeric_limits@N@std@@2HB DD 035H		; std::numeric_limits<double>::digits
;	COMDAT ?min_exponent10@?$numeric_limits@M@std@@2HB
.rdata	SEGMENT
?min_exponent10@?$numeric_limits@M@std@@2HB DD 0ffffffdbH ; std::numeric_limits<float>::min_exponent10
;	COMDAT ?min_exponent@?$numeric_limits@M@std@@2HB
.rdata	SEGMENT
?min_exponent@?$numeric_limits@M@std@@2HB DD 0ffffff83H	; std::numeric_limits<float>::min_exponent
;	COMDAT ?max_exponent10@?$numeric_limits@M@std@@2HB
.rdata	SEGMENT
?max_exponent10@?$numeric_limits@M@std@@2HB DD 026H	; std::numeric_limits<float>::max_exponent10
;	COMDAT ?max_exponent@?$numeric_limits@M@std@@2HB
.rdata	SEGMENT
?max_exponent@?$numeric_limits@M@std@@2HB DD 080H	; std::numeric_limits<float>::max_exponent
;	COMDAT ?max_digits10@?$numeric_limits@M@std@@2HB
.rdata	SEGMENT
?max_digits10@?$numeric_limits@M@std@@2HB DD 08H	; std::numeric_limits<float>::max_digits10
;	COMDAT ?digits10@?$numeric_limits@M@std@@2HB
.rdata	SEGMENT
?digits10@?$numeric_limits@M@std@@2HB DD 06H		; std::numeric_limits<float>::digits10
;	COMDAT ?digits@?$numeric_limits@M@std@@2HB
.rdata	SEGMENT
?digits@?$numeric_limits@M@std@@2HB DD 018H		; std::numeric_limits<float>::digits
;	COMDAT ?max_digits10@?$numeric_limits@_K@std@@2HB
.rdata	SEGMENT
?max_digits10@?$numeric_limits@_K@std@@2HB DD 015H	; std::numeric_limits<unsigned __int64>::max_digits10
;	COMDAT ?digits10@?$numeric_limits@_K@std@@2HB
.rdata	SEGMENT
?digits10@?$numeric_limits@_K@std@@2HB DD 013H		; std::numeric_limits<unsigned __int64>::digits10
;	COMDAT ?digits@?$numeric_limits@_K@std@@2HB
.rdata	SEGMENT
?digits@?$numeric_limits@_K@std@@2HB DD 040H		; std::numeric_limits<unsigned __int64>::digits
;	COMDAT ?is_signed@?$numeric_limits@_K@std@@2_NB
.rdata	SEGMENT
?is_signed@?$numeric_limits@_K@std@@2_NB DB 00H		; std::numeric_limits<unsigned __int64>::is_signed
;	COMDAT ?max_digits10@?$numeric_limits@_J@std@@2HB
.rdata	SEGMENT
?max_digits10@?$numeric_limits@_J@std@@2HB DD 014H	; std::numeric_limits<__int64>::max_digits10
;	COMDAT ?digits10@?$numeric_limits@_J@std@@2HB
.rdata	SEGMENT
?digits10@?$numeric_limits@_J@std@@2HB DD 012H		; std::numeric_limits<__int64>::digits10
;	COMDAT ?digits@?$numeric_limits@_J@std@@2HB
.rdata	SEGMENT
?digits@?$numeric_limits@_J@std@@2HB DD 03fH		; std::numeric_limits<__int64>::digits
;	COMDAT ?is_signed@?$numeric_limits@_J@std@@2_NB
.rdata	SEGMENT
?is_signed@?$numeric_limits@_J@std@@2_NB DB 01H		; std::numeric_limits<__int64>::is_signed
;	COMDAT ?max_digits10@?$numeric_limits@K@std@@2HB
.rdata	SEGMENT
?max_digits10@?$numeric_limits@K@std@@2HB DD 0bH	; std::numeric_limits<unsigned long>::max_digits10
;	COMDAT ?digits10@?$numeric_limits@K@std@@2HB
.rdata	SEGMENT
?digits10@?$numeric_limits@K@std@@2HB DD 09H		; std::numeric_limits<unsigned long>::digits10
;	COMDAT ?digits@?$numeric_limits@K@std@@2HB
.rdata	SEGMENT
?digits@?$numeric_limits@K@std@@2HB DD 020H		; std::numeric_limits<unsigned long>::digits
;	COMDAT ?is_signed@?$numeric_limits@K@std@@2_NB
.rdata	SEGMENT
?is_signed@?$numeric_limits@K@std@@2_NB DB 00H		; std::numeric_limits<unsigned long>::is_signed
;	COMDAT ?max_digits10@?$numeric_limits@J@std@@2HB
.rdata	SEGMENT
?max_digits10@?$numeric_limits@J@std@@2HB DD 0bH	; std::numeric_limits<long>::max_digits10
;	COMDAT ?digits10@?$numeric_limits@J@std@@2HB
.rdata	SEGMENT
?digits10@?$numeric_limits@J@std@@2HB DD 09H		; std::numeric_limits<long>::digits10
;	COMDAT ?digits@?$numeric_limits@J@std@@2HB
.rdata	SEGMENT
?digits@?$numeric_limits@J@std@@2HB DD 01fH		; std::numeric_limits<long>::digits
;	COMDAT ?is_signed@?$numeric_limits@J@std@@2_NB
.rdata	SEGMENT
?is_signed@?$numeric_limits@J@std@@2_NB DB 01H		; std::numeric_limits<long>::is_signed
;	COMDAT ?max_digits10@?$numeric_limits@I@std@@2HB
.rdata	SEGMENT
?max_digits10@?$numeric_limits@I@std@@2HB DD 0bH	; std::numeric_limits<unsigned int>::max_digits10
;	COMDAT ?digits10@?$numeric_limits@I@std@@2HB
.rdata	SEGMENT
?digits10@?$numeric_limits@I@std@@2HB DD 09H		; std::numeric_limits<unsigned int>::digits10
;	COMDAT ?digits@?$numeric_limits@I@std@@2HB
.rdata	SEGMENT
?digits@?$numeric_limits@I@std@@2HB DD 020H		; std::numeric_limits<unsigned int>::digits
;	COMDAT ?is_signed@?$numeric_limits@I@std@@2_NB
.rdata	SEGMENT
?is_signed@?$numeric_limits@I@std@@2_NB DB 00H		; std::numeric_limits<unsigned int>::is_signed
;	COMDAT ?max_digits10@?$numeric_limits@H@std@@2HB
.rdata	SEGMENT
?max_digits10@?$numeric_limits@H@std@@2HB DD 0bH	; std::numeric_limits<int>::max_digits10
;	COMDAT ?digits10@?$numeric_limits@H@std@@2HB
.rdata	SEGMENT
?digits10@?$numeric_limits@H@std@@2HB DD 09H		; std::numeric_limits<int>::digits10
;	COMDAT ?digits@?$numeric_limits@H@std@@2HB
.rdata	SEGMENT
?digits@?$numeric_limits@H@std@@2HB DD 01fH		; std::numeric_limits<int>::digits
;	COMDAT ?is_signed@?$numeric_limits@H@std@@2_NB
.rdata	SEGMENT
?is_signed@?$numeric_limits@H@std@@2_NB DB 01H		; std::numeric_limits<int>::is_signed
;	COMDAT ?max_digits10@?$numeric_limits@G@std@@2HB
.rdata	SEGMENT
?max_digits10@?$numeric_limits@G@std@@2HB DD 06H	; std::numeric_limits<unsigned short>::max_digits10
;	COMDAT ?digits10@?$numeric_limits@G@std@@2HB
.rdata	SEGMENT
?digits10@?$numeric_limits@G@std@@2HB DD 04H		; std::numeric_limits<unsigned short>::digits10
;	COMDAT ?digits@?$numeric_limits@G@std@@2HB
.rdata	SEGMENT
?digits@?$numeric_limits@G@std@@2HB DD 010H		; std::numeric_limits<unsigned short>::digits
;	COMDAT ?is_signed@?$numeric_limits@G@std@@2_NB
.rdata	SEGMENT
?is_signed@?$numeric_limits@G@std@@2_NB DB 00H		; std::numeric_limits<unsigned short>::is_signed
;	COMDAT ?max_digits10@?$numeric_limits@F@std@@2HB
.rdata	SEGMENT
?max_digits10@?$numeric_limits@F@std@@2HB DD 06H	; std::numeric_limits<short>::max_digits10
;	COMDAT ?digits10@?$numeric_limits@F@std@@2HB
.rdata	SEGMENT
?digits10@?$numeric_limits@F@std@@2HB DD 04H		; std::numeric_limits<short>::digits10
;	COMDAT ?digits@?$numeric_limits@F@std@@2HB
.rdata	SEGMENT
?digits@?$numeric_limits@F@std@@2HB DD 0fH		; std::numeric_limits<short>::digits
;	COMDAT ?is_signed@?$numeric_limits@F@std@@2_NB
.rdata	SEGMENT
?is_signed@?$numeric_limits@F@std@@2_NB DB 01H		; std::numeric_limits<short>::is_signed
;	COMDAT ?max_digits10@?$numeric_limits@E@std@@2HB
.rdata	SEGMENT
?max_digits10@?$numeric_limits@E@std@@2HB DD 04H	; std::numeric_limits<unsigned char>::max_digits10
;	COMDAT ?digits10@?$numeric_limits@E@std@@2HB
.rdata	SEGMENT
?digits10@?$numeric_limits@E@std@@2HB DD 02H		; std::numeric_limits<unsigned char>::digits10
;	COMDAT ?digits@?$numeric_limits@E@std@@2HB
.rdata	SEGMENT
?digits@?$numeric_limits@E@std@@2HB DD 08H		; std::numeric_limits<unsigned char>::digits
;	COMDAT ?is_signed@?$numeric_limits@E@std@@2_NB
.rdata	SEGMENT
?is_signed@?$numeric_limits@E@std@@2_NB DB 00H		; std::numeric_limits<unsigned char>::is_signed
;	COMDAT ?max_digits10@?$numeric_limits@C@std@@2HB
.rdata	SEGMENT
?max_digits10@?$numeric_limits@C@std@@2HB DD 04H	; std::numeric_limits<signed char>::max_digits10
;	COMDAT ?digits10@?$numeric_limits@C@std@@2HB
.rdata	SEGMENT
?digits10@?$numeric_limits@C@std@@2HB DD 02H		; std::numeric_limits<signed char>::digits10
;	COMDAT ?digits@?$numeric_limits@C@std@@2HB
.rdata	SEGMENT
?digits@?$numeric_limits@C@std@@2HB DD 07H		; std::numeric_limits<signed char>::digits
;	COMDAT ?is_signed@?$numeric_limits@C@std@@2_NB
.rdata	SEGMENT
?is_signed@?$numeric_limits@C@std@@2_NB DB 01H		; std::numeric_limits<signed char>::is_signed
;	COMDAT ?max_digits10@?$numeric_limits@_N@std@@2HB
.rdata	SEGMENT
?max_digits10@?$numeric_limits@_N@std@@2HB DD 00H	; std::numeric_limits<bool>::max_digits10
;	COMDAT ?digits10@?$numeric_limits@_N@std@@2HB
.rdata	SEGMENT
?digits10@?$numeric_limits@_N@std@@2HB DD 00H		; std::numeric_limits<bool>::digits10
;	COMDAT ?digits@?$numeric_limits@_N@std@@2HB
.rdata	SEGMENT
?digits@?$numeric_limits@_N@std@@2HB DD 01H		; std::numeric_limits<bool>::digits
;	COMDAT ?is_signed@?$numeric_limits@_N@std@@2_NB
.rdata	SEGMENT
?is_signed@?$numeric_limits@_N@std@@2_NB DB 00H		; std::numeric_limits<bool>::is_signed
;	COMDAT ?is_modulo@?$numeric_limits@_N@std@@2_NB
.rdata	SEGMENT
?is_modulo@?$numeric_limits@_N@std@@2_NB DB 00H		; std::numeric_limits<bool>::is_modulo
;	COMDAT ?max_digits10@?$numeric_limits@_W@std@@2HB
.rdata	SEGMENT
?max_digits10@?$numeric_limits@_W@std@@2HB DD 06H	; std::numeric_limits<wchar_t>::max_digits10
;	COMDAT ?digits10@?$numeric_limits@_W@std@@2HB
.rdata	SEGMENT
?digits10@?$numeric_limits@_W@std@@2HB DD 04H		; std::numeric_limits<wchar_t>::digits10
;	COMDAT ?digits@?$numeric_limits@_W@std@@2HB
.rdata	SEGMENT
?digits@?$numeric_limits@_W@std@@2HB DD 010H		; std::numeric_limits<wchar_t>::digits
;	COMDAT ?is_signed@?$numeric_limits@_W@std@@2_NB
.rdata	SEGMENT
?is_signed@?$numeric_limits@_W@std@@2_NB DB 00H		; std::numeric_limits<wchar_t>::is_signed
;	COMDAT ?max_digits10@?$numeric_limits@D@std@@2HB
.rdata	SEGMENT
?max_digits10@?$numeric_limits@D@std@@2HB DD 04H	; std::numeric_limits<char>::max_digits10
;	COMDAT ?digits10@?$numeric_limits@D@std@@2HB
.rdata	SEGMENT
?digits10@?$numeric_limits@D@std@@2HB DD 02H		; std::numeric_limits<char>::digits10
;	COMDAT ?digits@?$numeric_limits@D@std@@2HB
.rdata	SEGMENT
?digits@?$numeric_limits@D@std@@2HB DD 07H		; std::numeric_limits<char>::digits
;	COMDAT ?is_signed@?$numeric_limits@D@std@@2_NB
.rdata	SEGMENT
?is_signed@?$numeric_limits@D@std@@2_NB DB 01H		; std::numeric_limits<char>::is_signed
;	COMDAT ?radix@_Num_float_base@std@@2HB
.rdata	SEGMENT
?radix@_Num_float_base@std@@2HB DD 02H			; std::_Num_float_base::radix
;	COMDAT ?round_style@_Num_float_base@std@@2W4float_round_style@2@B
.rdata	SEGMENT
?round_style@_Num_float_base@std@@2W4float_round_style@2@B DD 01H ; std::_Num_float_base::round_style
;	COMDAT ?traps@_Num_float_base@std@@2_NB
.rdata	SEGMENT
?traps@_Num_float_base@std@@2_NB DB 01H			; std::_Num_float_base::traps
;	COMDAT ?tinyness_before@_Num_float_base@std@@2_NB
.rdata	SEGMENT
?tinyness_before@_Num_float_base@std@@2_NB DB 01H	; std::_Num_float_base::tinyness_before
;	COMDAT ?is_specialized@_Num_float_base@std@@2_NB
.rdata	SEGMENT
?is_specialized@_Num_float_base@std@@2_NB DB 01H	; std::_Num_float_base::is_specialized
;	COMDAT ?is_signed@_Num_float_base@std@@2_NB
.rdata	SEGMENT
?is_signed@_Num_float_base@std@@2_NB DB 01H		; std::_Num_float_base::is_signed
;	COMDAT ?is_modulo@_Num_float_base@std@@2_NB
.rdata	SEGMENT
?is_modulo@_Num_float_base@std@@2_NB DB 00H		; std::_Num_float_base::is_modulo
;	COMDAT ?is_integer@_Num_float_base@std@@2_NB
.rdata	SEGMENT
?is_integer@_Num_float_base@std@@2_NB DB 00H		; std::_Num_float_base::is_integer
;	COMDAT ?is_iec559@_Num_float_base@std@@2_NB
.rdata	SEGMENT
?is_iec559@_Num_float_base@std@@2_NB DB 01H		; std::_Num_float_base::is_iec559
;	COMDAT ?is_exact@_Num_float_base@std@@2_NB
.rdata	SEGMENT
?is_exact@_Num_float_base@std@@2_NB DB 00H		; std::_Num_float_base::is_exact
;	COMDAT ?is_bounded@_Num_float_base@std@@2_NB
.rdata	SEGMENT
?is_bounded@_Num_float_base@std@@2_NB DB 01H		; std::_Num_float_base::is_bounded
;	COMDAT ?has_signaling_NaN@_Num_float_base@std@@2_NB
.rdata	SEGMENT
?has_signaling_NaN@_Num_float_base@std@@2_NB DB 01H	; std::_Num_float_base::has_signaling_NaN
;	COMDAT ?has_quiet_NaN@_Num_float_base@std@@2_NB
.rdata	SEGMENT
?has_quiet_NaN@_Num_float_base@std@@2_NB DB 01H		; std::_Num_float_base::has_quiet_NaN
;	COMDAT ?has_infinity@_Num_float_base@std@@2_NB
.rdata	SEGMENT
?has_infinity@_Num_float_base@std@@2_NB DB 01H		; std::_Num_float_base::has_infinity
;	COMDAT ?has_denorm_loss@_Num_float_base@std@@2_NB
.rdata	SEGMENT
?has_denorm_loss@_Num_float_base@std@@2_NB DB 01H	; std::_Num_float_base::has_denorm_loss
;	COMDAT ?has_denorm@_Num_float_base@std@@2W4float_denorm_style@2@B
.rdata	SEGMENT
?has_denorm@_Num_float_base@std@@2W4float_denorm_style@2@B DD 01H ; std::_Num_float_base::has_denorm
;	COMDAT ?radix@_Num_int_base@std@@2HB
.rdata	SEGMENT
?radix@_Num_int_base@std@@2HB DD 02H			; std::_Num_int_base::radix
;	COMDAT ?is_specialized@_Num_int_base@std@@2_NB
.rdata	SEGMENT
?is_specialized@_Num_int_base@std@@2_NB DB 01H		; std::_Num_int_base::is_specialized
;	COMDAT ?is_modulo@_Num_int_base@std@@2_NB
.rdata	SEGMENT
?is_modulo@_Num_int_base@std@@2_NB DB 01H		; std::_Num_int_base::is_modulo
;	COMDAT ?is_integer@_Num_int_base@std@@2_NB
.rdata	SEGMENT
?is_integer@_Num_int_base@std@@2_NB DB 01H		; std::_Num_int_base::is_integer
;	COMDAT ?is_exact@_Num_int_base@std@@2_NB
.rdata	SEGMENT
?is_exact@_Num_int_base@std@@2_NB DB 01H		; std::_Num_int_base::is_exact
;	COMDAT ?is_bounded@_Num_int_base@std@@2_NB
.rdata	SEGMENT
?is_bounded@_Num_int_base@std@@2_NB DB 01H		; std::_Num_int_base::is_bounded
;	COMDAT ?radix@_Num_base@std@@2HB
.rdata	SEGMENT
?radix@_Num_base@std@@2HB DD 00H			; std::_Num_base::radix
;	COMDAT ?min_exponent10@_Num_base@std@@2HB
.rdata	SEGMENT
?min_exponent10@_Num_base@std@@2HB DD 00H		; std::_Num_base::min_exponent10
;	COMDAT ?min_exponent@_Num_base@std@@2HB
.rdata	SEGMENT
?min_exponent@_Num_base@std@@2HB DD 00H			; std::_Num_base::min_exponent
;	COMDAT ?max_exponent10@_Num_base@std@@2HB
.rdata	SEGMENT
?max_exponent10@_Num_base@std@@2HB DD 00H		; std::_Num_base::max_exponent10
;	COMDAT ?max_exponent@_Num_base@std@@2HB
.rdata	SEGMENT
?max_exponent@_Num_base@std@@2HB DD 00H			; std::_Num_base::max_exponent
;	COMDAT ?max_digits10@_Num_base@std@@2HB
.rdata	SEGMENT
?max_digits10@_Num_base@std@@2HB DD 00H			; std::_Num_base::max_digits10
;	COMDAT ?digits10@_Num_base@std@@2HB
.rdata	SEGMENT
?digits10@_Num_base@std@@2HB DD 00H			; std::_Num_base::digits10
;	COMDAT ?digits@_Num_base@std@@2HB
.rdata	SEGMENT
?digits@_Num_base@std@@2HB DD 00H			; std::_Num_base::digits
;	COMDAT ?round_style@_Num_base@std@@2W4float_round_style@2@B
.rdata	SEGMENT
?round_style@_Num_base@std@@2W4float_round_style@2@B DD 00H ; std::_Num_base::round_style
;	COMDAT ?traps@_Num_base@std@@2_NB
.rdata	SEGMENT
?traps@_Num_base@std@@2_NB DB 00H			; std::_Num_base::traps
;	COMDAT ?tinyness_before@_Num_base@std@@2_NB
.rdata	SEGMENT
?tinyness_before@_Num_base@std@@2_NB DB 00H		; std::_Num_base::tinyness_before
;	COMDAT ?is_specialized@_Num_base@std@@2_NB
.rdata	SEGMENT
?is_specialized@_Num_base@std@@2_NB DB 00H		; std::_Num_base::is_specialized
;	COMDAT ?is_signed@_Num_base@std@@2_NB
.rdata	SEGMENT
?is_signed@_Num_base@std@@2_NB DB 00H			; std::_Num_base::is_signed
;	COMDAT ?is_modulo@_Num_base@std@@2_NB
.rdata	SEGMENT
?is_modulo@_Num_base@std@@2_NB DB 00H			; std::_Num_base::is_modulo
;	COMDAT ?is_integer@_Num_base@std@@2_NB
.rdata	SEGMENT
?is_integer@_Num_base@std@@2_NB DB 00H			; std::_Num_base::is_integer
;	COMDAT ?is_iec559@_Num_base@std@@2_NB
.rdata	SEGMENT
?is_iec559@_Num_base@std@@2_NB DB 00H			; std::_Num_base::is_iec559
;	COMDAT ?is_exact@_Num_base@std@@2_NB
.rdata	SEGMENT
?is_exact@_Num_base@std@@2_NB DB 00H			; std::_Num_base::is_exact
;	COMDAT ?is_bounded@_Num_base@std@@2_NB
.rdata	SEGMENT
?is_bounded@_Num_base@std@@2_NB DB 00H			; std::_Num_base::is_bounded
;	COMDAT ?has_signaling_NaN@_Num_base@std@@2_NB
.rdata	SEGMENT
?has_signaling_NaN@_Num_base@std@@2_NB DB 00H		; std::_Num_base::has_signaling_NaN
;	COMDAT ?has_quiet_NaN@_Num_base@std@@2_NB
.rdata	SEGMENT
?has_quiet_NaN@_Num_base@std@@2_NB DB 00H		; std::_Num_base::has_quiet_NaN
;	COMDAT ?has_infinity@_Num_base@std@@2_NB
.rdata	SEGMENT
?has_infinity@_Num_base@std@@2_NB DB 00H		; std::_Num_base::has_infinity
;	COMDAT ?has_denorm_loss@_Num_base@std@@2_NB
.rdata	SEGMENT
?has_denorm_loss@_Num_base@std@@2_NB DB 00H		; std::_Num_base::has_denorm_loss
;	COMDAT ?has_denorm@_Num_base@std@@2W4float_denorm_style@2@B
.rdata	SEGMENT
?has_denorm@_Num_base@std@@2W4float_denorm_style@2@B DD 00H ; std::_Num_base::has_denorm
;	COMDAT ?g_XMUnsignedFix@@3UXMVECTORF32@@B
.rdata	SEGMENT
?g_XMUnsignedFix@@3UXMVECTORF32@@B DD 04f000000r ; 2.14748e+009 ; g_XMUnsignedFix
	DD	04f000000r			; 2.14748e+009
	DD	04f000000r			; 2.14748e+009
	DD	04f000000r			; 2.14748e+009
;	COMDAT ?g_XMMaxUInt@@3UXMVECTORF32@@B
.rdata	SEGMENT
?g_XMMaxUInt@@3UXMVECTORF32@@B DD 04f7fffffr	; 4.29497e+009 ; g_XMMaxUInt
	DD	04f7fffffr			; 4.29497e+009
	DD	04f7fffffr			; 4.29497e+009
	DD	04f7fffffr			; 4.29497e+009
;	COMDAT ?g_XMMaxInt@@3UXMVECTORF32@@B
.rdata	SEGMENT
?g_XMMaxInt@@3UXMVECTORF32@@B DD 04effffffr	; 2.14748e+009 ; g_XMMaxInt
	DD	04effffffr			; 2.14748e+009
	DD	04effffffr			; 2.14748e+009
	DD	04effffffr			; 2.14748e+009
;	COMDAT ?g_XMFixUnsigned@@3UXMVECTORF32@@B
.rdata	SEGMENT
?g_XMFixUnsigned@@3UXMVECTORF32@@B DD 04f000000r ; 2.14748e+009 ; g_XMFixUnsigned
	DD	04f000000r			; 2.14748e+009
	DD	04f000000r			; 2.14748e+009
	DD	04f000000r			; 2.14748e+009
;	COMDAT ?g_XMAddByte4@@3UXMVECTORF32@@B
.rdata	SEGMENT
?g_XMAddByte4@@3UXMVECTORF32@@B DD 0c3000000r	; -128	; g_XMAddByte4
	DD	0c7000000r			; -32768
	DD	0cb000000r			; -8.38861e+006
	DD	000000000r			; 0
;	COMDAT ?g_XMXorByte4@@3UXMVECTORI32@@B
.rdata	SEGMENT
?g_XMXorByte4@@3UXMVECTORI32@@B DD 080H			; g_XMXorByte4
	DD	08000H
	DD	0800000H
	DD	00H
;	COMDAT ?g_XMMaskByte4@@3UXMVECTORI32@@B
.rdata	SEGMENT
?g_XMMaskByte4@@3UXMVECTORI32@@B DD 0ffH		; g_XMMaskByte4
	DD	0ff00H
	DD	0ff0000H
	DD	0ff000000H
;	COMDAT ?g_XMMulDec4@@3UXMVECTORF32@@B
.rdata	SEGMENT
?g_XMMulDec4@@3UXMVECTORF32@@B DD 03f800000r	; 1	; g_XMMulDec4
	DD	03a800000r			; 0.000976563
	DD	035800000r			; 9.53674e-007
	DD	030800000r			; 9.31323e-010
;	COMDAT ?g_XMAddDec4@@3UXMVECTORF32@@B
.rdata	SEGMENT
?g_XMAddDec4@@3UXMVECTORF32@@B DD 0c4000000r	; -512	; g_XMAddDec4
	DD	0c9000000r			; -524288
	DD	0ce000000r			; -5.36871e+008
	DD	000000000r			; 0
;	COMDAT ?g_XMAddUDec4@@3UXMVECTORF32@@B
.rdata	SEGMENT
?g_XMAddUDec4@@3UXMVECTORF32@@B DD 000000000r	; 0	; g_XMAddUDec4
	DD	000000000r			; 0
	DD	000000000r			; 0
	DD	04f000000r			; 2.14748e+009
;	COMDAT ?g_XMXorDec4@@3UXMVECTORI32@@B
.rdata	SEGMENT
?g_XMXorDec4@@3UXMVECTORI32@@B DD 0200H			; g_XMXorDec4
	DD	080000H
	DD	020000000H
	DD	00H
;	COMDAT ?g_XMMaskDec4@@3UXMVECTORI32@@B
.rdata	SEGMENT
?g_XMMaskDec4@@3UXMVECTORI32@@B DD 03ffH		; g_XMMaskDec4
	DD	0ffc00H
	DD	03ff00000H
	DD	0c0000000H
;	COMDAT ?g_XMMulIco4@@3UXMVECTORF32@@B
.rdata	SEGMENT
?g_XMMulIco4@@3UXMVECTORF32@@B DD 03f800000r	; 1	; g_XMMulIco4
	DD	039800000r			; 0.000244141
	DD	03f800000r			; 1
	DD	031800000r			; 3.72529e-009
;	COMDAT ?g_XMAddIco4@@3UXMVECTORF32@@B
.rdata	SEGMENT
?g_XMAddIco4@@3UXMVECTORF32@@B DD 0c9000000r	; -524288 ; g_XMAddIco4
	DD	000000000r			; 0
	DD	0c9000000r			; -524288
	DD	000000000r			; 0
;	COMDAT ?g_XMAddUIco4@@3UXMVECTORF32@@B
.rdata	SEGMENT
?g_XMAddUIco4@@3UXMVECTORF32@@B DD 000000000r	; 0	; g_XMAddUIco4
	DD	04f000000r			; 2.14748e+009
	DD	000000000r			; 0
	DD	04f000000r			; 2.14748e+009
;	COMDAT ?g_XMAddXIco4@@3UXMVECTORF32@@B
.rdata	SEGMENT
?g_XMAddXIco4@@3UXMVECTORF32@@B DD 0c9000000r	; -524288 ; g_XMAddXIco4
	DD	000000000r			; 0
	DD	0c9000000r			; -524288
	DD	04f000000r			; 2.14748e+009
;	COMDAT ?g_XMXorIco4@@3UXMVECTORI32@@B
.rdata	SEGMENT
?g_XMXorIco4@@3UXMVECTORI32@@B DD 080000H		; g_XMXorIco4
	DD	00H
	DD	080000H
	DD	00H
;	COMDAT ?g_XMXorXIco4@@3UXMVECTORI32@@B
.rdata	SEGMENT
?g_XMXorXIco4@@3UXMVECTORI32@@B DD 080000H		; g_XMXorXIco4
	DD	00H
	DD	080000H
	DD	080000000H
;	COMDAT ?g_XMMaskIco4@@3UXMVECTORI32@@B
.rdata	SEGMENT
?g_XMMaskIco4@@3UXMVECTORI32@@B DD 0fffffH		; g_XMMaskIco4
	DD	0fffff000H
	DD	0fffffH
	DD	0f0000000H
;	COMDAT ?g_XMXorDHen3@@3UXMVECTORI32@@B
.rdata	SEGMENT
?g_XMXorDHen3@@3UXMVECTORI32@@B DD 0200H		; g_XMXorDHen3
	DD	0100000H
	DD	00H
	DD	00H
;	COMDAT ?g_XMXorHenD3@@3UXMVECTORI32@@B
.rdata	SEGMENT
?g_XMXorHenD3@@3UXMVECTORI32@@B DD 0400H		; g_XMXorHenD3
	DD	0200000H
	DD	00H
	DD	00H
;	COMDAT ?g_XMMulDHen3@@3UXMVECTORF32@@B
.rdata	SEGMENT
?g_XMMulDHen3@@3UXMVECTORF32@@B DD 03f800000r	; 1	; g_XMMulDHen3
	DD	03a800000r			; 0.000976563
	DD	035000000r			; 4.76837e-007
	DD	000000000r			; 0
;	COMDAT ?g_XMMulHenD3@@3UXMVECTORF32@@B
.rdata	SEGMENT
?g_XMMulHenD3@@3UXMVECTORF32@@B DD 03f800000r	; 1	; g_XMMulHenD3
	DD	03a000000r			; 0.000488281
	DD	034800000r			; 2.38419e-007
	DD	000000000r			; 0
;	COMDAT ?g_XMAddDHen3@@3UXMVECTORF32@@B
.rdata	SEGMENT
?g_XMAddDHen3@@3UXMVECTORF32@@B DD 0c4000000r	; -512	; g_XMAddDHen3
	DD	0c9800000r			; -1.04858e+006
	DD	000000000r			; 0
	DD	000000000r			; 0
;	COMDAT ?g_XMAddHenD3@@3UXMVECTORF32@@B
.rdata	SEGMENT
?g_XMAddHenD3@@3UXMVECTORF32@@B DD 0c4800000r	; -1024	; g_XMAddHenD3
	DD	0ca000000r			; -2.09715e+006
	DD	000000000r			; 0
	DD	000000000r			; 0
;	COMDAT ?g_XMAddUHenD3@@3UXMVECTORF32@@B
.rdata	SEGMENT
?g_XMAddUHenD3@@3UXMVECTORF32@@B DD 000000000r	; 0	; g_XMAddUHenD3
	DD	000000000r			; 0
	DD	04f000000r			; 2.14748e+009
	DD	000000000r			; 0
;	COMDAT ?g_XMMaskDHen3@@3UXMVECTORI32@@B
.rdata	SEGMENT
?g_XMMaskDHen3@@3UXMVECTORI32@@B DD 03ffH		; g_XMMaskDHen3
	DD	01ffc00H
	DD	0ffe00000H
	DD	00H
;	COMDAT ?g_XMMaskHenD3@@3UXMVECTORI32@@B
.rdata	SEGMENT
?g_XMMaskHenD3@@3UXMVECTORI32@@B DD 07ffH		; g_XMMaskHenD3
	DD	03ff800H
	DD	0ffc00000H
	DD	00H
;	COMDAT ?g_XMFlipYW@@3UXMVECTORI32@@B
.rdata	SEGMENT
?g_XMFlipYW@@3UXMVECTORI32@@B DD 00H			; g_XMFlipYW
	DD	080000000H
	DD	00H
	DD	080000000H
;	COMDAT ?g_XMFlipZW@@3UXMVECTORI32@@B
.rdata	SEGMENT
?g_XMFlipZW@@3UXMVECTORI32@@B DD 00H			; g_XMFlipZW
	DD	00H
	DD	080000000H
	DD	080000000H
;	COMDAT ?g_XMFlipYZ@@3UXMVECTORI32@@B
.rdata	SEGMENT
?g_XMFlipYZ@@3UXMVECTORI32@@B DD 00H			; g_XMFlipYZ
	DD	080000000H
	DD	080000000H
	DD	00H
;	COMDAT ?g_XMFlipW@@3UXMVECTORI32@@B
.rdata	SEGMENT
?g_XMFlipW@@3UXMVECTORI32@@B DD 00H			; g_XMFlipW
	DD	00H
	DD	00H
	DD	080000000H
;	COMDAT ?g_XMFlipZ@@3UXMVECTORI32@@B
.rdata	SEGMENT
?g_XMFlipZ@@3UXMVECTORI32@@B DD 00H			; g_XMFlipZ
	DD	00H
	DD	080000000H
	DD	00H
;	COMDAT ?g_XMFlipY@@3UXMVECTORI32@@B
.rdata	SEGMENT
?g_XMFlipY@@3UXMVECTORI32@@B DD 00H			; g_XMFlipY
	DD	080000000H
	DD	00H
	DD	00H
;	COMDAT ?g_XMFixupY16W16@@3UXMVECTORF32@@B
.rdata	SEGMENT
?g_XMFixupY16W16@@3UXMVECTORF32@@B DD 03f800000r ; 1	; g_XMFixupY16W16
	DD	03f800000r			; 1
	DD	037800000r			; 1.52588e-005
	DD	037800000r			; 1.52588e-005
;	COMDAT ?g_XMFixupY16@@3UXMVECTORF32@@B
.rdata	SEGMENT
?g_XMFixupY16@@3UXMVECTORF32@@B DD 03f800000r	; 1	; g_XMFixupY16
	DD	037800000r			; 1.52588e-005
	DD	000000000r			; 0
	DD	000000000r			; 0
;	COMDAT ?g_XMPermute0Z0W1Z1W@@3UXMVECTORI32@@B
.rdata	SEGMENT
?g_XMPermute0Z0W1Z1W@@3UXMVECTORI32@@B DD 08090a0bH	; g_XMPermute0Z0W1Z1W
	DD	0c0d0e0fH
	DD	018191a1bH
	DD	01c1d1e1fH
;	COMDAT ?g_XMPermute0X0Y1X1Y@@3UXMVECTORI32@@B
.rdata	SEGMENT
?g_XMPermute0X0Y1X1Y@@3UXMVECTORI32@@B DD 010203H	; g_XMPermute0X0Y1X1Y
	DD	04050607H
	DD	010111213H
	DD	014151617H
;	COMDAT ?g_XMSwizzleZXYW@@3UXMVECTORI32@@B
.rdata	SEGMENT
?g_XMSwizzleZXYW@@3UXMVECTORI32@@B DD 08090a0bH		; g_XMSwizzleZXYW
	DD	010203H
	DD	04050607H
	DD	0c0d0e0fH
;	COMDAT ?g_XMSwizzleYZXW@@3UXMVECTORI32@@B
.rdata	SEGMENT
?g_XMSwizzleYZXW@@3UXMVECTORI32@@B DD 04050607H		; g_XMSwizzleYZXW
	DD	08090a0bH
	DD	010203H
	DD	0c0d0e0fH
;	COMDAT ?g_XMSwizzleYXZW@@3UXMVECTORI32@@B
.rdata	SEGMENT
?g_XMSwizzleYXZW@@3UXMVECTORI32@@B DD 04050607H		; g_XMSwizzleYXZW
	DD	010203H
	DD	08090a0bH
	DD	0c0d0e0fH
;	COMDAT ?g_XMSwizzleXYZX@@3UXMVECTORI32@@B
.rdata	SEGMENT
?g_XMSwizzleXYZX@@3UXMVECTORI32@@B DD 010203H		; g_XMSwizzleXYZX
	DD	04050607H
	DD	08090a0bH
	DD	010203H
;	COMDAT ?g_XMSwizzleXYXY@@3UXMVECTORI32@@B
.rdata	SEGMENT
?g_XMSwizzleXYXY@@3UXMVECTORI32@@B DD 010203H		; g_XMSwizzleXYXY
	DD	04050607H
	DD	010203H
	DD	04050607H
;	COMDAT ?g_XMSelect1110@@3UXMVECTORI32@@B
.rdata	SEGMENT
?g_XMSelect1110@@3UXMVECTORI32@@B DD 0ffffffffH		; g_XMSelect1110
	DD	0ffffffffH
	DD	0ffffffffH
	DD	00H
;	COMDAT ?g_XMSelect1100@@3UXMVECTORI32@@B
.rdata	SEGMENT
?g_XMSelect1100@@3UXMVECTORI32@@B DD 0ffffffffH		; g_XMSelect1100
	DD	0ffffffffH
	DD	00H
	DD	00H
;	COMDAT ?g_XMSelect1000@@3UXMVECTORI32@@B
.rdata	SEGMENT
?g_XMSelect1000@@3UXMVECTORI32@@B DD 0ffffffffH		; g_XMSelect1000
	DD	00H
	DD	00H
	DD	00H
;	COMDAT ?g_XMOneHalfMinusEpsilon@@3UXMVECTORI32@@B
.rdata	SEGMENT
?g_XMOneHalfMinusEpsilon@@3UXMVECTORI32@@B DD 03efffffdH ; g_XMOneHalfMinusEpsilon
	DD	03efffffdH
	DD	03efffffdH
	DD	03efffffdH
;	COMDAT ?g_XMSelect1010@@3UXMVECTORI32@@B
.rdata	SEGMENT
?g_XMSelect1010@@3UXMVECTORI32@@B DD 0ffffffffH		; g_XMSelect1010
	DD	00H
	DD	0ffffffffH
	DD	00H
;	COMDAT ?g_XMSelect0101@@3UXMVECTORI32@@B
.rdata	SEGMENT
?g_XMSelect0101@@3UXMVECTORI32@@B DD 00H		; g_XMSelect0101
	DD	0ffffffffH
	DD	00H
	DD	0ffffffffH
;	COMDAT ?g_XMNegateW@@3UXMVECTORF32@@B
.rdata	SEGMENT
?g_XMNegateW@@3UXMVECTORF32@@B DD 03f800000r	; 1	; g_XMNegateW
	DD	03f800000r			; 1
	DD	03f800000r			; 1
	DD	0bf800000r			; -1
;	COMDAT ?g_XMNegateZ@@3UXMVECTORF32@@B
.rdata	SEGMENT
?g_XMNegateZ@@3UXMVECTORF32@@B DD 03f800000r	; 1	; g_XMNegateZ
	DD	03f800000r			; 1
	DD	0bf800000r			; -1
	DD	03f800000r			; 1
;	COMDAT ?g_XMNegateY@@3UXMVECTORF32@@B
.rdata	SEGMENT
?g_XMNegateY@@3UXMVECTORF32@@B DD 03f800000r	; 1	; g_XMNegateY
	DD	0bf800000r			; -1
	DD	03f800000r			; 1
	DD	03f800000r			; 1
;	COMDAT ?g_XMNegateX@@3UXMVECTORF32@@B
.rdata	SEGMENT
?g_XMNegateX@@3UXMVECTORF32@@B DD 0bf800000r	; -1	; g_XMNegateX
	DD	03f800000r			; 1
	DD	03f800000r			; 1
	DD	03f800000r			; 1
;	COMDAT ?g_XMMaskByte@@3UXMVECTORI32@@B
.rdata	SEGMENT
?g_XMMaskByte@@3UXMVECTORI32@@B DD 0ffH			; g_XMMaskByte
	DD	0ffH
	DD	0ffH
	DD	0ffH
;	COMDAT ?g_XMNoFraction@@3UXMVECTORF32@@B
.rdata	SEGMENT
?g_XMNoFraction@@3UXMVECTORF32@@B DD 04b000000r	; 8.38861e+006 ; g_XMNoFraction
	DD	04b000000r			; 8.38861e+006
	DD	04b000000r			; 8.38861e+006
	DD	04b000000r			; 8.38861e+006
;	COMDAT ?g_XMNormalizeX16Y16Z16W16@@3UXMVECTORF32@@B
.rdata	SEGMENT
?g_XMNormalizeX16Y16Z16W16@@3UXMVECTORF32@@B DD 038000100r ; 3.05185e-005 ; g_XMNormalizeX16Y16Z16W16
	DD	038000100r			; 3.05185e-005
	DD	030000100r			; 4.65675e-010
	DD	030000100r			; 4.65675e-010
;	COMDAT ?g_XMFixX16Y16Z16W16@@3UXMVECTORF32@@B
.rdata	SEGMENT
?g_XMFixX16Y16Z16W16@@3UXMVECTORF32@@B DD 0c7000000r ; -32768 ; g_XMFixX16Y16Z16W16
	DD	0c7000000r			; -32768
	DD	000000000r			; 0
	DD	000000000r			; 0
;	COMDAT ?g_XMFlipX16Y16Z16W16@@3UXMVECTORI32@@B
.rdata	SEGMENT
?g_XMFlipX16Y16Z16W16@@3UXMVECTORI32@@B DD 08000H	; g_XMFlipX16Y16Z16W16
	DD	08000H
	DD	00H
	DD	00H
;	COMDAT ?g_XMMaskX16Y16Z16W16@@3UXMVECTORI32@@B
.rdata	SEGMENT
?g_XMMaskX16Y16Z16W16@@3UXMVECTORI32@@B DD 0ffffH	; g_XMMaskX16Y16Z16W16
	DD	0ffffH
	DD	0ffff0000H
	DD	0ffff0000H
;	COMDAT ?g_XMNormalizeX16Y16@@3UXMVECTORF32@@B
.rdata	SEGMENT
?g_XMNormalizeX16Y16@@3UXMVECTORF32@@B DD 038000100r ; 3.05185e-005 ; g_XMNormalizeX16Y16
	DD	030000100r			; 4.65675e-010
	DD	000000000r			; 0
	DD	000000000r			; 0
;	COMDAT ?g_XMFixX16Y16@@3UXMVECTORF32@@B
.rdata	SEGMENT
?g_XMFixX16Y16@@3UXMVECTORF32@@B DD 0c7000000r	; -32768 ; g_XMFixX16Y16
	DD	000000000r			; 0
	DD	000000000r			; 0
	DD	000000000r			; 0
;	COMDAT ?g_XMFlipX16Y16@@3UXMVECTORI32@@B
.rdata	SEGMENT
?g_XMFlipX16Y16@@3UXMVECTORI32@@B DD 08000H		; g_XMFlipX16Y16
	DD	00H
	DD	00H
	DD	00H
;	COMDAT ?g_XMMaskX16Y16@@3UXMVECTORI32@@B
.rdata	SEGMENT
?g_XMMaskX16Y16@@3UXMVECTORI32@@B DD 0ffffH		; g_XMMaskX16Y16
	DD	0ffff0000H
	DD	00H
	DD	00H
;	COMDAT ?g_XMNormalizeA2B10G10R10@@3UXMVECTORF32@@B
.rdata	SEGMENT
?g_XMNormalizeA2B10G10R10@@3UXMVECTORF32@@B DD 03b004020r ; 0.00195695 ; g_XMNormalizeA2B10G10R10
	DD	036004020r			; 1.91108e-006
	DD	031004020r			; 1.86629e-009
	DD	02faaaaabr			; 3.10441e-010
;	COMDAT ?g_XMFixAA2B10G10R10@@3UXMVECTORF32@@B
.rdata	SEGMENT
?g_XMFixAA2B10G10R10@@3UXMVECTORF32@@B DD 0c4000000r ; -512 ; g_XMFixAA2B10G10R10
	DD	0c9000000r			; -524288
	DD	0ce000000r			; -5.36871e+008
	DD	04f000000r			; 2.14748e+009
;	COMDAT ?g_XMFlipA2B10G10R10@@3UXMVECTORI32@@B
.rdata	SEGMENT
?g_XMFlipA2B10G10R10@@3UXMVECTORI32@@B DD 0200H		; g_XMFlipA2B10G10R10
	DD	080000H
	DD	020000000H
	DD	080000000H
;	COMDAT ?g_XMMaskA2B10G10R10@@3UXMVECTORI32@@B
.rdata	SEGMENT
?g_XMMaskA2B10G10R10@@3UXMVECTORI32@@B DD 03ffH		; g_XMMaskA2B10G10R10
	DD	0ffc00H
	DD	03ff00000H
	DD	0c0000000H
;	COMDAT ?g_XMNormalizeA8R8G8B8@@3UXMVECTORF32@@B
.rdata	SEGMENT
?g_XMNormalizeA8R8G8B8@@3UXMVECTORF32@@B DD 033808081r ; 5.98384e-008 ; g_XMNormalizeA8R8G8B8
	DD	037808081r			; 1.53186e-005
	DD	03b808081r			; 0.00392157
	DD	02f808081r			; 2.33744e-010
;	COMDAT ?g_XMFixAA8R8G8B8@@3UXMVECTORF32@@B
.rdata	SEGMENT
?g_XMFixAA8R8G8B8@@3UXMVECTORF32@@B DD 000000000r ; 0	; g_XMFixAA8R8G8B8
	DD	000000000r			; 0
	DD	000000000r			; 0
	DD	04f000000r			; 2.14748e+009
;	COMDAT ?g_XMFlipA8R8G8B8@@3UXMVECTORI32@@B
.rdata	SEGMENT
?g_XMFlipA8R8G8B8@@3UXMVECTORI32@@B DD 00H		; g_XMFlipA8R8G8B8
	DD	00H
	DD	00H
	DD	080000000H
;	COMDAT ?g_XMMaskA8R8G8B8@@3UXMVECTORI32@@B
.rdata	SEGMENT
?g_XMMaskA8R8G8B8@@3UXMVECTORI32@@B DD 0ff0000H		; g_XMMaskA8R8G8B8
	DD	0ff00H
	DD	0ffH
	DD	0ff000000H
;	COMDAT ?g_XMNegOneMask@@3UXMVECTORI32@@B
.rdata	SEGMENT
?g_XMNegOneMask@@3UXMVECTORI32@@B DD 0ffffffffH		; g_XMNegOneMask
	DD	0ffffffffH
	DD	0ffffffffH
	DD	0ffffffffH
;	COMDAT ?g_XMFltMax@@3UXMVECTORI32@@B
.rdata	SEGMENT
?g_XMFltMax@@3UXMVECTORI32@@B DD 07f7fffffH		; g_XMFltMax
	DD	07f7fffffH
	DD	07f7fffffH
	DD	07f7fffffH
;	COMDAT ?g_XMFltMin@@3UXMVECTORI32@@B
.rdata	SEGMENT
?g_XMFltMin@@3UXMVECTORI32@@B DD 0800000H		; g_XMFltMin
	DD	0800000H
	DD	0800000H
	DD	0800000H
;	COMDAT ?g_XMAbsMask@@3UXMVECTORI32@@B
.rdata	SEGMENT
?g_XMAbsMask@@3UXMVECTORI32@@B DD 07fffffffH		; g_XMAbsMask
	DD	07fffffffH
	DD	07fffffffH
	DD	07fffffffH
;	COMDAT ?g_XMQNaNTest@@3UXMVECTORI32@@B
.rdata	SEGMENT
?g_XMQNaNTest@@3UXMVECTORI32@@B DD 07fffffH		; g_XMQNaNTest
	DD	07fffffH
	DD	07fffffH
	DD	07fffffH
;	COMDAT ?g_XMQNaN@@3UXMVECTORI32@@B
.rdata	SEGMENT
?g_XMQNaN@@3UXMVECTORI32@@B DD 07fc00000H		; g_XMQNaN
	DD	07fc00000H
	DD	07fc00000H
	DD	07fc00000H
;	COMDAT ?g_XMInfinity@@3UXMVECTORI32@@B
.rdata	SEGMENT
?g_XMInfinity@@3UXMVECTORI32@@B DD 07f800000H		; g_XMInfinity
	DD	07f800000H
	DD	07f800000H
	DD	07f800000H
;	COMDAT ?g_XMEpsilon@@3UXMVECTORF32@@B
.rdata	SEGMENT
?g_XMEpsilon@@3UXMVECTORF32@@B DD 034000000r	; 1.19209e-007 ; g_XMEpsilon
	DD	034000000r			; 1.19209e-007
	DD	034000000r			; 1.19209e-007
	DD	034000000r			; 1.19209e-007
;	COMDAT ?g_XMReciprocalTwoPi@@3UXMVECTORF32@@B
.rdata	SEGMENT
?g_XMReciprocalTwoPi@@3UXMVECTORF32@@B DD 03e22f983r ; 0.159155 ; g_XMReciprocalTwoPi
	DD	03e22f983r			; 0.159155
	DD	03e22f983r			; 0.159155
	DD	03e22f983r			; 0.159155
;	COMDAT ?g_XMTwoPi@@3UXMVECTORF32@@B
.rdata	SEGMENT
?g_XMTwoPi@@3UXMVECTORF32@@B DD 040c90fdbr	; 6.28319 ; g_XMTwoPi
	DD	040c90fdbr			; 6.28319
	DD	040c90fdbr			; 6.28319
	DD	040c90fdbr			; 6.28319
;	COMDAT ?g_XMReciprocalPi@@3UXMVECTORF32@@B
.rdata	SEGMENT
?g_XMReciprocalPi@@3UXMVECTORF32@@B DD 03ea2f983r ; 0.31831 ; g_XMReciprocalPi
	DD	03ea2f983r			; 0.31831
	DD	03ea2f983r			; 0.31831
	DD	03ea2f983r			; 0.31831
;	COMDAT ?g_XMPi@@3UXMVECTORF32@@B
.rdata	SEGMENT
?g_XMPi@@3UXMVECTORF32@@B DD 040490fdbr		; 3.14159 ; g_XMPi
	DD	040490fdbr			; 3.14159
	DD	040490fdbr			; 3.14159
	DD	040490fdbr			; 3.14159
;	COMDAT ?g_XMHalfPi@@3UXMVECTORF32@@B
.rdata	SEGMENT
?g_XMHalfPi@@3UXMVECTORF32@@B DD 03fc90fdbr	; 1.5708 ; g_XMHalfPi
	DD	03fc90fdbr			; 1.5708
	DD	03fc90fdbr			; 1.5708
	DD	03fc90fdbr			; 1.5708
;	COMDAT ?g_XMNegativePi@@3UXMVECTORF32@@B
.rdata	SEGMENT
?g_XMNegativePi@@3UXMVECTORF32@@B DD 0c0490fdbr	; -3.14159 ; g_XMNegativePi
	DD	0c0490fdbr			; -3.14159
	DD	0c0490fdbr			; -3.14159
	DD	0c0490fdbr			; -3.14159
;	COMDAT ?g_XMNegativeTwoPi@@3UXMVECTORF32@@B
.rdata	SEGMENT
?g_XMNegativeTwoPi@@3UXMVECTORF32@@B DD 0c0c90fdbr ; -6.28319 ; g_XMNegativeTwoPi
	DD	0c0c90fdbr			; -6.28319
	DD	0c0c90fdbr			; -6.28319
	DD	0c0c90fdbr			; -6.28319
;	COMDAT ?g_XMNegativeOneHalf@@3UXMVECTORF32@@B
.rdata	SEGMENT
?g_XMNegativeOneHalf@@3UXMVECTORF32@@B DD 0bf000000r ; -0.5 ; g_XMNegativeOneHalf
	DD	0bf000000r			; -0.5
	DD	0bf000000r			; -0.5
	DD	0bf000000r			; -0.5
;	COMDAT ?g_XMOneHalf@@3UXMVECTORF32@@B
.rdata	SEGMENT
?g_XMOneHalf@@3UXMVECTORF32@@B DD 03f000000r	; 0.5	; g_XMOneHalf
	DD	03f000000r			; 0.5
	DD	03f000000r			; 0.5
	DD	03f000000r			; 0.5
;	COMDAT ?g_XMNegativeOne@@3UXMVECTORF32@@B
.rdata	SEGMENT
?g_XMNegativeOne@@3UXMVECTORF32@@B DD 0bf800000r ; -1	; g_XMNegativeOne
	DD	0bf800000r			; -1
	DD	0bf800000r			; -1
	DD	0bf800000r			; -1
;	COMDAT ?g_XMZero@@3UXMVECTORF32@@B
.rdata	SEGMENT
?g_XMZero@@3UXMVECTORF32@@B DD 000000000r	; 0	; g_XMZero
	DD	000000000r			; 0
	DD	000000000r			; 0
	DD	000000000r			; 0
;	COMDAT ?g_XMOne3@@3UXMVECTORF32@@B
.rdata	SEGMENT
?g_XMOne3@@3UXMVECTORF32@@B DD 03f800000r	; 1	; g_XMOne3
	DD	03f800000r			; 1
	DD	03f800000r			; 1
	DD	000000000r			; 0
;	COMDAT ?g_XMOne@@3UXMVECTORF32@@B
.rdata	SEGMENT
?g_XMOne@@3UXMVECTORF32@@B DD 03f800000r	; 1	; g_XMOne
	DD	03f800000r			; 1
	DD	03f800000r			; 1
	DD	03f800000r			; 1
;	COMDAT ?g_XMMaskW@@3UXMVECTORI32@@B
.rdata	SEGMENT
?g_XMMaskW@@3UXMVECTORI32@@B DD 00H			; g_XMMaskW
	DD	00H
	DD	00H
	DD	0ffffffffH
;	COMDAT ?g_XMMaskZ@@3UXMVECTORI32@@B
.rdata	SEGMENT
?g_XMMaskZ@@3UXMVECTORI32@@B DD 00H			; g_XMMaskZ
	DD	00H
	DD	0ffffffffH
	DD	00H
;	COMDAT ?g_XMMaskY@@3UXMVECTORI32@@B
.rdata	SEGMENT
?g_XMMaskY@@3UXMVECTORI32@@B DD 00H			; g_XMMaskY
	DD	0ffffffffH
	DD	00H
	DD	00H
;	COMDAT ?g_XMMaskX@@3UXMVECTORI32@@B
.rdata	SEGMENT
?g_XMMaskX@@3UXMVECTORI32@@B DD 0ffffffffH		; g_XMMaskX
	DD	00H
	DD	00H
	DD	00H
;	COMDAT ?g_XMMask3@@3UXMVECTORI32@@B
.rdata	SEGMENT
?g_XMMask3@@3UXMVECTORI32@@B DD 0ffffffffH		; g_XMMask3
	DD	0ffffffffH
	DD	0ffffffffH
	DD	00H
;	COMDAT ?g_XMNegate3@@3UXMVECTORI32@@B
.rdata	SEGMENT
?g_XMNegate3@@3UXMVECTORI32@@B DD 080000000H		; g_XMNegate3
	DD	080000000H
	DD	080000000H
	DD	00H
;	COMDAT ?g_XMNegativeZero@@3UXMVECTORI32@@B
.rdata	SEGMENT
?g_XMNegativeZero@@3UXMVECTORI32@@B DD 080000000H	; g_XMNegativeZero
	DD	080000000H
	DD	080000000H
	DD	080000000H
;	COMDAT ?g_XMNegIdentityR3@@3UXMVECTORF32@@B
.rdata	SEGMENT
?g_XMNegIdentityR3@@3UXMVECTORF32@@B DD 000000000r ; 0	; g_XMNegIdentityR3
	DD	000000000r			; 0
	DD	000000000r			; 0
	DD	0bf800000r			; -1
;	COMDAT ?g_XMNegIdentityR2@@3UXMVECTORF32@@B
.rdata	SEGMENT
?g_XMNegIdentityR2@@3UXMVECTORF32@@B DD 000000000r ; 0	; g_XMNegIdentityR2
	DD	000000000r			; 0
	DD	0bf800000r			; -1
	DD	000000000r			; 0
;	COMDAT ?g_XMNegIdentityR1@@3UXMVECTORF32@@B
.rdata	SEGMENT
?g_XMNegIdentityR1@@3UXMVECTORF32@@B DD 000000000r ; 0	; g_XMNegIdentityR1
	DD	0bf800000r			; -1
	DD	000000000r			; 0
	DD	000000000r			; 0
;	COMDAT ?g_XMNegIdentityR0@@3UXMVECTORF32@@B
.rdata	SEGMENT
?g_XMNegIdentityR0@@3UXMVECTORF32@@B DD 0bf800000r ; -1	; g_XMNegIdentityR0
	DD	000000000r			; 0
	DD	000000000r			; 0
	DD	000000000r			; 0
;	COMDAT ?g_XMIdentityR3@@3UXMVECTORF32@@B
.rdata	SEGMENT
?g_XMIdentityR3@@3UXMVECTORF32@@B DD 000000000r	; 0	; g_XMIdentityR3
	DD	000000000r			; 0
	DD	000000000r			; 0
	DD	03f800000r			; 1
;	COMDAT ?g_XMIdentityR2@@3UXMVECTORF32@@B
.rdata	SEGMENT
?g_XMIdentityR2@@3UXMVECTORF32@@B DD 000000000r	; 0	; g_XMIdentityR2
	DD	000000000r			; 0
	DD	03f800000r			; 1
	DD	000000000r			; 0
;	COMDAT ?g_XMIdentityR1@@3UXMVECTORF32@@B
.rdata	SEGMENT
?g_XMIdentityR1@@3UXMVECTORF32@@B DD 000000000r	; 0	; g_XMIdentityR1
	DD	03f800000r			; 1
	DD	000000000r			; 0
	DD	000000000r			; 0
;	COMDAT ?g_XMIdentityR0@@3UXMVECTORF32@@B
.rdata	SEGMENT
?g_XMIdentityR0@@3UXMVECTORF32@@B DD 03f800000r	; 1	; g_XMIdentityR0
	DD	000000000r			; 0
	DD	000000000r			; 0
	DD	000000000r			; 0
;	COMDAT ?g_XMPiConstants0@@3UXMVECTORF32@@B
.rdata	SEGMENT
?g_XMPiConstants0@@3UXMVECTORF32@@B DD 040490fdbr ; 3.14159 ; g_XMPiConstants0
	DD	040c90fdbr			; 6.28319
	DD	03ea2f983r			; 0.31831
	DD	03e22f983r			; 0.159155
;	COMDAT ?g_XMASinEstConstants@@3UXMVECTORF32@@B
.rdata	SEGMENT
?g_XMASinEstConstants@@3UXMVECTORF32@@B DD 03f800001r ; 1 ; g_XMASinEstConstants
	DD	03fc90fdbr			; 1.5708
	DD	000000000r			; 0
	DD	000000000r			; 0
;	COMDAT ?g_XMASinEstCoefficients@@3UXMVECTORF32@@B
.rdata	SEGMENT
?g_XMASinEstCoefficients@@3UXMVECTORF32@@B DD 0bfae4ee5r ; -1.36178 ; g_XMASinEstCoefficients
	DD	0401849a5r			; 2.37949
	DD	0bf4ee811r			; -0.808229
	DD	03e8e8fb5r			; 0.27844
;	COMDAT ?g_XMATanEstCoefficients@@3UXMVECTORF32@@B
.rdata	SEGMENT
?g_XMATanEstCoefficients@@3UXMVECTORF32@@B DD 03f44dc79r ; 0.768989 ; g_XMATanEstCoefficients
	DD	03f8d6834r			; 1.10474
	DD	03f5dbe43r			; 0.866184
	DD	03fc90fdbr			; 1.5708
;	COMDAT ?g_XMTanEstCoefficients@@3UXMVECTORF32@@B
.rdata	SEGMENT
?g_XMTanEstCoefficients@@3UXMVECTORF32@@B DD 0401ef9dbr ; 2.484 ; g_XMTanEstCoefficients
	DD	0be482f23r			; -0.195492
	DD	0401de9e6r			; 2.4674
	DD	03ea2f983r			; 0.31831
;	COMDAT ?g_XMCosEstCoefficients@@3UXMVECTORF32@@B
.rdata	SEGMENT
?g_XMCosEstCoefficients@@3UXMVECTORF32@@B DD 03f800000r ; 1 ; g_XMCosEstCoefficients
	DD	0befd9e41r			; -0.495348
	DD	03d1eda81r			; 0.0387826
	DD	0ba72600cr			; -0.000924588
;	COMDAT ?g_XMSinEstCoefficients@@3UXMVECTORF32@@B
.rdata	SEGMENT
?g_XMSinEstCoefficients@@3UXMVECTORF32@@B DD 03f800000r ; 1 ; g_XMSinEstCoefficients
	DD	0be2a84b5r			; -0.166522
	DD	03c0658eer			; 0.00819991
	DD	0b92951der			; -0.000161476
;	COMDAT ?g_XMATanCoefficients2@@3UXMVECTORF32@@B
.rdata	SEGMENT
?g_XMATanCoefficients2@@3UXMVECTORF32@@B DD 03d70f0f1r ; 0.0588235 ; g_XMATanCoefficients2
	DD	03d579436r			; 0.0526316
	DD	03d430c31r			; 0.047619
	DD	03d321643r			; 0.0434783
;	COMDAT ?g_XMATanCoefficients1@@3UXMVECTORF32@@B
.rdata	SEGMENT
?g_XMATanCoefficients1@@3UXMVECTORF32@@B DD 03de38e39r ; 0.111111 ; g_XMATanCoefficients1
	DD	03dba2e8cr			; 0.0909091
	DD	03d9d89d9r			; 0.0769231
	DD	03d888889r			; 0.0666667
;	COMDAT ?g_XMATanCoefficients0@@3UXMVECTORF32@@B
.rdata	SEGMENT
?g_XMATanCoefficients0@@3UXMVECTORF32@@B DD 03f800000r ; 1 ; g_XMATanCoefficients0
	DD	03eaaaaabr			; 0.333333
	DD	03e4ccccdr			; 0.2
	DD	03e124925r			; 0.142857
;	COMDAT ?g_XMASinCoefficients2@@3UXMVECTORF32@@B
.rdata	SEGMENT
?g_XMASinCoefficients2@@3UXMVECTORF32@@B DD 0bfaf4418r ; -1.36927 ; g_XMASinCoefficients2
	DD	0c08f6ad9r			; -4.48179
	DD	03fb58485r			; 1.41811
	DD	040af6ad8r			; 5.48179
;	COMDAT ?g_XMASinCoefficients1@@3UXMVECTORF32@@B
.rdata	SEGMENT
?g_XMASinCoefficients1@@3UXMVECTORF32@@B DD 03f1dd7b6r ; 0.616573 ; g_XMASinCoefficients1
	DD	0408980bdr			; 4.29697
	DD	0bf983f2fr			; -1.18943
	DD	0c0d1360er			; -6.53785
;	COMDAT ?g_XMASinCoefficients0@@3UXMVECTORF32@@B
.rdata	SEGMENT
?g_XMASinCoefficients0@@3UXMVECTORF32@@B DD 0bd6dd42dr ; -0.0580637 ; g_XMASinCoefficients0
	DD	0bed65553r			; -0.41862
	DD	03e663246r			; 0.224801
	DD	0400b1889r			; 2.17337
;	COMDAT ?g_XMTanCoefficients2@@3UXMVECTORF32@@B
.rdata	SEGMENT
?g_XMTanCoefficients2@@3UXMVECTORF32@@B DD 03a1aac12r ; 0.000590027 ; g_XMTanCoefficients2
	DD	0397abeb9r			; 0.000239129
	DD	038cb3f0cr			; 9.69154e-005
	DD	03824bec9r			; 3.92783e-005
;	COMDAT ?g_XMTanCoefficients1@@3UXMVECTORF32@@B
.rdata	SEGMENT
?g_XMTanCoefficients1@@3UXMVECTORF32@@B DD 03cb327a4r ; 0.0218695 ; g_XMTanCoefficients1
	DD	03c11371br			; 0.00886324
	DD	03b6b69e9r			; 0.00359213
	DD	03abed1b3r			; 0.00145583
;	COMDAT ?g_XMTanCoefficients0@@3UXMVECTORF32@@B
.rdata	SEGMENT
?g_XMTanCoefficients0@@3UXMVECTORF32@@B DD 03f800000r ; 1 ; g_XMTanCoefficients0
	DD	03eaaaaabr			; 0.333333
	DD	03e088889r			; 0.133333
	DD	03d5d0dd1r			; 0.0539683
;	COMDAT ?g_XMCosCoefficients2@@3UXMVECTORF32@@B
.rdata	SEGMENT
?g_XMCosCoefficients2@@3UXMVECTORF32@@B DD 029573f9fr ; 4.77948e-014 ; g_XMCosCoefficients2
	DD	0a53413c3r			; -1.56192e-016
	DD	020f2a15dr			; 4.11032e-019
	DD	09c8671cbr			; -8.89679e-022
;	COMDAT ?g_XMCosCoefficients1@@3UXMVECTORF32@@B
.rdata	SEGMENT
?g_XMCosCoefficients1@@3UXMVECTORF32@@B DD 037d00d01r ; 2.48016e-005 ; g_XMCosCoefficients1
	DD	0b493f27er			; -2.75573e-007
	DD	0310f76c8r			; 2.08768e-009
	DD	0ad49cba5r			; -1.14707e-011
;	COMDAT ?g_XMCosCoefficients0@@3UXMVECTORF32@@B
.rdata	SEGMENT
?g_XMCosCoefficients0@@3UXMVECTORF32@@B DD 03f800000r ; 1 ; g_XMCosCoefficients0
	DD	0bf000000r			; -0.5
	DD	03d2aaaabr			; 0.0416667
	DD	0bab60b61r			; -0.00138889
;	COMDAT ?g_XMSinCoefficients2@@3UXMVECTORF32@@B
.rdata	SEGMENT
?g_XMSinCoefficients2@@3UXMVECTORF32@@B DD 0274a963cr ; 2.81146e-015 ; g_XMSinCoefficients2
	DD	0a317a4dar			; -8.22064e-018
	DD	01eb8dc78r			; 1.95729e-020
	DD	09a3b0da1r			; -3.86817e-023
;	COMDAT ?g_XMSinCoefficients1@@3UXMVECTORF32@@B
.rdata	SEGMENT
?g_XMSinCoefficients1@@3UXMVECTORF32@@B DD 03638ef1dr ; 2.75573e-006 ; g_XMSinCoefficients1
	DD	0b2d7322br			; -2.50521e-008
	DD	02f309231r			; 1.6059e-010
	DD	0ab573f9fr			; -7.64716e-013
;	COMDAT ?g_XMSinCoefficients0@@3UXMVECTORF32@@B
.rdata	SEGMENT
?g_XMSinCoefficients0@@3UXMVECTORF32@@B DD 03f800000r ; 1 ; g_XMSinCoefficients0
	DD	0be2aaaabr			; -0.166667
	DD	03c088889r			; 0.00833333
	DD	0b9500d01r			; -0.000198413
;	COMDAT D3DTESSPRIMITIVEVERTEXCOUNT
.rdata	SEGMENT
D3DTESSPRIMITIVEVERTEXCOUNT DD 00H
	DD	00H
	DD	00H
	DD	00H
	DD	02H
	DD	00H
	DD	01H
	DD	01H
	DD	03H
	DD	00H
	DD	01H
	DD	02H
	DD	01H
	DD	02H
	DD	00H
	DD	00H
	DD	00H
	DD	00H
	DD	00H
	DD	00H
	DD	00H
	DD	00H
	DD	00H
	DD	00H
	DD	00H
	DD	00H
	DD	04H
	DD	00H
	DD	00H
	DD	00H
	DD	00H
	DD	00H
	DD	01H
	DD	00H
	DD	01H
	DD	00H
	DD	01H
	DD	00H
;	COMDAT D3DPRIMITIVEVERTEXCOUNT
.rdata	SEGMENT
D3DPRIMITIVEVERTEXCOUNT DD 00H
	DD	00H
	DD	01H
	DD	00H
	DD	02H
	DD	00H
	DD	01H
	DD	01H
	DD	03H
	DD	00H
	DD	01H
	DD	02H
	DD	01H
	DD	02H
	DD	00H
	DD	00H
	DD	03H
	DD	00H
	DD	00H
	DD	00H
	DD	00H
	DD	00H
	DD	00H
	DD	00H
	DD	00H
	DD	00H
	DD	04H
	DD	00H
;	COMDAT __C1_11886
.XBLD$W	SEGMENT
__C1_11886 DW	04331H
	DW	00H
	DW	00H
	DW	00H
	DW	010H
	DW	00H
	DW	02e6eH
	DW	04400H
;	COMDAT __C2_11886
.XBLD$W	SEGMENT
__C2_11886 DB	'C2', 00H, 00H, 00H, 00H, 00H, 00H, 00H, 010H, 00H, 00H, '.'
	DB	'nD', 00H
PUBLIC	?CallBool@@YA_NPAK@Z				; CallBool
; Function compile flags: /Odtu

	.code

?CallBool@@YA_NPAK@Z PROC NEAR				; CallBool, COMDAT

; Begin code for function: ?CallBool@@YA_NPAK@Z
; File c:\users\s7clutch\documents\visual studio 2010\projects\the saiyan project\src\natives.cpp
; Line 27
	stw          r3,buffer$(r1)		; 20 (14h)
; Line 28
	lwz          r11,buffer$(r1)		; 20 (14h)
	lwz          r10,0(r11)
	addi         r9,r10,-1		; 0FFFFh
	cntlzw       r8,r9
	rlwinm       r7,r8,27,31,31
	clrlwi       r3,r7,24
; Line 29
	blr
; End code for function: ?CallBool@@YA_NPAK@Z
?CallBool@@YA_NPAK@Z ENDP
							; CallBool
PUBLIC	?CallCamera@@YAKPAK@Z				; CallCamera
; Function compile flags: /Odtu

	.code

?CallCamera@@YAKPAK@Z PROC NEAR				; CallCamera, COMDAT

; Begin code for function: ?CallCamera@@YAKPAK@Z
; Line 31
	stw          r3,buffer$(r1)		; 20 (14h)
; Line 32
	lwz          r11,buffer$(r1)		; 20 (14h)
	lwz          r3,0(r11)
; Line 33
	blr
; End code for function: ?CallCamera@@YAKPAK@Z
?CallCamera@@YAKPAK@Z ENDP
							; CallCamera
PUBLIC	?CallDWORD@@YAKPAK@Z				; CallDWORD
; Function compile flags: /Odtu

	.code

?CallDWORD@@YAKPAK@Z PROC NEAR				; CallDWORD, COMDAT

; Begin code for function: ?CallDWORD@@YAKPAK@Z
; Line 35
	stw          r3,buffer$(r1)		; 20 (14h)
; Line 36
	lwz          r11,buffer$(r1)		; 20 (14h)
	lwz          r3,0(r11)
; Line 37
	blr
; End code for function: ?CallDWORD@@YAKPAK@Z
?CallDWORD@@YAKPAK@Z ENDP
							; CallDWORD
PUBLIC	?CallEntity@@YAKPAK@Z				; CallEntity
; Function compile flags: /Odtu

	.code

?CallEntity@@YAKPAK@Z PROC NEAR				; CallEntity, COMDAT

; Begin code for function: ?CallEntity@@YAKPAK@Z
; Line 39
	stw          r3,buffer$(r1)		; 20 (14h)
; Line 40
	lwz          r11,buffer$(r1)		; 20 (14h)
	lwz          r3,0(r11)
; Line 41
	blr
; End code for function: ?CallEntity@@YAKPAK@Z
?CallEntity@@YAKPAK@Z ENDP
							; CallEntity
PUBLIC	?CallFloat@@YAMPAK@Z				; CallFloat
EXTRN	_fltused:PROC
; Function compile flags: /Odtu

	.code
tv68 = -16						; size = 8

?CallFloat@@YAMPAK@Z PROC NEAR				; CallFloat, COMDAT

; Begin code for function: ?CallFloat@@YAMPAK@Z
; Line 43
	stw          r3,buffer$(r1)		; 20 (14h)
; Line 44
	lwz          r11,buffer$(r1)		; 20 (14h)
	lwz          r10,0(r11)
	rldicl       r9,r10,0,32
	std          r9,-10h(r1)
	lfd          fr0,-10h(r1)
	fcfid        fr13,fr0
	frsp         fr1,fr13
; Line 45
	blr
; End code for function: ?CallFloat@@YAMPAK@Z
?CallFloat@@YAMPAK@Z ENDP
							; CallFloat
PUBLIC	?CallNetworkID@@YAKPAK@Z			; CallNetworkID
; Function compile flags: /Odtu

	.code

?CallNetworkID@@YAKPAK@Z PROC NEAR			; CallNetworkID, COMDAT

; Begin code for function: ?CallNetworkID@@YAKPAK@Z
; Line 47
	stw          r3,buffer$(r1)		; 20 (14h)
; Line 48
	lwz          r11,buffer$(r1)		; 20 (14h)
	lwz          r3,0(r11)
; Line 49
	blr
; End code for function: ?CallNetworkID@@YAKPAK@Z
?CallNetworkID@@YAKPAK@Z ENDP
							; CallNetworkID
PUBLIC	?CallPed@@YAKPAK@Z				; CallPed
; Function compile flags: /Odtu

	.code

?CallPed@@YAKPAK@Z PROC NEAR				; CallPed, COMDAT

; Begin code for function: ?CallPed@@YAKPAK@Z
; Line 51
	stw          r3,buffer$(r1)		; 20 (14h)
; Line 52
	lwz          r11,buffer$(r1)		; 20 (14h)
	lwz          r3,0(r11)
; Line 53
	blr
; End code for function: ?CallPed@@YAKPAK@Z
?CallPed@@YAKPAK@Z ENDP
							; CallPed
PUBLIC	?CallPlayer@@YAKPAK@Z				; CallPlayer
; Function compile flags: /Odtu

	.code

?CallPlayer@@YAKPAK@Z PROC NEAR				; CallPlayer, COMDAT

; Begin code for function: ?CallPlayer@@YAKPAK@Z
; Line 55
	stw          r3,buffer$(r1)		; 20 (14h)
; Line 56
	lwz          r11,buffer$(r1)		; 20 (14h)
	lwz          r3,0(r11)
; Line 57
	blr
; End code for function: ?CallPlayer@@YAKPAK@Z
?CallPlayer@@YAKPAK@Z ENDP
							; CallPlayer
PUBLIC	??0_Vector3@@QAA@MMM@Z				; _Vector3::_Vector3
PUBLIC	?CallPosition@@YA?AU_Vector3@@PAK@Z		; CallPosition
;	COMDAT .pdata
.pdata	SEGMENT
$T91617	DD	?CallPosition@@YA?AU_Vector3@@PAK@Z
	DD	040002103H
; Function compile flags: /Odtu

	.code
tv76 = 80						; size = 8
tv83 = 88						; size = 8
tv90 = 96						; size = 8

?CallPosition@@YA?AU_Vector3@@PAK@Z PROC NEAR		; CallPosition, COMDAT

; Begin code for function: ?CallPosition@@YA?AU_Vector3@@PAK@Z
; Line 59
	mflr         r12
	stw          r12,-8(r1)
	stwu         r1,-70h(r1)
.endprolog
$M91615:
	stw          r3,__$ReturnUdt$(r1)		; 132 (84h)
	stw          r4,buffer$(r1)		; 140 (8Ch)
; Line 60
	lwz          r11,buffer$(r1)		; 140 (8Ch)
	lwz          r10,8(r11)
	rldicl       r9,r10,0,32
	std          r9,50h(r1)
	lfd          fr0,50h(r1)
	fcfid        fr13,fr0
	frsp         fr3,fr13
	lwz          r8,buffer$(r1)		; 140 (8Ch)
	lwz          r7,4(r8)
	rldicl       r6,r7,0,32
	std          r6,58h(r1)
	lfd          fr12,58h(r1)
	fcfid        fr11,fr12
	frsp         fr2,fr11
	lwz          r5,buffer$(r1)		; 140 (8Ch)
	lwz          r4,0(r5)
	rldicl       r3,r4,0,32
	std          r3,60h(r1)
	lfd          fr10,60h(r1)
	fcfid        fr9,fr10
	frsp         fr1,fr9
	lwz          r3,__$ReturnUdt$(r1)		; 132 (84h)
	bl           ??0_Vector3@@QAA@MMM@Z
	lwz          r3,__$ReturnUdt$(r1)		; 132 (84h)
; Line 61
	addi         r1,r1,112		; 70h
	lwz          r12,-8(r1)
	mtlr         r12
	blr
$M91616:
; End code for function: ?CallPosition@@YA?AU_Vector3@@PAK@Z
?CallPosition@@YA?AU_Vector3@@PAK@Z ENDP
							; CallPosition
; Function compile flags: /Odtu

	.code

??0_Vector3@@QAA@MMM@Z PROC NEAR				; _Vector3::_Vector3, COMDAT

; Begin code for function: ??0_Vector3@@QAA@MMM@Z
; File c:\users\s7clutch\documents\visual studio 2010\projects\the saiyan project\src\globals.h
; Line 1920
	stw          r3,this$(r1)		; 20 (14h)
	stfs         fr1,x$(r1)		; 28 (1Ch)
	stfs         fr2,y$(r1)		; 36 (24h)
	stfs         fr3,z$(r1)		; 44 (2Ch)
; Line 1922
	lfs          fr0,x$(r1)		; 28 (1Ch)
	lwz          r11,this$(r1)		; 20 (14h)
	stfs         fr0,0(r11)
	lwz          r10,this$(r1)		; 20 (14h)
	lfs          fr13,y$(r1)		; 36 (24h)
	stfs         fr13,4(r10)
	lwz          r9,this$(r1)		; 20 (14h)
	lfs          fr12,z$(r1)		; 44 (2Ch)
	stfs         fr12,8(r9)
; Line 1923
	lwz          r3,this$(r1)		; 20 (14h)
	blr
; End code for function: ??0_Vector3@@QAA@MMM@Z
??0_Vector3@@QAA@MMM@Z ENDP
							; _Vector3::_Vector3
PUBLIC	?CallProp@@YAKPAK@Z				; CallProp
; Function compile flags: /Odtu

	.code

?CallProp@@YAKPAK@Z PROC NEAR				; CallProp, COMDAT

; Begin code for function: ?CallProp@@YAKPAK@Z
; File c:\users\s7clutch\documents\visual studio 2010\projects\the saiyan project\src\natives.cpp
; Line 63
	stw          r3,buffer$(r1)		; 20 (14h)
; Line 64
	lwz          r11,buffer$(r1)		; 20 (14h)
	lwz          r3,0(r11)
; Line 65
	blr
; End code for function: ?CallProp@@YAKPAK@Z
?CallProp@@YAKPAK@Z ENDP
							; CallProp
PUBLIC	?CallRope@@YAKPAK@Z				; CallRope
; Function compile flags: /Odtu

	.code

?CallRope@@YAKPAK@Z PROC NEAR				; CallRope, COMDAT

; Begin code for function: ?CallRope@@YAKPAK@Z
; Line 67
	stw          r3,buffer$(r1)		; 20 (14h)
; Line 68
	lwz          r11,buffer$(r1)		; 20 (14h)
	lwz          r3,0(r11)
; Line 69
	blr
; End code for function: ?CallRope@@YAKPAK@Z
?CallRope@@YAKPAK@Z ENDP
							; CallRope
PUBLIC	?CallTeam@@YAKPAK@Z				; CallTeam
; Function compile flags: /Odtu

	.code

?CallTeam@@YAKPAK@Z PROC NEAR				; CallTeam, COMDAT

; Begin code for function: ?CallTeam@@YAKPAK@Z
; Line 71
	stw          r3,buffer$(r1)		; 20 (14h)
; Line 72
	lwz          r11,buffer$(r1)		; 20 (14h)
	lwz          r3,0(r11)
; Line 73
	blr
; End code for function: ?CallTeam@@YAKPAK@Z
?CallTeam@@YAKPAK@Z ENDP
							; CallTeam
PUBLIC	?CallVehicle@@YAKPAK@Z				; CallVehicle
; Function compile flags: /Odtu

	.code

?CallVehicle@@YAKPAK@Z PROC NEAR				; CallVehicle, COMDAT

; Begin code for function: ?CallVehicle@@YAKPAK@Z
; Line 75
	stw          r3,buffer$(r1)		; 20 (14h)
; Line 76
	lwz          r11,buffer$(r1)		; 20 (14h)
	lwz          r3,0(r11)
; Line 77
	blr
; End code for function: ?CallVehicle@@YAKPAK@Z
?CallVehicle@@YAKPAK@Z ENDP
							; CallVehicle
PUBLIC	?APPLY_FORCE_TO_ENTITY@@YAXKKMMMMMM_N00000@Z	; APPLY_FORCE_TO_ENTITY
PUBLIC	__real@00000000
PUBLIC	?_APPLY_RELATIVE_FORCE@@YAXKU_Vector3@@@Z	; _APPLY_RELATIVE_FORCE
;	COMDAT .pdata
.pdata	SEGMENT
$T91635	DD	?_APPLY_RELATIVE_FORCE@@YAXKU_Vector3@@@Z
	DD	040002203H
;	COMDAT __real@00000000
.rdata	SEGMENT
__real@00000000 DD 000000000r			; 0
; Function compile flags: /Odtu

	.code

?_APPLY_RELATIVE_FORCE@@YAXKU_Vector3@@@Z PROC NEAR	; _APPLY_RELATIVE_FORCE, COMDAT

; Begin code for function: ?_APPLY_RELATIVE_FORCE@@YAXKU_Vector3@@@Z
; Line 80
	mflr         r12
	stw          r12,-8(r1)
	stwu         r1,-90h(r1)
.endprolog
$M91633:
	stw          r3,entity$(r1)		; 164 (0A4h)
	std          r4,direction$(r1)
	std          r5,direction$+8(r1)
; Line 81
	li           r11,1
	stb          r11,7Fh(r1)
	li           r10,0
	stb          r10,77h(r1)
	li           r9,1
	stb          r9,6Fh(r1)
	li           r8,1
	stb          r8,67h(r1)
	li           r7,1
	stb          r7,5Fh(r1)
	li           r6,0
	stb          r6,57h(r1)
	lis          r5,__real@00000000
	lfs          fr6,__real@00000000(r5)
	lis          r4,__real@00000000
	lfs          fr5,__real@00000000(r4)
	lis          r3,__real@00000000
	lfs          fr4,__real@00000000(r3)
	lfs          fr3,direction$+8(r1)		; 184 (0B8h)
	lfs          fr2,direction$+4(r1)		; 180 (0B4h)
	lfs          fr1,direction$(r1)		; 176 (0B0h)
	li           r4,3
	lwz          r3,entity$(r1)		; 164 (0A4h)
	bl           ?APPLY_FORCE_TO_ENTITY@@YAXKKMMMMMM_N00000@Z
; Line 82
	addi         r1,r1,144		; 90h
	lwz          r12,-8(r1)
	mtlr         r12
	blr
$M91634:
; End code for function: ?_APPLY_RELATIVE_FORCE@@YAXKU_Vector3@@@Z
?_APPLY_RELATIVE_FORCE@@YAXKU_Vector3@@@Z ENDP
							; _APPLY_RELATIVE_FORCE
PUBLIC	?_APPLY_RELATIVE_FORCE@@YAXKU_Vector3@@0@Z	; _APPLY_RELATIVE_FORCE
;	COMDAT .pdata
.pdata	SEGMENT
$T91641	DD	?_APPLY_RELATIVE_FORCE@@YAXKU_Vector3@@0@Z
	DD	040002103H
; Function compile flags: /Odtu

	.code

?_APPLY_RELATIVE_FORCE@@YAXKU_Vector3@@0@Z PROC NEAR	; _APPLY_RELATIVE_FORCE, COMDAT

; Begin code for function: ?_APPLY_RELATIVE_FORCE@@YAXKU_Vector3@@0@Z
; Line 84
	mflr         r12
	stw          r12,-8(r1)
	stwu         r1,-90h(r1)
.endprolog
$M91639:
	stw          r3,entity$(r1)		; 164 (0A4h)
	std          r4,direction$(r1)
	std          r5,direction$+8(r1)
	std          r6,rotation$(r1)
	std          r7,rotation$+8(r1)
; Line 85
	li           r11,1
	stb          r11,7Fh(r1)
	li           r10,0
	stb          r10,77h(r1)
	li           r9,1
	stb          r9,6Fh(r1)
	li           r8,1
	stb          r8,67h(r1)
	li           r7,1
	stb          r7,5Fh(r1)
	li           r6,0
	stb          r6,57h(r1)
	lfs          fr6,rotation$+8(r1)		; 200 (0C8h)
	lfs          fr5,rotation$+4(r1)		; 196 (0C4h)
	lfs          fr4,rotation$+8(r1)		; 200 (0C8h)
	lfs          fr3,direction$+8(r1)		; 184 (0B8h)
	lfs          fr2,direction$+4(r1)		; 180 (0B4h)
	lfs          fr1,direction$(r1)		; 176 (0B0h)
	li           r4,3
	lwz          r3,entity$(r1)		; 164 (0A4h)
	bl           ?APPLY_FORCE_TO_ENTITY@@YAXKKMMMMMM_N00000@Z
; Line 86
	addi         r1,r1,144		; 90h
	lwz          r12,-8(r1)
	mtlr         r12
	blr
$M91640:
; End code for function: ?_APPLY_RELATIVE_FORCE@@YAXKU_Vector3@@0@Z
?_APPLY_RELATIVE_FORCE@@YAXKU_Vector3@@0@Z ENDP
							; _APPLY_RELATIVE_FORCE
PUBLIC	?ATTACH_ENTITIES_TO_ROPE@@YAXKKKMMMMMMM_N000@Z	; ATTACH_ENTITIES_TO_ROPE
PUBLIC	?GET_OFFSET_FROM_ENTITY_IN_WORLD_COORDS@@YA?AU_Vector3@@KMMM@Z ; GET_OFFSET_FROM_ENTITY_IN_WORLD_COORDS
PUBLIC	??D_Vector3@@QBA?AU0@M@Z			; _Vector3::operator*
PUBLIC	__real@3f000000
PUBLIC	?isNull@_Vector3@@QAA_NXZ			; _Vector3::isNull
PUBLIC	__real@41200000
PUBLIC	__real@4024000000000000
PUBLIC	?SET_ENTITY_HEALTH@@YAXKK@Z			; SET_ENTITY_HEALTH
PUBLIC	?REVIVE_INJURED_PED@@YAXK@Z			; REVIVE_INJURED_PED
PUBLIC	?GET_ENTITY_HEALTH@@YAKK@Z			; GET_ENTITY_HEALTH
PUBLIC	?SET_PED_GENERATES_DEAD_BODY_EVENTS@@YAXK_N@Z	; SET_PED_GENERATES_DEAD_BODY_EVENTS
PUBLIC	?SET_ENTITY_AS_MISSION_ENTITY@@YAXK_N0@Z	; SET_ENTITY_AS_MISSION_ENTITY
PUBLIC	?SET_PED_SUFFERS_CRITICAL_HITS@@YAXK_N@Z	; SET_PED_SUFFERS_CRITICAL_HITS
PUBLIC	?SET_PED_DIES_WHEN_INJURED@@YAXK_N@Z		; SET_PED_DIES_WHEN_INJURED
PUBLIC	?SET_PED_TO_RAGDOLL@@YAXKKKK_N00@Z		; SET_PED_TO_RAGDOLL
PUBLIC	?GET_PED_BONE_COORDS@@YA?AU_Vector3@@KKMMM@Z	; GET_PED_BONE_COORDS
PUBLIC	?IS_ENTITY_A_PED@@YA_NK@Z			; IS_ENTITY_A_PED
PUBLIC	?GET_DISTANCE_BETWEEN_COORDS@@YAMMMMMMM_N@Z	; GET_DISTANCE_BETWEEN_COORDS
PUBLIC	__real@3fb999999999999a
PUBLIC	?_ATTACH_ENTITIES_TO_ROPE@@YAKKKKMMMMMMMMU_Vector3@@0@Z ; _ATTACH_ENTITIES_TO_ROPE
;	COMDAT .pdata
.pdata	SEGMENT
$T91660	DD	?_ATTACH_ENTITIES_TO_ROPE@@YAKKKKMMMMMMMMU_Vector3@@0@Z
	DD	04000f303H
;	COMDAT __real@3f000000
.rdata	SEGMENT
__real@3f000000 DD 03f000000r			; 0.5
;	COMDAT __real@41200000
.rdata	SEGMENT
__real@41200000 DD 041200000r			; 10
;	COMDAT __real@4024000000000000
.rdata	SEGMENT
__real@4024000000000000 DQ 04024000000000000r	; 10
;	COMDAT __real@3fb999999999999a
.rdata	SEGMENT
__real@3fb999999999999a DQ 03fb999999999999ar	; 0.1
; Function compile flags: /Odtu

	.code
position$ = 128						; size = 12
offsets$ = 144						; size = 24
distance$ = 168						; size = 4
destination$ = 176					; size = 12
ents$ = 192						; size = 8
i$85935 = 200						; size = 4
i$85943 = 204						; size = 4
$T91647 = 208						; size = 12
$T91648 = 224						; size = 12
$T91649 = 240						; size = 12
tv84 = 252						; size = 4

?_ATTACH_ENTITIES_TO_ROPE@@YAKKKKMMMMMMMMU_Vector3@@0@Z	PROC NEAR ; _ATTACH_ENTITIES_TO_ROPE, COMDAT

; Begin code for function: ?_ATTACH_ENTITIES_TO_ROPE@@YAKKKKMMMMMMMMU_Vector3@@0@Z
; Line 88
	mflr         r12
	stw          r12,-8(r1)
	stwu         r1,-110h(r1)
.endprolog
$M91658:
	stw          r3,rope$(r1)		; 292 (124h)
	stw          r4,ent1$(r1)		; 300 (12Ch)
	stw          r5,ent2$(r1)		; 308 (134h)
	stfs         fr1,x1$(r1)		; 316 (13Ch)
	stfs         fr2,y1$(r1)		; 324 (144h)
	stfs         fr3,z1$(r1)		; 332 (14Ch)
	stfs         fr4,x2$(r1)		; 340 (154h)
	stfs         fr5,y2$(r1)		; 348 (15Ch)
	stfs         fr6,z2$(r1)		; 356 (164h)
	stfs         fr7,distanceCoef$(r1)		; 364 (16Ch)
	stfs         fr8,forcedDistance$(r1)		; 372 (174h)
; Line 89
	lfs          fr3,z1$(r1)		; 332 (14Ch)
	lfs          fr2,y1$(r1)		; 324 (144h)
	lfs          fr1,x1$(r1)		; 316 (13Ch)
	addi         r3,r1,position$
	bl           ??0_Vector3@@QAA@MMM@Z
; Line 90
	lfs          fr3,z2$(r1)		; 356 (164h)
	lfs          fr2,y2$(r1)		; 348 (15Ch)
	lfs          fr1,x2$(r1)		; 340 (154h)
	addi         r3,r1,destination$
	bl           ??0_Vector3@@QAA@MMM@Z
; Line 91
	lwz          r11,ent1Offset$(r1)		; 384 (180h)
	stw          r11,offsets$(r1)		; 144 (90h)
	lwz          r10,ent1Offset$+4(r1)		; 388 (184h)
	stw          r10,offsets$+4(r1)		; 148 (94h)
	lwz          r9,ent1Offset$+8(r1)		; 392 (188h)
	stw          r9,offsets$+8(r1)		; 152 (98h)
	lwz          r8,ent2Offset$(r1)		; 400 (190h)
	stw          r8,offsets$+0Ch(r1)		; 156 (9Ch)
	lwz          r7,ent2Offset$+4(r1)		; 404 (194h)
	stw          r7,offsets$+10h(r1)		; 160 (0A0h)
	lwz          r6,ent2Offset$+8(r1)		; 408 (198h)
	stw          r6,offsets$+14h(r1)		; 164 (0A4h)
; Line 92
	lwz          r5,ent1$(r1)		; 300 (12Ch)
	stw          r5,ents$(r1)		; 192 (0C0h)
	lwz          r4,ent2$(r1)		; 308 (134h)
	stw          r4,ents$+4(r1)		; 196 (0C4h)
; Line 93
	lfs          fr0,forcedDistance$(r1)		; 372 (174h)
	lis          r3,__real@3fb999999999999a
	lfd          fr13,__real@3fb999999999999a(r3)
	fcmpu        cr6,fr0,fr13
	bge          cr6,$LN13@ATTACH_ENT
	li           r9,1
	lfs          fr6,z2$(r1)		; 356 (164h)
	lfs          fr5,y2$(r1)		; 348 (15Ch)
	lfs          fr4,x2$(r1)		; 340 (154h)
	lfs          fr3,z1$(r1)		; 332 (14Ch)
	lfs          fr2,y1$(r1)		; 324 (144h)
	lfs          fr1,x1$(r1)		; 316 (13Ch)
	bl           ?GET_DISTANCE_BETWEEN_COORDS@@YAMMMMMMM_N@Z
	lfs          fr12,distanceCoef$(r1)		; 364 (16Ch)
	fmuls        fr11,fr1,fr12
	stfs         fr11,0FCh(r1)
	b            $LN14@ATTACH_ENT
$LN13@ATTACH_ENT:
	lfs          fr10,forcedDistance$(r1)		; 372 (174h)
	stfs         fr10,0FCh(r1)
$LN14@ATTACH_ENT:
	lfs          fr9,0FCh(r1)
	stfs         fr9,distance$(r1)		; 168 (0A8h)
; Line 94
	li           r11,0
	stw          r11,i$85935(r1)		; 200 (0C8h)
	b            $LN10@ATTACH_ENT
$LN9@ATTACH_ENT:
	lwz          r10,i$85935(r1)		; 200 (0C8h)
	addi         r9,r10,1
	stw          r9,i$85935(r1)		; 200 (0C8h)
$LN10@ATTACH_ENT:
	lwz          r8,i$85935(r1)		; 200 (0C8h)
	cmpwi        cr6,r8,2
	bge          cr6,$LN8@ATTACH_ENT
; Line 96
	lwz          r7,i$85935(r1)		; 200 (0C8h)
	slwi         r6,r7,2
	addi         r5,r1,ents$
	lwzx         r3,r5,r6
	bl           ?IS_ENTITY_A_PED@@YA_NK@Z
	clrlwi       r4,r3,24
	cmpwi        cr6,r4,0
	beq          cr6,$LN7@ATTACH_ENT
; Line 98
	lis          r3,__real@00000000
	lfs          fr3,__real@00000000(r3)
	lis          r11,__real@00000000
	lfs          fr2,__real@00000000(r11)
	lis          r10,__real@00000000
	lfs          fr1,__real@00000000(r10)
	li           r5,0
	lwz          r9,i$85935(r1)		; 200 (0C8h)
	slwi         r8,r9,2
	addi         r7,r1,ents$
	lwzx         r4,r7,r8
	addi         r3,r1,$T91647
	bl           ?GET_PED_BONE_COORDS@@YA?AU_Vector3@@KKMMM@Z
	lwz          r6,0(r3)
	stw          r6,position$(r1)		; 128 (80h)
	lwz          r5,4(r3)
	stw          r5,position$+4(r1)		; 132 (84h)
	lwz          r4,8(r3)
	stw          r4,position$+8(r1)		; 136 (88h)
; Line 99
	li           r9,0
	li           r8,0
	li           r7,0
	li           r6,0
	li           r5,-1		; 0FFFFh
	li           r4,-1		; 0FFFFh
	lwz          r3,i$85935(r1)		; 200 (0C8h)
	slwi         r11,r3,2
	addi         r10,r1,ents$
	lwzx         r3,r10,r11
	bl           ?SET_PED_TO_RAGDOLL@@YAXKKKK_N00@Z
; Line 100
	li           r4,0
	lwz          r9,i$85935(r1)		; 200 (0C8h)
	slwi         r8,r9,2
	addi         r7,r1,ents$
	lwzx         r3,r7,r8
	bl           ?SET_PED_DIES_WHEN_INJURED@@YAXK_N@Z
; Line 101
	li           r4,0
	lwz          r6,i$85935(r1)		; 200 (0C8h)
	slwi         r5,r6,2
	addi         r3,r1,ents$
	lwzx         r3,r3,r5
	bl           ?SET_PED_SUFFERS_CRITICAL_HITS@@YAXK_N@Z
; Line 102
	li           r5,1
	li           r4,1
	lwz          r11,i$85935(r1)		; 200 (0C8h)
	slwi         r10,r11,2
	addi         r9,r1,ents$
	lwzx         r3,r9,r10
	bl           ?SET_ENTITY_AS_MISSION_ENTITY@@YAXK_N0@Z
; Line 103
	li           r4,0
	lwz          r8,i$85935(r1)		; 200 (0C8h)
	slwi         r7,r8,2
	addi         r6,r1,ents$
	lwzx         r3,r6,r7
	bl           ?SET_PED_GENERATES_DEAD_BODY_EVENTS@@YAXK_N@Z
; Line 104
	lwz          r5,i$85935(r1)		; 200 (0C8h)
	slwi         r4,r5,2
	addi         r3,r1,ents$
	lwzx         r3,r3,r4
	bl           ?GET_ENTITY_HEALTH@@YAKK@Z
	cmplwi       cr6,r3,100		; 64h
	bge          cr6,$LN7@ATTACH_ENT
; Line 106
	lwz          r11,i$85935(r1)		; 200 (0C8h)
	slwi         r10,r11,2
	addi         r9,r1,ents$
	lwzx         r3,r9,r10
	bl           ?REVIVE_INJURED_PED@@YAXK@Z
; Line 107
	li           r4,200		; 0C8h
	lwz          r8,i$85935(r1)		; 200 (0C8h)
	slwi         r7,r8,2
	addi         r6,r1,ents$
	lwzx         r3,r6,r7
	bl           ?SET_ENTITY_HEALTH@@YAXKK@Z
$LN7@ATTACH_ENT:
; Line 110
	b            $LN9@ATTACH_ENT
$LN8@ATTACH_ENT:
; Line 111
	lfs          fr8,distance$(r1)		; 168 (0A8h)
	lis          r5,__real@4024000000000000
	lfd          fr7,__real@4024000000000000(r5)
	fcmpu        cr6,fr8,fr7
	bge          cr6,$LN5@ATTACH_ENT
; Line 112
	lis          r4,__real@41200000
	lfs          fr6,__real@41200000(r4)
	stfs         fr6,distance$(r1)		; 168 (0A8h)
$LN5@ATTACH_ENT:
; Line 113
	li           r3,0
	stw          r3,i$85943(r1)		; 204 (0CCh)
	b            $LN4@ATTACH_ENT
$LN3@ATTACH_ENT:
	lwz          r11,i$85943(r1)		; 204 (0CCh)
	addi         r10,r11,1
	stw          r10,i$85943(r1)		; 204 (0CCh)
$LN4@ATTACH_ENT:
	lwz          r9,i$85943(r1)		; 204 (0CCh)
	cmpwi        cr6,r9,2
	bge          cr6,$LN2@ATTACH_ENT
; Line 115
	lwz          r8,i$85943(r1)		; 204 (0CCh)
	mulli        r7,r8,12		; 0Ch
	addi         r6,r1,offsets$
	add          r3,r6,r7
	bl           ?isNull@_Vector3@@QAA_NXZ
	clrlwi       r5,r3,24
	cmpwi        cr6,r5,0
	bne          cr6,$LN1@ATTACH_ENT
; Line 117
	lis          r4,__real@3f000000
	lfs          fr1,__real@3f000000(r4)
	addi         r3,r1,$T91648
	lwz          r11,i$85943(r1)		; 204 (0CCh)
	mulli        r10,r11,12		; 0Ch
	addi         r9,r1,offsets$
	add          r4,r9,r10
	bl           ??D_Vector3@@QBA?AU0@M@Z
	lwz          r8,i$85943(r1)		; 204 (0CCh)
	mulli        r7,r8,12		; 0Ch
	addi         r6,r1,offsets$
	add          r5,r6,r7
	lwz          r4,0(r3)
	stw          r4,0(r5)
	lwz          r11,4(r3)
	stw          r11,4(r5)
	lwz          r10,8(r3)
	stw          r10,8(r5)
; Line 118
	lwz          r9,i$85943(r1)		; 204 (0CCh)
	mulli        r8,r9,12		; 0Ch
	addi         r7,r1,offsets$
	add          r6,r7,r8
	lfs          fr3,8(r6)
	lwz          r5,i$85943(r1)		; 204 (0CCh)
	mulli        r4,r5,12		; 0Ch
	addi         r3,r1,offsets$
	add          r11,r3,r4
	lfs          fr2,4(r11)
	lwz          r10,i$85943(r1)		; 204 (0CCh)
	mulli        r9,r10,12		; 0Ch
	addi         r8,r1,offsets$
	lfsx         fr1,r8,r9
	lwz          r4,ent1$(r1)		; 300 (12Ch)
	addi         r3,r1,$T91649
	bl           ?GET_OFFSET_FROM_ENTITY_IN_WORLD_COORDS@@YA?AU_Vector3@@KMMM@Z
	lwz          r7,0(r3)
	stw          r7,position$(r1)		; 128 (80h)
	lwz          r6,4(r3)
	stw          r6,position$+4(r1)		; 132 (84h)
	lwz          r5,8(r3)
	stw          r5,position$+8(r1)		; 136 (88h)
$LN1@ATTACH_ENT:
; Line 120
	b            $LN3@ATTACH_ENT
$LN2@ATTACH_ENT:
; Line 121
	li           r4,0
	stb          r4,7Fh(r1)
	li           r3,0
	stb          r3,77h(r1)
	li           r11,0
	stb          r11,6Fh(r1)
	li           r10,0
	stb          r10,67h(r1)
	lfs          fr7,distance$(r1)		; 168 (0A8h)
	lfs          fr6,destination$+8(r1)		; 184 (0B8h)
	lfs          fr5,destination$+4(r1)		; 180 (0B4h)
	lfs          fr4,destination$(r1)		; 176 (0B0h)
	lfs          fr3,position$+8(r1)		; 136 (88h)
	lfs          fr2,position$+4(r1)		; 132 (84h)
	lfs          fr1,position$(r1)		; 128 (80h)
	lwz          r5,ent2$(r1)		; 308 (134h)
	lwz          r4,ent1$(r1)		; 300 (12Ch)
	lwz          r3,rope$(r1)		; 292 (124h)
	bl           ?ATTACH_ENTITIES_TO_ROPE@@YAXKKKMMMMMMM_N000@Z
; Line 122
	lwz          r3,rope$(r1)		; 292 (124h)
; Line 123
	addi         r1,r1,272		; 110h
	lwz          r12,-8(r1)
	mtlr         r12
	blr
$M91659:
; End code for function: ?_ATTACH_ENTITIES_TO_ROPE@@YAKKKKMMMMMMMMU_Vector3@@0@Z
?_ATTACH_ENTITIES_TO_ROPE@@YAKKKKMMMMMMMMU_Vector3@@0@Z ENDP
							; _ATTACH_ENTITIES_TO_ROPE
;	COMDAT .pdata
; File c:\users\s7clutch\documents\visual studio 2010\projects\the saiyan project\src\globals.h
.pdata	SEGMENT
$T91666	DD	??D_Vector3@@QBA?AU0@M@Z
	DD	040001903H
; Function compile flags: /Odtu

	.code

??D_Vector3@@QBA?AU0@M@Z PROC NEAR			; _Vector3::operator*, COMDAT

; Begin code for function: ??D_Vector3@@QBA?AU0@M@Z
; Line 1953
	mflr         r12
	stw          r12,-8(r1)
	stwu         r1,-60h(r1)
.endprolog
$M91664:
	stw          r3,__$ReturnUdt$(r1)		; 116 (74h)
	stw          r4,this$(r1)		; 124 (7Ch)
	stfs         fr1,scale$(r1)		; 132 (84h)
; Line 1954
	lwz          r11,this$(r1)		; 124 (7Ch)
	lfs          fr0,8(r11)
	lfs          fr13,scale$(r1)		; 132 (84h)
	fmuls        fr3,fr0,fr13
	lwz          r10,this$(r1)		; 124 (7Ch)
	lfs          fr12,4(r10)
	lfs          fr11,scale$(r1)		; 132 (84h)
	fmuls        fr2,fr12,fr11
	lwz          r9,this$(r1)		; 124 (7Ch)
	lfs          fr10,0(r9)
	lfs          fr9,scale$(r1)		; 132 (84h)
	fmuls        fr1,fr10,fr9
	lwz          r3,__$ReturnUdt$(r1)		; 116 (74h)
	bl           ??0_Vector3@@QAA@MMM@Z
	lwz          r3,__$ReturnUdt$(r1)		; 116 (74h)
; Line 1955
	addi         r1,r1,96		; 60h
	lwz          r12,-8(r1)
	mtlr         r12
	blr
$M91665:
; End code for function: ??D_Vector3@@QBA?AU0@M@Z
??D_Vector3@@QBA?AU0@M@Z ENDP
							; _Vector3::operator*
PUBLIC	__real@0000000000000000
;	COMDAT __real@0000000000000000
.rdata	SEGMENT
__real@0000000000000000 DQ 00000000000000000r	; 0
; Function compile flags: /Odtu

	.code
tv72 = -16						; size = 4

?isNull@_Vector3@@QAA_NXZ PROC NEAR			; _Vector3::isNull, COMDAT

; Begin code for function: ?isNull@_Vector3@@QAA_NXZ
; Line 1979
	stw          r3,this$(r1)		; 20 (14h)
; Line 1980
	lwz          r11,this$(r1)		; 20 (14h)
	lfs          fr0,0(r11)
	lis          r10,__real@0000000000000000
	lfd          fr13,__real@0000000000000000(r10)
	fcmpu        cr6,fr0,fr13
	bne          cr6,$LN3@isNull
	lwz          r9,this$(r1)		; 20 (14h)
	lfs          fr12,4(r9)
	lis          r8,__real@0000000000000000
	lfd          fr11,__real@0000000000000000(r8)
	fcmpu        cr6,fr12,fr11
	bne          cr6,$LN3@isNull
	lwz          r7,this$(r1)		; 20 (14h)
	lfs          fr10,8(r7)
	lis          r6,__real@0000000000000000
	lfd          fr9,__real@0000000000000000(r6)
	fcmpu        cr6,fr10,fr9
	bne          cr6,$LN3@isNull
	li           r5,1
	stw          r5,-10h(r1)
	b            $LN4@isNull
$LN3@isNull:
	li           r4,0
	stw          r4,-10h(r1)
$LN4@isNull:
	lwz          r3,-10h(r1)
	clrlwi       r3,r3,24
; Line 1981
	blr
; End code for function: ?isNull@_Vector3@@QAA_NXZ
?isNull@_Vector3@@QAA_NXZ ENDP
							; _Vector3::isNull
PUBLIC	?_0xFC0DB4C3@@YAXK@Z				; _0xFC0DB4C3
PUBLIC	?ATTACH_ROPE_TO_ENTITY@@YAXKKMMM_N@Z		; ATTACH_ROPE_TO_ENTITY
PUBLIC	??Y_Vector3@@QAAXU0@@Z				; _Vector3::operator+=
PUBLIC	?_ATTACH_ROPE_TO_ENTITY@@YAXKKMMMU_Vector3@@0@Z	; _ATTACH_ROPE_TO_ENTITY
;	COMDAT .pdata
; File c:\users\s7clutch\documents\visual studio 2010\projects\the saiyan project\src\natives.cpp
.pdata	SEGMENT
$T91678	DD	?_ATTACH_ROPE_TO_ENTITY@@YAXKKMMMU_Vector3@@0@Z
	DD	040003203H
; Function compile flags: /Odtu

	.code
position$ = 80						; size = 12

?_ATTACH_ROPE_TO_ENTITY@@YAXKKMMMU_Vector3@@0@Z	PROC NEAR ; _ATTACH_ROPE_TO_ENTITY, COMDAT

; Begin code for function: ?_ATTACH_ROPE_TO_ENTITY@@YAXKKMMMU_Vector3@@0@Z
; Line 125
	mflr         r12
	stw          r12,-8(r1)
	stwu         r1,-70h(r1)
.endprolog
$M91676:
	stw          r3,rope$(r1)		; 132 (84h)
	stw          r4,entity$(r1)		; 140 (8Ch)
	stfs         fr1,x$(r1)		; 148 (94h)
	stfs         fr2,y$(r1)		; 156 (9Ch)
	stfs         fr3,z$(r1)		; 164 (0A4h)
	std          r8,offset$(r1)
	std          r9,offset$+8(r1)
	std          r10,forcedPosition$(r1)
; Line 126
	lfs          fr3,z$(r1)		; 164 (0A4h)
	lfs          fr2,y$(r1)		; 156 (9Ch)
	lfs          fr1,x$(r1)		; 148 (94h)
	addi         r3,r1,position$
	bl           ??0_Vector3@@QAA@MMM@Z
; Line 127
	addi         r3,r1,forcedPosition$
	bl           ?isNull@_Vector3@@QAA_NXZ
	clrlwi       r11,r3,24
	cmpwi        cr6,r11,0
	bne          cr6,$LN2@ATTACH_ROP
; Line 128
	lwz          r10,forcedPosition$(r1)		; 192 (0C0h)
	stw          r10,position$(r1)		; 80 (50h)
	lwz          r9,forcedPosition$+4(r1)		; 196 (0C4h)
	stw          r9,position$+4(r1)		; 84 (54h)
	lwz          r8,forcedPosition$+8(r1)		; 200 (0C8h)
	stw          r8,position$+8(r1)		; 88 (58h)
$LN2@ATTACH_ROP:
; Line 129
	addi         r3,r1,offset$
	bl           ?isNull@_Vector3@@QAA_NXZ
	clrlwi       r7,r3,24
	cmpwi        cr6,r7,0
	bne          cr6,$LN1@ATTACH_ROP
; Line 130
	ld           r4,offset$(r1)
	lwz          r6,offset$+8(r1)		; 184 (0B8h)
	rldicr       r5,r6,32,31
	addi         r3,r1,position$
	bl           ??Y_Vector3@@QAAXU0@@Z
$LN1@ATTACH_ROP:
; Line 131
	li           r8,0
	lfs          fr3,z$(r1)		; 164 (0A4h)
	lfs          fr2,y$(r1)		; 156 (9Ch)
	lfs          fr1,x$(r1)		; 148 (94h)
	lwz          r4,entity$(r1)		; 140 (8Ch)
	lwz          r3,rope$(r1)		; 132 (84h)
	bl           ?ATTACH_ROPE_TO_ENTITY@@YAXKKMMM_N@Z
; Line 132
	lwz          r3,rope$(r1)		; 132 (84h)
	bl           ?_0xFC0DB4C3@@YAXK@Z
; Line 133
	addi         r1,r1,112		; 70h
	lwz          r12,-8(r1)
	mtlr         r12
	blr
$M91677:
; End code for function: ?_ATTACH_ROPE_TO_ENTITY@@YAXKKMMMU_Vector3@@0@Z
?_ATTACH_ROPE_TO_ENTITY@@YAXKKMMMU_Vector3@@0@Z ENDP
							; _ATTACH_ROPE_TO_ENTITY
; Function compile flags: /Odtu

	.code

??Y_Vector3@@QAAXU0@@Z PROC NEAR				; _Vector3::operator+=, COMDAT

; Begin code for function: ??Y_Vector3@@QAAXU0@@Z
; File c:\users\s7clutch\documents\visual studio 2010\projects\the saiyan project\src\globals.h
; Line 1937
	stw          r3,this$(r1)		; 20 (14h)
	std          r4,Vector$(r1)
	std          r5,Vector$+8(r1)
; Line 1938
	lwz          r11,this$(r1)		; 20 (14h)
	lfs          fr0,0(r11)
	lfs          fr13,Vector$(r1)		; 32 (20h)
	fadds        fr12,fr0,fr13
	lwz          r10,this$(r1)		; 20 (14h)
	stfs         fr12,0(r10)
; Line 1939
	lwz          r9,this$(r1)		; 20 (14h)
	lfs          fr11,4(r9)
	lfs          fr10,Vector$+4(r1)		; 36 (24h)
	fadds        fr9,fr11,fr10
	lwz          r8,this$(r1)		; 20 (14h)
	stfs         fr9,4(r8)
; Line 1940
	lwz          r7,this$(r1)		; 20 (14h)
	lfs          fr8,8(r7)
	lfs          fr7,Vector$+8(r1)		; 40 (28h)
	fadds        fr6,fr8,fr7
	lwz          r6,this$(r1)		; 20 (14h)
	stfs         fr6,8(r6)
; Line 1941
	blr
; End code for function: ??Y_Vector3@@QAAXU0@@Z
??Y_Vector3@@QAAXU0@@Z ENDP
							; _Vector3::operator+=
PUBLIC	__real@bd4ccccd
PUBLIC	__real@3f8ccccd
PUBLIC	__real@3f4ccccd
PUBLIC	__real@4014000000000000
PUBLIC	?DistanceTo@_Vector3@@QAAMU1@@Z			; _Vector3::DistanceTo
PUBLIC	?GET_GROUND_Z_FOR_3D_COORD@@YAMMMM@Z		; GET_GROUND_Z_FOR_3D_COORD
PUBLIC	?WorldUp@_Vector3@@QAA?AU1@XZ			; _Vector3::WorldUp
PUBLIC	??0_Vector3@@QAA@XZ				; _Vector3::_Vector3
PUBLIC	__real@42c80000
PUBLIC	__real@4008cccccccccccd
PUBLIC	?_ROTATION_TO_DIRECTION@@YA?AU_Vector3@@U1@@Z	; _ROTATION_TO_DIRECTION
PUBLIC	?GET_GAMEPLAY_CAM_ROT@@YA?AU_Vector3@@K@Z	; GET_GAMEPLAY_CAM_ROT
PUBLIC	??H_Vector3@@QAA?AU0@U0@@Z			; _Vector3::operator+
PUBLIC	__real@3d4ccccd
PUBLIC	?_CREATE_ROPE_FOR_PLAYER@@YAKKU_Vector3@@0@Z	; _CREATE_ROPE_FOR_PLAYER
PUBLIC	__real@3f933333
PUBLIC	?_ATTACH_TO_TARGET@@YAXKU_Vector3@@@Z		; _ATTACH_TO_TARGET
EXTRN	?GrapplingHook_MovingToTarget@@3_NA:BYTE	; GrapplingHook_MovingToTarget
EXTRN	?GrapplingHook_Rope@@3KA:DWORD			; GrapplingHook_Rope
;	COMDAT .pdata
; File c:\users\s7clutch\documents\visual studio 2010\projects\the saiyan project\src\natives.cpp
.pdata	SEGMENT
$T91712	DD	?_ATTACH_TO_TARGET@@YAXKU_Vector3@@@Z
	DD	04000b606H
;	COMDAT __real@bd4ccccd
.rdata	SEGMENT
__real@bd4ccccd DD 0bd4ccccdr			; -0.05
;	COMDAT __real@3f8ccccd
.rdata	SEGMENT
__real@3f8ccccd DD 03f8ccccdr			; 1.1
;	COMDAT __real@3f4ccccd
.rdata	SEGMENT
__real@3f4ccccd DD 03f4ccccdr			; 0.8
;	COMDAT __real@4014000000000000
.rdata	SEGMENT
__real@4014000000000000 DQ 04014000000000000r	; 5
;	COMDAT __real@42c80000
.rdata	SEGMENT
__real@42c80000 DD 042c80000r			; 100
;	COMDAT __real@4008cccccccccccd
.rdata	SEGMENT
__real@4008cccccccccccd DQ 04008cccccccccccdr	; 3.1
;	COMDAT __real@3d4ccccd
.rdata	SEGMENT
__real@3d4ccccd DD 03d4ccccdr			; 0.05
;	COMDAT __real@3f933333
.rdata	SEGMENT
__real@3f933333 DD 03f933333r			; 1.15
; Function compile flags: /Odtu

	.code
vec$85970 = 80						; size = 12
vec$85973 = 96						; size = 12
direction$85977 = 112					; size = 12
vec2$85974 = 128					; size = 12
buffer$85983 = 144					; size = 12
$T91684 = 160						; size = 12
$T91685 = 176						; size = 12
$T91686 = 192						; size = 12
$T91687 = 208						; size = 12
$T91688 = 224						; size = 12
$T91689 = 240						; size = 12
$T91690 = 256						; size = 12
$T91691 = 272						; size = 12
$T91692 = 288						; size = 12
$T91693 = 304						; size = 12

?_ATTACH_TO_TARGET@@YAXKU_Vector3@@@Z PROC NEAR		; _ATTACH_TO_TARGET, COMDAT

; Begin code for function: ?_ATTACH_TO_TARGET@@YAXKU_Vector3@@@Z
; Line 135
	mflr         r12
	stw          r12,-8(r1)
	std          r30,-18h(r1)
	std          r31,-10h(r1)
	stfd         fr31,-20h(r1)
	stwu         r1,-160h(r1)
.endprolog
$M91710:
	stw          r3,entity$(r1)		; 372 (174h)
	std          r4,forcedPosition$(r1)
	std          r5,forcedPosition$+8(r1)
; Line 136
	addi         r3,r1,forcedPosition$
	bl           ?isNull@_Vector3@@QAA_NXZ
	clrlwi       r11,r3,24
	cmpwi        cr6,r11,0
	beq          cr6,$LN5@ATTACH_TO_
; Line 138
	lis          r10,__real@3f933333
	lfs          fr3,__real@3f933333(r10)
	lis          r9,__real@00000000
	lfs          fr2,__real@00000000(r9)
	lis          r8,__real@00000000
	lfs          fr1,__real@00000000(r8)
	addi         r3,r1,vec$85970
	bl           ??0_Vector3@@QAA@MMM@Z
; Line 139
	ld           r6,vec$85970(r1)
	lwz          r7,vec$85970+8(r1)		; 88 (58h)
	rldicr       r7,r7,32,31
	ld           r4,forcedPosition$(r1)
	lwz          r5,forcedPosition$+8(r1)		; 392 (188h)
	rldicr       r5,r5,32,31
	lwz          r3,entity$(r1)		; 372 (174h)
	bl           ?_CREATE_ROPE_FOR_PLAYER@@YAKKU_Vector3@@0@Z
	lis          r4,?GrapplingHook_Rope@@3KA
	stw          r3,?GrapplingHook_Rope@@3KA(r4)
; Line 140
	lis          r3,?GrapplingHook_MovingToTarget@@3_NA
	li           r11,1
	stb          r11,?GrapplingHook_MovingToTarget@@3_NA(r3)
; Line 142
	b            $LN6@ATTACH_TO_
$LN5@ATTACH_TO_:
; Line 144
	lwz          r10,forcedPosition$(r1)		; 384 (180h)
	stw          r10,vec$85973(r1)		; 96 (60h)
	lwz          r9,forcedPosition$+4(r1)		; 388 (184h)
	stw          r9,vec$85973+4(r1)		; 100 (64h)
	lwz          r8,forcedPosition$+8(r1)		; 392 (188h)
	stw          r8,vec$85973+8(r1)		; 104 (68h)
; Line 145
	lis          r7,__real@3d4ccccd
	lfs          fr1,__real@3d4ccccd(r7)
	addi         r3,r1,$T91684
	addi         r4,r1,vec$85973
	bl           ??D_Vector3@@QBA?AU0@M@Z
	ld           r5,0(r3)
	lwz          r6,8(r3)
	rldicr       r6,r6,32,31
	addi         r3,r1,vec2$85974
	addi         r4,r1,vec$85973
	bl           ??H_Vector3@@QAA?AU0@U0@@Z
; Line 146
	li           r4,0
	addi         r3,r1,$T91685
	bl           ?GET_GAMEPLAY_CAM_ROT@@YA?AU_Vector3@@K@Z
	ld           r4,0(r3)
	lwz          r5,8(r3)
	rldicr       r5,r5,32,31
	addi         r3,r1,direction$85977
	bl           ?_ROTATION_TO_DIRECTION@@YA?AU_Vector3@@U1@@Z
$LN3@ATTACH_TO_:
; Line 147
	li           r9,1
	lis          r4,__real@00000000
	lfs          fr6,__real@00000000(r4)
	lfs          fr5,forcedPosition$+4(r1)		; 388 (184h)
	lfs          fr4,forcedPosition$(r1)		; 384 (180h)
	lis          r3,__real@00000000
	lfs          fr3,__real@00000000(r3)
	lfs          fr2,vec2$85974+4(r1)		; 132 (84h)
	lfs          fr1,vec2$85974(r1)		; 128 (80h)
	bl           ?GET_DISTANCE_BETWEEN_COORDS@@YAMMMMMMM_N@Z
	lis          r11,__real@4008cccccccccccd
	lfd          fr0,__real@4008cccccccccccd(r11)
	fcmpu        cr6,fr1,fr0
	bge          cr6,$LN2@ATTACH_TO_
; Line 149
	lis          r10,__real@42c80000
	lfs          fr31,__real@42c80000(r10)
	addi         r31,r1,$T91688
	addi         r30,r1,$T91687
	addi         r3,r1,$T91686
	bl           ??0_Vector3@@QAA@XZ
	mr           r4,r3
	mr           r3,r30
	bl           ?WorldUp@_Vector3@@QAA?AU1@XZ
	mr           r4,r3
	mr           r3,r31
	fmr          fr1,fr31
	bl           ??D_Vector3@@QBA?AU0@M@Z
	ld           r5,0(r3)
	lwz          r9,8(r3)
	rldicr       r6,r9,32,31
	addi         r3,r1,buffer$85983
	addi         r4,r1,vec2$85974
	bl           ??H_Vector3@@QAA?AU0@U0@@Z
; Line 150
	lfs          fr3,buffer$85983+8(r1)		; 152 (98h)
	lfs          fr2,buffer$85983+4(r1)		; 148 (94h)
	lfs          fr1,buffer$85983(r1)		; 144 (90h)
	bl           ?GET_GROUND_Z_FOR_3D_COORD@@YAMMMM@Z
	stfs         fr1,vec$85973+8(r1)		; 104 (68h)
; Line 151
	lfs          fr13,vec$85973+8(r1)		; 104 (68h)
	lfs          fr12,forcedPosition$+8(r1)		; 392 (188h)
	fcmpu        cr6,fr13,fr12
	blt          cr6,$LN1@ATTACH_TO_
	ld           r4,forcedPosition$(r1)
	lwz          r8,forcedPosition$+8(r1)		; 392 (188h)
	rldicr       r5,r8,32,31
	addi         r3,r1,vec$85973
	bl           ?DistanceTo@_Vector3@@QAAMU1@@Z
	lis          r7,__real@4014000000000000
	lfd          fr11,__real@4014000000000000(r7)
	fcmpu        cr6,fr1,fr11
	bge          cr6,$LN1@ATTACH_TO_
; Line 153
	lwz          r6,vec$85973(r1)		; 96 (60h)
	stw          r6,forcedPosition$(r1)		; 384 (180h)
	lwz          r5,vec$85973+4(r1)		; 100 (64h)
	stw          r5,forcedPosition$+4(r1)		; 388 (184h)
	lwz          r4,vec$85973+8(r1)		; 104 (68h)
	stw          r4,forcedPosition$+8(r1)		; 392 (188h)
; Line 154
	b            $LN2@ATTACH_TO_
$LN1@ATTACH_TO_:
; Line 156
	lwz          r3,forcedPosition$(r1)		; 384 (180h)
	stw          r3,vec$85973(r1)		; 96 (60h)
	lwz          r11,forcedPosition$+4(r1)		; 388 (184h)
	stw          r11,vec$85973+4(r1)		; 100 (64h)
	lwz          r10,forcedPosition$+8(r1)		; 392 (188h)
	stw          r10,vec$85973+8(r1)		; 104 (68h)
; Line 157
	lis          r9,__real@3d4ccccd
	lfs          fr1,__real@3d4ccccd(r9)
	addi         r3,r1,$T91689
	addi         r4,r1,direction$85977
	bl           ??D_Vector3@@QBA?AU0@M@Z
	ld           r4,0(r3)
	lwz          r8,8(r3)
	rldicr       r5,r8,32,31
	addi         r3,r1,vec2$85974
	bl           ??Y_Vector3@@QAAXU0@@Z
; Line 158
	b            $LN3@ATTACH_TO_
$LN2@ATTACH_TO_:
; Line 159
	lis          r7,__real@3f4ccccd
	lfs          fr31,__real@3f4ccccd(r7)
	addi         r31,r1,$T91692
	addi         r30,r1,$T91691
	addi         r3,r1,$T91690
	bl           ??0_Vector3@@QAA@XZ
	mr           r4,r3
	mr           r3,r30
	bl           ?WorldUp@_Vector3@@QAA?AU1@XZ
	mr           r4,r3
	mr           r3,r31
	fmr          fr1,fr31
	bl           ??D_Vector3@@QBA?AU0@M@Z
	ld           r4,0(r3)
	lwz          r6,8(r3)
	rldicr       r5,r6,32,31
	addi         r3,r1,vec$85973
	bl           ??Y_Vector3@@QAAXU0@@Z
; Line 160
	lis          r5,__real@3f8ccccd
	lfs          fr3,__real@3f8ccccd(r5)
	lis          r4,__real@bd4ccccd
	lfs          fr2,__real@bd4ccccd(r4)
	lis          r3,__real@bd4ccccd
	lfs          fr1,__real@bd4ccccd(r3)
	addi         r3,r1,$T91693
	bl           ??0_Vector3@@QAA@MMM@Z
	ld           r6,0(r3)
	lwz          r11,8(r3)
	rldicr       r7,r11,32,31
	ld           r4,vec$85973(r1)
	lwz          r10,vec$85973+8(r1)		; 104 (68h)
	rldicr       r5,r10,32,31
	lwz          r3,entity$(r1)		; 372 (174h)
	bl           ?_CREATE_ROPE_FOR_PLAYER@@YAKKU_Vector3@@0@Z
	lis          r9,?GrapplingHook_Rope@@3KA
	stw          r3,?GrapplingHook_Rope@@3KA(r9)
; Line 161
	lis          r8,?GrapplingHook_MovingToTarget@@3_NA
	li           r7,1
	stb          r7,?GrapplingHook_MovingToTarget@@3_NA(r8)
$LN6@ATTACH_TO_:
; Line 163
	addi         r1,r1,352		; 160h
	lwz          r12,-8(r1)
	mtlr         r12
	lfd          fr31,-20h(r1)
	ld           r30,-18h(r1)
	ld           r31,-10h(r1)
	blr
$M91711:
; End code for function: ?_ATTACH_TO_TARGET@@YAXKU_Vector3@@@Z
?_ATTACH_TO_TARGET@@YAXKU_Vector3@@@Z ENDP
							; _ATTACH_TO_TARGET
; Function compile flags: /Odtu

	.code

??0_Vector3@@QAA@XZ PROC NEAR				; _Vector3::_Vector3, COMDAT

; Begin code for function: ??0_Vector3@@QAA@XZ
; File c:\users\s7clutch\documents\visual studio 2010\projects\the saiyan project\src\globals.h
; Line 1916
	stw          r3,this$(r1)		; 20 (14h)
; Line 1918
	lwz          r11,this$(r1)		; 20 (14h)
	lis          r10,__real@00000000
	lfs          fr0,__real@00000000(r10)
	stfs         fr0,8(r11)
	lwz          r9,this$(r1)		; 20 (14h)
	lis          r8,__real@00000000
	lfs          fr13,__real@00000000(r8)
	stfs         fr13,4(r9)
	lis          r7,__real@00000000
	lfs          fr12,__real@00000000(r7)
	lwz          r6,this$(r1)		; 20 (14h)
	stfs         fr12,0(r6)
; Line 1919
	lwz          r3,this$(r1)		; 20 (14h)
	blr
; End code for function: ??0_Vector3@@QAA@XZ
??0_Vector3@@QAA@XZ ENDP
							; _Vector3::_Vector3
;	COMDAT .pdata
.pdata	SEGMENT
$T91720	DD	??H_Vector3@@QAA?AU0@U0@@Z
	DD	040001a03H
; Function compile flags: /Odtu

	.code

??H_Vector3@@QAA?AU0@U0@@Z PROC NEAR			; _Vector3::operator+, COMDAT

; Begin code for function: ??H_Vector3@@QAA?AU0@U0@@Z
; Line 1933
	mflr         r12
	stw          r12,-8(r1)
	stwu         r1,-60h(r1)
.endprolog
$M91718:
	stw          r3,__$ReturnUdt$(r1)		; 116 (74h)
	stw          r4,this$(r1)		; 124 (7Ch)
	std          r5,Vector$(r1)
	std          r6,Vector$+8(r1)
; Line 1934
	lwz          r11,this$(r1)		; 124 (7Ch)
	lfs          fr0,8(r11)
	lfs          fr13,Vector$+8(r1)		; 136 (88h)
	fadds        fr3,fr0,fr13
	lwz          r10,this$(r1)		; 124 (7Ch)
	lfs          fr12,4(r10)
	lfs          fr11,Vector$+4(r1)		; 132 (84h)
	fadds        fr2,fr12,fr11
	lwz          r9,this$(r1)		; 124 (7Ch)
	lfs          fr10,0(r9)
	lfs          fr9,Vector$(r1)		; 128 (80h)
	fadds        fr1,fr10,fr9
	lwz          r3,__$ReturnUdt$(r1)		; 116 (74h)
	bl           ??0_Vector3@@QAA@MMM@Z
	lwz          r3,__$ReturnUdt$(r1)		; 116 (74h)
; Line 1935
	addi         r1,r1,96		; 60h
	lwz          r12,-8(r1)
	mtlr         r12
	blr
$M91719:
; End code for function: ??H_Vector3@@QAA?AU0@U0@@Z
??H_Vector3@@QAA?AU0@U0@@Z ENDP
							; _Vector3::operator+
PUBLIC	?Distance@_Vector3@@QAAMXZ			; _Vector3::Distance
PUBLIC	??G_Vector3@@QAA?AU0@U0@@Z			; _Vector3::operator-
;	COMDAT .pdata
.pdata	SEGMENT
$T91727	DD	?DistanceTo@_Vector3@@QAAMU1@@Z
	DD	040002304H
; Function compile flags: /Odtu

	.code
ret$ = 80						; size = 12
$T91724 = 96						; size = 12
tv86 = 112						; size = 12

?DistanceTo@_Vector3@@QAAMU1@@Z	PROC NEAR		; _Vector3::DistanceTo, COMDAT

; Begin code for function: ?DistanceTo@_Vector3@@QAAMU1@@Z
; Line 1970
	mflr         r12
	stw          r12,-8(r1)
	std          r31,-10h(r1)
	stwu         r1,-90h(r1)
.endprolog
$M91725:
	stw          r3,this$(r1)		; 164 (0A4h)
	std          r4,Vector$(r1)
	std          r5,Vector$+8(r1)
; Line 1971
	lwz          r11,Vector$(r1)		; 176 (0B0h)
	stw          r11,70h(r1)
	lwz          r10,Vector$+4(r1)		; 180 (0B4h)
	stw          r10,74h(r1)
	lwz          r9,Vector$+8(r1)		; 184 (0B8h)
	stw          r9,78h(r1)
	addi         r31,r1,ret$
	lwz          r8,this$(r1)		; 164 (0A4h)
	lfs          fr3,8(r8)
	lwz          r7,this$(r1)		; 164 (0A4h)
	lfs          fr2,4(r7)
	lwz          r6,this$(r1)		; 164 (0A4h)
	lfs          fr1,0(r6)
	addi         r3,r1,$T91724
	bl           ??0_Vector3@@QAA@MMM@Z
	mr           r4,r3
	mr           r3,r31
	ld           r5,70h(r1)
	lwz          r11,78h(r1)
	rldicr       r6,r11,32,31
	bl           ??G_Vector3@@QAA?AU0@U0@@Z
; Line 1972
	addi         r3,r1,ret$
	bl           ?Distance@_Vector3@@QAAMXZ
; Line 1973
	addi         r1,r1,144		; 90h
	lwz          r12,-8(r1)
	mtlr         r12
	ld           r31,-10h(r1)
	blr
$M91726:
; End code for function: ?DistanceTo@_Vector3@@QAAMU1@@Z
?DistanceTo@_Vector3@@QAAMU1@@Z ENDP
							; _Vector3::DistanceTo
;	COMDAT .pdata
.pdata	SEGMENT
$T91733	DD	??G_Vector3@@QAA?AU0@U0@@Z
	DD	040001a03H
; Function compile flags: /Odtu

	.code

??G_Vector3@@QAA?AU0@U0@@Z PROC NEAR			; _Vector3::operator-, COMDAT

; Begin code for function: ??G_Vector3@@QAA?AU0@U0@@Z
; Line 1943
	mflr         r12
	stw          r12,-8(r1)
	stwu         r1,-60h(r1)
.endprolog
$M91731:
	stw          r3,__$ReturnUdt$(r1)		; 116 (74h)
	stw          r4,this$(r1)		; 124 (7Ch)
	std          r5,Vector$(r1)
	std          r6,Vector$+8(r1)
; Line 1944
	lwz          r11,this$(r1)		; 124 (7Ch)
	lfs          fr0,8(r11)
	lfs          fr13,Vector$+8(r1)		; 136 (88h)
	fsubs        fr3,fr0,fr13
	lwz          r10,this$(r1)		; 124 (7Ch)
	lfs          fr12,4(r10)
	lfs          fr11,Vector$+4(r1)		; 132 (84h)
	fsubs        fr2,fr12,fr11
	lwz          r9,this$(r1)		; 124 (7Ch)
	lfs          fr10,0(r9)
	lfs          fr9,Vector$(r1)		; 128 (80h)
	fsubs        fr1,fr10,fr9
	lwz          r3,__$ReturnUdt$(r1)		; 116 (74h)
	bl           ??0_Vector3@@QAA@MMM@Z
	lwz          r3,__$ReturnUdt$(r1)		; 116 (74h)
; Line 1945
	addi         r1,r1,96		; 60h
	lwz          r12,-8(r1)
	mtlr         r12
	blr
$M91732:
; End code for function: ??G_Vector3@@QAA?AU0@U0@@Z
??G_Vector3@@QAA?AU0@U0@@Z ENDP
							; _Vector3::operator-
PUBLIC	?sqrt@@YAMM@Z					; sqrt
PUBLIC	?DistanceEx@_Vector3@@QAAMU1@@Z			; _Vector3::DistanceEx
;	COMDAT .pdata
.pdata	SEGMENT
$T91740	DD	?Distance@_Vector3@@QAAMXZ
	DD	040001603H
; Function compile flags: /Odtu

	.code
$T91737 = 80						; size = 12

?Distance@_Vector3@@QAAMXZ PROC NEAR			; _Vector3::Distance, COMDAT

; Begin code for function: ?Distance@_Vector3@@QAAMXZ
; Line 1957
	mflr         r12
	stw          r12,-8(r1)
	stwu         r1,-70h(r1)
.endprolog
$M91738:
	stw          r3,this$(r1)		; 132 (84h)
; Line 1958
	lwz          r11,this$(r1)		; 132 (84h)
	lfs          fr3,8(r11)
	lwz          r10,this$(r1)		; 132 (84h)
	lfs          fr2,4(r10)
	lwz          r9,this$(r1)		; 132 (84h)
	lfs          fr1,0(r9)
	addi         r3,r1,$T91737
	bl           ??0_Vector3@@QAA@MMM@Z
	ld           r4,0(r3)
	lwz          r8,8(r3)
	rldicr       r5,r8,32,31
	lwz          r3,this$(r1)		; 132 (84h)
	bl           ?DistanceEx@_Vector3@@QAAMU1@@Z
	bl           ?sqrt@@YAMM@Z
; Line 1959
	addi         r1,r1,112		; 70h
	lwz          r12,-8(r1)
	mtlr         r12
	blr
$M91739:
; End code for function: ?Distance@_Vector3@@QAAMXZ
?Distance@_Vector3@@QAAMXZ ENDP
							; _Vector3::Distance
PUBLIC	sqrtf
;	COMDAT .pdata
; File c:\program files (x86)\microsoft xbox 360 sdk\include\xbox\math.h
.pdata	SEGMENT
$T91746	DD	?sqrt@@YAMM@Z
	DD	040000a03H
; Function compile flags: /Odtu

	.code

?sqrt@@YAMM@Z PROC NEAR					; sqrt, COMDAT

; Begin code for function: ?sqrt@@YAMM@Z
; Line 434
	mflr         r12
	stw          r12,-8(r1)
	stwu         r1,-60h(r1)
.endprolog
$M91744:
	stfs         fr1,_X$(r1)		; 116 (74h)
	lfs          fr1,_X$(r1)		; 116 (74h)
	bl           sqrtf
	addi         r1,r1,96		; 60h
	lwz          r12,-8(r1)
	mtlr         r12
	blr
$M91745:
; End code for function: ?sqrt@@YAMM@Z
?sqrt@@YAMM@Z ENDP
							; sqrt
; Function compile flags: /Odtu

	.code

sqrtf PROC NEAR						; COMDAT

; Begin code for function: sqrtf
; Line 330
	stfs         fr1,_X$(r1)		; 20 (14h)
	lfs          fr0,_X$(r1)		; 20 (14h)
	fsqrts       fr1,fr0
	blr
; End code for function: sqrtf
sqrtf	ENDP

; Function compile flags: /Odtu

	.code
_x$ = -16						; size = 4
_z$ = -12						; size = 4
_y$ = -8						; size = 4

?DistanceEx@_Vector3@@QAAMU1@@Z	PROC NEAR		; _Vector3::DistanceEx, COMDAT

; Begin code for function: ?DistanceEx@_Vector3@@QAAMU1@@Z
; File c:\users\s7clutch\documents\visual studio 2010\projects\the saiyan project\src\globals.h
; Line 1965
	stw          r3,this$(r1)		; 20 (14h)
	std          r4,Vector$(r1)
	std          r5,Vector$+8(r1)
; Line 1966
	lwz          r11,this$(r1)		; 20 (14h)
	lfs          fr0,0(r11)
	lfs          fr13,Vector$(r1)		; 32 (20h)
	fsubs        fr12,fr0,fr13
	stfs         fr12,_x$(r1)		; 4294967280 (0FFFFFFF0h)
	lwz          r10,this$(r1)		; 20 (14h)
	lfs          fr11,4(r10)
	lfs          fr10,Vector$+4(r1)		; 36 (24h)
	fsubs        fr9,fr11,fr10
	stfs         fr9,_y$(r1)		; 4294967288 (0FFFFFFF8h)
	lwz          r9,this$(r1)		; 20 (14h)
	lfs          fr8,8(r9)
	lfs          fr7,Vector$+8(r1)		; 40 (28h)
	fsubs        fr6,fr8,fr7
	stfs         fr6,_z$(r1)		; 4294967284 (0FFFFFFF4h)
; Line 1967
	lfs          fr5,_x$(r1)		; 4294967280 (0FFFFFFF0h)
	lfs          fr4,_x$(r1)		; 4294967280 (0FFFFFFF0h)
	fmuls        fr3,fr5,fr4
	lfs          fr2,_y$(r1)		; 4294967288 (0FFFFFFF8h)
	lfs          fr1,_y$(r1)		; 4294967288 (0FFFFFFF8h)
	fmuls        fr0,fr2,fr1
	fadds        fr13,fr3,fr0
	lfs          fr12,_z$(r1)		; 4294967284 (0FFFFFFF4h)
	lfs          fr11,_z$(r1)		; 4294967284 (0FFFFFFF4h)
	fmuls        fr10,fr12,fr11
	fadds        fr1,fr13,fr10
; Line 1968
	blr
; End code for function: ?DistanceEx@_Vector3@@QAAMU1@@Z
?DistanceEx@_Vector3@@QAAMU1@@Z ENDP
							; _Vector3::DistanceEx
PUBLIC	__real@3f800000
;	COMDAT .pdata
.pdata	SEGMENT
$T91758	DD	?WorldUp@_Vector3@@QAA?AU1@XZ
	DD	040001203H
;	COMDAT __real@3f800000
.rdata	SEGMENT
__real@3f800000 DD 03f800000r			; 1
; Function compile flags: /Odtu

	.code

?WorldUp@_Vector3@@QAA?AU1@XZ PROC NEAR			; _Vector3::WorldUp, COMDAT

; Begin code for function: ?WorldUp@_Vector3@@QAA?AU1@XZ
; Line 2003
	mflr         r12
	stw          r12,-8(r1)
	stwu         r1,-60h(r1)
.endprolog
$M91756:
	stw          r3,__$ReturnUdt$(r1)		; 116 (74h)
	stw          r4,this$(r1)		; 124 (7Ch)
; Line 2004
	lis          r11,__real@3f800000
	lfs          fr3,__real@3f800000(r11)
	lis          r10,__real@00000000
	lfs          fr2,__real@00000000(r10)
	lis          r9,__real@00000000
	lfs          fr1,__real@00000000(r9)
	lwz          r3,__$ReturnUdt$(r1)		; 116 (74h)
	bl           ??0_Vector3@@QAA@MMM@Z
	lwz          r3,__$ReturnUdt$(r1)		; 116 (74h)
; Line 2005
	addi         r1,r1,96		; 60h
	lwz          r12,-8(r1)
	mtlr         r12
	blr
$M91757:
; End code for function: ?WorldUp@_Vector3@@QAA?AU1@XZ
?WorldUp@_Vector3@@QAA?AU1@XZ ENDP
							; _Vector3::WorldUp
PUBLIC	?ATTACH_ENTITY_TO_ENTITY@@YAXKKKMMMMMM_N000K0@Z	; ATTACH_ENTITY_TO_ENTITY
PUBLIC	__real@c079999a
PUBLIC	?SET_VEHICLE_DOORS_LOCKED@@YAXK_N@Z		; SET_VEHICLE_DOORS_LOCKED
PUBLIC	?_REQUEST_NETWORK_CONTROL@@YA_NK@Z		; _REQUEST_NETWORK_CONTROL
PUBLIC	?_ATTACH_VEHICLE_TO_VEHICLE@@YA_NKK@Z		; _ATTACH_VEHICLE_TO_VEHICLE
;	COMDAT .pdata
; File c:\users\s7clutch\documents\visual studio 2010\projects\the saiyan project\src\natives.cpp
.pdata	SEGMENT
$T91766	DD	?_ATTACH_VEHICLE_TO_VEHICLE@@YA_NKK@Z
	DD	040003f03H
;	COMDAT __real@c079999a
.rdata	SEGMENT
__real@c079999a DD 0c079999ar			; -3.9
; Function compile flags: /Odtu

	.code
control$ = 144						; size = 1
i$86001 = 148						; size = 4

?_ATTACH_VEHICLE_TO_VEHICLE@@YA_NKK@Z PROC NEAR		; _ATTACH_VEHICLE_TO_VEHICLE, COMDAT

; Begin code for function: ?_ATTACH_VEHICLE_TO_VEHICLE@@YA_NKK@Z
; Line 165
	mflr         r12
	stw          r12,-8(r1)
	stwu         r1,-0A0h(r1)
.endprolog
$M91764:
	stw          r3,toattach$(r1)		; 180 (0B4h)
	stw          r4,attachto$(r1)		; 188 (0BCh)
; Line 166
	li           r11,0
	stb          r11,control$(r1)		; 144 (90h)
; Line 167
	li           r10,0
	stw          r10,i$86001(r1)		; 148 (94h)
	b            $LN5@ATTACH_VEH
$LN4@ATTACH_VEH:
	lwz          r9,i$86001(r1)		; 148 (94h)
	addi         r8,r9,1
	stw          r8,i$86001(r1)		; 148 (94h)
$LN5@ATTACH_VEH:
	lwz          r7,i$86001(r1)		; 148 (94h)
	cmpwi        cr6,r7,310		; 136h
	bge          cr6,$LN3@ATTACH_VEH
; Line 169
	lwz          r3,toattach$(r1)		; 180 (0B4h)
	bl           ?_REQUEST_NETWORK_CONTROL@@YA_NK@Z
	stb          r3,control$(r1)		; 144 (90h)
	lbz          r6,control$(r1)		; 144 (90h)
	cmpwi        cr6,r6,0
	beq          cr6,$LN2@ATTACH_VEH
; Line 170
	b            $LN3@ATTACH_VEH
$LN2@ATTACH_VEH:
; Line 171
	b            $LN4@ATTACH_VEH
$LN3@ATTACH_VEH:
; Line 173
	lbz          r5,control$(r1)		; 144 (90h)
	cmpwi        cr6,r5,0
	beq          cr6,$LN1@ATTACH_VEH
; Line 175
	li           r4,1
	lwz          r3,toattach$(r1)		; 180 (0B4h)
	bl           ?SET_VEHICLE_DOORS_LOCKED@@YAXK_N@Z
; Line 176
	li           r4,1
	stb          r4,87h(r1)
	li           r3,2
	stw          r3,7Ch(r1)
	li           r11,0
	stb          r11,77h(r1)
	li           r10,0
	stb          r10,6Fh(r1)
	li           r9,0
	stb          r9,67h(r1)
	li           r8,0
	stb          r8,5Fh(r1)
	lis          r7,__real@00000000
	lfs          fr6,__real@00000000(r7)
	lis          r6,__real@00000000
	lfs          fr5,__real@00000000(r6)
	lis          r5,__real@00000000
	lfs          fr4,__real@00000000(r5)
	lis          r4,__real@00000000
	lfs          fr3,__real@00000000(r4)
	lis          r3,__real@c079999a
	lfs          fr2,__real@c079999a(r3)
	lis          r11,__real@00000000
	lfs          fr1,__real@00000000(r11)
	li           r5,0
	lwz          r4,attachto$(r1)		; 188 (0BCh)
	lwz          r3,toattach$(r1)		; 180 (0B4h)
	bl           ?ATTACH_ENTITY_TO_ENTITY@@YAXKKKMMMMMM_N000K0@Z
$LN1@ATTACH_VEH:
; Line 178
	lbz          r3,control$(r1)		; 144 (90h)
; Line 179
	addi         r1,r1,160		; 0A0h
	lwz          r12,-8(r1)
	mtlr         r12
	blr
$M91765:
; End code for function: ?_ATTACH_VEHICLE_TO_VEHICLE@@YA_NKK@Z
?_ATTACH_VEHICLE_TO_VEHICLE@@YA_NKK@Z ENDP
							; _ATTACH_VEHICLE_TO_VEHICLE
PUBLIC	?SHOOT_SINGLE_BULLET_BETWEEN_COORDS@@YAXMMMMMMK_NKK00M@Z ; SHOOT_SINGLE_BULLET_BETWEEN_COORDS
PUBLIC	__real@4f3f8001
PUBLIC	?REQUEST_WEAPON_ASSET@@YAXKK_N@Z		; REQUEST_WEAPON_ASSET
PUBLIC	?HAS_WEAPON_ASSET_LOADED@@YA_NK@Z		; HAS_WEAPON_ASSET_LOADED
PUBLIC	?_CALL_AIRSTRIKE@@YAXMMM@Z			; _CALL_AIRSTRIKE
EXTRN	rand:PROC
EXTRN	?_Ped@@3KA:DWORD				; _Ped
EXTRN	__restfpr_26:PROC
EXTRN	__savefpr_26:PROC
;	COMDAT .pdata
.pdata	SEGMENT
$T91776	DD	?_CALL_AIRSTRIKE@@YAXMMM@Z
	DD	040007707H
;	COMDAT __real@4f3f8001
.rdata	SEGMENT
__real@4f3f8001 DD 04f3f8001r			; 3.21284e+009
; Function compile flags: /Odtu

	.code
i$86012 = 128						; size = 4
tv181 = 136						; size = 8
tv191 = 144						; size = 8

?_CALL_AIRSTRIKE@@YAXMMM@Z PROC NEAR			; _CALL_AIRSTRIKE, COMDAT

; Begin code for function: ?_CALL_AIRSTRIKE@@YAXMMM@Z
; Line 181
	mflr         r12
	stw          r12,-8(r1)
	std          r30,-18h(r1)
	std          r31,-10h(r1)
	addi         r12,r1,-24		; 0FFE8h
	bl           __savefpr_26
	stwu         r1,-0E0h(r1)
.endprolog
$M91774:
	stfs         fr1,x$(r1)		; 244 (0F4h)
	stfs         fr2,y$(r1)		; 252 (0FCh)
	stfs         fr3,z$(r1)		; 260 (104h)
; Line 182
	li           r11,0
	stw          r11,i$86012(r1)		; 128 (80h)
	b            $LN6@CALL_AIRST
$LN5@CALL_AIRST:
	lwz          r10,i$86012(r1)		; 128 (80h)
	addi         r9,r10,1
	stw          r9,i$86012(r1)		; 128 (80h)
$LN6@CALL_AIRST:
	lwz          r8,i$86012(r1)		; 128 (80h)
	cmpwi        cr6,r8,10		; 0Ah
	bge          cr6,$LN7@CALL_AIRST
; Line 184
	lis          r7,4951		; 1357h
	ori          r3,r7,37497		; 9279h
	bl           ?HAS_WEAPON_ASSET_LOADED@@YA_NK@Z
	clrlwi       r6,r3,24
	cmpwi        cr6,r6,0
	bne          cr6,$LN3@CALL_AIRST
; Line 185
	li           r5,0
	li           r4,31		; 1Fh
	lis          r3,4951		; 1357h
	ori          r3,r3,37497		; 9279h
	bl           ?REQUEST_WEAPON_ASSET@@YAXKK_N@Z
$LN3@CALL_AIRST:
; Line 187
	lwz          r11,i$86012(r1)		; 128 (80h)
	cmpwi        cr6,r11,0
	bne          cr6,$LN2@CALL_AIRST
; Line 188
	lis          r10,__real@4f3f8001
	lfs          fr7,__real@4f3f8001(r10)
	li           r9,0
	stb          r9,6Fh(r1)
	li           r8,1
	stb          r8,67h(r1)
	lis          r7,?_Ped@@3KA
	lwz          r6,?_Ped@@3KA(r7)
	stw          r6,5Ch(r1)
	lis          r5,4951		; 1357h
	ori          r4,r5,37497		; 9279h
	stw          r4,54h(r1)
	li           r10,1
	li           r9,200		; 0C8h
	lfs          fr6,z$(r1)		; 260 (104h)
	lfs          fr5,y$(r1)		; 252 (0FCh)
	lfs          fr4,x$(r1)		; 244 (0F4h)
	lfs          fr0,z$(r1)		; 260 (104h)
	lis          r3,__real@42c80000
	lfs          fr13,__real@42c80000(r3)
	fadds        fr3,fr0,fr13
	lfs          fr2,y$(r1)		; 252 (0FCh)
	lfs          fr1,x$(r1)		; 244 (0F4h)
	bl           ?SHOOT_SINGLE_BULLET_BETWEEN_COORDS@@YAXMMMMMMK_NKK00M@Z
; Line 189
	b            $LN1@CALL_AIRST
$LN2@CALL_AIRST:
; Line 190
	lis          r11,__real@4f3f8001
	lfs          fr31,__real@4f3f8001(r11)
	lis          r10,?_Ped@@3KA
	lwz          r31,?_Ped@@3KA(r10)
	lis          r9,4951		; 1357h
	ori          r30,r9,37497		; 9279h
	lfs          fr30,z$(r1)		; 260 (104h)
	lfs          fr29,y$(r1)		; 252 (0FCh)
	lfs          fr28,x$(r1)		; 244 (0F4h)
	lfs          fr12,z$(r1)		; 260 (104h)
	lis          r8,__real@42c80000
	lfs          fr11,__real@42c80000(r8)
	fadds        fr27,fr12,fr11
	bl           rand
	li           r7,5
	divw         r6,r3,r7
	mulli        r5,r6,5
	subf         r4,r5,r3
	extsw        r3,r4
	std          r3,88h(r1)
	lfd          fr10,88h(r1)
	fcfid        fr9,fr10
	frsp         fr8,fr9
	lfs          fr7,y$(r1)		; 252 (0FCh)
	fadds        fr26,fr7,fr8
	bl           rand
	li           r11,5
	divw         r10,r3,r11
	mulli        r9,r10,5
	subf         r8,r9,r3
	extsw        r7,r8
	std          r7,90h(r1)
	lfd          fr6,90h(r1)
	fcfid        fr5,fr6
	frsp         fr4,fr5
	lfs          fr3,x$(r1)		; 244 (0F4h)
	fadds        fr1,fr3,fr4
	fmr          fr2,fr26
	fmr          fr3,fr27
	fmr          fr4,fr28
	fmr          fr5,fr29
	fmr          fr6,fr30
	li           r9,200		; 0C8h
	li           r10,1
	stw          r30,54h(r1)
	stw          r31,5Ch(r1)
	li           r6,1
	stb          r6,67h(r1)
	li           r5,0
	stb          r5,6Fh(r1)
	fmr          fr7,fr31
	bl           ?SHOOT_SINGLE_BULLET_BETWEEN_COORDS@@YAXMMMMMMK_NKK00M@Z
$LN1@CALL_AIRST:
; Line 191
	b            $LN5@CALL_AIRST
$LN7@CALL_AIRST:
; Line 192
	addi         r1,r1,224		; 0E0h
	addi         r12,r1,-24		; 0FFE8h
	bl           __restfpr_26
	lwz          r12,-8(r1)
	mtlr         r12
	ld           r30,-18h(r1)
	ld           r31,-10h(r1)
	blr
$M91775:
; End code for function: ?_CALL_AIRSTRIKE@@YAXMMM@Z
?_CALL_AIRSTRIKE@@YAXMMM@Z ENDP
							; _CALL_AIRSTRIKE
PUBLIC	?_GET_ADDRESS@@YAKK@Z				; _GET_ADDRESS
PUBLIC	?_CALL_NATIVE@@YAPAKKKZZ			; _CALL_NATIVE
;	COMDAT .pdata
.pdata	SEGMENT
$T91784	DD	?_CALL_NATIVE@@YAPAKKKZZ
	DD	04000420aH
; Function compile flags: /Odtu

	.code
Return$ = 80						; size = 20
va$ = 100						; size = 4
Call$ = 104						; size = 12
Params$ = 128						; size = 96
i$86029 = 224						; size = 4
tv77 = 228						; size = 4

?_CALL_NATIVE@@YAPAKKKZZ PROC NEAR			; _CALL_NATIVE, COMDAT

; Begin code for function: ?_CALL_NATIVE@@YAPAKKKZZ
; Line 194
	mflr         r12
	stw          r12,-8(r1)
	std          r31,-10h(r1)
	std          r5,20h(r1)
	std          r6,28h(r1)
	std          r7,30h(r1)
	std          r8,38h(r1)
	std          r9,40h(r1)
	std          r10,48h(r1)
	stwu         r1,-100h(r1)
.endprolog
$M91782:
	stw          r3,native$(r1)		; 276 (114h)
	stw          r4,dwParamCount$(r1)		; 284 (11Ch)
; Line 200
	addi         r11,r1,va$
	addi         r10,r1,dwParamCount$+4
	stw          r10,0(r11)
; Line 201
	li           r9,0
	stw          r9,i$86029(r1)		; 224 (0E0h)
	b            $LN3@CALL_NATIV
$LN2@CALL_NATIV:
	lwz          r8,i$86029(r1)		; 224 (0E0h)
	addi         r7,r8,1
	stw          r7,i$86029(r1)		; 224 (0E0h)
$LN3@CALL_NATIV:
	lwz          r6,i$86029(r1)		; 224 (0E0h)
	lwz          r5,dwParamCount$(r1)		; 284 (11Ch)
	cmplw        cr6,r6,r5
	bge          cr6,$LN1@CALL_NATIV
; Line 202
	lwz          r4,va$(r1)		; 100 (64h)
	addi         r3,r4,8
	addi         r11,r3,-1		; 0FFFFh
	clrrwi       r10,r11,3
	addi         r9,r10,8
	stw          r9,va$(r1)		; 100 (64h)
	b            $LN6@CALL_NATIV
	lwz          r8,va$(r1)		; 100 (64h)
	lwz          r7,-8(r8)
	stw          r7,0E4h(r1)
	b            $LN7@CALL_NATIV
$LN6@CALL_NATIV:
	lwz          r6,va$(r1)		; 100 (64h)
	lwz          r5,-4(r6)
	stw          r5,0E4h(r1)
$LN7@CALL_NATIV:
	lwz          r4,i$86029(r1)		; 224 (0E0h)
	slwi         r3,r4,2
	addi         r11,r1,Params$
	lwz          r10,0E4h(r1)
	stwx         r10,r11,r3
	b            $LN2@CALL_NATIV
$LN1@CALL_NATIV:
; Line 203
	li           r9,0
	stw          r9,va$(r1)		; 100 (64h)
; Line 205
	lwz          r8,dwParamCount$(r1)		; 284 (11Ch)
	stw          r8,Call$+4(r1)		; 108 (6Ch)
; Line 206
	addi         r7,r1,Params$
	stw          r7,Call$+8(r1)		; 112 (70h)
; Line 207
	addi         r6,r1,Return$
	stw          r6,Call$(r1)		; 104 (68h)
; Line 209
	addi         r31,r1,Call$
	lwz          r3,native$(r1)		; 276 (114h)
	bl           ?_GET_ADDRESS@@YAKK@Z
	mr           r5,r3
	mr           r3,r31
	mtctr        r5
	bctrl
; Line 211
	addi         r3,r1,Return$
; Line 212
	addi         r1,r1,256		; 100h
	lwz          r12,-8(r1)
	mtlr         r12
	ld           r31,-10h(r1)
	blr
$M91783:
; End code for function: ?_CALL_NATIVE@@YAPAKKKZZ
?_CALL_NATIVE@@YAPAKKKZZ ENDP
							; _CALL_NATIVE
PUBLIC	?ACTIVATE_PHYSICS@@YAXK@Z			; ACTIVATE_PHYSICS
PUBLIC	?ADD_ROPE@@YAKMMMMMMMKMMM_N00M0@Z		; ADD_ROPE
PUBLIC	?_DIRECTION_TO_ROTATION@@YA?AU_Vector3@@U1@M@Z	; _DIRECTION_TO_ROTATION
PUBLIC	?Normalize@_Vector3@@QAA?AU1@U1@@Z		; _Vector3::Normalize
PUBLIC	?ROPE_LOAD_TEXTURES@@YAXXZ			; ROPE_LOAD_TEXTURES
PUBLIC	?_CREATE_ROPE@@YAKMMMMMMMM@Z			; _CREATE_ROPE
EXTRN	Sleep:PROC
;	COMDAT .pdata
.pdata	SEGMENT
$T91795	DD	?_CREATE_ROPE@@YAKMMMMMMMM@Z
	DD	040006d04H
; Function compile flags: /Odtu

	.code
rope$ = 144						; size = 4
distance$ = 148						; size = 4
angle$ = 152						; size = 12
destination$ = 168					; size = 12
origin$ = 184						; size = 12
$T91790 = 200						; size = 12
$T91791 = 216						; size = 12
$T91792 = 232						; size = 12
tv84 = 244						; size = 4
tv207 = 248						; size = 4
tv186 = 256						; size = 12

?_CREATE_ROPE@@YAKMMMMMMMM@Z PROC NEAR			; _CREATE_ROPE, COMDAT

; Begin code for function: ?_CREATE_ROPE@@YAKMMMMMMMM@Z
; Line 214
	mflr         r12
	stw          r12,-8(r1)
	std          r31,-10h(r1)
	stwu         r1,-120h(r1)
.endprolog
$M91793:
	stfs         fr1,x1$(r1)		; 308 (134h)
	stfs         fr2,y1$(r1)		; 316 (13Ch)
	stfs         fr3,z1$(r1)		; 324 (144h)
	stfs         fr4,x2$(r1)		; 332 (14Ch)
	stfs         fr5,y2$(r1)		; 340 (154h)
	stfs         fr6,z2$(r1)		; 348 (15Ch)
	stfs         fr7,distanceCoef$(r1)		; 356 (164h)
	stfs         fr8,forcedDistance$(r1)		; 364 (16Ch)
; Line 215
	lfs          fr3,z1$(r1)		; 324 (144h)
	lfs          fr2,y1$(r1)		; 316 (13Ch)
	lfs          fr1,x1$(r1)		; 308 (134h)
	addi         r3,r1,origin$
	bl           ??0_Vector3@@QAA@MMM@Z
; Line 216
	lfs          fr3,z2$(r1)		; 348 (15Ch)
	lfs          fr2,y2$(r1)		; 340 (154h)
	lfs          fr1,x2$(r1)		; 332 (14Ch)
	addi         r3,r1,destination$
	bl           ??0_Vector3@@QAA@MMM@Z
; Line 217
	lfs          fr0,forcedDistance$(r1)		; 364 (16Ch)
	lis          r11,__real@3fb999999999999a
	lfd          fr13,__real@3fb999999999999a(r11)
	fcmpu        cr6,fr0,fr13
	bge          cr6,$LN3@CREATE_ROP
	li           r9,1
	lfs          fr6,z2$(r1)		; 348 (15Ch)
	lfs          fr5,y2$(r1)		; 340 (154h)
	lfs          fr4,x2$(r1)		; 332 (14Ch)
	lfs          fr3,z1$(r1)		; 324 (144h)
	lfs          fr2,y1$(r1)		; 316 (13Ch)
	lfs          fr1,x1$(r1)		; 308 (134h)
	bl           ?GET_DISTANCE_BETWEEN_COORDS@@YAMMMMMMM_N@Z
	lfs          fr12,distanceCoef$(r1)		; 356 (164h)
	fmuls        fr11,fr1,fr12
	stfs         fr11,0F4h(r1)
	b            $LN4@CREATE_ROP
$LN3@CREATE_ROP:
	lfs          fr10,forcedDistance$(r1)		; 364 (16Ch)
	stfs         fr10,0F4h(r1)
$LN4@CREATE_ROP:
	lfs          fr9,0F4h(r1)
	stfs         fr9,distance$(r1)		; 148 (94h)
; Line 218
	bl           ?ROPE_LOAD_TEXTURES@@YAXXZ
; Line 219
	lis          r10,__real@00000000
	lfs          fr8,__real@00000000(r10)
	stfs         fr8,0F8h(r1)
	ld           r5,origin$(r1)
	lwz          r9,origin$+8(r1)		; 192 (0C0h)
	rldicr       r6,r9,32,31
	addi         r3,r1,$T91791
	addi         r4,r1,destination$
	bl           ??G_Vector3@@QAA?AU0@U0@@Z
	lwz          r8,0(r3)
	stw          r8,100h(r1)
	lwz          r7,4(r3)
	stw          r7,104h(r1)
	lwz          r6,8(r3)
	stw          r6,108h(r1)
	addi         r31,r1,$T91792
	addi         r3,r1,$T91790
	bl           ??0_Vector3@@QAA@XZ
	mr           r4,r3
	mr           r3,r31
	ld           r5,100h(r1)
	lwz          r11,108h(r1)
	rldicr       r6,r11,32,31
	bl           ?Normalize@_Vector3@@QAA?AU1@U1@@Z
	ld           r4,0(r3)
	lwz          r10,8(r3)
	rldicr       r5,r10,32,31
	addi         r3,r1,angle$
	lfs          fr1,0F8h(r1)
	bl           ?_DIRECTION_TO_ROTATION@@YA?AU_Vector3@@U1@M@Z
; Line 220
	li           r9,0
	stb          r9,8Fh(r1)
	lis          r8,__real@41200000
	lfs          fr11,__real@41200000(r8)
	li           r7,0
	stb          r7,7Fh(r1)
	li           r6,0
	stb          r6,77h(r1)
	li           r5,0
	stb          r5,6Fh(r1)
	lis          r4,__real@00000000
	lfs          fr10,__real@00000000(r4)
	lis          r3,__real@3f800000
	lfs          fr9,__real@3f800000(r3)
	lfs          fr8,distance$(r1)		; 148 (94h)
	li           r10,4
	lfs          fr7,distance$(r1)		; 148 (94h)
	lfs          fr6,angle$+8(r1)		; 160 (0A0h)
	lfs          fr5,angle$+4(r1)		; 156 (9Ch)
	lfs          fr4,angle$(r1)		; 152 (98h)
	lfs          fr3,z1$(r1)		; 324 (144h)
	lfs          fr2,y1$(r1)		; 316 (13Ch)
	lfs          fr1,x1$(r1)		; 308 (134h)
	bl           ?ADD_ROPE@@YAKMMMMMMMKMMM_N00M0@Z
	stw          r3,rope$(r1)		; 144 (90h)
; Line 221
	li           r3,10		; 0Ah
	bl           Sleep
; Line 222
	lwz          r3,rope$(r1)		; 144 (90h)
	bl           ?ACTIVATE_PHYSICS@@YAXK@Z
; Line 223
	lwz          r3,rope$(r1)		; 144 (90h)
; Line 224
	addi         r1,r1,288		; 120h
	lwz          r12,-8(r1)
	mtlr         r12
	ld           r31,-10h(r1)
	blr
$M91794:
; End code for function: ?_CREATE_ROPE@@YAKMMMMMMMM@Z
?_CREATE_ROPE@@YAKMMMMMMMM@Z ENDP
							; _CREATE_ROPE
PUBLIC	__real@3ff0000000000000
;	COMDAT .pdata
; File c:\users\s7clutch\documents\visual studio 2010\projects\the saiyan project\src\globals.h
.pdata	SEGMENT
$T91803	DD	?Normalize@_Vector3@@QAA?AU1@U1@@Z
	DD	040002503H
;	COMDAT __real@3ff0000000000000
.rdata	SEGMENT
__real@3ff0000000000000 DQ 03ff0000000000000r	; 1
; Function compile flags: /Odtu

	.code
len$ = 80						; size = 4
num$71722 = 84						; size = 4

?Normalize@_Vector3@@QAA?AU1@U1@@Z PROC NEAR		; _Vector3::Normalize, COMDAT

; Begin code for function: ?Normalize@_Vector3@@QAA?AU1@U1@@Z
; Line 1994
	mflr         r12
	stw          r12,-8(r1)
	stwu         r1,-60h(r1)
.endprolog
$M91801:
	stw          r3,__$ReturnUdt$(r1)		; 116 (74h)
	stw          r4,this$(r1)		; 124 (7Ch)
	std          r5,Vector$(r1)
	std          r6,Vector$+8(r1)
; Line 1995
	addi         r3,r1,Vector$
	bl           ?Distance@_Vector3@@QAAMXZ
	stfs         fr1,len$(r1)		; 80 (50h)
; Line 1996
	lfs          fr0,len$(r1)		; 80 (50h)
	lis          r11,__real@0000000000000000
	lfd          fr13,__real@0000000000000000(r11)
	fcmpu        cr6,fr0,fr13
	beq          cr6,$LN2@Normalize
; Line 1998
	lfs          fr12,len$(r1)		; 80 (50h)
	lis          r10,__real@3ff0000000000000
	lfd          fr11,__real@3ff0000000000000(r10)
	fdiv         fr10,fr11,fr12
	frsp         fr9,fr10
	stfs         fr9,num$71722(r1)		; 84 (54h)
; Line 1999
	lfs          fr8,Vector$+8(r1)		; 136 (88h)
	lfs          fr7,num$71722(r1)		; 84 (54h)
	fmuls        fr3,fr8,fr7
	lfs          fr6,Vector$+4(r1)		; 132 (84h)
	lfs          fr5,num$71722(r1)		; 84 (54h)
	fmuls        fr2,fr6,fr5
	lfs          fr4,Vector$(r1)		; 128 (80h)
	lfs          fr1,num$71722(r1)		; 84 (54h)
	fmuls        fr1,fr4,fr1
	lwz          r3,__$ReturnUdt$(r1)		; 116 (74h)
	bl           ??0_Vector3@@QAA@MMM@Z
	lwz          r3,__$ReturnUdt$(r1)		; 116 (74h)
$LN2@Normalize:
; Line 2001
	addi         r1,r1,96		; 60h
	lwz          r12,-8(r1)
	mtlr         r12
	blr
$M91802:
; End code for function: ?Normalize@_Vector3@@QAA?AU1@U1@@Z
?Normalize@_Vector3@@QAA?AU1@U1@@Z ENDP
							; _Vector3::Normalize
PUBLIC	?PIN_ROPE_VERTEX@@YAXKKMMM@Z			; PIN_ROPE_VERTEX
PUBLIC	?GET_ROPE_VERTEX_COUNT@@YAKK@Z			; GET_ROPE_VERTEX_COUNT
PUBLIC	__real@3f847ae147ae147b
PUBLIC	__real@3ecccccd
PUBLIC	?GET_ENTITY_COORDS@@YA?AU_Vector3@@K_N@Z	; GET_ENTITY_COORDS
EXTRN	?_Position@@3U_Vector3@@A:BYTE			; _Position
;	COMDAT .pdata
; File c:\users\s7clutch\documents\visual studio 2010\projects\the saiyan project\src\natives.cpp
.pdata	SEGMENT
$T91815	DD	?_CREATE_ROPE_FOR_PLAYER@@YAKKU_Vector3@@0@Z
	DD	04000a203H
;	COMDAT __real@3f847ae147ae147b
.rdata	SEGMENT
__real@3f847ae147ae147b DQ 03f847ae147ae147br	; 0.01
;	COMDAT __real@3ecccccd
.rdata	SEGMENT
__real@3ecccccd DD 03ecccccdr			; 0.4
; Function compile flags: /Odtu

	.code
position$ = 96						; size = 12
vertexCount$ = 108					; size = 4
rope$ = 112						; size = 4
bones$ = 120						; size = 12
position$86074 = 144					; size = 24
rope$86076 = 168					; size = 4
bones$86077 = 176					; size = 12
$T91807 = 192						; size = 12
$T91808 = 208						; size = 12
tv272 = 224						; size = 12
tv364 = 240						; size = 12

?_CREATE_ROPE_FOR_PLAYER@@YAKKU_Vector3@@0@Z PROC NEAR	; _CREATE_ROPE_FOR_PLAYER, COMDAT

; Begin code for function: ?_CREATE_ROPE_FOR_PLAYER@@YAKKU_Vector3@@0@Z
; Line 226
	mflr         r12
	stw          r12,-8(r1)
	stwu         r1,-110h(r1)
.endprolog
$M91813:
	stw          r3,entity$(r1)		; 292 (124h)
	std          r4,forcedPosition$(r1)
	std          r5,forcedPosition$+8(r1)
	std          r6,ropeOffset$(r1)
	std          r7,ropeOffset$+8(r1)
; Line 227
	addi         r3,r1,forcedPosition$
	bl           ?isNull@_Vector3@@QAA_NXZ
	clrlwi       r11,r3,24
	cmpwi        cr6,r11,0
	beq          cr6,$LN1@CREATE_ROP@2
; Line 229
	li           r5,1
	lwz          r4,entity$(r1)		; 292 (124h)
	addi         r3,r1,position$86074
	bl           ?GET_ENTITY_COORDS@@YA?AU_Vector3@@K_N@Z
	lis          r10,?_Position@@3U_Vector3@@A
	addi         r9,r10,?_Position@@3U_Vector3@@A
	lwz          r8,0(r9)
	stw          r8,position$86074+0Ch(r1)		; 156 (9Ch)
	lwz          r7,4(r9)
	stw          r7,position$86074+10h(r1)		; 160 (0A0h)
	lwz          r6,8(r9)
	stw          r6,position$86074+14h(r1)		; 164 (0A4h)
; Line 230
	lis          r5,__real@00000000
	lfs          fr8,__real@00000000(r5)
	lis          r4,__real@3ecccccd
	lfs          fr7,__real@3ecccccd(r4)
	lfs          fr6,position$86074+14h(r1)		; 164 (0A4h)
	lfs          fr5,position$86074+10h(r1)		; 160 (0A0h)
	lfs          fr4,position$86074+0Ch(r1)		; 156 (9Ch)
	lfs          fr3,position$86074+8(r1)		; 152 (98h)
	lfs          fr2,position$86074+4(r1)		; 148 (94h)
	lfs          fr1,position$86074(r1)		; 144 (90h)
	bl           ?_CREATE_ROPE@@YAKMMMMMMMM@Z
	stw          r3,rope$86076(r1)		; 168 (0A8h)
; Line 231
	lis          r3,__real@00000000
	lfs          fr3,__real@00000000(r3)
	lis          r11,__real@00000000
	lfs          fr2,__real@00000000(r11)
	lis          r10,__real@00000000
	lfs          fr1,__real@00000000(r10)
	li           r5,28422		; 6F06h
	lis          r9,?_Ped@@3KA
	lwz          r4,?_Ped@@3KA(r9)
	addi         r3,r1,bones$86077
	bl           ?GET_PED_BONE_COORDS@@YA?AU_Vector3@@KKMMM@Z
; Line 232
	lfs          fr0,bones$86077+8(r1)		; 184 (0B8h)
	lis          r8,__real@3f847ae147ae147b
	lfd          fr13,__real@3f847ae147ae147b(r8)
	fadd         fr12,fr0,fr13
	frsp         fr11,fr12
	stfs         fr11,bones$86077+8(r1)		; 184 (0B8h)
; Line 233
	lwz          r7,bones$86077(r1)		; 176 (0B0h)
	stw          r7,0E0h(r1)
	lwz          r6,bones$86077+4(r1)		; 180 (0B4h)
	stw          r6,0E4h(r1)
	lwz          r5,bones$86077+8(r1)		; 184 (0B8h)
	stw          r5,0E8h(r1)
	lis          r4,__real@00000000
	lfs          fr3,__real@00000000(r4)
	lis          r3,__real@00000000
	lfs          fr2,__real@00000000(r3)
	lis          r11,__real@00000000
	lfs          fr1,__real@00000000(r11)
	addi         r3,r1,$T91807
	bl           ??0_Vector3@@QAA@MMM@Z
	ld           r8,0(r3)
	lwz          r10,8(r3)
	rldicr       r9,r10,32,31
	lfs          fr3,position$86074+14h(r1)		; 164 (0A4h)
	lfs          fr2,position$86074+10h(r1)		; 160 (0A0h)
	lfs          fr1,position$86074+0Ch(r1)		; 156 (9Ch)
	lis          r7,?_Ped@@3KA
	lwz          r4,?_Ped@@3KA(r7)
	lwz          r3,rope$86076(r1)		; 168 (0A8h)
	ld           r10,0E0h(r1)
	lwz          r6,0E8h(r1)
	stw          r6,58h(r1)
	bl           ?_ATTACH_ROPE_TO_ENTITY@@YAXKKMMMU_Vector3@@0@Z
; Line 234
	lwz          r3,rope$86076(r1)		; 168 (0A8h)
	b            $LN2@CREATE_ROP@2
$LN1@CREATE_ROP@2:
; Line 236
	lis          r5,?_Position@@3U_Vector3@@A
	addi         r4,r5,?_Position@@3U_Vector3@@A
	lwz          r3,0(r4)
	stw          r3,position$(r1)		; 96 (60h)
	lwz          r11,4(r4)
	stw          r11,position$+4(r1)		; 100 (64h)
	lwz          r10,8(r4)
	stw          r10,position$+8(r1)		; 104 (68h)
; Line 237
	lis          r9,__real@00000000
	lfs          fr8,__real@00000000(r9)
	lis          r8,__real@3ecccccd
	lfs          fr7,__real@3ecccccd(r8)
	lfs          fr6,forcedPosition$+8(r1)		; 312 (138h)
	lfs          fr5,forcedPosition$+4(r1)		; 308 (134h)
	lfs          fr4,forcedPosition$(r1)		; 304 (130h)
	lfs          fr3,position$+8(r1)		; 104 (68h)
	lfs          fr2,position$+4(r1)		; 100 (64h)
	lfs          fr1,position$(r1)		; 96 (60h)
	bl           ?_CREATE_ROPE@@YAKMMMMMMMM@Z
	stw          r3,rope$(r1)		; 112 (70h)
; Line 238
	lwz          r3,rope$(r1)		; 112 (70h)
	bl           ?GET_ROPE_VERTEX_COUNT@@YAKK@Z
	addi         r7,r3,-1		; 0FFFFh
	stw          r7,vertexCount$(r1)		; 108 (6Ch)
; Line 239
	lis          r6,__real@00000000
	lfs          fr3,__real@00000000(r6)
	lis          r5,__real@00000000
	lfs          fr2,__real@00000000(r5)
	lis          r4,__real@00000000
	lfs          fr1,__real@00000000(r4)
	li           r5,28422		; 6F06h
	lis          r3,?_Ped@@3KA
	lwz          r4,?_Ped@@3KA(r3)
	addi         r3,r1,bones$
	bl           ?GET_PED_BONE_COORDS@@YA?AU_Vector3@@KKMMM@Z
; Line 240
	lfs          fr10,bones$+8(r1)		; 128 (80h)
	lis          r11,__real@3f847ae147ae147b
	lfd          fr9,__real@3f847ae147ae147b(r11)
	fadd         fr8,fr10,fr9
	frsp         fr7,fr8
	stfs         fr7,bones$+8(r1)		; 128 (80h)
; Line 241
	lwz          r10,bones$(r1)		; 120 (78h)
	stw          r10,0F0h(r1)
	lwz          r9,bones$+4(r1)		; 124 (7Ch)
	stw          r9,0F4h(r1)
	lwz          r8,bones$+8(r1)		; 128 (80h)
	stw          r8,0F8h(r1)
	lis          r7,__real@00000000
	lfs          fr3,__real@00000000(r7)
	lis          r6,__real@00000000
	lfs          fr2,__real@00000000(r6)
	lis          r5,__real@00000000
	lfs          fr1,__real@00000000(r5)
	addi         r3,r1,$T91808
	bl           ??0_Vector3@@QAA@MMM@Z
	ld           r8,0(r3)
	lwz          r4,8(r3)
	rldicr       r9,r4,32,31
	lfs          fr3,position$+8(r1)		; 104 (68h)
	lfs          fr2,position$+4(r1)		; 100 (64h)
	lfs          fr1,position$(r1)		; 96 (60h)
	lis          r3,?_Ped@@3KA
	lwz          r4,?_Ped@@3KA(r3)
	lwz          r3,rope$(r1)		; 112 (70h)
	ld           r10,0F0h(r1)
	lwz          r11,0F8h(r1)
	stw          r11,58h(r1)
	bl           ?_ATTACH_ROPE_TO_ENTITY@@YAXKKMMMU_Vector3@@0@Z
; Line 242
	lfs          fr3,forcedPosition$+8(r1)		; 312 (138h)
	lfs          fr2,forcedPosition$+4(r1)		; 308 (134h)
	lfs          fr1,forcedPosition$(r1)		; 304 (130h)
	lwz          r4,vertexCount$(r1)		; 108 (6Ch)
	lwz          r3,rope$(r1)		; 112 (70h)
	bl           ?PIN_ROPE_VERTEX@@YAXKKMMM@Z
; Line 243
	lwz          r3,rope$(r1)		; 112 (70h)
$LN2@CREATE_ROP@2:
; Line 244
	addi         r1,r1,272		; 110h
	lwz          r12,-8(r1)
	mtlr         r12
	blr
$M91814:
; End code for function: ?_CREATE_ROPE_FOR_PLAYER@@YAKKU_Vector3@@0@Z
?_CREATE_ROPE_FOR_PLAYER@@YAKKU_Vector3@@0@Z ENDP
							; _CREATE_ROPE_FOR_PLAYER
PUBLIC	__real@3c8efa35
PUBLIC	?_DEGREE_TO_RADIAN@@YAMM@Z			; _DEGREE_TO_RADIAN
;	COMDAT __real@3c8efa35
.rdata	SEGMENT
__real@3c8efa35 DD 03c8efa35r			; 0.0174533
; Function compile flags: /Odtu

	.code

?_DEGREE_TO_RADIAN@@YAMM@Z PROC NEAR			; _DEGREE_TO_RADIAN, COMDAT

; Begin code for function: ?_DEGREE_TO_RADIAN@@YAMM@Z
; Line 246
	stfs         fr1,degree$(r1)		; 20 (14h)
; Line 247
	lfs          fr0,degree$(r1)		; 20 (14h)
	lis          r11,__real@3c8efa35
	lfs          fr13,__real@3c8efa35(r11)
	fmuls        fr1,fr0,fr13
; Line 248
	blr
; End code for function: ?_DEGREE_TO_RADIAN@@YAMM@Z
?_DEGREE_TO_RADIAN@@YAMM@Z ENDP
							; _DEGREE_TO_RADIAN
PUBLIC	?_RADIAN_TO_DEGREE@@YAMM@Z			; _RADIAN_TO_DEGREE
PUBLIC	?atan2@@YAMMM@Z					; atan2
PUBLIC	?Normalize@_Vector3@@QAAXXZ			; _Vector3::Normalize
;	COMDAT .pdata
.pdata	SEGMENT
$T91826	DD	?_DIRECTION_TO_ROTATION@@YA?AU_Vector3@@U1@M@Z
	DD	040003c04H
; Function compile flags: /Odtu

	.code
vec$ = 80						; size = 12
buffer$ = 96						; size = 12
$T91823 = 112						; size = 12

?_DIRECTION_TO_ROTATION@@YA?AU_Vector3@@U1@M@Z PROC NEAR	; _DIRECTION_TO_ROTATION, COMDAT

; Begin code for function: ?_DIRECTION_TO_ROTATION@@YA?AU_Vector3@@U1@M@Z
; Line 250
	mflr         r12
	stw          r12,-8(r1)
	stfd         fr31,-10h(r1)
	stwu         r1,-90h(r1)
.endprolog
$M91824:
	stw          r3,__$ReturnUdt$(r1)		; 164 (0A4h)
	std          r4,direction$(r1)
	std          r5,direction$+8(r1)
	stfs         fr1,roll$(r1)		; 196 (0C4h)
; Line 251
	addi         r3,r1,vec$
	bl           ??0_Vector3@@QAA@XZ
; Line 252
	addi         r3,r1,direction$
	bl           ?Normalize@_Vector3@@QAAXXZ
; Line 253
	lfs          fr2,direction$+4(r1)		; 180 (0B4h)
	lfs          fr1,direction$(r1)		; 176 (0B0h)
	bl           ?atan2@@YAMMM@Z
	bl           ?_RADIAN_TO_DEGREE@@YAMM@Z
	stfs         fr1,vec$+8(r1)		; 88 (58h)
; Line 254
	lis          r11,__real@00000000
	lfs          fr3,__real@00000000(r11)
	lfs          fr2,direction$+4(r1)		; 180 (0B4h)
	lfs          fr1,direction$(r1)		; 176 (0B0h)
	addi         r3,r1,buffer$
	bl           ??0_Vector3@@QAA@MMM@Z
; Line 255
	lis          r10,__real@00000000
	lfs          fr31,__real@00000000(r10)
	addi         r3,r1,buffer$
	bl           ?Distance@_Vector3@@QAAMXZ
	fmr          fr2,fr1
	lfs          fr1,direction$+8(r1)		; 184 (0B8h)
	addi         r3,r1,$T91823
	fmr          fr3,fr31
	bl           ??0_Vector3@@QAA@MMM@Z
	lwz          r9,0(r3)
	stw          r9,buffer$(r1)		; 96 (60h)
	lwz          r8,4(r3)
	stw          r8,buffer$+4(r1)		; 100 (64h)
	lwz          r7,8(r3)
	stw          r7,buffer$+8(r1)		; 104 (68h)
; Line 256
	addi         r3,r1,buffer$
	bl           ?Normalize@_Vector3@@QAAXXZ
; Line 257
	lfs          fr2,direction$+4(r1)		; 180 (0B4h)
	lfs          fr1,direction$(r1)		; 176 (0B0h)
	bl           ?atan2@@YAMMM@Z
	bl           ?_RADIAN_TO_DEGREE@@YAMM@Z
	stfs         fr1,vec$(r1)		; 80 (50h)
; Line 258
	lfs          fr0,roll$(r1)		; 196 (0C4h)
	stfs         fr0,vec$+4(r1)		; 84 (54h)
; Line 259
	lwz          r6,__$ReturnUdt$(r1)		; 164 (0A4h)
	lwz          r5,vec$(r1)		; 80 (50h)
	stw          r5,0(r6)
	lwz          r4,vec$+4(r1)		; 84 (54h)
	stw          r4,4(r6)
	lwz          r3,vec$+8(r1)		; 88 (58h)
	stw          r3,8(r6)
	lwz          r3,__$ReturnUdt$(r1)		; 164 (0A4h)
; Line 260
	addi         r1,r1,144		; 90h
	lwz          r12,-8(r1)
	mtlr         r12
	lfd          fr31,-10h(r1)
	blr
$M91825:
; End code for function: ?_DIRECTION_TO_ROTATION@@YA?AU_Vector3@@U1@M@Z
?_DIRECTION_TO_ROTATION@@YA?AU_Vector3@@U1@M@Z ENDP
							; _DIRECTION_TO_ROTATION
PUBLIC	atan2f
;	COMDAT .pdata
; File c:\program files (x86)\microsoft xbox 360 sdk\include\xbox\math.h
.pdata	SEGMENT
$T91832	DD	?atan2@@YAMMM@Z
	DD	040000c03H
; Function compile flags: /Odtu

	.code

?atan2@@YAMMM@Z	PROC NEAR				; atan2, COMDAT

; Begin code for function: ?atan2@@YAMMM@Z
; Line 400
	mflr         r12
	stw          r12,-8(r1)
	stwu         r1,-60h(r1)
.endprolog
$M91830:
	stfs         fr1,_Y$(r1)		; 116 (74h)
	stfs         fr2,_X$(r1)		; 124 (7Ch)
	lfs          fr2,_X$(r1)		; 124 (7Ch)
	lfs          fr1,_Y$(r1)		; 116 (74h)
	bl           atan2f
	addi         r1,r1,96		; 60h
	lwz          r12,-8(r1)
	mtlr         r12
	blr
$M91831:
; End code for function: ?atan2@@YAMMM@Z
?atan2@@YAMMM@Z ENDP
							; atan2
EXTRN	atan2:PROC
;	COMDAT .pdata
.pdata	SEGMENT
$T91838	DD	atan2f
	DD	040000d03H
; Function compile flags: /Odtu

	.code

atan2f PROC NEAR						; COMDAT

; Begin code for function: atan2f
; Line 302
	mflr         r12
	stw          r12,-8(r1)
	stwu         r1,-60h(r1)
.endprolog
$M91836:
	stfs         fr1,_Y$(r1)		; 116 (74h)
	stfs         fr2,_X$(r1)		; 124 (7Ch)
	lfs          fr2,_X$(r1)		; 124 (7Ch)
	lfs          fr1,_Y$(r1)		; 116 (74h)
	bl           atan2
	frsp         fr1,fr1
	addi         r1,r1,96		; 60h
	lwz          r12,-8(r1)
	mtlr         r12
	blr
$M91837:
; End code for function: atan2f
atan2f	ENDP

;	COMDAT .pdata
; File c:\users\s7clutch\documents\visual studio 2010\projects\the saiyan project\src\globals.h
.pdata	SEGMENT
$T91844	DD	?Normalize@_Vector3@@QAAXXZ
	DD	040002803H
; Function compile flags: /Odtu

	.code
len$ = 80						; size = 4
num$71714 = 84						; size = 4

?Normalize@_Vector3@@QAAXXZ PROC NEAR			; _Vector3::Normalize, COMDAT

; Begin code for function: ?Normalize@_Vector3@@QAAXXZ
; Line 1983
	mflr         r12
	stw          r12,-8(r1)
	stwu         r1,-60h(r1)
.endprolog
$M91842:
	stw          r3,this$(r1)		; 116 (74h)
; Line 1984
	lwz          r3,this$(r1)		; 116 (74h)
	bl           ?Distance@_Vector3@@QAAMXZ
	stfs         fr1,len$(r1)		; 80 (50h)
; Line 1985
	lfs          fr0,len$(r1)		; 80 (50h)
	lis          r11,__real@0000000000000000
	lfd          fr13,__real@0000000000000000(r11)
	fcmpu        cr6,fr0,fr13
	beq          cr6,$LN2@Normalize@2
; Line 1987
	lfs          fr12,len$(r1)		; 80 (50h)
	lis          r10,__real@3ff0000000000000
	lfd          fr11,__real@3ff0000000000000(r10)
	fdiv         fr10,fr11,fr12
	frsp         fr9,fr10
	stfs         fr9,num$71714(r1)		; 84 (54h)
; Line 1988
	lwz          r9,this$(r1)		; 116 (74h)
	lfs          fr8,0(r9)
	lfs          fr7,num$71714(r1)		; 84 (54h)
	fmuls        fr6,fr8,fr7
	lwz          r8,this$(r1)		; 116 (74h)
	stfs         fr6,0(r8)
; Line 1989
	lwz          r7,this$(r1)		; 116 (74h)
	lfs          fr5,4(r7)
	lfs          fr4,num$71714(r1)		; 84 (54h)
	fmuls        fr3,fr5,fr4
	lwz          r6,this$(r1)		; 116 (74h)
	stfs         fr3,4(r6)
; Line 1990
	lwz          r5,this$(r1)		; 116 (74h)
	lfs          fr2,8(r5)
	lfs          fr1,num$71714(r1)		; 84 (54h)
	fmuls        fr0,fr2,fr1
	lwz          r4,this$(r1)		; 116 (74h)
	stfs         fr0,8(r4)
$LN2@Normalize@2:
; Line 1992
	addi         r1,r1,96		; 60h
	lwz          r12,-8(r1)
	mtlr         r12
	blr
$M91843:
; End code for function: ?Normalize@_Vector3@@QAAXXZ
?Normalize@_Vector3@@QAAXXZ ENDP
							; _Vector3::Normalize
PUBLIC	?SET_INPUT_EXCLUSIVE@@YAXKK@Z			; SET_INPUT_EXCLUSIVE
PUBLIC	?SET_CINEMATIC_BUTTON_ACTIVE@@YAX_N@Z		; SET_CINEMATIC_BUTTON_ACTIVE
PUBLIC	?_DISABLE_CONTROLS@@YAXXZ			; _DISABLE_CONTROLS
;	COMDAT .pdata
; File c:\users\s7clutch\documents\visual studio 2010\projects\the saiyan project\src\natives.cpp
.pdata	SEGMENT
$T91850	DD	?_DISABLE_CONTROLS@@YAXXZ
	DD	040001803H
; Function compile flags: /Odtu

	.code

?_DISABLE_CONTROLS@@YAXXZ PROC NEAR			; _DISABLE_CONTROLS, COMDAT

; Begin code for function: ?_DISABLE_CONTROLS@@YAXXZ
; Line 262
	mflr         r12
	stw          r12,-8(r1)
	stwu         r1,-60h(r1)
.endprolog
$M91848:
; Line 263
	li           r3,0
	bl           ?SET_CINEMATIC_BUTTON_ACTIVE@@YAX_N@Z
; Line 264
	li           r4,161		; 0A1h
	li           r3,2
	bl           ?SET_INPUT_EXCLUSIVE@@YAXKK@Z
; Line 265
	li           r4,163		; 0A3h
	li           r3,2
	bl           ?SET_INPUT_EXCLUSIVE@@YAXKK@Z
; Line 266
	li           r4,164		; 0A4h
	li           r3,2
	bl           ?SET_INPUT_EXCLUSIVE@@YAXKK@Z
; Line 267
	li           r4,165		; 0A5h
	li           r3,2
	bl           ?SET_INPUT_EXCLUSIVE@@YAXKK@Z
; Line 268
	li           r4,176		; 0B0h
	li           r3,2
	bl           ?SET_INPUT_EXCLUSIVE@@YAXKK@Z
; Line 269
	addi         r1,r1,96		; 60h
	lwz          r12,-8(r1)
	mtlr         r12
	blr
$M91849:
; End code for function: ?_DISABLE_CONTROLS@@YAXXZ
?_DISABLE_CONTROLS@@YAXXZ ENDP
							; _DISABLE_CONTROLS
PUBLIC	?_0x6F8350CE@@YAXMM@Z				; _0x6F8350CE
PUBLIC	?_0x27A244D8@@YAXPAD@Z				; _0x27A244D8
PUBLIC	?_0x3E35563E@@YAXPAD@Z				; _0x3E35563E
PUBLIC	??_C@_06IGECGLFO@STRING?$AA@			; `string'
PUBLIC	?SET_TEXT_EDGE@@YAXKKKKK@Z			; SET_TEXT_EDGE
PUBLIC	?SET_TEXT_DROPSHADOW@@YAXKKKKK@Z		; SET_TEXT_DROPSHADOW
PUBLIC	?SET_TEXT_CENTRE@@YAX_N@Z			; SET_TEXT_CENTRE
PUBLIC	?SET_TEXT_WRAP@@YAXMM@Z				; SET_TEXT_WRAP
PUBLIC	?SET_TEXT_OUTLINE@@YAXXZ			; SET_TEXT_OUTLINE
PUBLIC	?SET_TEXT_COLOUR@@YAXEEEE@Z			; SET_TEXT_COLOUR
PUBLIC	?SET_TEXT_SCALE@@YAXMM@Z			; SET_TEXT_SCALE
PUBLIC	?SET_TEXT_FONT@@YAXK@Z				; SET_TEXT_FONT
PUBLIC	?_DISPLAY_TEXT@@YAXPADKMMMMEEEE_N1MM@Z		; _DISPLAY_TEXT
;	COMDAT .pdata
.pdata	SEGMENT
$T91856	DD	?_DISPLAY_TEXT@@YAXPADKMMMMEEEE_N1MM@Z
	DD	040003803H
;	COMDAT ??_C@_06IGECGLFO@STRING?$AA@
.rdata	SEGMENT
??_C@_06IGECGLFO@STRING?$AA@ DB 'STRING', 00H		; `string'
; Function compile flags: /Odtu

	.code

?_DISPLAY_TEXT@@YAXPADKMMMMEEEE_N1MM@Z PROC NEAR		; _DISPLAY_TEXT, COMDAT

; Begin code for function: ?_DISPLAY_TEXT@@YAXPADKMMMMEEEE_N1MM@Z
; Line 271
	mflr         r12
	stw          r12,-8(r1)
	stwu         r1,-60h(r1)
.endprolog
$M91854:
	stw          r3,text$(r1)		; 116 (74h)
	stw          r4,font$(r1)		; 124 (7Ch)
	stfs         fr1,x$(r1)		; 132 (84h)
	stfs         fr2,y$(r1)		; 140 (8Ch)
	stfs         fr3,width$(r1)		; 148 (94h)
	stfs         fr4,height$(r1)		; 156 (9Ch)
	stb          r9,R$(r1)		; 167 (0A7h)
	stb          r10,G$(r1)		; 175 (0AFh)
	stfs         fr5,wrapWidth$(r1)		; 212 (0D4h)
	stfs         fr6,wrapHeight$(r1)		; 220 (0DCh)
; Line 272
	lwz          r3,font$(r1)		; 124 (7Ch)
	bl           ?SET_TEXT_FONT@@YAXK@Z
; Line 273
	lfs          fr2,height$(r1)		; 156 (9Ch)
	lfs          fr1,width$(r1)		; 148 (94h)
	bl           ?SET_TEXT_SCALE@@YAXMM@Z
; Line 274
	lbz          r6,A$(r1)		; 191 (0BFh)
	lbz          r5,B$(r1)		; 183 (0B7h)
	lbz          r4,G$(r1)		; 175 (0AFh)
	lbz          r3,R$(r1)		; 167 (0A7h)
	bl           ?SET_TEXT_COLOUR@@YAXEEEE@Z
; Line 275
	lbz          r11,outline$(r1)		; 199 (0C7h)
	cmpwi        cr6,r11,0
	beq          cr6,$LN1@DISPLAY_TE
	bl           ?SET_TEXT_OUTLINE@@YAXXZ
$LN1@DISPLAY_TE:
; Line 276
	lfs          fr2,wrapHeight$(r1)		; 220 (0DCh)
	lfs          fr1,wrapWidth$(r1)		; 212 (0D4h)
	bl           ?SET_TEXT_WRAP@@YAXMM@Z
; Line 277
	lbz          r3,center$(r1)		; 207 (0CFh)
	bl           ?SET_TEXT_CENTRE@@YAX_N@Z
; Line 278
	li           r7,0
	li           r6,0
	li           r5,0
	li           r4,0
	li           r3,0
	bl           ?SET_TEXT_DROPSHADOW@@YAXKKKKK@Z
; Line 279
	li           r7,0
	li           r6,0
	li           r5,0
	li           r4,0
	li           r3,0
	bl           ?SET_TEXT_EDGE@@YAXKKKKK@Z
; Line 280
	lis          r10,??_C@_06IGECGLFO@STRING?$AA@
	addi         r3,r10,??_C@_06IGECGLFO@STRING?$AA@
	bl           ?_0x3E35563E@@YAXPAD@Z
; Line 282
	lwz          r3,text$(r1)		; 116 (74h)
	bl           ?_0x27A244D8@@YAXPAD@Z
; Line 283
	lfs          fr2,y$(r1)		; 140 (8Ch)
	lfs          fr1,x$(r1)		; 132 (84h)
	bl           ?_0x6F8350CE@@YAXMM@Z
; Line 285
	addi         r1,r1,96		; 60h
	lwz          r12,-8(r1)
	mtlr         r12
	blr
$M91855:
; End code for function: ?_DISPLAY_TEXT@@YAXPADKMMMMEEEE_N1MM@Z
?_DISPLAY_TEXT@@YAXPADKMMMMEEEE_N1MM@Z ENDP
							; _DISPLAY_TEXT
PUBLIC	?CREATE_AMBIENT_PICKUP@@YAXKMMM_NKK00@Z		; CREATE_AMBIENT_PICKUP
PUBLIC	?_DROP_CASH@@YAXU_Vector3@@K@Z			; _DROP_CASH
;	COMDAT .pdata
.pdata	SEGMENT
$T91862	DD	?_DROP_CASH@@YAXU_Vector3@@K@Z
	DD	040003303H
; Function compile flags: /Odtu

	.code
buffer$ = 96						; size = 4

?_DROP_CASH@@YAXU_Vector3@@K@Z PROC NEAR			; _DROP_CASH, COMDAT

; Begin code for function: ?_DROP_CASH@@YAXU_Vector3@@K@Z
; Line 287
	mflr         r12
	stw          r12,-8(r1)
	stwu         r1,-70h(r1)
.endprolog
$M91860:
	std          r3,coords$(r1)
	std          r4,coords$+8(r1)
	stw          r5,amount$(r1)		; 148 (94h)
; Line 288
	lwz          r11,amount$(r1)		; 148 (94h)
	stw          r11,buffer$(r1)		; 96 (60h)
$LN3@DROP_CASH:
; Line 289
	lwz          r10,buffer$(r1)		; 96 (60h)
	cmplwi       cr6,r10,40000		; 9C40h
	ble          cr6,$LN2@DROP_CASH
; Line 291
	li           r9,1
	stb          r9,57h(r1)
	li           r10,0
	lis          r8,4415		; 113Fh
	ori          r9,r8,54579		; 0D533h
	lis          r7,0
	ori          r8,r7,40000		; 9C40h
	li           r7,0
	lfs          fr3,coords$+8(r1)		; 136 (88h)
	lfs          fr2,coords$+4(r1)		; 132 (84h)
	lfs          fr1,coords$(r1)		; 128 (80h)
	lis          r6,-12689		; 0CE6Fh
	ori          r3,r6,56683		; 0DD6Bh
	bl           ?CREATE_AMBIENT_PICKUP@@YAXKMMM_NKK00@Z
; Line 292
	lwz          r5,buffer$(r1)		; 96 (60h)
	lis          r4,0
	ori          r3,r4,40000		; 9C40h
	subf         r11,r3,r5
	stw          r11,buffer$(r1)		; 96 (60h)
; Line 293
	b            $LN3@DROP_CASH
$LN2@DROP_CASH:
; Line 294
	lwz          r10,buffer$(r1)		; 96 (60h)
	cmplwi       cr6,r10,0
	ble          cr6,$LN4@DROP_CASH
; Line 295
	li           r9,1
	stb          r9,57h(r1)
	li           r10,0
	lis          r8,4415		; 113Fh
	ori          r9,r8,54579		; 0D533h
	lwz          r8,buffer$(r1)		; 96 (60h)
	li           r7,0
	lfs          fr3,coords$+8(r1)		; 136 (88h)
	lfs          fr2,coords$+4(r1)		; 132 (84h)
	lfs          fr1,coords$(r1)		; 128 (80h)
	lis          r6,-12689		; 0CE6Fh
	ori          r3,r6,56683		; 0DD6Bh
	bl           ?CREATE_AMBIENT_PICKUP@@YAXKMMM_NKK00@Z
$LN4@DROP_CASH:
; Line 296
	addi         r1,r1,112		; 70h
	lwz          r12,-8(r1)
	mtlr         r12
	blr
$M91861:
; End code for function: ?_DROP_CASH@@YAXU_Vector3@@K@Z
?_DROP_CASH@@YAXU_Vector3@@K@Z ENDP
							; _DROP_CASH
PUBLIC	?_DROP_HEALTH@@YAXU_Vector3@@@Z			; _DROP_HEALTH
;	COMDAT .pdata
.pdata	SEGMENT
$T91868	DD	?_DROP_HEALTH@@YAXU_Vector3@@@Z
	DD	040001603H
; Function compile flags: /Odtu

	.code

?_DROP_HEALTH@@YAXU_Vector3@@@Z	PROC NEAR		; _DROP_HEALTH, COMDAT

; Begin code for function: ?_DROP_HEALTH@@YAXU_Vector3@@@Z
; Line 298
	mflr         r12
	stw          r12,-8(r1)
	stwu         r1,-60h(r1)
.endprolog
$M91866:
	std          r3,coords$(r1)
	std          r4,coords$+8(r1)
; Line 299
	li           r11,1
	stb          r11,57h(r1)
	li           r10,0
	li           r9,1
	lis          r8,1
	ori          r8,r8,34464		; 86A0h
	li           r7,0
	lfs          fr3,coords$+8(r1)		; 120 (78h)
	lfs          fr2,coords$+4(r1)		; 116 (74h)
	lfs          fr1,coords$(r1)		; 112 (70h)
	lis          r6,-28816		; 8F70h
	ori          r3,r6,31768		; 7C18h
	bl           ?CREATE_AMBIENT_PICKUP@@YAXKMMM_NKK00@Z
; Line 300
	addi         r1,r1,96		; 60h
	lwz          r12,-8(r1)
	mtlr         r12
	blr
$M91867:
; End code for function: ?_DROP_HEALTH@@YAXU_Vector3@@@Z
?_DROP_HEALTH@@YAXU_Vector3@@@Z ENDP
							; _DROP_HEALTH
PUBLIC	?getNext@_Node@@QAAPAU1@XZ			; _Node::getNext
EXTRN	?NativePoolHead@@3PAU_Node@@A:DWORD		; NativePoolHead
;	COMDAT .pdata
.pdata	SEGMENT
$T91874	DD	?_GET_ADDRESS@@YAKK@Z
	DD	040001b03H
; Function compile flags: /Odtu

	.code
n$ = 80							; size = 4

?_GET_ADDRESS@@YAKK@Z PROC NEAR				; _GET_ADDRESS, COMDAT

; Begin code for function: ?_GET_ADDRESS@@YAKK@Z
; Line 302
	mflr         r12
	stw          r12,-8(r1)
	stwu         r1,-60h(r1)
.endprolog
$M91872:
	stw          r3,native$(r1)		; 116 (74h)
; Line 303
	lis          r11,?NativePoolHead@@3PAU_Node@@A
	lwz          r10,?NativePoolHead@@3PAU_Node@@A(r11)
	stw          r10,n$(r1)		; 80 (50h)
$LN3@GET_ADDRES:
; Line 304
	lwz          r9,n$(r1)		; 80 (50h)
	cmplwi       cr6,r9,0
	beq          cr6,$LN2@GET_ADDRES
; Line 306
	lwz          r8,n$(r1)		; 80 (50h)
	lwz          r7,0(r8)
	lwz          r6,native$(r1)		; 116 (74h)
	cmplw        cr6,r7,r6
	bne          cr6,$LN1@GET_ADDRES
; Line 307
	lwz          r5,n$(r1)		; 80 (50h)
	lwz          r3,4(r5)
	b            $LN4@GET_ADDRES
$LN1@GET_ADDRES:
; Line 308
	lwz          r3,n$(r1)		; 80 (50h)
	bl           ?getNext@_Node@@QAAPAU1@XZ
	stw          r3,n$(r1)		; 80 (50h)
; Line 309
	b            $LN3@GET_ADDRES
$LN2@GET_ADDRES:
; Line 310
	li           r3,0
$LN4@GET_ADDRES:
; Line 311
	addi         r1,r1,96		; 60h
	lwz          r12,-8(r1)
	mtlr         r12
	blr
$M91873:
; End code for function: ?_GET_ADDRESS@@YAKK@Z
?_GET_ADDRESS@@YAKK@Z ENDP
							; _GET_ADDRESS
; Function compile flags: /Odtu

	.code

?getNext@_Node@@QAAPAU1@XZ PROC NEAR			; _Node::getNext, COMDAT

; Begin code for function: ?getNext@_Node@@QAAPAU1@XZ
; File c:\users\s7clutch\documents\visual studio 2010\projects\the saiyan project\src\globals.h
; Line 1909
	stw          r3,this$(r1)		; 20 (14h)
; Line 1910
	lwz          r11,this$(r1)		; 20 (14h)
	lwz          r3,8(r11)
; Line 1911
	blr
; End code for function: ?getNext@_Node@@QAAPAU1@XZ
?getNext@_Node@@QAAPAU1@XZ ENDP
							; _Node::getNext
PUBLIC	?sin@@YAMM@Z					; sin
PUBLIC	?abs@@YAMM@Z					; abs
PUBLIC	?cos@@YAMM@Z					; cos
PUBLIC	__real@3f91df46a0431914
PUBLIC	?_GET_CAMERA_DIRECTION@@YA?AU_Vector3@@XZ	; _GET_CAMERA_DIRECTION
;	COMDAT .pdata
; File c:\users\s7clutch\documents\visual studio 2010\projects\the saiyan project\src\natives.cpp
.pdata	SEGMENT
$T91884	DD	?_GET_CAMERA_DIRECTION@@YA?AU_Vector3@@XZ
	DD	040003005H
;	COMDAT __real@3f91df46a0431914
.rdata	SEGMENT
__real@3f91df46a0431914 DQ 03f91df46a0431914r	; 0.0174533
; Function compile flags: /Odtu

	.code
tZ$ = 80						; size = 4
num$ = 84						; size = 4
rot$ = 88						; size = 12
tX$ = 100						; size = 4

?_GET_CAMERA_DIRECTION@@YA?AU_Vector3@@XZ PROC NEAR	; _GET_CAMERA_DIRECTION, COMDAT

; Begin code for function: ?_GET_CAMERA_DIRECTION@@YA?AU_Vector3@@XZ
; Line 313
	mflr         r12
	stw          r12,-8(r1)
	stfd         fr30,-18h(r1)
	stfd         fr31,-10h(r1)
	stwu         r1,-80h(r1)
.endprolog
$M91882:
	stw          r3,__$ReturnUdt$(r1)		; 148 (94h)
; Line 314
	li           r4,0
	addi         r3,r1,rot$
	bl           ?GET_GAMEPLAY_CAM_ROT@@YA?AU_Vector3@@K@Z
; Line 315
	lfs          fr0,rot$(r1)		; 88 (58h)
	lis          r11,__real@3f91df46a0431914
	lfd          fr13,__real@3f91df46a0431914(r11)
	fmul         fr12,fr0,fr13
	frsp         fr11,fr12
	stfs         fr11,tX$(r1)		; 100 (64h)
; Line 316
	lfs          fr10,rot$+8(r1)		; 96 (60h)
	lis          r10,__real@3f91df46a0431914
	lfd          fr9,__real@3f91df46a0431914(r10)
	fmul         fr8,fr10,fr9
	frsp         fr7,fr8
	stfs         fr7,tZ$(r1)		; 80 (50h)
; Line 317
	lfs          fr1,tX$(r1)		; 100 (64h)
	bl           ?cos@@YAMM@Z
	bl           ?abs@@YAMM@Z
	stfs         fr1,num$(r1)		; 84 (54h)
; Line 318
	lfs          fr1,tX$(r1)		; 100 (64h)
	bl           ?sin@@YAMM@Z
	fmr          fr31,fr1
	lfs          fr1,tZ$(r1)		; 80 (50h)
	bl           ?cos@@YAMM@Z
	lfs          fr6,num$(r1)		; 84 (54h)
	fmuls        fr30,fr1,fr6
	lfs          fr1,tZ$(r1)		; 80 (50h)
	bl           ?sin@@YAMM@Z
	fneg         fr5,fr1
	lfs          fr4,num$(r1)		; 84 (54h)
	fmuls        fr1,fr5,fr4
	lwz          r3,__$ReturnUdt$(r1)		; 148 (94h)
	fmr          fr2,fr30
	fmr          fr3,fr31
	bl           ??0_Vector3@@QAA@MMM@Z
	lwz          r3,__$ReturnUdt$(r1)		; 148 (94h)
; Line 319
	addi         r1,r1,128		; 80h
	lwz          r12,-8(r1)
	mtlr         r12
	lfd          fr30,-18h(r1)
	lfd          fr31,-10h(r1)
	blr
$M91883:
; End code for function: ?_GET_CAMERA_DIRECTION@@YA?AU_Vector3@@XZ
?_GET_CAMERA_DIRECTION@@YA?AU_Vector3@@XZ ENDP
							; _GET_CAMERA_DIRECTION
PUBLIC	fabsf
;	COMDAT .pdata
; File c:\program files (x86)\microsoft xbox 360 sdk\include\xbox\math.h
.pdata	SEGMENT
$T91890	DD	?abs@@YAMM@Z
	DD	040000a03H
; Function compile flags: /Odtu

	.code

?abs@@YAMM@Z PROC NEAR					; abs, COMDAT

; Begin code for function: ?abs@@YAMM@Z
; Line 392
	mflr         r12
	stw          r12,-8(r1)
	stwu         r1,-60h(r1)
.endprolog
$M91888:
	stfs         fr1,_X$(r1)		; 116 (74h)
	lfs          fr1,_X$(r1)		; 116 (74h)
	bl           fabsf
	addi         r1,r1,96		; 60h
	lwz          r12,-8(r1)
	mtlr         r12
	blr
$M91889:
; End code for function: ?abs@@YAMM@Z
?abs@@YAMM@Z ENDP
							; abs
EXTRN	fabs:PROC
;	COMDAT .pdata
.pdata	SEGMENT
$T91896	DD	fabsf
	DD	040000b03H
; Function compile flags: /Odtu

	.code

fabsf PROC NEAR						; COMDAT

; Begin code for function: fabsf
; Line 292
	mflr         r12
	stw          r12,-8(r1)
	stwu         r1,-60h(r1)
.endprolog
$M91894:
	stfs         fr1,_X$(r1)		; 116 (74h)
	lfs          fr1,_X$(r1)		; 116 (74h)
	bl           fabs
	frsp         fr1,fr1
	addi         r1,r1,96		; 60h
	lwz          r12,-8(r1)
	mtlr         r12
	blr
$M91895:
; End code for function: fabsf
fabsf	ENDP

PUBLIC	cosf
;	COMDAT .pdata
.pdata	SEGMENT
$T91902	DD	?cos@@YAMM@Z
	DD	040000a03H
; Function compile flags: /Odtu

	.code

?cos@@YAMM@Z PROC NEAR					; cos, COMDAT

; Begin code for function: ?cos@@YAMM@Z
; Line 404
	mflr         r12
	stw          r12,-8(r1)
	stwu         r1,-60h(r1)
.endprolog
$M91900:
	stfs         fr1,_X$(r1)		; 116 (74h)
	lfs          fr1,_X$(r1)		; 116 (74h)
	bl           cosf
	addi         r1,r1,96		; 60h
	lwz          r12,-8(r1)
	mtlr         r12
	blr
$M91901:
; End code for function: ?cos@@YAMM@Z
?cos@@YAMM@Z ENDP
							; cos
EXTRN	cos:PROC
;	COMDAT .pdata
.pdata	SEGMENT
$T91908	DD	cosf
	DD	040000b03H
; Function compile flags: /Odtu

	.code

cosf PROC NEAR						; COMDAT

; Begin code for function: cosf
; Line 306
	mflr         r12
	stw          r12,-8(r1)
	stwu         r1,-60h(r1)
.endprolog
$M91906:
	stfs         fr1,_X$(r1)		; 116 (74h)
	lfs          fr1,_X$(r1)		; 116 (74h)
	bl           cos
	frsp         fr1,fr1
	addi         r1,r1,96		; 60h
	lwz          r12,-8(r1)
	mtlr         r12
	blr
$M91907:
; End code for function: cosf
cosf	ENDP

PUBLIC	sinf
;	COMDAT .pdata
.pdata	SEGMENT
$T91914	DD	?sin@@YAMM@Z
	DD	040000a03H
; Function compile flags: /Odtu

	.code

?sin@@YAMM@Z PROC NEAR					; sin, COMDAT

; Begin code for function: ?sin@@YAMM@Z
; Line 430
	mflr         r12
	stw          r12,-8(r1)
	stwu         r1,-60h(r1)
.endprolog
$M91912:
	stfs         fr1,_X$(r1)		; 116 (74h)
	lfs          fr1,_X$(r1)		; 116 (74h)
	bl           sinf
	addi         r1,r1,96		; 60h
	lwz          r12,-8(r1)
	mtlr         r12
	blr
$M91913:
; End code for function: ?sin@@YAMM@Z
?sin@@YAMM@Z ENDP
							; sin
EXTRN	sin:PROC
;	COMDAT .pdata
.pdata	SEGMENT
$T91920	DD	sinf
	DD	040000b03H
; Function compile flags: /Odtu

	.code

sinf PROC NEAR						; COMDAT

; Begin code for function: sinf
; Line 326
	mflr         r12
	stw          r12,-8(r1)
	stwu         r1,-60h(r1)
.endprolog
$M91918:
	stfs         fr1,_X$(r1)		; 116 (74h)
	lfs          fr1,_X$(r1)		; 116 (74h)
	bl           sin
	frsp         fr1,fr1
	addi         r1,r1,96		; 60h
	lwz          r12,-8(r1)
	mtlr         r12
	blr
$M91919:
; End code for function: sinf
sinf	ENDP

PUBLIC	__real@41000000
PUBLIC	?_GET_CAMERA_DIRECTION@@YA?AU_Vector3@@M@Z	; _GET_CAMERA_DIRECTION
;	COMDAT .pdata
; File c:\users\s7clutch\documents\visual studio 2010\projects\the saiyan project\src\natives.cpp
.pdata	SEGMENT
$T91928	DD	?_GET_CAMERA_DIRECTION@@YA?AU_Vector3@@M@Z
	DD	040003705H
;	COMDAT __real@41000000
.rdata	SEGMENT
__real@41000000 DD 041000000r			; 8
; Function compile flags: /Odtu

	.code
tZ$ = 80						; size = 4
num$ = 84						; size = 4
rot$ = 88						; size = 12
tX$ = 100						; size = 4

?_GET_CAMERA_DIRECTION@@YA?AU_Vector3@@M@Z PROC NEAR	; _GET_CAMERA_DIRECTION, COMDAT

; Begin code for function: ?_GET_CAMERA_DIRECTION@@YA?AU_Vector3@@M@Z
; Line 321
	mflr         r12
	stw          r12,-8(r1)
	stfd         fr30,-18h(r1)
	stfd         fr31,-10h(r1)
	stwu         r1,-80h(r1)
.endprolog
$M91926:
	stw          r3,__$ReturnUdt$(r1)		; 148 (94h)
	stfs         fr1,distance$(r1)		; 156 (9Ch)
; Line 322
	li           r4,0
	addi         r3,r1,rot$
	bl           ?GET_GAMEPLAY_CAM_ROT@@YA?AU_Vector3@@K@Z
; Line 323
	lfs          fr0,rot$(r1)		; 88 (58h)
	lis          r11,__real@3f91df46a0431914
	lfd          fr13,__real@3f91df46a0431914(r11)
	fmul         fr12,fr0,fr13
	frsp         fr11,fr12
	stfs         fr11,tX$(r1)		; 100 (64h)
; Line 324
	lfs          fr10,rot$+8(r1)		; 96 (60h)
	lis          r10,__real@3f91df46a0431914
	lfd          fr9,__real@3f91df46a0431914(r10)
	fmul         fr8,fr10,fr9
	frsp         fr7,fr8
	stfs         fr7,tZ$(r1)		; 80 (50h)
; Line 325
	lfs          fr1,tX$(r1)		; 100 (64h)
	bl           ?cos@@YAMM@Z
	bl           ?abs@@YAMM@Z
	stfs         fr1,num$(r1)		; 84 (54h)
; Line 326
	lfs          fr1,tX$(r1)		; 100 (64h)
	bl           ?sin@@YAMM@Z
	lis          r9,__real@41000000
	lfs          fr6,__real@41000000(r9)
	fmuls        fr31,fr1,fr6
	lfs          fr1,tZ$(r1)		; 80 (50h)
	bl           ?cos@@YAMM@Z
	lfs          fr5,num$(r1)		; 84 (54h)
	lfs          fr4,distance$(r1)		; 156 (9Ch)
	fadds        fr3,fr5,fr4
	fmuls        fr30,fr1,fr3
	lfs          fr1,tZ$(r1)		; 80 (50h)
	bl           ?sin@@YAMM@Z
	fneg         fr2,fr1
	lfs          fr1,num$(r1)		; 84 (54h)
	lfs          fr0,distance$(r1)		; 156 (9Ch)
	fadds        fr13,fr1,fr0
	fmuls        fr1,fr2,fr13
	lwz          r3,__$ReturnUdt$(r1)		; 148 (94h)
	fmr          fr2,fr30
	fmr          fr3,fr31
	bl           ??0_Vector3@@QAA@MMM@Z
	lwz          r3,__$ReturnUdt$(r1)		; 148 (94h)
; Line 327
	addi         r1,r1,128		; 80h
	lwz          r12,-8(r1)
	mtlr         r12
	lfd          fr30,-18h(r1)
	lfd          fr31,-10h(r1)
	blr
$M91927:
; End code for function: ?_GET_CAMERA_DIRECTION@@YA?AU_Vector3@@M@Z
?_GET_CAMERA_DIRECTION@@YA?AU_Vector3@@M@Z ENDP
							; _GET_CAMERA_DIRECTION
PUBLIC	?GET_FRAME_TIME@@YAMXZ				; GET_FRAME_TIME
PUBLIC	?_GET_FPS@@YAMXZ				; _GET_FPS
;	COMDAT .pdata
.pdata	SEGMENT
$T91934	DD	?_GET_FPS@@YAMXZ
	DD	040000c03H
; Function compile flags: /Odtu

	.code

?_GET_FPS@@YAMXZ PROC NEAR				; _GET_FPS, COMDAT

; Begin code for function: ?_GET_FPS@@YAMXZ
; Line 329
	mflr         r12
	stw          r12,-8(r1)
	stwu         r1,-60h(r1)
.endprolog
$M91932:
; Line 330
	bl           ?GET_FRAME_TIME@@YAMXZ
	lis          r11,__real@3ff0000000000000
	lfd          fr0,__real@3ff0000000000000(r11)
	fdiv         fr13,fr0,fr1
	frsp         fr1,fr13
; Line 331
	addi         r1,r1,96		; 60h
	lwz          r12,-8(r1)
	mtlr         r12
	blr
$M91933:
; End code for function: ?_GET_FPS@@YAMXZ
?_GET_FPS@@YAMXZ ENDP
							; _GET_FPS
PUBLIC	??1?$vector@KV?$allocator@K@std@@@std@@QAA@XZ	; std::vector<unsigned long,std::allocator<unsigned long> >::~vector<unsigned long,std::allocator<unsigned long> >
PUBLIC	??0?$vector@KV?$allocator@K@std@@@std@@QAA@$$QAV01@@Z ; std::vector<unsigned long,std::allocator<unsigned long> >::vector<unsigned long,std::allocator<unsigned long> >
PUBLIC	?push_back@?$vector@KV?$allocator@K@std@@@std@@QAAXABK@Z ; std::vector<unsigned long,std::allocator<unsigned long> >::push_back
PUBLIC	?Distance@_Vector3@@QAAMU1@@Z			; _Vector3::Distance
PUBLIC	?DOES_ENTITY_EXIST@@YA_NK@Z			; DOES_ENTITY_EXIST
PUBLIC	?GET_PED_NEARBY_PEDS@@YAKKPAKK@Z		; GET_PED_NEARBY_PEDS
PUBLIC	??0?$vector@KV?$allocator@K@std@@@std@@QAA@XZ	; std::vector<unsigned long,std::allocator<unsigned long> >::vector<unsigned long,std::allocator<unsigned long> >
PUBLIC	?_GET_NEARBY_PEDS@@YA?AV?$vector@KV?$allocator@K@std@@@std@@MK@Z ; _GET_NEARBY_PEDS
EXTRN	??_V@YAXPAX@Z:PROC				; operator delete[]
EXTRN	??_U@YAPAXI@Z:PROC				; operator new[]
;	COMDAT .pdata
.pdata	SEGMENT
$T91945	DD	?_GET_NEARBY_PEDS@@YA?AV?$vector@KV?$allocator@K@std@@@std@@MK@Z
	DD	040006c03H
; Function compile flags: /Odtu

	.code
position$ = 80						; size = 12
amount$ = 92						; size = 4
handles$ = 96						; size = 4
result$ = 112						; size = 16
i$86498 = 128						; size = 4
index$86502 = 132					; size = 4
ped$86504 = 136						; size = 4
$T91938 = 140						; size = 4
$T91941 = 144						; size = 12
$T91942 = 156						; size = 4
tv71 = 160						; size = 4
tv74 = 164						; size = 4

?_GET_NEARBY_PEDS@@YA?AV?$vector@KV?$allocator@K@std@@@std@@MK@Z PROC NEAR ; _GET_NEARBY_PEDS, COMDAT

; Begin code for function: ?_GET_NEARBY_PEDS@@YA?AV?$vector@KV?$allocator@K@std@@@std@@MK@Z
; Line 333
	mflr         r12
	stw          r12,-8(r1)
	stwu         r1,-0B0h(r1)
.endprolog
$M91943:
	stw          r3,__$ReturnUdt$(r1)		; 196 (0C4h)
	stfs         fr1,radius$(r1)		; 204 (0CCh)
	stw          r5,maxAmount$(r1)		; 212 (0D4h)
; Line 334
	lis          r11,?_Position@@3U_Vector3@@A
	addi         r10,r11,?_Position@@3U_Vector3@@A
	lwz          r9,0(r10)
	stw          r9,position$(r1)		; 80 (50h)
	lwz          r8,4(r10)
	stw          r8,position$+4(r1)		; 84 (54h)
	lwz          r7,8(r10)
	stw          r7,position$+8(r1)		; 88 (58h)
; Line 335
	addi         r3,r1,result$
	bl           ??0?$vector@KV?$allocator@K@std@@@std@@QAA@XZ
; Line 336
	lwz          r6,maxAmount$(r1)		; 212 (0D4h)
	slwi         r5,r6,1
	addi         r4,r5,2
	stw          r4,0A0h(r1)
	lwz          r3,0A0h(r1)
	lis          r11,16383		; 3FFFh
	ori          r10,r11,65535		; 0FFFFh
	cmplw        cr6,r3,r10
	bgt          cr6,$LN8@GET_NEARBY
	lwz          r9,0A0h(r1)
	slwi         r8,r9,2
	stw          r8,0A4h(r1)
	b            $LN9@GET_NEARBY
$LN8@GET_NEARBY:
	li           r7,-1		; 0FFFFh
	stw          r7,0A4h(r1)
$LN9@GET_NEARBY:
	lwz          r3,0A4h(r1)
	bl           ??_U@YAPAXI@Z
	stw          r3,$T91938(r1)		; 140 (8Ch)
	lwz          r6,$T91938(r1)		; 140 (8Ch)
	stw          r6,handles$(r1)		; 96 (60h)
; Line 338
	lwz          r5,maxAmount$(r1)		; 212 (0D4h)
	lwz          r4,handles$(r1)		; 96 (60h)
	stw          r5,0(r4)
; Line 339
	li           r5,-1		; 0FFFFh
	lwz          r4,handles$(r1)		; 96 (60h)
	lis          r3,?_Ped@@3KA
	lwz          r3,?_Ped@@3KA(r3)
	bl           ?GET_PED_NEARBY_PEDS@@YAKKPAKK@Z
	stw          r3,amount$(r1)		; 92 (5Ch)
; Line 340
	li           r11,0
	stw          r11,i$86498(r1)		; 128 (80h)
	b            $LN5@GET_NEARBY
$LN4@GET_NEARBY:
	lwz          r10,i$86498(r1)		; 128 (80h)
	addi         r9,r10,1
	stw          r9,i$86498(r1)		; 128 (80h)
$LN5@GET_NEARBY:
	lwz          r8,i$86498(r1)		; 128 (80h)
	lwz          r7,amount$(r1)		; 92 (5Ch)
	cmplw        cr6,r8,r7
	bge          cr6,$LN3@GET_NEARBY
; Line 342
	lwz          r6,i$86498(r1)		; 128 (80h)
	slwi         r5,r6,1
	addi         r4,r5,2
	stw          r4,index$86502(r1)		; 132 (84h)
; Line 343
	lwz          r3,index$86502(r1)		; 132 (84h)
	slwi         r11,r3,2
	lwz          r10,handles$(r1)		; 96 (60h)
	lwzx         r9,r10,r11
	cmplwi       cr6,r9,0
	beq          cr6,$LN2@GET_NEARBY
	lwz          r8,index$86502(r1)		; 132 (84h)
	slwi         r7,r8,2
	lwz          r6,handles$(r1)		; 96 (60h)
	lwzx         r3,r6,r7
	bl           ?DOES_ENTITY_EXIST@@YA_NK@Z
	clrlwi       r5,r3,24
	cmpwi        cr6,r5,0
	beq          cr6,$LN2@GET_NEARBY
; Line 345
	lwz          r4,index$86502(r1)		; 132 (84h)
	slwi         r3,r4,2
	lwz          r11,handles$(r1)		; 96 (60h)
	lwzx         r10,r11,r3
	stw          r10,ped$86504(r1)		; 136 (88h)
; Line 346
	li           r5,1
	lwz          r4,ped$86504(r1)		; 136 (88h)
	addi         r3,r1,$T91941
	bl           ?GET_ENTITY_COORDS@@YA?AU_Vector3@@K_N@Z
	ld           r4,0(r3)
	lwz          r9,8(r3)
	rldicr       r5,r9,32,31
	addi         r3,r1,position$
	bl           ?Distance@_Vector3@@QAAMU1@@Z
	lfs          fr0,radius$(r1)		; 204 (0CCh)
	fcmpu        cr6,fr1,fr0
	bge          cr6,$LN2@GET_NEARBY
; Line 347
	addi         r4,r1,ped$86504
	addi         r3,r1,result$
	bl           ?push_back@?$vector@KV?$allocator@K@std@@@std@@QAAXABK@Z
$LN2@GET_NEARBY:
; Line 349
	b            $LN4@GET_NEARBY
$LN3@GET_NEARBY:
; Line 350
	lwz          r8,handles$(r1)		; 96 (60h)
	stw          r8,$T91942(r1)		; 156 (9Ch)
	lwz          r3,$T91942(r1)		; 156 (9Ch)
	bl           ??_V@YAXPAX@Z
; Line 352
	addi         r4,r1,result$
	lwz          r3,__$ReturnUdt$(r1)		; 196 (0C4h)
	bl           ??0?$vector@KV?$allocator@K@std@@@std@@QAA@$$QAV01@@Z
	addi         r3,r1,result$
	bl           ??1?$vector@KV?$allocator@K@std@@@std@@QAA@XZ
	lwz          r3,__$ReturnUdt$(r1)		; 196 (0C4h)
; Line 353
	addi         r1,r1,176		; 0B0h
	lwz          r12,-8(r1)
	mtlr         r12
	blr
$M91944:
; End code for function: ?_GET_NEARBY_PEDS@@YA?AV?$vector@KV?$allocator@K@std@@@std@@MK@Z
?_GET_NEARBY_PEDS@@YA?AV?$vector@KV?$allocator@K@std@@@std@@MK@Z ENDP
							; _GET_NEARBY_PEDS
;	COMDAT .pdata
; File c:\users\s7clutch\documents\visual studio 2010\projects\the saiyan project\src\globals.h
.pdata	SEGMENT
$T91951	DD	?Distance@_Vector3@@QAAMU1@@Z
	DD	040001003H
; Function compile flags: /Odtu

	.code

?Distance@_Vector3@@QAAMU1@@Z PROC NEAR			; _Vector3::Distance, COMDAT

; Begin code for function: ?Distance@_Vector3@@QAAMU1@@Z
; Line 1961
	mflr         r12
	stw          r12,-8(r1)
	stwu         r1,-60h(r1)
.endprolog
$M91949:
	stw          r3,this$(r1)		; 116 (74h)
	std          r4,Vector$(r1)
	std          r5,Vector$+8(r1)
; Line 1962
	ld           r4,Vector$(r1)
	lwz          r11,Vector$+8(r1)		; 136 (88h)
	rldicr       r5,r11,32,31
	lwz          r3,this$(r1)		; 116 (74h)
	bl           ?DistanceEx@_Vector3@@QAAMU1@@Z
	bl           ?sqrt@@YAMM@Z
; Line 1963
	addi         r1,r1,96		; 60h
	lwz          r12,-8(r1)
	mtlr         r12
	blr
$M91950:
; End code for function: ?Distance@_Vector3@@QAAMU1@@Z
?Distance@_Vector3@@QAAMU1@@Z ENDP
							; _Vector3::Distance
PUBLIC	?TASK_PLAY_ANIM@@YAXKPAD0MMKKM_N11@Z		; TASK_PLAY_ANIM
PUBLIC	__real@c1000000
PUBLIC	?_REQUEST_ANIM_DICT@@YA_NPAD@Z			; _REQUEST_ANIM_DICT
PUBLIC	?_PLAY_ANIMATION@@YAXKPAD0MK_NM@Z		; _PLAY_ANIMATION
;	COMDAT .pdata
; File c:\users\s7clutch\documents\visual studio 2010\projects\the saiyan project\src\natives.cpp
.pdata	SEGMENT
$T91959	DD	?_PLAY_ANIMATION@@YAXKPAD0MK_NM@Z
	DD	040002403H
;	COMDAT __real@c1000000
.rdata	SEGMENT
__real@c1000000 DD 0c1000000r			; -8
; Function compile flags: /Odtu

	.code

?_PLAY_ANIMATION@@YAXKPAD0MK_NM@Z PROC NEAR		; _PLAY_ANIMATION, COMDAT

; Begin code for function: ?_PLAY_ANIMATION@@YAXKPAD0MK_NM@Z
; Line 355
	mflr         r12
	stw          r12,-8(r1)
	stwu         r1,-70h(r1)
.endprolog
$M91957:
	stw          r3,entity$(r1)		; 132 (84h)
	stw          r4,animSet$(r1)		; 140 (8Ch)
	stw          r5,animName$(r1)		; 148 (94h)
	stfs         fr1,speed$(r1)		; 156 (9Ch)
	stw          r7,duration$(r1)		; 164 (0A4h)
	stb          r8,lastAnimation$(r1)		; 175 (0AFh)
	stfs         fr2,playbackRate$(r1)		; 180 (0B4h)
$LN2@PLAY_ANIMA:
; Line 356
	lwz          r3,animSet$(r1)		; 140 (8Ch)
	bl           ?_REQUEST_ANIM_DICT@@YA_NPAD@Z
	clrlwi       r11,r3,24
	cmpwi        cr6,r11,0
	bne          cr6,$LN1@PLAY_ANIMA
	b            $LN2@PLAY_ANIMA
$LN1@PLAY_ANIMA:
; Line 357
	li           r10,0
	stb          r10,67h(r1)
	li           r9,0
	stb          r9,5Fh(r1)
	li           r8,0
	stb          r8,57h(r1)
	lfs          fr3,playbackRate$(r1)		; 180 (0B4h)
	lbz          r9,lastAnimation$(r1)		; 175 (0AFh)
	lwz          r8,duration$(r1)		; 164 (0A4h)
	lis          r7,__real@c1000000
	lfs          fr2,__real@c1000000(r7)
	lfs          fr1,speed$(r1)		; 156 (9Ch)
	lwz          r5,animName$(r1)		; 148 (94h)
	lwz          r4,animSet$(r1)		; 140 (8Ch)
	lwz          r3,entity$(r1)		; 132 (84h)
	bl           ?TASK_PLAY_ANIM@@YAXKPAD0MMKKM_N11@Z
; Line 358
	addi         r1,r1,112		; 70h
	lwz          r12,-8(r1)
	mtlr         r12
	blr
$M91958:
; End code for function: ?_PLAY_ANIMATION@@YAXKPAD0MK_NM@Z
?_PLAY_ANIMATION@@YAXKPAD0MK_NM@Z ENDP
							; _PLAY_ANIMATION
PUBLIC	?DISPLAY_HELP_TEXT_FROM_STRING_LABEL@@YAXK_N0K@Z ; DISPLAY_HELP_TEXT_FROM_STRING_LABEL
PUBLIC	?SET_TEXT_COMPONENT_FORMAT@@YAXPAD@Z		; SET_TEXT_COMPONENT_FORMAT
PUBLIC	?_PRINT_HELP_TEXT@@YAXPADZZ			; _PRINT_HELP_TEXT
EXTRN	vsprintf:PROC
;	COMDAT .pdata
.pdata	SEGMENT
$T91965	DD	?_PRINT_HELP_TEXT@@YAXPADZZ
	DD	04000200aH
; Function compile flags: /Odtu

	.code
Buffer$ = 80						; size = 1024
VA_ARGS$ = 1104						; size = 4

?_PRINT_HELP_TEXT@@YAXPADZZ PROC NEAR			; _PRINT_HELP_TEXT, COMDAT

; Begin code for function: ?_PRINT_HELP_TEXT@@YAXPADZZ
; Line 360
	mflr         r12
	stw          r12,-8(r1)
	std          r4,18h(r1)
	std          r5,20h(r1)
	std          r6,28h(r1)
	std          r7,30h(r1)
	std          r8,38h(r1)
	std          r9,40h(r1)
	std          r10,48h(r1)
	stwu         r1,-460h(r1)
.endprolog
$M91963:
	stw          r3,text$(r1)		; 1140 (474h)
; Line 363
	addi         r11,r1,VA_ARGS$
	addi         r10,r1,text$+4
	stw          r10,0(r11)
; Line 364
	lwz          r5,VA_ARGS$(r1)		; 1104 (450h)
	lwz          r4,text$(r1)		; 1140 (474h)
	addi         r3,r1,Buffer$
	bl           vsprintf
; Line 366
	lis          r9,??_C@_06IGECGLFO@STRING?$AA@
	addi         r3,r9,??_C@_06IGECGLFO@STRING?$AA@
	bl           ?SET_TEXT_COMPONENT_FORMAT@@YAXPAD@Z
; Line 367
	addi         r3,r1,Buffer$
	bl           ?_0x27A244D8@@YAXPAD@Z
; Line 368
	li           r6,-1		; 0FFFFh
	li           r5,0
	li           r4,0
	li           r3,0
	bl           ?DISPLAY_HELP_TEXT_FROM_STRING_LABEL@@YAXK_N0K@Z
; Line 369
	addi         r1,r1,1120		; 460h
	lwz          r12,-8(r1)
	mtlr         r12
	blr
$M91964:
; End code for function: ?_PRINT_HELP_TEXT@@YAXPADZZ
?_PRINT_HELP_TEXT@@YAXPADZZ ENDP
							; _PRINT_HELP_TEXT
PUBLIC	?_0x38F82261@@YAXKK@Z				; _0x38F82261
PUBLIC	?_0xF42C43C7@@YAXPAD@Z				; _0xF42C43C7
PUBLIC	?CLEAR_PRINTS@@YAXXZ				; CLEAR_PRINTS
PUBLIC	?_PRINT_TEXT@@YAXPADZZ				; _PRINT_TEXT
;	COMDAT .pdata
.pdata	SEGMENT
$T91971	DD	?_PRINT_TEXT@@YAXPADZZ
	DD	040001f0aH
; Function compile flags: /Odtu

	.code
Buffer$ = 80						; size = 1024
VA_ARGS$ = 1104						; size = 4

?_PRINT_TEXT@@YAXPADZZ PROC NEAR				; _PRINT_TEXT, COMDAT

; Begin code for function: ?_PRINT_TEXT@@YAXPADZZ
; Line 371
	mflr         r12
	stw          r12,-8(r1)
	std          r4,18h(r1)
	std          r5,20h(r1)
	std          r6,28h(r1)
	std          r7,30h(r1)
	std          r8,38h(r1)
	std          r9,40h(r1)
	std          r10,48h(r1)
	stwu         r1,-460h(r1)
.endprolog
$M91969:
	stw          r3,text$(r1)		; 1140 (474h)
; Line 374
	addi         r11,r1,VA_ARGS$
	addi         r10,r1,text$+4
	stw          r10,0(r11)
; Line 375
	lwz          r5,VA_ARGS$(r1)		; 1104 (450h)
	lwz          r4,text$(r1)		; 1140 (474h)
	addi         r3,r1,Buffer$
	bl           vsprintf
; Line 377
	bl           ?CLEAR_PRINTS@@YAXXZ
; Line 378
	lis          r9,??_C@_06IGECGLFO@STRING?$AA@
	addi         r3,r9,??_C@_06IGECGLFO@STRING?$AA@
	bl           ?_0xF42C43C7@@YAXPAD@Z
; Line 379
	addi         r3,r1,Buffer$
	bl           ?_0x27A244D8@@YAXPAD@Z
; Line 380
	li           r4,1
	li           r3,5000		; 1388h
	bl           ?_0x38F82261@@YAXKK@Z
; Line 381
	addi         r1,r1,1120		; 460h
	lwz          r12,-8(r1)
	mtlr         r12
	blr
$M91970:
; End code for function: ?_PRINT_TEXT@@YAXPADZZ
?_PRINT_TEXT@@YAXPADZZ ENDP
							; _PRINT_TEXT
PUBLIC	__real@42652ee1
;	COMDAT __real@42652ee1
.rdata	SEGMENT
__real@42652ee1 DD 042652ee1r			; 57.2958
; Function compile flags: /Odtu

	.code

?_RADIAN_TO_DEGREE@@YAMM@Z PROC NEAR			; _RADIAN_TO_DEGREE, COMDAT

; Begin code for function: ?_RADIAN_TO_DEGREE@@YAMM@Z
; Line 383
	stfs         fr1,radian$(r1)		; 20 (14h)
; Line 384
	lfs          fr0,radian$(r1)		; 20 (14h)
	lis          r11,__real@42652ee1
	lfs          fr13,__real@42652ee1(r11)
	fmuls        fr1,fr0,fr13
; Line 385
	blr
; End code for function: ?_RADIAN_TO_DEGREE@@YAMM@Z
?_RADIAN_TO_DEGREE@@YAMM@Z ENDP
							; _RADIAN_TO_DEGREE
PUBLIC	?REQUEST_ANIM_DICT@@YAXPAD@Z			; REQUEST_ANIM_DICT
PUBLIC	?HAS_ANIM_DICT_LOADED@@YA_NPAD@Z		; HAS_ANIM_DICT_LOADED
;	COMDAT .pdata
.pdata	SEGMENT
$T91981	DD	?_REQUEST_ANIM_DICT@@YA_NPAD@Z
	DD	040001403H
; Function compile flags: /Odtu

	.code

?_REQUEST_ANIM_DICT@@YA_NPAD@Z PROC NEAR			; _REQUEST_ANIM_DICT, COMDAT

; Begin code for function: ?_REQUEST_ANIM_DICT@@YA_NPAD@Z
; Line 387
	mflr         r12
	stw          r12,-8(r1)
	stwu         r1,-60h(r1)
.endprolog
$M91979:
	stw          r3,dict$(r1)		; 116 (74h)
; Line 388
	lwz          r3,dict$(r1)		; 116 (74h)
	bl           ?HAS_ANIM_DICT_LOADED@@YA_NPAD@Z
	clrlwi       r11,r3,24
	cmpwi        cr6,r11,0
	bne          cr6,$LN2@REQUEST_AN
; Line 389
	lwz          r3,dict$(r1)		; 116 (74h)
	bl           ?REQUEST_ANIM_DICT@@YAXPAD@Z
; Line 390
	b            $LN1@REQUEST_AN
$LN2@REQUEST_AN:
; Line 391
	li           r3,1
	b            $LN3@REQUEST_AN
$LN1@REQUEST_AN:
; Line 392
	lwz          r3,dict$(r1)		; 116 (74h)
	bl           ?HAS_ANIM_DICT_LOADED@@YA_NPAD@Z
$LN3@REQUEST_AN:
; Line 393
	addi         r1,r1,96		; 60h
	lwz          r12,-8(r1)
	mtlr         r12
	blr
$M91980:
; End code for function: ?_REQUEST_ANIM_DICT@@YA_NPAD@Z
?_REQUEST_ANIM_DICT@@YA_NPAD@Z ENDP
							; _REQUEST_ANIM_DICT
PUBLIC	?REQUEST_CLIP_SET@@YAXPAD@Z			; REQUEST_CLIP_SET
PUBLIC	?HAS_CLIP_SET_LOADED@@YA_NPAD@Z			; HAS_CLIP_SET_LOADED
PUBLIC	?_REQUEST_CLIP_SET@@YA_NPAD@Z			; _REQUEST_CLIP_SET
;	COMDAT .pdata
.pdata	SEGMENT
$T91987	DD	?_REQUEST_CLIP_SET@@YA_NPAD@Z
	DD	040001403H
; Function compile flags: /Odtu

	.code

?_REQUEST_CLIP_SET@@YA_NPAD@Z PROC NEAR			; _REQUEST_CLIP_SET, COMDAT

; Begin code for function: ?_REQUEST_CLIP_SET@@YA_NPAD@Z
; Line 395
	mflr         r12
	stw          r12,-8(r1)
	stwu         r1,-60h(r1)
.endprolog
$M91985:
	stw          r3,clipSet$(r1)		; 116 (74h)
; Line 396
	lwz          r3,clipSet$(r1)		; 116 (74h)
	bl           ?HAS_CLIP_SET_LOADED@@YA_NPAD@Z
	clrlwi       r11,r3,24
	cmpwi        cr6,r11,0
	bne          cr6,$LN2@REQUEST_CL
; Line 397
	lwz          r3,clipSet$(r1)		; 116 (74h)
	bl           ?REQUEST_CLIP_SET@@YAXPAD@Z
; Line 398
	b            $LN1@REQUEST_CL
$LN2@REQUEST_CL:
; Line 399
	li           r3,1
	b            $LN3@REQUEST_CL
$LN1@REQUEST_CL:
; Line 400
	lwz          r3,clipSet$(r1)		; 116 (74h)
	bl           ?HAS_CLIP_SET_LOADED@@YA_NPAD@Z
$LN3@REQUEST_CL:
; Line 401
	addi         r1,r1,96		; 60h
	lwz          r12,-8(r1)
	mtlr         r12
	blr
$M91986:
; End code for function: ?_REQUEST_CLIP_SET@@YA_NPAD@Z
?_REQUEST_CLIP_SET@@YA_NPAD@Z ENDP
							; _REQUEST_CLIP_SET
PUBLIC	?NETWORK_HAS_CONTROL_OF_ENTITY@@YA_NK@Z		; NETWORK_HAS_CONTROL_OF_ENTITY
PUBLIC	?NETWORK_REQUEST_CONTROL_OF_ENTITY@@YA_NK@Z	; NETWORK_REQUEST_CONTROL_OF_ENTITY
;	COMDAT .pdata
.pdata	SEGMENT
$T91993	DD	?_REQUEST_NETWORK_CONTROL@@YA_NK@Z
	DD	040000c03H
; Function compile flags: /Odtu

	.code

?_REQUEST_NETWORK_CONTROL@@YA_NK@Z PROC NEAR		; _REQUEST_NETWORK_CONTROL, COMDAT

; Begin code for function: ?_REQUEST_NETWORK_CONTROL@@YA_NK@Z
; Line 403
	mflr         r12
	stw          r12,-8(r1)
	stwu         r1,-60h(r1)
.endprolog
$M91991:
	stw          r3,entity$(r1)		; 116 (74h)
; Line 404
	lwz          r3,entity$(r1)		; 116 (74h)
	bl           ?NETWORK_REQUEST_CONTROL_OF_ENTITY@@YA_NK@Z
; Line 405
	lwz          r3,entity$(r1)		; 116 (74h)
	bl           ?NETWORK_HAS_CONTROL_OF_ENTITY@@YA_NK@Z
; Line 406
	addi         r1,r1,96		; 60h
	lwz          r12,-8(r1)
	mtlr         r12
	blr
$M91992:
; End code for function: ?_REQUEST_NETWORK_CONTROL@@YA_NK@Z
?_REQUEST_NETWORK_CONTROL@@YA_NK@Z ENDP
							; _REQUEST_NETWORK_CONTROL
;	COMDAT .pdata
.pdata	SEGMENT
$T91999	DD	?_ROTATION_TO_DIRECTION@@YA?AU_Vector3@@U1@@Z
	DD	040002c03H
; Function compile flags: /Odtu

	.code
a$ = 80							; size = 4
direction$ = 88						; size = 12
num$ = 100						; size = 4
d$ = 104						; size = 4

?_ROTATION_TO_DIRECTION@@YA?AU_Vector3@@U1@@Z PROC NEAR	; _ROTATION_TO_DIRECTION, COMDAT

; Begin code for function: ?_ROTATION_TO_DIRECTION@@YA?AU_Vector3@@U1@@Z
; Line 408
	mflr         r12
	stw          r12,-8(r1)
	stwu         r1,-80h(r1)
.endprolog
$M91997:
	stw          r3,__$ReturnUdt$(r1)		; 148 (94h)
	std          r4,rot$(r1)
	std          r5,rot$+8(r1)
; Line 409
	addi         r3,r1,direction$
	bl           ??0_Vector3@@QAA@XZ
; Line 410
	lfs          fr1,rot$+8(r1)		; 168 (0A8h)
	bl           ?_DEGREE_TO_RADIAN@@YAMM@Z
	stfs         fr1,a$(r1)		; 80 (50h)
; Line 411
	lfs          fr1,rot$(r1)		; 160 (0A0h)
	bl           ?_DEGREE_TO_RADIAN@@YAMM@Z
	stfs         fr1,d$(r1)		; 104 (68h)
; Line 412
	lfs          fr1,d$(r1)		; 104 (68h)
	bl           ?cos@@YAMM@Z
	bl           ?abs@@YAMM@Z
	stfs         fr1,num$(r1)		; 100 (64h)
; Line 413
	lfs          fr1,a$(r1)		; 80 (50h)
	bl           ?sin@@YAMM@Z
	fneg         fr0,fr1
	lfs          fr13,num$(r1)		; 100 (64h)
	fmuls        fr12,fr0,fr13
	stfs         fr12,direction$(r1)		; 88 (58h)
; Line 414
	lfs          fr1,a$(r1)		; 80 (50h)
	bl           ?cos@@YAMM@Z
	lfs          fr11,num$(r1)		; 100 (64h)
	fmuls        fr10,fr1,fr11
	stfs         fr10,direction$+4(r1)		; 92 (5Ch)
; Line 415
	lfs          fr1,d$(r1)		; 104 (68h)
	bl           ?sin@@YAMM@Z
	stfs         fr1,direction$+8(r1)		; 96 (60h)
; Line 416
	lwz          r11,__$ReturnUdt$(r1)		; 148 (94h)
	lwz          r10,direction$(r1)		; 88 (58h)
	stw          r10,0(r11)
	lwz          r9,direction$+4(r1)		; 92 (5Ch)
	stw          r9,4(r11)
	lwz          r8,direction$+8(r1)		; 96 (60h)
	stw          r8,8(r11)
	lwz          r3,__$ReturnUdt$(r1)		; 148 (94h)
; Line 417
	addi         r1,r1,128		; 80h
	lwz          r12,-8(r1)
	mtlr         r12
	blr
$M91998:
; End code for function: ?_ROTATION_TO_DIRECTION@@YA?AU_Vector3@@U1@@Z
?_ROTATION_TO_DIRECTION@@YA?AU_Vector3@@U1@@Z ENDP
							; _ROTATION_TO_DIRECTION
PUBLIC	?_SPAWN_VEHICLE@@YAKKMMM@Z			; _SPAWN_VEHICLE
PUBLIC	?_SPAWN_VEHICLE@@YAKK@Z				; _SPAWN_VEHICLE
;	COMDAT .pdata
.pdata	SEGMENT
$T92005	DD	?_SPAWN_VEHICLE@@YAKK@Z
	DD	040001203H
; Function compile flags: /Odtu

	.code

?_SPAWN_VEHICLE@@YAKK@Z	PROC NEAR			; _SPAWN_VEHICLE, COMDAT

; Begin code for function: ?_SPAWN_VEHICLE@@YAKK@Z
; Line 419
	mflr         r12
	stw          r12,-8(r1)
	stwu         r1,-60h(r1)
.endprolog
$M92003:
	stw          r3,modelHash$(r1)		; 116 (74h)
; Line 420
	lis          r11,?_Position@@3U_Vector3@@A
	addi         r10,r11,?_Position@@3U_Vector3@@A
	lfs          fr3,8(r10)
	lis          r9,?_Position@@3U_Vector3@@A
	addi         r8,r9,?_Position@@3U_Vector3@@A
	lfs          fr2,4(r8)
	lis          r7,?_Position@@3U_Vector3@@A
	lfs          fr1,?_Position@@3U_Vector3@@A(r7)
	lwz          r3,modelHash$(r1)		; 116 (74h)
	bl           ?_SPAWN_VEHICLE@@YAKKMMM@Z
; Line 421
	addi         r1,r1,96		; 60h
	lwz          r12,-8(r1)
	mtlr         r12
	blr
$M92004:
; End code for function: ?_SPAWN_VEHICLE@@YAKK@Z
?_SPAWN_VEHICLE@@YAKK@Z ENDP
							; _SPAWN_VEHICLE
PUBLIC	?IS_PED_IN_VEHICLE@@YA_NKK_N@Z			; IS_PED_IN_VEHICLE
PUBLIC	?SET_VEHICLE_DOORS_LOCKED_FOR_TEAM@@YAXKK_N@Z	; SET_VEHICLE_DOORS_LOCKED_FOR_TEAM
PUBLIC	?GET_PLAYER_TEAM@@YAKK@Z			; GET_PLAYER_TEAM
PUBLIC	?IS_THIS_MODEL_A_HELI@@YA_NK@Z			; IS_THIS_MODEL_A_HELI
PUBLIC	?IS_THIS_MODEL_A_PLANE@@YA_NK@Z			; IS_THIS_MODEL_A_PLANE
PUBLIC	?SET_VEHICLE_LIGHTS@@YAXKK@Z			; SET_VEHICLE_LIGHTS
PUBLIC	?SET_VEHICLE_FIXED@@YAXK@Z			; SET_VEHICLE_FIXED
PUBLIC	?NETWORK_GET_ENTITY_IS_LOCAL@@YA_NK@Z		; NETWORK_GET_ENTITY_IS_LOCAL
PUBLIC	?IS_ENTITY_A_MISSION_ENTITY@@YA_NK@Z		; IS_ENTITY_A_MISSION_ENTITY
PUBLIC	?NET_TO_VEH@@YAKK@Z				; NET_TO_VEH
PUBLIC	?SET_VEHICLE_IS_STOLEN@@YAXK_N@Z		; SET_VEHICLE_IS_STOLEN
PUBLIC	?SET_NETWORK_ID_EXISTS_ON_ALL_MACHINES@@YAXK_N@Z ; SET_NETWORK_ID_EXISTS_ON_ALL_MACHINES
PUBLIC	?_0xD7F934F4@@YA_NK@Z				; _0xD7F934F4
PUBLIC	?_0xD3850671@@YAXKK@Z				; _0xD3850671
PUBLIC	?NETWORK_DOES_NETWORK_ID_EXIST@@YA_NK@Z		; NETWORK_DOES_NETWORK_ID_EXIST
PUBLIC	?VEH_TO_NET@@YAKK@Z				; VEH_TO_NET
PUBLIC	?CAN_REGISTER_MISSION_VEHICLES@@YA_NK@Z		; CAN_REGISTER_MISSION_VEHICLES
PUBLIC	?SET_MODEL_AS_NO_LONGER_NEEDED@@YAXK@Z		; SET_MODEL_AS_NO_LONGER_NEEDED
PUBLIC	?SET_VEHICLE_FORWARD_SPEED@@YAXKM@Z		; SET_VEHICLE_FORWARD_SPEED
PUBLIC	?SET_HELI_BLADES_FULL_SPEED@@YAXK@Z		; SET_HELI_BLADES_FULL_SPEED
PUBLIC	?SET_VEHICLE_ENGINE_ON@@YAXK_N0@Z		; SET_VEHICLE_ENGINE_ON
PUBLIC	?SET_PED_INTO_VEHICLE@@YAXKKK@Z			; SET_PED_INTO_VEHICLE
PUBLIC	?CREATE_VEHICLE@@YAKKMMMM_N0@Z			; CREATE_VEHICLE
PUBLIC	?GET_ENTITY_HEADING@@YAMK@Z			; GET_ENTITY_HEADING
PUBLIC	?CLEAR_AREA_OF_VEHICLES@@YAXMMMM_N0000@Z	; CLEAR_AREA_OF_VEHICLES
PUBLIC	__real@40a00000
PUBLIC	?HAS_MODEL_LOADED@@YA_NK@Z			; HAS_MODEL_LOADED
PUBLIC	?DELETE_VEHICLE@@YAXK@Z				; DELETE_VEHICLE
PUBLIC	?GET_ENTITY_SPEED@@YAMK@Z			; GET_ENTITY_SPEED
PUBLIC	?REQUEST_MODEL@@YAXK@Z				; REQUEST_MODEL
EXTRN	?_Player@@3KA:DWORD				; _Player
EXTRN	?_Vehicle@@3KA:DWORD				; _Vehicle
;	COMDAT .pdata
.pdata	SEGMENT
$T92013	DD	?_SPAWN_VEHICLE@@YAKKMMM@Z
	DD	04000cd03H
;	COMDAT __real@40a00000
.rdata	SEGMENT
__real@40a00000 DD 040a00000r			; 5
; Function compile flags: /Odtu

	.code
speed$ = 96						; size = 4
vehicle$86572 = 100					; size = 4
networkId$86576 = 104					; size = 4
vehicle$86575 = 108					; size = 4
team$86582 = 112					; size = 4

?_SPAWN_VEHICLE@@YAKKMMM@Z PROC NEAR			; _SPAWN_VEHICLE, COMDAT

; Begin code for function: ?_SPAWN_VEHICLE@@YAKKMMM@Z
; Line 423
	mflr         r12
	stw          r12,-8(r1)
	stwu         r1,-80h(r1)
.endprolog
$M92011:
	stw          r3,modelHash$(r1)		; 148 (94h)
	stfs         fr1,x$(r1)		; 156 (9Ch)
	stfs         fr2,y$(r1)		; 164 (0A4h)
	stfs         fr3,z$(r1)		; 172 (0ACh)
; Line 424
	lwz          r3,modelHash$(r1)		; 148 (94h)
	bl           ?REQUEST_MODEL@@YAXK@Z
; Line 427
	lis          r11,?_Vehicle@@3KA
	lwz          r10,?_Vehicle@@3KA(r11)
	cmplwi       cr6,r10,0
	beq          cr6,$LN12@SPAWN_VEHI
; Line 429
	lis          r9,?_Vehicle@@3KA
	lwz          r3,?_Vehicle@@3KA(r9)
	bl           ?GET_ENTITY_SPEED@@YAMK@Z
	stfs         fr1,speed$(r1)		; 96 (60h)
; Line 430
	li           r5,1
	li           r4,0
	lis          r8,?_Vehicle@@3KA
	lwz          r3,?_Vehicle@@3KA(r8)
	bl           ?SET_ENTITY_AS_MISSION_ENTITY@@YAXK_N0@Z
; Line 431
	lis          r7,?_Vehicle@@3KA
	lwz          r3,?_Vehicle@@3KA(r7)
	bl           ?DELETE_VEHICLE@@YAXK@Z
; Line 433
	b            $LN11@SPAWN_VEHI
$LN12@SPAWN_VEHI:
; Line 434
	lis          r6,?_Ped@@3KA
	lwz          r3,?_Ped@@3KA(r6)
	bl           ?GET_ENTITY_SPEED@@YAMK@Z
	stfs         fr1,speed$(r1)		; 96 (60h)
$LN11@SPAWN_VEHI:
; Line 436
	lwz          r3,modelHash$(r1)		; 148 (94h)
	bl           ?HAS_MODEL_LOADED@@YA_NK@Z
	clrlwi       r5,r3,24
	cmpwi        cr6,r5,0
	beq          cr6,$LN10@SPAWN_VEHI
; Line 438
	li           r4,1
	stb          r4,57h(r1)
	li           r10,1
	li           r9,1
	li           r8,0
	li           r7,0
	lis          r3,__real@40a00000
	lfs          fr4,__real@40a00000(r3)
	lfs          fr3,z$(r1)		; 172 (0ACh)
	lfs          fr2,y$(r1)		; 164 (0A4h)
	lfs          fr1,x$(r1)		; 156 (9Ch)
	bl           ?CLEAR_AREA_OF_VEHICLES@@YAXMMMM_N0000@Z
; Line 439
	lis          r11,?_Ped@@3KA
	lwz          r3,?_Ped@@3KA(r11)
	bl           ?GET_ENTITY_HEADING@@YAMK@Z
	fmr          fr4,fr1
	lfs          fr3,z$(r1)		; 172 (0ACh)
	lfs          fr2,y$(r1)		; 164 (0A4h)
	lfs          fr1,x$(r1)		; 156 (9Ch)
	lwz          r3,modelHash$(r1)		; 148 (94h)
	li           r8,1
	li           r9,0
	bl           ?CREATE_VEHICLE@@YAKKMMMM_N0@Z
	stw          r3,vehicle$86572(r1)		; 100 (64h)
; Line 440
	lwz          r3,vehicle$86572(r1)		; 100 (64h)
	bl           ?DOES_ENTITY_EXIST@@YA_NK@Z
	clrlwi       r10,r3,24
	cmpwi        cr6,r10,0
	beq          cr6,$LN10@SPAWN_VEHI
; Line 442
	li           r5,-1		; 0FFFFh
	lwz          r4,vehicle$86572(r1)		; 100 (64h)
	lis          r9,?_Ped@@3KA
	lwz          r3,?_Ped@@3KA(r9)
	bl           ?SET_PED_INTO_VEHICLE@@YAXKKK@Z
; Line 443
	li           r5,1
	li           r4,1
	lwz          r3,vehicle$86572(r1)		; 100 (64h)
	bl           ?SET_VEHICLE_ENGINE_ON@@YAXK_N0@Z
; Line 444
	lwz          r3,vehicle$86572(r1)		; 100 (64h)
	bl           ?SET_HELI_BLADES_FULL_SPEED@@YAXK@Z
; Line 445
	lfs          fr1,speed$(r1)		; 96 (60h)
	lwz          r3,vehicle$86572(r1)		; 100 (64h)
	bl           ?SET_VEHICLE_FORWARD_SPEED@@YAXKM@Z
; Line 446
	lwz          r3,modelHash$(r1)		; 148 (94h)
	bl           ?SET_MODEL_AS_NO_LONGER_NEEDED@@YAXK@Z
; Line 447
	lwz          r3,vehicle$86572(r1)		; 100 (64h)
	b            $LN13@SPAWN_VEHI
$LN10@SPAWN_VEHI:
; Line 451
	li           r3,1
	bl           ?CAN_REGISTER_MISSION_VEHICLES@@YA_NK@Z
	clrlwi       r8,r3,24
	cmpwi        cr6,r8,0
	beq          cr6,$LN8@SPAWN_VEHI
; Line 453
	li           r7,1
	stb          r7,57h(r1)
	li           r10,1
	li           r9,1
	li           r8,0
	li           r7,0
	lis          r6,__real@3f800000
	lfs          fr4,__real@3f800000(r6)
	lfs          fr3,z$(r1)		; 172 (0ACh)
	lfs          fr2,y$(r1)		; 164 (0A4h)
	lfs          fr1,x$(r1)		; 156 (9Ch)
	bl           ?CLEAR_AREA_OF_VEHICLES@@YAXMMMM_N0000@Z
; Line 454
	lis          r5,?_Ped@@3KA
	lwz          r3,?_Ped@@3KA(r5)
	bl           ?GET_ENTITY_HEADING@@YAMK@Z
	fmr          fr4,fr1
	lfs          fr3,z$(r1)		; 172 (0ACh)
	lfs          fr2,y$(r1)		; 164 (0A4h)
	lfs          fr1,x$(r1)		; 156 (9Ch)
	lwz          r3,modelHash$(r1)		; 148 (94h)
	li           r8,1
	li           r9,1
	bl           ?CREATE_VEHICLE@@YAKKMMMM_N0@Z
	stw          r3,vehicle$86575(r1)		; 108 (6Ch)
; Line 455
	lwz          r3,vehicle$86575(r1)		; 108 (6Ch)
	bl           ?VEH_TO_NET@@YAKK@Z
	stw          r3,networkId$86576(r1)		; 104 (68h)
; Line 456
	lwz          r3,networkId$86576(r1)		; 104 (68h)
	bl           ?NETWORK_DOES_NETWORK_ID_EXIST@@YA_NK@Z
	clrlwi       r4,r3,24
	cmpwi        cr6,r4,0
	beq          cr6,$LN8@SPAWN_VEHI
; Line 458
	li           r4,1
	lwz          r3,vehicle$86575(r1)		; 108 (6Ch)
	bl           ?_0xD3850671@@YAXKK@Z
; Line 459
	lwz          r3,vehicle$86575(r1)		; 108 (6Ch)
	bl           ?_0xD7F934F4@@YA_NK@Z
	clrlwi       r3,r3,24
	cmpwi        cr6,r3,0
	beq          cr6,$LN6@SPAWN_VEHI
; Line 460
	li           r4,1
	lwz          r3,networkId$86576(r1)		; 104 (68h)
	bl           ?SET_NETWORK_ID_EXISTS_ON_ALL_MACHINES@@YAXK_N@Z
$LN6@SPAWN_VEHI:
; Line 461
	li           r4,0
	lwz          r3,vehicle$86575(r1)		; 108 (6Ch)
	bl           ?SET_VEHICLE_IS_STOLEN@@YAXK_N@Z
; Line 462
	lwz          r3,networkId$86576(r1)		; 104 (68h)
	bl           ?NET_TO_VEH@@YAKK@Z
	stw          r3,vehicle$86575(r1)		; 108 (6Ch)
; Line 463
	lwz          r3,vehicle$86575(r1)		; 108 (6Ch)
	bl           ?DOES_ENTITY_EXIST@@YA_NK@Z
; Line 464
	lwz          r3,vehicle$86575(r1)		; 108 (6Ch)
	bl           ?IS_ENTITY_A_MISSION_ENTITY@@YA_NK@Z
	clrlwi       r11,r3,24
	cmpwi        cr6,r11,0
	bne          cr6,$LN5@SPAWN_VEHI
	lwz          r3,vehicle$86575(r1)		; 108 (6Ch)
	bl           ?NETWORK_GET_ENTITY_IS_LOCAL@@YA_NK@Z
	clrlwi       r10,r3,24
	cmpwi        cr6,r10,0
	beq          cr6,$LN5@SPAWN_VEHI
; Line 465
	li           r5,1
	li           r4,0
	lwz          r3,vehicle$86575(r1)		; 108 (6Ch)
	bl           ?SET_ENTITY_AS_MISSION_ENTITY@@YAXK_N0@Z
$LN5@SPAWN_VEHI:
; Line 466
	lwz          r3,vehicle$86575(r1)		; 108 (6Ch)
	bl           ?SET_VEHICLE_FIXED@@YAXK@Z
; Line 467
	li           r5,1
	li           r4,1
	lwz          r3,vehicle$86575(r1)		; 108 (6Ch)
	bl           ?SET_VEHICLE_ENGINE_ON@@YAXK_N0@Z
; Line 468
	li           r4,3
	lwz          r3,vehicle$86575(r1)		; 108 (6Ch)
	bl           ?SET_VEHICLE_LIGHTS@@YAXKK@Z
; Line 469
	lwz          r3,modelHash$(r1)		; 148 (94h)
	bl           ?IS_THIS_MODEL_A_PLANE@@YA_NK@Z
	clrlwi       r9,r3,24
	cmpwi        cr6,r9,0
	bne          cr6,$LN3@SPAWN_VEHI
	lwz          r3,modelHash$(r1)		; 148 (94h)
	bl           ?IS_THIS_MODEL_A_HELI@@YA_NK@Z
	clrlwi       r8,r3,24
	cmpwi        cr6,r8,0
	beq          cr6,$LN4@SPAWN_VEHI
$LN3@SPAWN_VEHI:
; Line 470
	lwz          r3,modelHash$(r1)		; 148 (94h)
	bl           ?SET_HELI_BLADES_FULL_SPEED@@YAXK@Z
$LN4@SPAWN_VEHI:
; Line 471
	lis          r7,?_Player@@3KA
	lwz          r3,?_Player@@3KA(r7)
	bl           ?GET_PLAYER_TEAM@@YAKK@Z
	stw          r3,team$86582(r1)		; 112 (70h)
; Line 472
	lwz          r6,team$86582(r1)		; 112 (70h)
	li           r5,-1		; 0FFFFh
	cmplw        cr6,r6,r5
	ble          cr6,$LN2@SPAWN_VEHI
; Line 473
	li           r5,0
	lwz          r4,team$86582(r1)		; 112 (70h)
	lwz          r3,vehicle$86575(r1)		; 108 (6Ch)
	bl           ?SET_VEHICLE_DOORS_LOCKED_FOR_TEAM@@YAXKK_N@Z
$LN2@SPAWN_VEHI:
; Line 474
	li           r5,0
	lwz          r4,vehicle$86575(r1)		; 108 (6Ch)
	lis          r3,?_Ped@@3KA
	lwz          r3,?_Ped@@3KA(r3)
	bl           ?IS_PED_IN_VEHICLE@@YA_NKK_N@Z
	clrlwi       r11,r3,24
	cmpwi        cr6,r11,0
	bne          cr6,$LN1@SPAWN_VEHI
; Line 475
	li           r5,-1		; 0FFFFh
	lwz          r4,vehicle$86575(r1)		; 108 (6Ch)
	lis          r10,?_Ped@@3KA
	lwz          r3,?_Ped@@3KA(r10)
	bl           ?SET_PED_INTO_VEHICLE@@YAXKKK@Z
$LN1@SPAWN_VEHI:
; Line 476
	lwz          r3,modelHash$(r1)		; 148 (94h)
	bl           ?SET_MODEL_AS_NO_LONGER_NEEDED@@YAXK@Z
$LN8@SPAWN_VEHI:
; Line 479
	li           r3,0
$LN13@SPAWN_VEHI:
; Line 480
	addi         r1,r1,128		; 80h
	lwz          r12,-8(r1)
	mtlr         r12
	blr
$M92012:
; End code for function: ?_SPAWN_VEHICLE@@YAKKMMM@Z
?_SPAWN_VEHICLE@@YAKKMMM@Z ENDP
							; _SPAWN_VEHICLE
PUBLIC	?LOAD_ALL_OBJECTS_NOW@@YAXXZ			; LOAD_ALL_OBJECTS_NOW
PUBLIC	?SET_ENTITY_COORDS@@YAXKMMMKKKK@Z		; SET_ENTITY_COORDS
PUBLIC	?IS_PED_IN_ANY_VEHICLE@@YA_NKK@Z		; IS_PED_IN_ANY_VEHICLE
PUBLIC	?_TELEPORT@@YAXMMM@Z				; _TELEPORT
;	COMDAT .pdata
.pdata	SEGMENT
$T92021	DD	?_TELEPORT@@YAXMMM@Z
	DD	040002203H
; Function compile flags: /Odtu

	.code
tv76 = 80						; size = 4

?_TELEPORT@@YAXMMM@Z PROC NEAR				; _TELEPORT, COMDAT

; Begin code for function: ?_TELEPORT@@YAXMMM@Z
; Line 482
	mflr         r12
	stw          r12,-8(r1)
	stwu         r1,-60h(r1)
.endprolog
$M92019:
	stfs         fr1,x$(r1)		; 116 (74h)
	stfs         fr2,y$(r1)		; 124 (7Ch)
	stfs         fr3,z$(r1)		; 132 (84h)
; Line 483
	li           r4,0
	lis          r11,?_Ped@@3KA
	lwz          r3,?_Ped@@3KA(r11)
	bl           ?IS_PED_IN_ANY_VEHICLE@@YA_NKK@Z
	clrlwi       r10,r3,24
	cmpwi        cr6,r10,0
	beq          cr6,$LN3@TELEPORT
	lis          r9,?_Vehicle@@3KA
	lwz          r8,?_Vehicle@@3KA(r9)
	stw          r8,50h(r1)
	b            $LN4@TELEPORT
$LN3@TELEPORT:
	lis          r7,?_Ped@@3KA
	lwz          r6,?_Ped@@3KA(r7)
	stw          r6,50h(r1)
$LN4@TELEPORT:
	li           r10,1
	li           r9,0
	li           r8,0
	li           r7,0
	lfs          fr3,z$(r1)		; 132 (84h)
	lfs          fr2,y$(r1)		; 124 (7Ch)
	lfs          fr1,x$(r1)		; 116 (74h)
	lwz          r3,50h(r1)
	bl           ?SET_ENTITY_COORDS@@YAXKMMMKKKK@Z
; Line 484
	bl           ?LOAD_ALL_OBJECTS_NOW@@YAXXZ
; Line 485
	addi         r1,r1,96		; 60h
	lwz          r12,-8(r1)
	mtlr         r12
	blr
$M92020:
; End code for function: ?_TELEPORT@@YAXMMM@Z
?_TELEPORT@@YAXMMM@Z ENDP
							; _TELEPORT
PUBLIC	?_TELEPORT@@YAXU_Vector3@@@Z			; _TELEPORT
;	COMDAT .pdata
.pdata	SEGMENT
$T92027	DD	?_TELEPORT@@YAXU_Vector3@@@Z
	DD	040000d03H
; Function compile flags: /Odtu

	.code

?_TELEPORT@@YAXU_Vector3@@@Z PROC NEAR			; _TELEPORT, COMDAT

; Begin code for function: ?_TELEPORT@@YAXU_Vector3@@@Z
; Line 487
	mflr         r12
	stw          r12,-8(r1)
	stwu         r1,-60h(r1)
.endprolog
$M92025:
	std          r3,position$(r1)
	std          r4,position$+8(r1)
; Line 488
	lfs          fr3,position$+8(r1)		; 120 (78h)
	lfs          fr2,position$+4(r1)		; 116 (74h)
	lfs          fr1,position$(r1)		; 112 (70h)
	bl           ?_TELEPORT@@YAXMMM@Z
; Line 489
	addi         r1,r1,96		; 60h
	lwz          r12,-8(r1)
	mtlr         r12
	blr
$M92026:
; End code for function: ?_TELEPORT@@YAXU_Vector3@@@Z
?_TELEPORT@@YAXU_Vector3@@@Z ENDP
							; _TELEPORT
PUBLIC	?GET_PLAYER_PED@@YAKK@Z				; GET_PLAYER_PED
;	COMDAT .pdata
.pdata	SEGMENT
$T92033	DD	?GET_PLAYER_PED@@YAKK@Z
	DD	040000e03H
; Function compile flags: /Odtu

	.code

?GET_PLAYER_PED@@YAKK@Z	PROC NEAR			; GET_PLAYER_PED, COMDAT

; Begin code for function: ?GET_PLAYER_PED@@YAKK@Z
; Line 492
	mflr         r12
	stw          r12,-8(r1)
	stwu         r1,-60h(r1)
.endprolog
$M92031:
	stw          r3,player$(r1)		; 116 (74h)
; Line 493
	lwz          r5,player$(r1)		; 116 (74h)
	li           r4,1
	lis          r11,28209		; 6E31h
	ori          r3,r11,59795		; 0E993h
	bl           ?_CALL_NATIVE@@YAPAKKKZZ
	bl           ?CallPed@@YAKPAK@Z
; Line 494
	addi         r1,r1,96		; 60h
	lwz          r12,-8(r1)
	mtlr         r12
	blr
$M92032:
; End code for function: ?GET_PLAYER_PED@@YAKK@Z
?GET_PLAYER_PED@@YAKK@Z ENDP
							; GET_PLAYER_PED
PUBLIC	?SET_PLAYER_MODEL@@YAXKK@Z			; SET_PLAYER_MODEL
;	COMDAT .pdata
.pdata	SEGMENT
$T92039	DD	?SET_PLAYER_MODEL@@YAXKK@Z
	DD	040000f03H
; Function compile flags: /Odtu

	.code

?SET_PLAYER_MODEL@@YAXKK@Z PROC NEAR			; SET_PLAYER_MODEL, COMDAT

; Begin code for function: ?SET_PLAYER_MODEL@@YAXKK@Z
; Line 496
	mflr         r12
	stw          r12,-8(r1)
	stwu         r1,-60h(r1)
.endprolog
$M92037:
	stw          r3,player$(r1)		; 116 (74h)
	stw          r4,modelHash$(r1)		; 124 (7Ch)
; Line 497
	lwz          r6,modelHash$(r1)		; 124 (7Ch)
	lwz          r5,player$(r1)		; 116 (74h)
	li           r4,2
	lis          r11,30538		; 774Ah
	ori          r3,r11,19540		; 4C54h
	bl           ?_CALL_NATIVE@@YAPAKKKZZ
; Line 498
	addi         r1,r1,96		; 60h
	lwz          r12,-8(r1)
	mtlr         r12
	blr
$M92038:
; End code for function: ?SET_PLAYER_MODEL@@YAXKK@Z
?SET_PLAYER_MODEL@@YAXKK@Z ENDP
							; SET_PLAYER_MODEL
PUBLIC	?CHANGE_PLAYER_PED@@YAXKK_N0@Z			; CHANGE_PLAYER_PED
;	COMDAT .pdata
.pdata	SEGMENT
$T92045	DD	?CHANGE_PLAYER_PED@@YAXKK_N0@Z
	DD	040001303H
; Function compile flags: /Odtu

	.code

?CHANGE_PLAYER_PED@@YAXKK_N0@Z PROC NEAR			; CHANGE_PLAYER_PED, COMDAT

; Begin code for function: ?CHANGE_PLAYER_PED@@YAXKK_N0@Z
; Line 500
	mflr         r12
	stw          r12,-8(r1)
	stwu         r1,-60h(r1)
.endprolog
$M92043:
	stw          r3,player$(r1)		; 116 (74h)
	stw          r4,ped$(r1)		; 124 (7Ch)
	stb          r5,unk1$(r1)		; 135 (87h)
	stb          r6,unk2$(r1)		; 143 (8Fh)
; Line 501
	lbz          r8,unk2$(r1)		; 143 (8Fh)
	lbz          r7,unk1$(r1)		; 135 (87h)
	lwz          r6,ped$(r1)		; 124 (7Ch)
	lwz          r5,player$(r1)		; 116 (74h)
	li           r4,4
	lis          r11,-16815		; 0BE51h
	ori          r3,r11,21637		; 5485h
	bl           ?_CALL_NATIVE@@YAPAKKKZZ
; Line 502
	addi         r1,r1,96		; 60h
	lwz          r12,-8(r1)
	mtlr         r12
	blr
$M92044:
; End code for function: ?CHANGE_PLAYER_PED@@YAXKK_N0@Z
?CHANGE_PLAYER_PED@@YAXKK_N0@Z ENDP
							; CHANGE_PLAYER_PED
;	COMDAT .pdata
.pdata	SEGMENT
$T92051	DD	?GET_PLAYER_TEAM@@YAKK@Z
	DD	040000e03H
; Function compile flags: /Odtu

	.code

?GET_PLAYER_TEAM@@YAKK@Z PROC NEAR			; GET_PLAYER_TEAM, COMDAT

; Begin code for function: ?GET_PLAYER_TEAM@@YAKK@Z
; Line 504
	mflr         r12
	stw          r12,-8(r1)
	stwu         r1,-60h(r1)
.endprolog
$M92049:
	stw          r3,player$(r1)		; 116 (74h)
; Line 505
	lwz          r5,player$(r1)		; 116 (74h)
	li           r4,1
	lis          r11,-26509		; 9873h
	ori          r3,r11,58372		; 0E404h
	bl           ?_CALL_NATIVE@@YAPAKKKZZ
	bl           ?CallTeam@@YAKPAK@Z
; Line 506
	addi         r1,r1,96		; 60h
	lwz          r12,-8(r1)
	mtlr         r12
	blr
$M92050:
; End code for function: ?GET_PLAYER_TEAM@@YAKK@Z
?GET_PLAYER_TEAM@@YAKK@Z ENDP
							; GET_PLAYER_TEAM
PUBLIC	?SET_PLAYER_TEAM@@YAXKK@Z			; SET_PLAYER_TEAM
;	COMDAT .pdata
.pdata	SEGMENT
$T92057	DD	?SET_PLAYER_TEAM@@YAXKK@Z
	DD	040000f03H
; Function compile flags: /Odtu

	.code

?SET_PLAYER_TEAM@@YAXKK@Z PROC NEAR			; SET_PLAYER_TEAM, COMDAT

; Begin code for function: ?SET_PLAYER_TEAM@@YAXKK@Z
; Line 508
	mflr         r12
	stw          r12,-8(r1)
	stwu         r1,-60h(r1)
.endprolog
$M92055:
	stw          r3,player$(r1)		; 116 (74h)
	stw          r4,team$(r1)		; 124 (7Ch)
; Line 509
	lwz          r6,team$(r1)		; 124 (7Ch)
	lwz          r5,player$(r1)		; 116 (74h)
	li           r4,2
	lis          r11,29274		; 725Ah
	ori          r3,r11,56562		; 0DCF2h
	bl           ?_CALL_NATIVE@@YAPAKKKZZ
; Line 510
	addi         r1,r1,96		; 60h
	lwz          r12,-8(r1)
	mtlr         r12
	blr
$M92056:
; End code for function: ?SET_PLAYER_TEAM@@YAXKK@Z
?SET_PLAYER_TEAM@@YAXKK@Z ENDP
							; SET_PLAYER_TEAM
PUBLIC	?GET_PLAYER_NAME@@YAPADK@Z			; GET_PLAYER_NAME
;	COMDAT .pdata
.pdata	SEGMENT
$T92063	DD	?GET_PLAYER_NAME@@YAPADK@Z
	DD	040001d04H
; Function compile flags: /Odtu

	.code
Return$ = 80						; size = 20
ret$ = 100						; size = 4
Call$ = 104						; size = 12
Params$ = 128						; size = 96

?GET_PLAYER_NAME@@YAPADK@Z PROC NEAR			; GET_PLAYER_NAME, COMDAT

; Begin code for function: ?GET_PLAYER_NAME@@YAPADK@Z
; Line 512
	mflr         r12
	stw          r12,-8(r1)
	std          r31,-10h(r1)
	stwu         r1,-0F0h(r1)
.endprolog
$M92061:
	stw          r3,player$(r1)		; 260 (104h)
; Line 517
	lwz          r11,player$(r1)		; 260 (104h)
	stw          r11,Params$(r1)		; 128 (80h)
; Line 519
	addi         r10,r1,ret$
	stw          r10,Return$(r1)		; 80 (50h)
; Line 521
	li           r9,1
	stw          r9,Call$+4(r1)		; 108 (6Ch)
; Line 522
	addi         r8,r1,Params$
	stw          r8,Call$+8(r1)		; 112 (70h)
; Line 523
	addi         r7,r1,Return$
	stw          r7,Call$(r1)		; 104 (68h)
; Line 525
	addi         r31,r1,Call$
	lis          r6,16491		; 406Bh
	ori          r3,r6,19232		; 4B20h
	bl           ?_GET_ADDRESS@@YAKK@Z
	mr           r5,r3
	mr           r3,r31
	mtctr        r5
	bctrl
; Line 527
	lwz          r3,ret$(r1)		; 100 (64h)
; Line 528
	addi         r1,r1,240		; 0F0h
	lwz          r12,-8(r1)
	mtlr         r12
	ld           r31,-10h(r1)
	blr
$M92062:
; End code for function: ?GET_PLAYER_NAME@@YAPADK@Z
?GET_PLAYER_NAME@@YAPADK@Z ENDP
							; GET_PLAYER_NAME
PUBLIC	?CLEAR_PLAYER_WANTED_LEVEL@@YAXK@Z		; CLEAR_PLAYER_WANTED_LEVEL
;	COMDAT .pdata
.pdata	SEGMENT
$T92069	DD	?CLEAR_PLAYER_WANTED_LEVEL@@YAXK@Z
	DD	040000d03H
; Function compile flags: /Odtu

	.code

?CLEAR_PLAYER_WANTED_LEVEL@@YAXK@Z PROC NEAR		; CLEAR_PLAYER_WANTED_LEVEL, COMDAT

; Begin code for function: ?CLEAR_PLAYER_WANTED_LEVEL@@YAXK@Z
; Line 530
	mflr         r12
	stw          r12,-8(r1)
	stwu         r1,-60h(r1)
.endprolog
$M92067:
	stw          r3,player$(r1)		; 116 (74h)
; Line 531
	lwz          r5,player$(r1)		; 116 (74h)
	li           r4,1
	lis          r11,21738		; 54EAh
	ori          r3,r11,23500		; 5BCCh
	bl           ?_CALL_NATIVE@@YAPAKKKZZ
; Line 532
	addi         r1,r1,96		; 60h
	lwz          r12,-8(r1)
	mtlr         r12
	blr
$M92068:
; End code for function: ?CLEAR_PLAYER_WANTED_LEVEL@@YAXK@Z
?CLEAR_PLAYER_WANTED_LEVEL@@YAXK@Z ENDP
							; CLEAR_PLAYER_WANTED_LEVEL
PUBLIC	?IS_PLAYER_DEAD@@YA_NK@Z			; IS_PLAYER_DEAD
;	COMDAT .pdata
.pdata	SEGMENT
$T92075	DD	?IS_PLAYER_DEAD@@YA_NK@Z
	DD	040000e03H
; Function compile flags: /Odtu

	.code

?IS_PLAYER_DEAD@@YA_NK@Z PROC NEAR			; IS_PLAYER_DEAD, COMDAT

; Begin code for function: ?IS_PLAYER_DEAD@@YA_NK@Z
; Line 534
	mflr         r12
	stw          r12,-8(r1)
	stwu         r1,-60h(r1)
.endprolog
$M92073:
	stw          r3,player$(r1)		; 116 (74h)
; Line 535
	lwz          r5,player$(r1)		; 116 (74h)
	li           r4,1
	lis          r11,5132		; 140Ch
	ori          r3,r11,42408		; 0A5A8h
	bl           ?_CALL_NATIVE@@YAPAKKKZZ
	bl           ?CallBool@@YA_NPAK@Z
; Line 536
	addi         r1,r1,96		; 60h
	lwz          r12,-8(r1)
	mtlr         r12
	blr
$M92074:
; End code for function: ?IS_PLAYER_DEAD@@YA_NK@Z
?IS_PLAYER_DEAD@@YA_NK@Z ENDP
							; IS_PLAYER_DEAD
PUBLIC	?IS_PLAYER_PRESSING_HORN@@YA_NK@Z		; IS_PLAYER_PRESSING_HORN
;	COMDAT .pdata
.pdata	SEGMENT
$T92081	DD	?IS_PLAYER_PRESSING_HORN@@YA_NK@Z
	DD	040000e03H
; Function compile flags: /Odtu

	.code

?IS_PLAYER_PRESSING_HORN@@YA_NK@Z PROC NEAR		; IS_PLAYER_PRESSING_HORN, COMDAT

; Begin code for function: ?IS_PLAYER_PRESSING_HORN@@YA_NK@Z
; Line 538
	mflr         r12
	stw          r12,-8(r1)
	stwu         r1,-60h(r1)
.endprolog
$M92079:
	stw          r3,player$(r1)		; 116 (74h)
; Line 539
	lwz          r5,player$(r1)		; 116 (74h)
	li           r4,1
	lis          r11,-4835		; 0ED1Dh
	ori          r3,r11,5730		; 1662h
	bl           ?_CALL_NATIVE@@YAPAKKKZZ
	bl           ?CallBool@@YA_NPAK@Z
; Line 540
	addi         r1,r1,96		; 60h
	lwz          r12,-8(r1)
	mtlr         r12
	blr
$M92080:
; End code for function: ?IS_PLAYER_PRESSING_HORN@@YA_NK@Z
?IS_PLAYER_PRESSING_HORN@@YA_NK@Z ENDP
							; IS_PLAYER_PRESSING_HORN
PUBLIC	?SET_MAX_WANTED_LEVEL@@YAXK@Z			; SET_MAX_WANTED_LEVEL
;	COMDAT .pdata
.pdata	SEGMENT
$T92087	DD	?SET_MAX_WANTED_LEVEL@@YAXK@Z
	DD	040000d03H
; Function compile flags: /Odtu

	.code

?SET_MAX_WANTED_LEVEL@@YAXK@Z PROC NEAR			; SET_MAX_WANTED_LEVEL, COMDAT

; Begin code for function: ?SET_MAX_WANTED_LEVEL@@YAXK@Z
; Line 542
	mflr         r12
	stw          r12,-8(r1)
	stwu         r1,-60h(r1)
.endprolog
$M92085:
	stw          r3,wantedLevel$(r1)		; 116 (74h)
; Line 543
	lwz          r5,wantedLevel$(r1)		; 116 (74h)
	li           r4,1
	lis          r11,26202		; 665Ah
	ori          r3,r11,1781		; 6F5h
	bl           ?_CALL_NATIVE@@YAPAKKKZZ
; Line 544
	addi         r1,r1,96		; 60h
	lwz          r12,-8(r1)
	mtlr         r12
	blr
$M92086:
; End code for function: ?SET_MAX_WANTED_LEVEL@@YAXK@Z
?SET_MAX_WANTED_LEVEL@@YAXK@Z ENDP
							; SET_MAX_WANTED_LEVEL
PUBLIC	?GET_MAX_WANTED_LEVEL@@YAKXZ			; GET_MAX_WANTED_LEVEL
;	COMDAT .pdata
.pdata	SEGMENT
$T92093	DD	?GET_MAX_WANTED_LEVEL@@YAKXZ
	DD	040000c03H
; Function compile flags: /Odtu

	.code

?GET_MAX_WANTED_LEVEL@@YAKXZ PROC NEAR			; GET_MAX_WANTED_LEVEL, COMDAT

; Begin code for function: ?GET_MAX_WANTED_LEVEL@@YAKXZ
; Line 546
	mflr         r12
	stw          r12,-8(r1)
	stwu         r1,-60h(r1)
.endprolog
$M92091:
; Line 547
	li           r4,0
	lis          r11,-16947		; 0BDCDh
	ori          r3,r11,53603		; 0D163h
	bl           ?_CALL_NATIVE@@YAPAKKKZZ
	bl           ?CallDWORD@@YAKPAK@Z
; Line 548
	addi         r1,r1,96		; 60h
	lwz          r12,-8(r1)
	mtlr         r12
	blr
$M92092:
; End code for function: ?GET_MAX_WANTED_LEVEL@@YAKXZ
?GET_MAX_WANTED_LEVEL@@YAKXZ ENDP
							; GET_MAX_WANTED_LEVEL
PUBLIC	?GET_AIMED_ENTITY@@YAKK@Z			; GET_AIMED_ENTITY
;	COMDAT .pdata
.pdata	SEGMENT
$T92099	DD	?GET_AIMED_ENTITY@@YAKK@Z
	DD	040000f03H
; Function compile flags: /Odtu

	.code
entity$ = 80						; size = 4

?GET_AIMED_ENTITY@@YAKK@Z PROC NEAR			; GET_AIMED_ENTITY, COMDAT

; Begin code for function: ?GET_AIMED_ENTITY@@YAKK@Z
; Line 550
	mflr         r12
	stw          r12,-8(r1)
	stwu         r1,-60h(r1)
.endprolog
$M92097:
	stw          r3,player$(r1)		; 116 (74h)
; Line 552
	addi         r6,r1,entity$
	lwz          r5,player$(r1)		; 116 (74h)
	li           r4,2
	lis          r11,-30618		; 8866h
	ori          r3,r11,55760		; 0D9D0h
	bl           ?_CALL_NATIVE@@YAPAKKKZZ
; Line 553
	lwz          r3,entity$(r1)		; 80 (50h)
; Line 554
	addi         r1,r1,96		; 60h
	lwz          r12,-8(r1)
	mtlr         r12
	blr
$M92098:
; End code for function: ?GET_AIMED_ENTITY@@YAKK@Z
?GET_AIMED_ENTITY@@YAKK@Z ENDP
							; GET_AIMED_ENTITY
PUBLIC	?PLAYER_ID@@YAKXZ				; PLAYER_ID
;	COMDAT .pdata
.pdata	SEGMENT
$T92105	DD	?PLAYER_ID@@YAKXZ
	DD	040000c03H
; Function compile flags: /Odtu

	.code

?PLAYER_ID@@YAKXZ PROC NEAR				; PLAYER_ID, COMDAT

; Begin code for function: ?PLAYER_ID@@YAKXZ
; Line 556
	mflr         r12
	stw          r12,-8(r1)
	stwu         r1,-60h(r1)
.endprolog
$M92103:
; Line 557
	li           r4,0
	lis          r11,-29974		; 8AEAh
	ori          r3,r11,34924		; 886Ch
	bl           ?_CALL_NATIVE@@YAPAKKKZZ
	bl           ?CallPlayer@@YAKPAK@Z
; Line 558
	addi         r1,r1,96		; 60h
	lwz          r12,-8(r1)
	mtlr         r12
	blr
$M92104:
; End code for function: ?PLAYER_ID@@YAKXZ
?PLAYER_ID@@YAKXZ ENDP
							; PLAYER_ID
PUBLIC	?PLAYER_PED_ID@@YAKXZ				; PLAYER_PED_ID
;	COMDAT .pdata
.pdata	SEGMENT
$T92111	DD	?PLAYER_PED_ID@@YAKXZ
	DD	040000c03H
; Function compile flags: /Odtu

	.code

?PLAYER_PED_ID@@YAKXZ PROC NEAR				; PLAYER_PED_ID, COMDAT

; Begin code for function: ?PLAYER_PED_ID@@YAKXZ
; Line 560
	mflr         r12
	stw          r12,-8(r1)
	stwu         r1,-60h(r1)
.endprolog
$M92109:
; Line 561
	li           r4,0
	lis          r11,-1390		; 0FA92h
	ori          r3,r11,57894		; 0E226h
	bl           ?_CALL_NATIVE@@YAPAKKKZZ
	bl           ?CallPed@@YAKPAK@Z
; Line 562
	addi         r1,r1,96		; 60h
	lwz          r12,-8(r1)
	mtlr         r12
	blr
$M92110:
; End code for function: ?PLAYER_PED_ID@@YAKXZ
?PLAYER_PED_ID@@YAKXZ ENDP
							; PLAYER_PED_ID
PUBLIC	?SET_PLAYER_INVINCIBLE@@YAXK_N@Z		; SET_PLAYER_INVINCIBLE
;	COMDAT .pdata
.pdata	SEGMENT
$T92117	DD	?SET_PLAYER_INVINCIBLE@@YAXK_N@Z
	DD	040000f03H
; Function compile flags: /Odtu

	.code

?SET_PLAYER_INVINCIBLE@@YAXK_N@Z PROC NEAR		; SET_PLAYER_INVINCIBLE, COMDAT

; Begin code for function: ?SET_PLAYER_INVINCIBLE@@YAXK_N@Z
; Line 564
	mflr         r12
	stw          r12,-8(r1)
	stwu         r1,-60h(r1)
.endprolog
$M92115:
	stw          r3,player$(r1)		; 116 (74h)
	stb          r4,invincible$(r1)		; 127 (7Fh)
; Line 565
	lbz          r6,invincible$(r1)		; 127 (7Fh)
	lwz          r5,player$(r1)		; 116 (74h)
	li           r4,2
	lis          r11,-8263		; 0DFB9h
	ori          r3,r11,41634		; 0A2A2h
	bl           ?_CALL_NATIVE@@YAPAKKKZZ
; Line 566
	addi         r1,r1,96		; 60h
	lwz          r12,-8(r1)
	mtlr         r12
	blr
$M92116:
; End code for function: ?SET_PLAYER_INVINCIBLE@@YAXK_N@Z
?SET_PLAYER_INVINCIBLE@@YAXK_N@Z ENDP
							; SET_PLAYER_INVINCIBLE
PUBLIC	?GET_PLAYER_INVINCIBLE@@YA_NK@Z			; GET_PLAYER_INVINCIBLE
;	COMDAT .pdata
.pdata	SEGMENT
$T92123	DD	?GET_PLAYER_INVINCIBLE@@YA_NK@Z
	DD	040000e03H
; Function compile flags: /Odtu

	.code

?GET_PLAYER_INVINCIBLE@@YA_NK@Z	PROC NEAR		; GET_PLAYER_INVINCIBLE, COMDAT

; Begin code for function: ?GET_PLAYER_INVINCIBLE@@YA_NK@Z
; Line 568
	mflr         r12
	stw          r12,-8(r1)
	stwu         r1,-60h(r1)
.endprolog
$M92121:
	stw          r3,player$(r1)		; 116 (74h)
; Line 569
	lwz          r5,player$(r1)		; 116 (74h)
	li           r4,1
	lis          r11,26636		; 680Ch
	ori          r3,r11,37102		; 90EEh
	bl           ?_CALL_NATIVE@@YAPAKKKZZ
	bl           ?CallBool@@YA_NPAK@Z
; Line 570
	addi         r1,r1,96		; 60h
	lwz          r12,-8(r1)
	mtlr         r12
	blr
$M92122:
; End code for function: ?GET_PLAYER_INVINCIBLE@@YA_NK@Z
?GET_PLAYER_INVINCIBLE@@YA_NK@Z ENDP
							; GET_PLAYER_INVINCIBLE
PUBLIC	?SET_SWIM_SPEED_MULTIPLIER@@YAXKM@Z		; SET_SWIM_SPEED_MULTIPLIER
;	COMDAT .pdata
.pdata	SEGMENT
$T92129	DD	?SET_SWIM_SPEED_MULTIPLIER@@YAXKM@Z
	DD	040000f03H
; Function compile flags: /Odtu

	.code

?SET_SWIM_SPEED_MULTIPLIER@@YAXKM@Z PROC NEAR		; SET_SWIM_SPEED_MULTIPLIER, COMDAT

; Begin code for function: ?SET_SWIM_SPEED_MULTIPLIER@@YAXKM@Z
; Line 572
	mflr         r12
	stw          r12,-8(r1)
	stwu         r1,-60h(r1)
.endprolog
$M92127:
	stw          r3,player$(r1)		; 116 (74h)
	stfs         fr1,multiplier$(r1)		; 124 (7Ch)
; Line 573
	lwz          r6,multiplier$(r1)		; 124 (7Ch)
	lwz          r5,player$(r1)		; 116 (74h)
	li           r4,2
	lis          r11,-18042		; 0B986h
	ori          r3,r11,65351		; 0FF47h
	bl           ?_CALL_NATIVE@@YAPAKKKZZ
; Line 574
	addi         r1,r1,96		; 60h
	lwz          r12,-8(r1)
	mtlr         r12
	blr
$M92128:
; End code for function: ?SET_SWIM_SPEED_MULTIPLIER@@YAXKM@Z
?SET_SWIM_SPEED_MULTIPLIER@@YAXKM@Z ENDP
							; SET_SWIM_SPEED_MULTIPLIER
PUBLIC	?SET_MOVE_SPEED_MULTIPLIER@@YAXKM@Z		; SET_MOVE_SPEED_MULTIPLIER
;	COMDAT .pdata
.pdata	SEGMENT
$T92135	DD	?SET_MOVE_SPEED_MULTIPLIER@@YAXKM@Z
	DD	040000f03H
; Function compile flags: /Odtu

	.code

?SET_MOVE_SPEED_MULTIPLIER@@YAXKM@Z PROC NEAR		; SET_MOVE_SPEED_MULTIPLIER, COMDAT

; Begin code for function: ?SET_MOVE_SPEED_MULTIPLIER@@YAXKM@Z
; Line 576
	mflr         r12
	stw          r12,-8(r1)
	stwu         r1,-60h(r1)
.endprolog
$M92133:
	stw          r3,player$(r1)		; 116 (74h)
	stfs         fr1,multiplier$(r1)		; 124 (7Ch)
; Line 577
	lwz          r6,multiplier$(r1)		; 124 (7Ch)
	lwz          r5,player$(r1)		; 116 (74h)
	li           r4,2
	lis          r11,-32172		; 8254h
	ori          r3,r11,9154		; 23C2h
	bl           ?_CALL_NATIVE@@YAPAKKKZZ
; Line 578
	addi         r1,r1,96		; 60h
	lwz          r12,-8(r1)
	mtlr         r12
	blr
$M92134:
; End code for function: ?SET_MOVE_SPEED_MULTIPLIER@@YAXKM@Z
?SET_MOVE_SPEED_MULTIPLIER@@YAXKM@Z ENDP
							; SET_MOVE_SPEED_MULTIPLIER
;	COMDAT .pdata
.pdata	SEGMENT
$T92141	DD	?DOES_ENTITY_EXIST@@YA_NK@Z
	DD	040000e03H
; Function compile flags: /Odtu

	.code

?DOES_ENTITY_EXIST@@YA_NK@Z PROC NEAR			; DOES_ENTITY_EXIST, COMDAT

; Begin code for function: ?DOES_ENTITY_EXIST@@YA_NK@Z
; Line 581
	mflr         r12
	stw          r12,-8(r1)
	stwu         r1,-60h(r1)
.endprolog
$M92139:
	stw          r3,entity$(r1)		; 116 (74h)
; Line 582
	lwz          r5,entity$(r1)		; 116 (74h)
	li           r4,1
	lis          r11,15049		; 3AC9h
	ori          r3,r11,2153		; 869h
	bl           ?_CALL_NATIVE@@YAPAKKKZZ
	bl           ?CallBool@@YA_NPAK@Z
; Line 583
	addi         r1,r1,96		; 60h
	lwz          r12,-8(r1)
	mtlr         r12
	blr
$M92140:
; End code for function: ?DOES_ENTITY_EXIST@@YA_NK@Z
?DOES_ENTITY_EXIST@@YA_NK@Z ENDP
							; DOES_ENTITY_EXIST
PUBLIC	?HAS_ENTITY_CLEAR_LOS_TO_ENTITY@@YA_NKKK@Z	; HAS_ENTITY_CLEAR_LOS_TO_ENTITY
;	COMDAT .pdata
.pdata	SEGMENT
$T92147	DD	?HAS_ENTITY_CLEAR_LOS_TO_ENTITY@@YA_NKKK@Z
	DD	040001203H
; Function compile flags: /Odtu

	.code

?HAS_ENTITY_CLEAR_LOS_TO_ENTITY@@YA_NKKK@Z PROC NEAR	; HAS_ENTITY_CLEAR_LOS_TO_ENTITY, COMDAT

; Begin code for function: ?HAS_ENTITY_CLEAR_LOS_TO_ENTITY@@YA_NKKK@Z
; Line 585
	mflr         r12
	stw          r12,-8(r1)
	stwu         r1,-60h(r1)
.endprolog
$M92145:
	stw          r3,ent1$(r1)		; 116 (74h)
	stw          r4,ent2$(r1)		; 124 (7Ch)
	stw          r5,trace$(r1)		; 132 (84h)
; Line 586
	lwz          r7,trace$(r1)		; 132 (84h)
	lwz          r6,ent2$(r1)		; 124 (7Ch)
	lwz          r5,ent1$(r1)		; 116 (74h)
	li           r4,3
	lis          r11,21335		; 5357h
	ori          r3,r11,28583		; 6FA7h
	bl           ?_CALL_NATIVE@@YAPAKKKZZ
	bl           ?CallBool@@YA_NPAK@Z
; Line 587
	addi         r1,r1,96		; 60h
	lwz          r12,-8(r1)
	mtlr         r12
	blr
$M92146:
; End code for function: ?HAS_ENTITY_CLEAR_LOS_TO_ENTITY@@YA_NKKK@Z
?HAS_ENTITY_CLEAR_LOS_TO_ENTITY@@YA_NKKK@Z ENDP
							; HAS_ENTITY_CLEAR_LOS_TO_ENTITY
PUBLIC	?GET_ENTITY_ATTACHED_TO@@YAKK@Z			; GET_ENTITY_ATTACHED_TO
;	COMDAT .pdata
.pdata	SEGMENT
$T92153	DD	?GET_ENTITY_ATTACHED_TO@@YAKK@Z
	DD	040000e03H
; Function compile flags: /Odtu

	.code

?GET_ENTITY_ATTACHED_TO@@YAKK@Z	PROC NEAR		; GET_ENTITY_ATTACHED_TO, COMDAT

; Begin code for function: ?GET_ENTITY_ATTACHED_TO@@YAKK@Z
; Line 589
	mflr         r12
	stw          r12,-8(r1)
	stwu         r1,-60h(r1)
.endprolog
$M92151:
	stw          r3,entity$(r1)		; 116 (74h)
; Line 590
	lwz          r5,entity$(r1)		; 116 (74h)
	li           r4,1
	lis          r11,-491		; 0FE15h
	ori          r3,r11,35321		; 89F9h
	bl           ?_CALL_NATIVE@@YAPAKKKZZ
	bl           ?CallEntity@@YAKPAK@Z
; Line 591
	addi         r1,r1,96		; 60h
	lwz          r12,-8(r1)
	mtlr         r12
	blr
$M92152:
; End code for function: ?GET_ENTITY_ATTACHED_TO@@YAKK@Z
?GET_ENTITY_ATTACHED_TO@@YAKK@Z ENDP
							; GET_ENTITY_ATTACHED_TO
;	COMDAT .pdata
.pdata	SEGMENT
$T92159	DD	?GET_ENTITY_COORDS@@YA?AU_Vector3@@K_N@Z
	DD	040001403H
; Function compile flags: /Odtu

	.code

?GET_ENTITY_COORDS@@YA?AU_Vector3@@K_N@Z PROC NEAR	; GET_ENTITY_COORDS, COMDAT

; Begin code for function: ?GET_ENTITY_COORDS@@YA?AU_Vector3@@K_N@Z
; Line 593
	mflr         r12
	stw          r12,-8(r1)
	stwu         r1,-60h(r1)
.endprolog
$M92157:
	stw          r3,__$ReturnUdt$(r1)		; 116 (74h)
	stw          r4,entity$(r1)		; 124 (7Ch)
	stb          r5,alive$(r1)		; 135 (87h)
; Line 594
	lbz          r6,alive$(r1)		; 135 (87h)
	lwz          r5,entity$(r1)		; 124 (7Ch)
	li           r4,2
	lis          r11,5703		; 1647h
	ori          r3,r11,61899		; 0F1CBh
	bl           ?_CALL_NATIVE@@YAPAKKKZZ
	mr           r4,r3
	lwz          r3,__$ReturnUdt$(r1)		; 116 (74h)
	bl           ?CallPosition@@YA?AU_Vector3@@PAK@Z
	lwz          r3,__$ReturnUdt$(r1)		; 116 (74h)
; Line 595
	addi         r1,r1,96		; 60h
	lwz          r12,-8(r1)
	mtlr         r12
	blr
$M92158:
; End code for function: ?GET_ENTITY_COORDS@@YA?AU_Vector3@@K_N@Z
?GET_ENTITY_COORDS@@YA?AU_Vector3@@K_N@Z ENDP
							; GET_ENTITY_COORDS
;	COMDAT .pdata
.pdata	SEGMENT
$T92165	DD	?GET_ENTITY_HEADING@@YAMK@Z
	DD	040000e03H
; Function compile flags: /Odtu

	.code

?GET_ENTITY_HEADING@@YAMK@Z PROC NEAR			; GET_ENTITY_HEADING, COMDAT

; Begin code for function: ?GET_ENTITY_HEADING@@YAMK@Z
; Line 597
	mflr         r12
	stw          r12,-8(r1)
	stwu         r1,-60h(r1)
.endprolog
$M92163:
	stw          r3,entity$(r1)		; 116 (74h)
; Line 598
	lwz          r5,entity$(r1)		; 116 (74h)
	li           r4,1
	lis          r11,-26836		; 972Ch
	ori          r3,r11,50051		; 0C383h
	bl           ?_CALL_NATIVE@@YAPAKKKZZ
	bl           ?CallFloat@@YAMPAK@Z
; Line 599
	addi         r1,r1,96		; 60h
	lwz          r12,-8(r1)
	mtlr         r12
	blr
$M92164:
; End code for function: ?GET_ENTITY_HEADING@@YAMK@Z
?GET_ENTITY_HEADING@@YAMK@Z ENDP
							; GET_ENTITY_HEADING
;	COMDAT .pdata
.pdata	SEGMENT
$T92171	DD	?GET_ENTITY_HEALTH@@YAKK@Z
	DD	040000e03H
; Function compile flags: /Odtu

	.code

?GET_ENTITY_HEALTH@@YAKK@Z PROC NEAR			; GET_ENTITY_HEALTH, COMDAT

; Begin code for function: ?GET_ENTITY_HEALTH@@YAKK@Z
; Line 601
	mflr         r12
	stw          r12,-8(r1)
	stwu         r1,-60h(r1)
.endprolog
$M92169:
	stw          r3,entity$(r1)		; 116 (74h)
; Line 602
	lwz          r5,entity$(r1)		; 116 (74h)
	li           r4,1
	lis          r11,-29134		; 8E32h
	ori          r3,r11,8887		; 22B7h
	bl           ?_CALL_NATIVE@@YAPAKKKZZ
	bl           ?CallDWORD@@YAKPAK@Z
; Line 603
	addi         r1,r1,96		; 60h
	lwz          r12,-8(r1)
	mtlr         r12
	blr
$M92170:
; End code for function: ?GET_ENTITY_HEALTH@@YAKK@Z
?GET_ENTITY_HEALTH@@YAKK@Z ENDP
							; GET_ENTITY_HEALTH
;	COMDAT .pdata
.pdata	SEGMENT
$T92177	DD	?GET_OFFSET_FROM_ENTITY_IN_WORLD_COORDS@@YA?AU_Vector3@@KMMM@Z
	DD	040001803H
; Function compile flags: /Odtu

	.code

?GET_OFFSET_FROM_ENTITY_IN_WORLD_COORDS@@YA?AU_Vector3@@KMMM@Z PROC NEAR ; GET_OFFSET_FROM_ENTITY_IN_WORLD_COORDS, COMDAT

; Begin code for function: ?GET_OFFSET_FROM_ENTITY_IN_WORLD_COORDS@@YA?AU_Vector3@@KMMM@Z
; Line 605
	mflr         r12
	stw          r12,-8(r1)
	stwu         r1,-60h(r1)
.endprolog
$M92175:
	stw          r3,__$ReturnUdt$(r1)		; 116 (74h)
	stw          r4,entity$(r1)		; 124 (7Ch)
	stfs         fr1,x$(r1)		; 132 (84h)
	stfs         fr2,y$(r1)		; 140 (8Ch)
	stfs         fr3,z$(r1)		; 148 (94h)
; Line 606
	lwz          r8,z$(r1)		; 148 (94h)
	lwz          r7,y$(r1)		; 140 (8Ch)
	lwz          r6,x$(r1)		; 132 (84h)
	lwz          r5,entity$(r1)		; 124 (7Ch)
	li           r4,4
	lis          r11,-21553		; 0ABCFh
	ori          r3,r11,1082		; 43Ah
	bl           ?_CALL_NATIVE@@YAPAKKKZZ
	mr           r4,r3
	lwz          r3,__$ReturnUdt$(r1)		; 116 (74h)
	bl           ?CallPosition@@YA?AU_Vector3@@PAK@Z
	lwz          r3,__$ReturnUdt$(r1)		; 116 (74h)
; Line 607
	addi         r1,r1,96		; 60h
	lwz          r12,-8(r1)
	mtlr         r12
	blr
$M92176:
; End code for function: ?GET_OFFSET_FROM_ENTITY_IN_WORLD_COORDS@@YA?AU_Vector3@@KMMM@Z
?GET_OFFSET_FROM_ENTITY_IN_WORLD_COORDS@@YA?AU_Vector3@@KMMM@Z ENDP
							; GET_OFFSET_FROM_ENTITY_IN_WORLD_COORDS
PUBLIC	?GET_ENTITY_PITCH@@YAMK@Z			; GET_ENTITY_PITCH
;	COMDAT .pdata
.pdata	SEGMENT
$T92183	DD	?GET_ENTITY_PITCH@@YAMK@Z
	DD	040000e03H
; Function compile flags: /Odtu

	.code

?GET_ENTITY_PITCH@@YAMK@Z PROC NEAR			; GET_ENTITY_PITCH, COMDAT

; Begin code for function: ?GET_ENTITY_PITCH@@YAMK@Z
; Line 609
	mflr         r12
	stw          r12,-8(r1)
	stwu         r1,-60h(r1)
.endprolog
$M92181:
	stw          r3,entity$(r1)		; 116 (74h)
; Line 610
	lwz          r5,entity$(r1)		; 116 (74h)
	li           r4,1
	lis          r11,-794		; 0FCE6h
	ori          r3,r11,60645		; 0ECE5h
	bl           ?_CALL_NATIVE@@YAPAKKKZZ
	bl           ?CallFloat@@YAMPAK@Z
; Line 611
	addi         r1,r1,96		; 60h
	lwz          r12,-8(r1)
	mtlr         r12
	blr
$M92182:
; End code for function: ?GET_ENTITY_PITCH@@YAMK@Z
?GET_ENTITY_PITCH@@YAMK@Z ENDP
							; GET_ENTITY_PITCH
PUBLIC	?GET_ENTITY_ROLL@@YAMK@Z			; GET_ENTITY_ROLL
;	COMDAT .pdata
.pdata	SEGMENT
$T92189	DD	?GET_ENTITY_ROLL@@YAMK@Z
	DD	040000e03H
; Function compile flags: /Odtu

	.code

?GET_ENTITY_ROLL@@YAMK@Z PROC NEAR			; GET_ENTITY_ROLL, COMDAT

; Begin code for function: ?GET_ENTITY_ROLL@@YAMK@Z
; Line 613
	mflr         r12
	stw          r12,-8(r1)
	stwu         r1,-60h(r1)
.endprolog
$M92187:
	stw          r3,entity$(r1)		; 116 (74h)
; Line 614
	lwz          r5,entity$(r1)		; 116 (74h)
	li           r4,1
	lis          r11,13921		; 3661h
	ori          r3,r11,2114		; 842h
	bl           ?_CALL_NATIVE@@YAPAKKKZZ
	bl           ?CallFloat@@YAMPAK@Z
; Line 615
	addi         r1,r1,96		; 60h
	lwz          r12,-8(r1)
	mtlr         r12
	blr
$M92188:
; End code for function: ?GET_ENTITY_ROLL@@YAMK@Z
?GET_ENTITY_ROLL@@YAMK@Z ENDP
							; GET_ENTITY_ROLL
PUBLIC	?GET_ENTITY_ROTATION@@YA?AU_Vector3@@KK@Z	; GET_ENTITY_ROTATION
;	COMDAT .pdata
.pdata	SEGMENT
$T92195	DD	?GET_ENTITY_ROTATION@@YA?AU_Vector3@@KK@Z
	DD	040001403H
; Function compile flags: /Odtu

	.code

?GET_ENTITY_ROTATION@@YA?AU_Vector3@@KK@Z PROC NEAR	; GET_ENTITY_ROTATION, COMDAT

; Begin code for function: ?GET_ENTITY_ROTATION@@YA?AU_Vector3@@KK@Z
; Line 617
	mflr         r12
	stw          r12,-8(r1)
	stwu         r1,-60h(r1)
.endprolog
$M92193:
	stw          r3,__$ReturnUdt$(r1)		; 116 (74h)
	stw          r4,entity$(r1)		; 124 (7Ch)
	stw          r5,unk1$(r1)		; 132 (84h)
; Line 618
	lwz          r6,unk1$(r1)		; 132 (84h)
	lwz          r5,entity$(r1)		; 124 (7Ch)
	li           r4,2
	lis          r11,-28684		; 8FF4h
	ori          r3,r11,23300		; 5B04h
	bl           ?_CALL_NATIVE@@YAPAKKKZZ
	mr           r4,r3
	lwz          r3,__$ReturnUdt$(r1)		; 116 (74h)
	bl           ?CallPosition@@YA?AU_Vector3@@PAK@Z
	lwz          r3,__$ReturnUdt$(r1)		; 116 (74h)
; Line 619
	addi         r1,r1,96		; 60h
	lwz          r12,-8(r1)
	mtlr         r12
	blr
$M92194:
; End code for function: ?GET_ENTITY_ROTATION@@YA?AU_Vector3@@KK@Z
?GET_ENTITY_ROTATION@@YA?AU_Vector3@@KK@Z ENDP
							; GET_ENTITY_ROTATION
PUBLIC	?GET_ENTITY_MODEL@@YAKK@Z			; GET_ENTITY_MODEL
;	COMDAT .pdata
.pdata	SEGMENT
$T92201	DD	?GET_ENTITY_MODEL@@YAKK@Z
	DD	040000e03H
; Function compile flags: /Odtu

	.code

?GET_ENTITY_MODEL@@YAKK@Z PROC NEAR			; GET_ENTITY_MODEL, COMDAT

; Begin code for function: ?GET_ENTITY_MODEL@@YAKK@Z
; Line 621
	mflr         r12
	stw          r12,-8(r1)
	stwu         r1,-60h(r1)
.endprolog
$M92199:
	stw          r3,entity$(r1)		; 116 (74h)
; Line 622
	lwz          r5,entity$(r1)		; 116 (74h)
	li           r4,1
	lis          r11,-9476		; 0DAFCh
	ori          r3,r11,46060		; 0B3ECh
	bl           ?_CALL_NATIVE@@YAPAKKKZZ
	bl           ?CallDWORD@@YAKPAK@Z
; Line 623
	addi         r1,r1,96		; 60h
	lwz          r12,-8(r1)
	mtlr         r12
	blr
$M92200:
; End code for function: ?GET_ENTITY_MODEL@@YAKK@Z
?GET_ENTITY_MODEL@@YAKK@Z ENDP
							; GET_ENTITY_MODEL
;	COMDAT .pdata
.pdata	SEGMENT
$T92207	DD	?GET_ENTITY_SPEED@@YAMK@Z
	DD	040000e03H
; Function compile flags: /Odtu

	.code

?GET_ENTITY_SPEED@@YAMK@Z PROC NEAR			; GET_ENTITY_SPEED, COMDAT

; Begin code for function: ?GET_ENTITY_SPEED@@YAMK@Z
; Line 625
	mflr         r12
	stw          r12,-8(r1)
	stwu         r1,-60h(r1)
.endprolog
$M92205:
	stw          r3,entity$(r1)		; 116 (74h)
; Line 626
	lwz          r5,entity$(r1)		; 116 (74h)
	li           r4,1
	lis          r11,-25058		; 9E1Eh
	ori          r3,r11,18328		; 4798h
	bl           ?_CALL_NATIVE@@YAPAKKKZZ
	bl           ?CallFloat@@YAMPAK@Z
; Line 627
	addi         r1,r1,96		; 60h
	lwz          r12,-8(r1)
	mtlr         r12
	blr
$M92206:
; End code for function: ?GET_ENTITY_SPEED@@YAMK@Z
?GET_ENTITY_SPEED@@YAMK@Z ENDP
							; GET_ENTITY_SPEED
;	COMDAT .pdata
.pdata	SEGMENT
$T92213	DD	?IS_ENTITY_A_PED@@YA_NK@Z
	DD	040000e03H
; Function compile flags: /Odtu

	.code

?IS_ENTITY_A_PED@@YA_NK@Z PROC NEAR			; IS_ENTITY_A_PED, COMDAT

; Begin code for function: ?IS_ENTITY_A_PED@@YA_NK@Z
; Line 629
	mflr         r12
	stw          r12,-8(r1)
	stwu         r1,-60h(r1)
.endprolog
$M92211:
	stw          r3,entity$(r1)		; 116 (74h)
; Line 630
	lwz          r5,entity$(r1)		; 116 (74h)
	li           r4,1
	lis          r11,21971		; 55D3h
	ori          r3,r11,16043		; 3EABh
	bl           ?_CALL_NATIVE@@YAPAKKKZZ
	bl           ?CallBool@@YA_NPAK@Z
; Line 631
	addi         r1,r1,96		; 60h
	lwz          r12,-8(r1)
	mtlr         r12
	blr
$M92212:
; End code for function: ?IS_ENTITY_A_PED@@YA_NK@Z
?IS_ENTITY_A_PED@@YA_NK@Z ENDP
							; IS_ENTITY_A_PED
;	COMDAT .pdata
.pdata	SEGMENT
$T92219	DD	?IS_ENTITY_A_MISSION_ENTITY@@YA_NK@Z
	DD	040000e03H
; Function compile flags: /Odtu

	.code

?IS_ENTITY_A_MISSION_ENTITY@@YA_NK@Z PROC NEAR		; IS_ENTITY_A_MISSION_ENTITY, COMDAT

; Begin code for function: ?IS_ENTITY_A_MISSION_ENTITY@@YA_NK@Z
; Line 633
	mflr         r12
	stw          r12,-8(r1)
	stwu         r1,-60h(r1)
.endprolog
$M92217:
	stw          r3,entity$(r1)		; 116 (74h)
; Line 634
	lwz          r5,entity$(r1)		; 116 (74h)
	li           r4,1
	lis          r11,9778		; 2632h
	ori          r3,r11,57636		; 0E124h
	bl           ?_CALL_NATIVE@@YAPAKKKZZ
	bl           ?CallBool@@YA_NPAK@Z
; Line 635
	addi         r1,r1,96		; 60h
	lwz          r12,-8(r1)
	mtlr         r12
	blr
$M92218:
; End code for function: ?IS_ENTITY_A_MISSION_ENTITY@@YA_NK@Z
?IS_ENTITY_A_MISSION_ENTITY@@YA_NK@Z ENDP
							; IS_ENTITY_A_MISSION_ENTITY
PUBLIC	?IS_ENTITY_DEAD@@YA_NK@Z			; IS_ENTITY_DEAD
;	COMDAT .pdata
.pdata	SEGMENT
$T92225	DD	?IS_ENTITY_DEAD@@YA_NK@Z
	DD	040000e03H
; Function compile flags: /Odtu

	.code

?IS_ENTITY_DEAD@@YA_NK@Z PROC NEAR			; IS_ENTITY_DEAD, COMDAT

; Begin code for function: ?IS_ENTITY_DEAD@@YA_NK@Z
; Line 637
	mflr         r12
	stw          r12,-8(r1)
	stwu         r1,-60h(r1)
.endprolog
$M92223:
	stw          r3,entity$(r1)		; 116 (74h)
; Line 638
	lwz          r5,entity$(r1)		; 116 (74h)
	li           r4,1
	lis          r11,-18697		; 0B6F7h
	ori          r3,r11,52140		; 0CBACh
	bl           ?_CALL_NATIVE@@YAPAKKKZZ
	bl           ?CallBool@@YA_NPAK@Z
; Line 639
	addi         r1,r1,96		; 60h
	lwz          r12,-8(r1)
	mtlr         r12
	blr
$M92224:
; End code for function: ?IS_ENTITY_DEAD@@YA_NK@Z
?IS_ENTITY_DEAD@@YA_NK@Z ENDP
							; IS_ENTITY_DEAD
PUBLIC	?IS_ENTITY_IN_WATER@@YA_NK@Z			; IS_ENTITY_IN_WATER
;	COMDAT .pdata
.pdata	SEGMENT
$T92231	DD	?IS_ENTITY_IN_WATER@@YA_NK@Z
	DD	040000e03H
; Function compile flags: /Odtu

	.code

?IS_ENTITY_IN_WATER@@YA_NK@Z PROC NEAR			; IS_ENTITY_IN_WATER, COMDAT

; Begin code for function: ?IS_ENTITY_IN_WATER@@YA_NK@Z
; Line 641
	mflr         r12
	stw          r12,-8(r1)
	stwu         r1,-60h(r1)
.endprolog
$M92229:
	stw          r3,entity$(r1)		; 116 (74h)
; Line 642
	lwz          r5,entity$(r1)		; 116 (74h)
	li           r4,1
	lis          r11,19516		; 4C3Ch
	ori          r3,r11,9480		; 2508h
	bl           ?_CALL_NATIVE@@YAPAKKKZZ
	bl           ?CallBool@@YA_NPAK@Z
; Line 643
	addi         r1,r1,96		; 60h
	lwz          r12,-8(r1)
	mtlr         r12
	blr
$M92230:
; End code for function: ?IS_ENTITY_IN_WATER@@YA_NK@Z
?IS_ENTITY_IN_WATER@@YA_NK@Z ENDP
							; IS_ENTITY_IN_WATER
PUBLIC	?IS_ENTITY_VISIBLE@@YA_NK@Z			; IS_ENTITY_VISIBLE
;	COMDAT .pdata
.pdata	SEGMENT
$T92237	DD	?IS_ENTITY_VISIBLE@@YA_NK@Z
	DD	040000e03H
; Function compile flags: /Odtu

	.code

?IS_ENTITY_VISIBLE@@YA_NK@Z PROC NEAR			; IS_ENTITY_VISIBLE, COMDAT

; Begin code for function: ?IS_ENTITY_VISIBLE@@YA_NK@Z
; Line 645
	mflr         r12
	stw          r12,-8(r1)
	stwu         r1,-60h(r1)
.endprolog
$M92235:
	stw          r3,entity$(r1)		; 116 (74h)
; Line 646
	lwz          r5,entity$(r1)		; 116 (74h)
	li           r4,1
	lis          r11,4619		; 120Bh
	ori          r3,r11,20181		; 4ED5h
	bl           ?_CALL_NATIVE@@YAPAKKKZZ
	bl           ?CallBool@@YA_NPAK@Z
; Line 647
	addi         r1,r1,96		; 60h
	lwz          r12,-8(r1)
	mtlr         r12
	blr
$M92236:
; End code for function: ?IS_ENTITY_VISIBLE@@YA_NK@Z
?IS_ENTITY_VISIBLE@@YA_NK@Z ENDP
							; IS_ENTITY_VISIBLE
;	COMDAT .pdata
.pdata	SEGMENT
$T92243	DD	?APPLY_FORCE_TO_ENTITY@@YAXKKMMMMMM_N00000@Z
	DD	040002903H
; Function compile flags: /Odtu

	.code

?APPLY_FORCE_TO_ENTITY@@YAXKKMMMMMM_N00000@Z PROC NEAR	; APPLY_FORCE_TO_ENTITY, COMDAT

; Begin code for function: ?APPLY_FORCE_TO_ENTITY@@YAXKKMMMMMM_N00000@Z
; Line 649
	mflr         r12
	stw          r12,-8(r1)
	stwu         r1,-0A0h(r1)
.endprolog
$M92241:
	stw          r3,entity$(r1)		; 180 (0B4h)
	stw          r4,forceType$(r1)		; 188 (0BCh)
	stfs         fr1,x$(r1)		; 196 (0C4h)
	stfs         fr2,y$(r1)		; 204 (0CCh)
	stfs         fr3,z$(r1)		; 212 (0D4h)
	stfs         fr4,xRot$(r1)		; 220 (0DCh)
	stfs         fr5,yRot$(r1)		; 228 (0E4h)
	stfs         fr6,zRot$(r1)		; 236 (0ECh)
; Line 650
	lbz          r11,unk4$(r1)		; 287 (11Fh)
	stw          r11,8Ch(r1)
	lbz          r10,unk3$(r1)		; 279 (117h)
	stw          r10,84h(r1)
	lbz          r9,unk2$(r1)		; 271 (10Fh)
	stw          r9,7Ch(r1)
	lbz          r8,ignoreUpVec$(r1)		; 263 (107h)
	stw          r8,74h(r1)
	lbz          r7,isRel$(r1)		; 255 (0FFh)
	stw          r7,6Ch(r1)
	lbz          r6,unk1$(r1)		; 247 (0F7h)
	stw          r6,64h(r1)
	lwz          r5,zRot$(r1)		; 236 (0ECh)
	stw          r5,5Ch(r1)
	lwz          r4,yRot$(r1)		; 228 (0E4h)
	stw          r4,54h(r1)
	lwz          r10,xRot$(r1)		; 220 (0DCh)
	lwz          r9,z$(r1)		; 212 (0D4h)
	lwz          r8,y$(r1)		; 204 (0CCh)
	lwz          r7,x$(r1)		; 196 (0C4h)
	lwz          r6,forceType$(r1)		; 188 (0BCh)
	lwz          r5,entity$(r1)		; 180 (0B4h)
	li           r4,14		; 0Eh
	lis          r3,-15936		; 0C1C0h
	ori          r3,r3,34138		; 855Ah
	bl           ?_CALL_NATIVE@@YAPAKKKZZ
; Line 651
	addi         r1,r1,160		; 0A0h
	lwz          r12,-8(r1)
	mtlr         r12
	blr
$M92242:
; End code for function: ?APPLY_FORCE_TO_ENTITY@@YAXKKMMMMMM_N00000@Z
?APPLY_FORCE_TO_ENTITY@@YAXKKMMMMMM_N00000@Z ENDP
							; APPLY_FORCE_TO_ENTITY
;	COMDAT .pdata
.pdata	SEGMENT
$T92249	DD	?ATTACH_ENTITY_TO_ENTITY@@YAXKKKMMMMMM_N000K0@Z
	DD	040002c03H
; Function compile flags: /Odtu

	.code

?ATTACH_ENTITY_TO_ENTITY@@YAXKKKMMMMMM_N000K0@Z	PROC NEAR ; ATTACH_ENTITY_TO_ENTITY, COMDAT

; Begin code for function: ?ATTACH_ENTITY_TO_ENTITY@@YAXKKKMMMMMM_N000K0@Z
; Line 653
	mflr         r12
	stw          r12,-8(r1)
	stwu         r1,-0A0h(r1)
.endprolog
$M92247:
	stw          r3,ent1$(r1)		; 180 (0B4h)
	stw          r4,ent2$(r1)		; 188 (0BCh)
	stw          r5,bone$(r1)		; 196 (0C4h)
	stfs         fr1,x$(r1)		; 204 (0CCh)
	stfs         fr2,y$(r1)		; 212 (0D4h)
	stfs         fr3,z$(r1)		; 220 (0DCh)
	stfs         fr4,xRot$(r1)		; 228 (0E4h)
	stfs         fr5,yRot$(r1)		; 236 (0ECh)
	stfs         fr6,zRot$(r1)		; 244 (0F4h)
; Line 654
	lbz          r11,unk3$(r1)		; 295 (127h)
	stw          r11,94h(r1)
	lwz          r10,unk2$(r1)		; 284 (11Ch)
	stw          r10,8Ch(r1)
	lbz          r9,allowRot$(r1)		; 279 (117h)
	stw          r9,84h(r1)
	lbz          r8,ignoreUpVec$(r1)		; 271 (10Fh)
	stw          r8,7Ch(r1)
	lbz          r7,isRel$(r1)		; 263 (107h)
	stw          r7,74h(r1)
	lbz          r6,unk1$(r1)		; 255 (0FFh)
	stw          r6,6Ch(r1)
	lwz          r5,zRot$(r1)		; 244 (0F4h)
	stw          r5,64h(r1)
	lwz          r4,yRot$(r1)		; 236 (0ECh)
	stw          r4,5Ch(r1)
	lwz          r3,xRot$(r1)		; 228 (0E4h)
	stw          r3,54h(r1)
	lwz          r10,z$(r1)		; 220 (0DCh)
	lwz          r9,y$(r1)		; 212 (0D4h)
	lwz          r8,x$(r1)		; 204 (0CCh)
	lwz          r7,bone$(r1)		; 196 (0C4h)
	lwz          r6,ent2$(r1)		; 188 (0BCh)
	lwz          r5,ent1$(r1)		; 180 (0B4h)
	li           r4,15		; 0Fh
	lis          r11,-5118		; 0EC02h
	ori          r3,r11,16951		; 4237h
	bl           ?_CALL_NATIVE@@YAPAKKKZZ
; Line 655
	addi         r1,r1,160		; 0A0h
	lwz          r12,-8(r1)
	mtlr         r12
	blr
$M92248:
; End code for function: ?ATTACH_ENTITY_TO_ENTITY@@YAXKKKMMMMMM_N000K0@Z
?ATTACH_ENTITY_TO_ENTITY@@YAXKKKMMMMMM_N000K0@Z ENDP
							; ATTACH_ENTITY_TO_ENTITY
PUBLIC	?DETACH_ENTITY@@YAXK_N0@Z			; DETACH_ENTITY
;	COMDAT .pdata
.pdata	SEGMENT
$T92255	DD	?DETACH_ENTITY@@YAXK_N0@Z
	DD	040001103H
; Function compile flags: /Odtu

	.code

?DETACH_ENTITY@@YAXK_N0@Z PROC NEAR			; DETACH_ENTITY, COMDAT

; Begin code for function: ?DETACH_ENTITY@@YAXK_N0@Z
; Line 657
	mflr         r12
	stw          r12,-8(r1)
	stwu         r1,-60h(r1)
.endprolog
$M92253:
	stw          r3,entity$(r1)		; 116 (74h)
	stb          r4,unk1$(r1)		; 127 (7Fh)
	stb          r5,unk2$(r1)		; 135 (87h)
; Line 658
	lbz          r7,unk2$(r1)		; 135 (87h)
	lbz          r6,unk1$(r1)		; 127 (7Fh)
	lwz          r5,entity$(r1)		; 116 (74h)
	li           r4,3
	lis          r11,-14097		; 0C8EFh
	ori          r3,r11,52033		; 0CB41h
	bl           ?_CALL_NATIVE@@YAPAKKKZZ
; Line 659
	addi         r1,r1,96		; 60h
	lwz          r12,-8(r1)
	mtlr         r12
	blr
$M92254:
; End code for function: ?DETACH_ENTITY@@YAXK_N0@Z
?DETACH_ENTITY@@YAXK_N0@Z ENDP
							; DETACH_ENTITY
PUBLIC	?FREEZE_ENTITY_POSITION@@YAXK_N@Z		; FREEZE_ENTITY_POSITION
;	COMDAT .pdata
.pdata	SEGMENT
$T92261	DD	?FREEZE_ENTITY_POSITION@@YAXK_N@Z
	DD	040000f03H
; Function compile flags: /Odtu

	.code

?FREEZE_ENTITY_POSITION@@YAXK_N@Z PROC NEAR		; FREEZE_ENTITY_POSITION, COMDAT

; Begin code for function: ?FREEZE_ENTITY_POSITION@@YAXK_N@Z
; Line 661
	mflr         r12
	stw          r12,-8(r1)
	stwu         r1,-60h(r1)
.endprolog
$M92259:
	stw          r3,entity$(r1)		; 116 (74h)
	stb          r4,freeze$(r1)		; 127 (7Fh)
; Line 662
	lbz          r6,freeze$(r1)		; 127 (7Fh)
	lwz          r5,entity$(r1)		; 116 (74h)
	li           r4,2
	lis          r11,26049		; 65C1h
	ori          r3,r11,27991		; 6D57h
	bl           ?_CALL_NATIVE@@YAPAKKKZZ
; Line 663
	addi         r1,r1,96		; 60h
	lwz          r12,-8(r1)
	mtlr         r12
	blr
$M92260:
; End code for function: ?FREEZE_ENTITY_POSITION@@YAXK_N@Z
?FREEZE_ENTITY_POSITION@@YAXK_N@Z ENDP
							; FREEZE_ENTITY_POSITION
;	COMDAT .pdata
.pdata	SEGMENT
$T92267	DD	?_0xD3850671@@YAXKK@Z
	DD	040000f03H
; Function compile flags: /Odtu

	.code

?_0xD3850671@@YAXKK@Z PROC NEAR				; _0xD3850671, COMDAT

; Begin code for function: ?_0xD3850671@@YAXKK@Z
; Line 665
	mflr         r12
	stw          r12,-8(r1)
	stwu         r1,-60h(r1)
.endprolog
$M92265:
	stw          r3,entity$(r1)		; 116 (74h)
	stw          r4,unk1$(r1)		; 124 (7Ch)
; Line 666
	lwz          r6,unk1$(r1)		; 124 (7Ch)
	lwz          r5,entity$(r1)		; 116 (74h)
	li           r4,2
	lis          r11,-11387		; 0D385h
	ori          r3,r11,1649		; 671h
	bl           ?_CALL_NATIVE@@YAPAKKKZZ
; Line 667
	addi         r1,r1,96		; 60h
	lwz          r12,-8(r1)
	mtlr         r12
	blr
$M92266:
; End code for function: ?_0xD3850671@@YAXKK@Z
?_0xD3850671@@YAXKK@Z ENDP
							; _0xD3850671
;	COMDAT .pdata
.pdata	SEGMENT
$T92273	DD	?SET_ENTITY_AS_MISSION_ENTITY@@YAXK_N0@Z
	DD	040001103H
; Function compile flags: /Odtu

	.code

?SET_ENTITY_AS_MISSION_ENTITY@@YAXK_N0@Z PROC NEAR	; SET_ENTITY_AS_MISSION_ENTITY, COMDAT

; Begin code for function: ?SET_ENTITY_AS_MISSION_ENTITY@@YAXK_N0@Z
; Line 669
	mflr         r12
	stw          r12,-8(r1)
	stwu         r1,-60h(r1)
.endprolog
$M92271:
	stw          r3,entity$(r1)		; 116 (74h)
	stb          r4,missionEntity$(r1)		; 127 (7Fh)
	stb          r5,unk1$(r1)		; 135 (87h)
; Line 670
	lbz          r7,unk1$(r1)		; 135 (87h)
	lbz          r6,missionEntity$(r1)		; 127 (7Fh)
	lwz          r5,entity$(r1)		; 116 (74h)
	li           r4,3
	lis          r11,23839		; 5D1Fh
	ori          r3,r11,40463		; 9E0Fh
	bl           ?_CALL_NATIVE@@YAPAKKKZZ
; Line 671
	addi         r1,r1,96		; 60h
	lwz          r12,-8(r1)
	mtlr         r12
	blr
$M92272:
; End code for function: ?SET_ENTITY_AS_MISSION_ENTITY@@YAXK_N0@Z
?SET_ENTITY_AS_MISSION_ENTITY@@YAXK_N0@Z ENDP
							; SET_ENTITY_AS_MISSION_ENTITY
PUBLIC	?SET_ENTITY_COLLISION@@YAXK_N@Z			; SET_ENTITY_COLLISION
;	COMDAT .pdata
.pdata	SEGMENT
$T92279	DD	?SET_ENTITY_COLLISION@@YAXK_N@Z
	DD	040000f03H
; Function compile flags: /Odtu

	.code

?SET_ENTITY_COLLISION@@YAXK_N@Z	PROC NEAR		; SET_ENTITY_COLLISION, COMDAT

; Begin code for function: ?SET_ENTITY_COLLISION@@YAXK_N@Z
; Line 673
	mflr         r12
	stw          r12,-8(r1)
	stwu         r1,-60h(r1)
.endprolog
$M92277:
	stw          r3,entity$(r1)		; 116 (74h)
	stb          r4,collide$(r1)		; 127 (7Fh)
; Line 674
	lbz          r6,collide$(r1)		; 127 (7Fh)
	lwz          r5,entity$(r1)		; 116 (74h)
	li           r4,2
	lis          r11,5023		; 139Fh
	ori          r3,r11,54141		; 0D37Dh
	bl           ?_CALL_NATIVE@@YAPAKKKZZ
; Line 675
	addi         r1,r1,96		; 60h
	lwz          r12,-8(r1)
	mtlr         r12
	blr
$M92278:
; End code for function: ?SET_ENTITY_COLLISION@@YAXK_N@Z
?SET_ENTITY_COLLISION@@YAXK_N@Z ENDP
							; SET_ENTITY_COLLISION
;	COMDAT .pdata
.pdata	SEGMENT
$T92285	DD	?SET_ENTITY_COORDS@@YAXKMMMKKKK@Z
	DD	040001d03H
; Function compile flags: /Odtu

	.code

?SET_ENTITY_COORDS@@YAXKMMMKKKK@Z PROC NEAR		; SET_ENTITY_COORDS, COMDAT

; Begin code for function: ?SET_ENTITY_COORDS@@YAXKMMMKKKK@Z
; Line 677
	mflr         r12
	stw          r12,-8(r1)
	stwu         r1,-70h(r1)
.endprolog
$M92283:
	stw          r3,entity$(r1)		; 132 (84h)
	stfs         fr1,x$(r1)		; 140 (8Ch)
	stfs         fr2,y$(r1)		; 148 (94h)
	stfs         fr3,z$(r1)		; 156 (9Ch)
	stw          r7,unk1$(r1)		; 164 (0A4h)
	stw          r8,unk2$(r1)		; 172 (0ACh)
	stw          r9,unk3$(r1)		; 180 (0B4h)
	stw          r10,unk4$(r1)		; 188 (0BCh)
; Line 678
	lwz          r11,unk4$(r1)		; 188 (0BCh)
	stw          r11,5Ch(r1)
	lwz          r10,unk3$(r1)		; 180 (0B4h)
	stw          r10,54h(r1)
	lwz          r10,unk2$(r1)		; 172 (0ACh)
	lwz          r9,unk1$(r1)		; 164 (0A4h)
	lwz          r8,z$(r1)		; 156 (9Ch)
	lwz          r7,y$(r1)		; 148 (94h)
	lwz          r6,x$(r1)		; 140 (8Ch)
	lwz          r5,entity$(r1)		; 132 (84h)
	li           r4,8
	lis          r3,-8336		; 0DF70h
	ori          r3,r3,46107		; 0B41Bh
	bl           ?_CALL_NATIVE@@YAPAKKKZZ
; Line 679
	addi         r1,r1,112		; 70h
	lwz          r12,-8(r1)
	mtlr         r12
	blr
$M92284:
; End code for function: ?SET_ENTITY_COORDS@@YAXKMMMKKKK@Z
?SET_ENTITY_COORDS@@YAXKMMMKKKK@Z ENDP
							; SET_ENTITY_COORDS
PUBLIC	?SET_ENTITY_HEADING@@YAXKM@Z			; SET_ENTITY_HEADING
;	COMDAT .pdata
.pdata	SEGMENT
$T92291	DD	?SET_ENTITY_HEADING@@YAXKM@Z
	DD	040000f03H
; Function compile flags: /Odtu

	.code

?SET_ENTITY_HEADING@@YAXKM@Z PROC NEAR			; SET_ENTITY_HEADING, COMDAT

; Begin code for function: ?SET_ENTITY_HEADING@@YAXKM@Z
; Line 681
	mflr         r12
	stw          r12,-8(r1)
	stwu         r1,-60h(r1)
.endprolog
$M92289:
	stw          r3,entity$(r1)		; 116 (74h)
	stfs         fr1,heading$(r1)		; 124 (7Ch)
; Line 682
	lwz          r6,heading$(r1)		; 124 (7Ch)
	lwz          r5,entity$(r1)		; 116 (74h)
	li           r4,2
	lis          r11,-7937		; 0E0FFh
	ori          r3,r11,1613		; 64Dh
	bl           ?_CALL_NATIVE@@YAPAKKKZZ
; Line 683
	addi         r1,r1,96		; 60h
	lwz          r12,-8(r1)
	mtlr         r12
	blr
$M92290:
; End code for function: ?SET_ENTITY_HEADING@@YAXKM@Z
?SET_ENTITY_HEADING@@YAXKM@Z ENDP
							; SET_ENTITY_HEADING
;	COMDAT .pdata
.pdata	SEGMENT
$T92297	DD	?SET_ENTITY_HEALTH@@YAXKK@Z
	DD	040000f03H
; Function compile flags: /Odtu

	.code

?SET_ENTITY_HEALTH@@YAXKK@Z PROC NEAR			; SET_ENTITY_HEALTH, COMDAT

; Begin code for function: ?SET_ENTITY_HEALTH@@YAXKK@Z
; Line 685
	mflr         r12
	stw          r12,-8(r1)
	stwu         r1,-60h(r1)
.endprolog
$M92295:
	stw          r3,entity$(r1)		; 116 (74h)
	stw          r4,health$(r1)		; 124 (7Ch)
; Line 686
	lwz          r6,health$(r1)		; 124 (7Ch)
	lwz          r5,entity$(r1)		; 116 (74h)
	li           r4,2
	lis          r11,-1075		; 0FBCDh
	ori          r3,r11,6193		; 1831h
	bl           ?_CALL_NATIVE@@YAPAKKKZZ
; Line 687
	addi         r1,r1,96		; 60h
	lwz          r12,-8(r1)
	mtlr         r12
	blr
$M92296:
; End code for function: ?SET_ENTITY_HEALTH@@YAXKK@Z
?SET_ENTITY_HEALTH@@YAXKK@Z ENDP
							; SET_ENTITY_HEALTH
PUBLIC	?SET_ENTITY_PROOFS@@YAXK_N0000000@Z		; SET_ENTITY_PROOFS
;	COMDAT .pdata
.pdata	SEGMENT
$T92303	DD	?SET_ENTITY_PROOFS@@YAXK_N0000000@Z
	DD	040001f03H
; Function compile flags: /Odtu

	.code

?SET_ENTITY_PROOFS@@YAXK_N0000000@Z PROC NEAR		; SET_ENTITY_PROOFS, COMDAT

; Begin code for function: ?SET_ENTITY_PROOFS@@YAXK_N0000000@Z
; Line 689
	mflr         r12
	stw          r12,-8(r1)
	stwu         r1,-70h(r1)
.endprolog
$M92301:
	stw          r3,entity$(r1)		; 132 (84h)
	stb          r4,bulletProof$(r1)		; 143 (8Fh)
	stb          r5,fireProof$(r1)		; 151 (97h)
	stb          r6,explosionProof$(r1)		; 159 (9Fh)
	stb          r7,collisionProof$(r1)		; 167 (0A7h)
	stb          r8,meleeProof$(r1)		; 175 (0AFh)
	stb          r9,unk1$(r1)		; 183 (0B7h)
	stb          r10,unk2$(r1)		; 191 (0BFh)
; Line 690
	lbz          r11,drownProof$(r1)		; 199 (0C7h)
	stw          r11,64h(r1)
	lbz          r10,unk2$(r1)		; 191 (0BFh)
	stw          r10,5Ch(r1)
	lbz          r9,unk1$(r1)		; 183 (0B7h)
	stw          r9,54h(r1)
	lbz          r10,meleeProof$(r1)		; 175 (0AFh)
	lbz          r9,collisionProof$(r1)		; 167 (0A7h)
	lbz          r8,explosionProof$(r1)		; 159 (9Fh)
	lbz          r7,fireProof$(r1)		; 151 (97h)
	lbz          r6,bulletProof$(r1)		; 143 (8Fh)
	lwz          r5,entity$(r1)		; 132 (84h)
	li           r4,9
	lis          r3,32414		; 7E9Eh
	ori          r3,r3,43878		; 0AB66h
	bl           ?_CALL_NATIVE@@YAPAKKKZZ
; Line 691
	addi         r1,r1,112		; 70h
	lwz          r12,-8(r1)
	mtlr         r12
	blr
$M92302:
; End code for function: ?SET_ENTITY_PROOFS@@YAXK_N0000000@Z
?SET_ENTITY_PROOFS@@YAXK_N0000000@Z ENDP
							; SET_ENTITY_PROOFS
PUBLIC	?SET_ENTITY_ROTATION@@YAXKMMMK_N@Z		; SET_ENTITY_ROTATION
;	COMDAT .pdata
.pdata	SEGMENT
$T92309	DD	?SET_ENTITY_ROTATION@@YAXKMMMK_N@Z
	DD	040001703H
; Function compile flags: /Odtu

	.code

?SET_ENTITY_ROTATION@@YAXKMMMK_N@Z PROC NEAR		; SET_ENTITY_ROTATION, COMDAT

; Begin code for function: ?SET_ENTITY_ROTATION@@YAXKMMMK_N@Z
; Line 693
	mflr         r12
	stw          r12,-8(r1)
	stwu         r1,-60h(r1)
.endprolog
$M92307:
	stw          r3,entity$(r1)		; 116 (74h)
	stfs         fr1,pitch$(r1)		; 124 (7Ch)
	stfs         fr2,roll$(r1)		; 132 (84h)
	stfs         fr3,yaw$(r1)		; 140 (8Ch)
	stw          r7,unk1$(r1)		; 148 (94h)
	stb          r8,unk2$(r1)		; 159 (9Fh)
; Line 694
	lbz          r10,unk2$(r1)		; 159 (9Fh)
	lwz          r9,unk1$(r1)		; 148 (94h)
	lwz          r8,yaw$(r1)		; 140 (8Ch)
	lwz          r7,roll$(r1)		; 132 (84h)
	lwz          r6,pitch$(r1)		; 124 (7Ch)
	lwz          r5,entity$(r1)		; 116 (74h)
	li           r4,6
	lis          r11,2612		; 0A34h
	ori          r3,r11,24318		; 5EFEh
	bl           ?_CALL_NATIVE@@YAPAKKKZZ
; Line 695
	addi         r1,r1,96		; 60h
	lwz          r12,-8(r1)
	mtlr         r12
	blr
$M92308:
; End code for function: ?SET_ENTITY_ROTATION@@YAXKMMMK_N@Z
?SET_ENTITY_ROTATION@@YAXKMMMK_N@Z ENDP
							; SET_ENTITY_ROTATION
PUBLIC	?SET_ENTITY_VISIBLE@@YAXK_N@Z			; SET_ENTITY_VISIBLE
;	COMDAT .pdata
.pdata	SEGMENT
$T92315	DD	?SET_ENTITY_VISIBLE@@YAXK_N@Z
	DD	040000f03H
; Function compile flags: /Odtu

	.code

?SET_ENTITY_VISIBLE@@YAXK_N@Z PROC NEAR			; SET_ENTITY_VISIBLE, COMDAT

; Begin code for function: ?SET_ENTITY_VISIBLE@@YAXK_N@Z
; Line 697
	mflr         r12
	stw          r12,-8(r1)
	stwu         r1,-60h(r1)
.endprolog
$M92313:
	stw          r3,entity$(r1)		; 116 (74h)
	stb          r4,visible$(r1)		; 127 (7Fh)
; Line 698
	lbz          r6,visible$(r1)		; 127 (7Fh)
	lwz          r5,entity$(r1)		; 116 (74h)
	li           r4,2
	lis          r11,-12221		; 0D043h
	ori          r3,r11,59617		; 0E8E1h
	bl           ?_CALL_NATIVE@@YAPAKKKZZ
; Line 699
	addi         r1,r1,96		; 60h
	lwz          r12,-8(r1)
	mtlr         r12
	blr
$M92314:
; End code for function: ?SET_ENTITY_VISIBLE@@YAXK_N@Z
?SET_ENTITY_VISIBLE@@YAXK_N@Z ENDP
							; SET_ENTITY_VISIBLE
PUBLIC	?CREATE_PED@@YAKKKMMM_N00@Z			; CREATE_PED
;	COMDAT .pdata
.pdata	SEGMENT
$T92321	DD	?CREATE_PED@@YAKKKMMM_N00@Z
	DD	040001e03H
; Function compile flags: /Odtu

	.code

?CREATE_PED@@YAKKKMMM_N00@Z PROC NEAR			; CREATE_PED, COMDAT

; Begin code for function: ?CREATE_PED@@YAKKKMMM_N00@Z
; Line 702
	mflr         r12
	stw          r12,-8(r1)
	stwu         r1,-70h(r1)
.endprolog
$M92319:
	stw          r3,type$(r1)		; 132 (84h)
	stw          r4,modelHash$(r1)		; 140 (8Ch)
	stfs         fr1,x$(r1)		; 148 (94h)
	stfs         fr2,y$(r1)		; 156 (9Ch)
	stfs         fr3,z$(r1)		; 164 (0A4h)
	stb          r8,unk1$(r1)		; 175 (0AFh)
	stb          r9,networkPed$(r1)		; 183 (0B7h)
	stb          r10,createHandle$(r1)		; 191 (0BFh)
; Line 703
	lbz          r11,createHandle$(r1)		; 191 (0BFh)
	stw          r11,5Ch(r1)
	lbz          r10,networkPed$(r1)		; 183 (0B7h)
	stw          r10,54h(r1)
	lbz          r10,unk1$(r1)		; 175 (0AFh)
	lwz          r9,z$(r1)		; 164 (0A4h)
	lwz          r8,y$(r1)		; 156 (9Ch)
	lwz          r7,x$(r1)		; 148 (94h)
	lwz          r6,modelHash$(r1)		; 140 (8Ch)
	lwz          r5,type$(r1)		; 132 (84h)
	li           r4,8
	lis          r3,905		; 389h
	ori          r3,r3,61297		; 0EF71h
	bl           ?_CALL_NATIVE@@YAPAKKKZZ
	bl           ?CallPed@@YAKPAK@Z
; Line 704
	addi         r1,r1,112		; 70h
	lwz          r12,-8(r1)
	mtlr         r12
	blr
$M92320:
; End code for function: ?CREATE_PED@@YAKKKMMM_N00@Z
?CREATE_PED@@YAKKKMMM_N00@Z ENDP
							; CREATE_PED
PUBLIC	?DELETE_PED@@YAXK@Z				; DELETE_PED
;	COMDAT .pdata
.pdata	SEGMENT
$T92327	DD	?DELETE_PED@@YAXK@Z
	DD	040000d03H
; Function compile flags: /Odtu

	.code

?DELETE_PED@@YAXK@Z PROC NEAR				; DELETE_PED, COMDAT

; Begin code for function: ?DELETE_PED@@YAXK@Z
; Line 706
	mflr         r12
	stw          r12,-8(r1)
