; Listing generated by Microsoft (R) Optimizing Compiler Version 16.00.11886.00 

	TITLE	C:\Users\S7Clutch\Documents\Visual Studio 2010\Projects\The Saiyan Project\src\Tools.cpp
	.PPC
	.MODEL FLAT
PUBLIC	__C2_11886
PUBLIC	__C1_11886
PUBLIC	D3DPRIMITIVEVERTEXCOUNT
PUBLIC	D3DTESSPRIMITIVEVERTEXCOUNT
PUBLIC	?g_XMSinCoefficients0@@3UXMVECTORF32@@B		; g_XMSinCoefficients0
PUBLIC	?g_XMSinCoefficients1@@3UXMVECTORF32@@B		; g_XMSinCoefficients1
PUBLIC	?g_XMSinCoefficients2@@3UXMVECTORF32@@B		; g_XMSinCoefficients2
PUBLIC	?g_XMCosCoefficients0@@3UXMVECTORF32@@B		; g_XMCosCoefficients0
PUBLIC	?g_XMCosCoefficients1@@3UXMVECTORF32@@B		; g_XMCosCoefficients1
PUBLIC	?g_XMCosCoefficients2@@3UXMVECTORF32@@B		; g_XMCosCoefficients2
PUBLIC	?g_XMTanCoefficients0@@3UXMVECTORF32@@B		; g_XMTanCoefficients0
PUBLIC	?g_XMTanCoefficients1@@3UXMVECTORF32@@B		; g_XMTanCoefficients1
PUBLIC	?g_XMTanCoefficients2@@3UXMVECTORF32@@B		; g_XMTanCoefficients2
PUBLIC	?g_XMASinCoefficients0@@3UXMVECTORF32@@B	; g_XMASinCoefficients0
PUBLIC	?g_XMASinCoefficients1@@3UXMVECTORF32@@B	; g_XMASinCoefficients1
PUBLIC	?g_XMASinCoefficients2@@3UXMVECTORF32@@B	; g_XMASinCoefficients2
PUBLIC	?g_XMATanCoefficients0@@3UXMVECTORF32@@B	; g_XMATanCoefficients0
PUBLIC	?g_XMATanCoefficients1@@3UXMVECTORF32@@B	; g_XMATanCoefficients1
PUBLIC	?g_XMATanCoefficients2@@3UXMVECTORF32@@B	; g_XMATanCoefficients2
PUBLIC	?g_XMSinEstCoefficients@@3UXMVECTORF32@@B	; g_XMSinEstCoefficients
PUBLIC	?g_XMCosEstCoefficients@@3UXMVECTORF32@@B	; g_XMCosEstCoefficients
PUBLIC	?g_XMTanEstCoefficients@@3UXMVECTORF32@@B	; g_XMTanEstCoefficients
PUBLIC	?g_XMATanEstCoefficients@@3UXMVECTORF32@@B	; g_XMATanEstCoefficients
PUBLIC	?g_XMASinEstCoefficients@@3UXMVECTORF32@@B	; g_XMASinEstCoefficients
PUBLIC	?g_XMASinEstConstants@@3UXMVECTORF32@@B		; g_XMASinEstConstants
PUBLIC	?g_XMPiConstants0@@3UXMVECTORF32@@B		; g_XMPiConstants0
PUBLIC	?g_XMIdentityR0@@3UXMVECTORF32@@B		; g_XMIdentityR0
PUBLIC	?g_XMIdentityR1@@3UXMVECTORF32@@B		; g_XMIdentityR1
PUBLIC	?g_XMIdentityR2@@3UXMVECTORF32@@B		; g_XMIdentityR2
PUBLIC	?g_XMIdentityR3@@3UXMVECTORF32@@B		; g_XMIdentityR3
PUBLIC	?g_XMNegIdentityR0@@3UXMVECTORF32@@B		; g_XMNegIdentityR0
PUBLIC	?g_XMNegIdentityR1@@3UXMVECTORF32@@B		; g_XMNegIdentityR1
PUBLIC	?g_XMNegIdentityR2@@3UXMVECTORF32@@B		; g_XMNegIdentityR2
PUBLIC	?g_XMNegIdentityR3@@3UXMVECTORF32@@B		; g_XMNegIdentityR3
PUBLIC	?g_XMNegativeZero@@3UXMVECTORI32@@B		; g_XMNegativeZero
PUBLIC	?g_XMNegate3@@3UXMVECTORI32@@B			; g_XMNegate3
PUBLIC	?g_XMMask3@@3UXMVECTORI32@@B			; g_XMMask3
PUBLIC	?g_XMMaskX@@3UXMVECTORI32@@B			; g_XMMaskX
PUBLIC	?g_XMMaskY@@3UXMVECTORI32@@B			; g_XMMaskY
PUBLIC	?g_XMMaskZ@@3UXMVECTORI32@@B			; g_XMMaskZ
PUBLIC	?g_XMMaskW@@3UXMVECTORI32@@B			; g_XMMaskW
PUBLIC	?g_XMOne@@3UXMVECTORF32@@B			; g_XMOne
PUBLIC	?g_XMOne3@@3UXMVECTORF32@@B			; g_XMOne3
PUBLIC	?g_XMZero@@3UXMVECTORF32@@B			; g_XMZero
PUBLIC	?g_XMNegativeOne@@3UXMVECTORF32@@B		; g_XMNegativeOne
PUBLIC	?g_XMOneHalf@@3UXMVECTORF32@@B			; g_XMOneHalf
PUBLIC	?g_XMNegativeOneHalf@@3UXMVECTORF32@@B		; g_XMNegativeOneHalf
PUBLIC	?g_XMNegativeTwoPi@@3UXMVECTORF32@@B		; g_XMNegativeTwoPi
PUBLIC	?g_XMNegativePi@@3UXMVECTORF32@@B		; g_XMNegativePi
PUBLIC	?g_XMHalfPi@@3UXMVECTORF32@@B			; g_XMHalfPi
PUBLIC	?g_XMPi@@3UXMVECTORF32@@B			; g_XMPi
PUBLIC	?g_XMReciprocalPi@@3UXMVECTORF32@@B		; g_XMReciprocalPi
PUBLIC	?g_XMTwoPi@@3UXMVECTORF32@@B			; g_XMTwoPi
PUBLIC	?g_XMReciprocalTwoPi@@3UXMVECTORF32@@B		; g_XMReciprocalTwoPi
PUBLIC	?g_XMEpsilon@@3UXMVECTORF32@@B			; g_XMEpsilon
PUBLIC	?g_XMInfinity@@3UXMVECTORI32@@B			; g_XMInfinity
PUBLIC	?g_XMQNaN@@3UXMVECTORI32@@B			; g_XMQNaN
PUBLIC	?g_XMQNaNTest@@3UXMVECTORI32@@B			; g_XMQNaNTest
PUBLIC	?g_XMAbsMask@@3UXMVECTORI32@@B			; g_XMAbsMask
PUBLIC	?g_XMFltMin@@3UXMVECTORI32@@B			; g_XMFltMin
PUBLIC	?g_XMFltMax@@3UXMVECTORI32@@B			; g_XMFltMax
PUBLIC	?g_XMNegOneMask@@3UXMVECTORI32@@B		; g_XMNegOneMask
PUBLIC	?g_XMMaskA8R8G8B8@@3UXMVECTORI32@@B		; g_XMMaskA8R8G8B8
PUBLIC	?g_XMFlipA8R8G8B8@@3UXMVECTORI32@@B		; g_XMFlipA8R8G8B8
PUBLIC	?g_XMFixAA8R8G8B8@@3UXMVECTORF32@@B		; g_XMFixAA8R8G8B8
PUBLIC	?g_XMNormalizeA8R8G8B8@@3UXMVECTORF32@@B	; g_XMNormalizeA8R8G8B8
PUBLIC	?g_XMMaskA2B10G10R10@@3UXMVECTORI32@@B		; g_XMMaskA2B10G10R10
PUBLIC	?g_XMFlipA2B10G10R10@@3UXMVECTORI32@@B		; g_XMFlipA2B10G10R10
PUBLIC	?g_XMFixAA2B10G10R10@@3UXMVECTORF32@@B		; g_XMFixAA2B10G10R10
PUBLIC	?g_XMNormalizeA2B10G10R10@@3UXMVECTORF32@@B	; g_XMNormalizeA2B10G10R10
PUBLIC	?g_XMMaskX16Y16@@3UXMVECTORI32@@B		; g_XMMaskX16Y16
PUBLIC	?g_XMFlipX16Y16@@3UXMVECTORI32@@B		; g_XMFlipX16Y16
PUBLIC	?g_XMFixX16Y16@@3UXMVECTORF32@@B		; g_XMFixX16Y16
PUBLIC	?g_XMNormalizeX16Y16@@3UXMVECTORF32@@B		; g_XMNormalizeX16Y16
PUBLIC	?g_XMMaskX16Y16Z16W16@@3UXMVECTORI32@@B		; g_XMMaskX16Y16Z16W16
PUBLIC	?g_XMFlipX16Y16Z16W16@@3UXMVECTORI32@@B		; g_XMFlipX16Y16Z16W16
PUBLIC	?g_XMFixX16Y16Z16W16@@3UXMVECTORF32@@B		; g_XMFixX16Y16Z16W16
PUBLIC	?g_XMNormalizeX16Y16Z16W16@@3UXMVECTORF32@@B	; g_XMNormalizeX16Y16Z16W16
PUBLIC	?g_XMNoFraction@@3UXMVECTORF32@@B		; g_XMNoFraction
PUBLIC	?g_XMMaskByte@@3UXMVECTORI32@@B			; g_XMMaskByte
PUBLIC	?g_XMNegateX@@3UXMVECTORF32@@B			; g_XMNegateX
PUBLIC	?g_XMNegateY@@3UXMVECTORF32@@B			; g_XMNegateY
PUBLIC	?g_XMNegateZ@@3UXMVECTORF32@@B			; g_XMNegateZ
PUBLIC	?g_XMNegateW@@3UXMVECTORF32@@B			; g_XMNegateW
PUBLIC	?g_XMSelect0101@@3UXMVECTORI32@@B		; g_XMSelect0101
PUBLIC	?g_XMSelect1010@@3UXMVECTORI32@@B		; g_XMSelect1010
PUBLIC	?g_XMOneHalfMinusEpsilon@@3UXMVECTORI32@@B	; g_XMOneHalfMinusEpsilon
PUBLIC	?g_XMSelect1000@@3UXMVECTORI32@@B		; g_XMSelect1000
PUBLIC	?g_XMSelect1100@@3UXMVECTORI32@@B		; g_XMSelect1100
PUBLIC	?g_XMSelect1110@@3UXMVECTORI32@@B		; g_XMSelect1110
PUBLIC	?g_XMSwizzleXYXY@@3UXMVECTORI32@@B		; g_XMSwizzleXYXY
PUBLIC	?g_XMSwizzleXYZX@@3UXMVECTORI32@@B		; g_XMSwizzleXYZX
PUBLIC	?g_XMSwizzleYXZW@@3UXMVECTORI32@@B		; g_XMSwizzleYXZW
PUBLIC	?g_XMSwizzleYZXW@@3UXMVECTORI32@@B		; g_XMSwizzleYZXW
PUBLIC	?g_XMSwizzleZXYW@@3UXMVECTORI32@@B		; g_XMSwizzleZXYW
PUBLIC	?g_XMPermute0X0Y1X1Y@@3UXMVECTORI32@@B		; g_XMPermute0X0Y1X1Y
PUBLIC	?g_XMPermute0Z0W1Z1W@@3UXMVECTORI32@@B		; g_XMPermute0Z0W1Z1W
PUBLIC	?g_XMFixupY16@@3UXMVECTORF32@@B			; g_XMFixupY16
PUBLIC	?g_XMFixupY16W16@@3UXMVECTORF32@@B		; g_XMFixupY16W16
PUBLIC	?g_XMFlipY@@3UXMVECTORI32@@B			; g_XMFlipY
PUBLIC	?g_XMFlipZ@@3UXMVECTORI32@@B			; g_XMFlipZ
PUBLIC	?g_XMFlipW@@3UXMVECTORI32@@B			; g_XMFlipW
PUBLIC	?g_XMFlipYZ@@3UXMVECTORI32@@B			; g_XMFlipYZ
PUBLIC	?g_XMFlipZW@@3UXMVECTORI32@@B			; g_XMFlipZW
PUBLIC	?g_XMFlipYW@@3UXMVECTORI32@@B			; g_XMFlipYW
PUBLIC	?g_XMMaskHenD3@@3UXMVECTORI32@@B		; g_XMMaskHenD3
PUBLIC	?g_XMMaskDHen3@@3UXMVECTORI32@@B		; g_XMMaskDHen3
PUBLIC	?g_XMAddUHenD3@@3UXMVECTORF32@@B		; g_XMAddUHenD3
PUBLIC	?g_XMAddHenD3@@3UXMVECTORF32@@B			; g_XMAddHenD3
PUBLIC	?g_XMAddDHen3@@3UXMVECTORF32@@B			; g_XMAddDHen3
PUBLIC	?g_XMMulHenD3@@3UXMVECTORF32@@B			; g_XMMulHenD3
PUBLIC	?g_XMMulDHen3@@3UXMVECTORF32@@B			; g_XMMulDHen3
PUBLIC	?g_XMXorHenD3@@3UXMVECTORI32@@B			; g_XMXorHenD3
PUBLIC	?g_XMXorDHen3@@3UXMVECTORI32@@B			; g_XMXorDHen3
PUBLIC	?g_XMMaskIco4@@3UXMVECTORI32@@B			; g_XMMaskIco4
PUBLIC	?g_XMXorXIco4@@3UXMVECTORI32@@B			; g_XMXorXIco4
PUBLIC	?g_XMXorIco4@@3UXMVECTORI32@@B			; g_XMXorIco4
PUBLIC	?g_XMAddXIco4@@3UXMVECTORF32@@B			; g_XMAddXIco4
PUBLIC	?g_XMAddUIco4@@3UXMVECTORF32@@B			; g_XMAddUIco4
PUBLIC	?g_XMAddIco4@@3UXMVECTORF32@@B			; g_XMAddIco4
PUBLIC	?g_XMMulIco4@@3UXMVECTORF32@@B			; g_XMMulIco4
PUBLIC	?g_XMMaskDec4@@3UXMVECTORI32@@B			; g_XMMaskDec4
PUBLIC	?g_XMXorDec4@@3UXMVECTORI32@@B			; g_XMXorDec4
PUBLIC	?g_XMAddUDec4@@3UXMVECTORF32@@B			; g_XMAddUDec4
PUBLIC	?g_XMAddDec4@@3UXMVECTORF32@@B			; g_XMAddDec4
PUBLIC	?g_XMMulDec4@@3UXMVECTORF32@@B			; g_XMMulDec4
PUBLIC	?g_XMMaskByte4@@3UXMVECTORI32@@B		; g_XMMaskByte4
PUBLIC	?g_XMXorByte4@@3UXMVECTORI32@@B			; g_XMXorByte4
PUBLIC	?g_XMAddByte4@@3UXMVECTORF32@@B			; g_XMAddByte4
PUBLIC	?g_XMFixUnsigned@@3UXMVECTORF32@@B		; g_XMFixUnsigned
PUBLIC	?g_XMMaxInt@@3UXMVECTORF32@@B			; g_XMMaxInt
PUBLIC	?g_XMMaxUInt@@3UXMVECTORF32@@B			; g_XMMaxUInt
PUBLIC	?g_XMUnsignedFix@@3UXMVECTORF32@@B		; g_XMUnsignedFix
	.rdata
HvPeekPokeExp DB 048H
	DB	058H
	DB	050H
	DB	052H
	DB	00H
	DB	00H
	DB	00H
	DB	00H
	DB	00H
	DB	00H
	DB	010H
	DB	00H
	DB	034H
	DB	01fH
	DB	0d6H
	DB	0daH
	DB	02fH
	DB	0caH
	DB	0a8H
	DB	017H
	DB	0f0H
	DB	030H
	DB	0ccH
	DB	044H
	DB	0aH
	DB	041H
	DB	0faH
	DB	07cH
	DB	0a0H
	DB	0c1H
	DB	0fdH
	DB	033H
	DB	00H
	DB	00H
	DB	00H
	DB	00H
	DB	00H
	DB	00H
	DB	00H
	DB	00H
	DB	00H
	DB	00H
	DB	00H
	DB	00H
	DB	00H
	DB	00H
	DB	00H
	DB	00H
	DB	07aH
	DB	02H
	DB	059H
	DB	043H
	DB	09eH
	DB	0e6H
	DB	093H
	DB	0d5H
	DB	01H
	DB	0c9H
	DB	048H
	DB	04dH
	DB	0b2H
	DB	0bfH
	DB	09dH
	DB	018H
	DB	0a9H
	DB	016H
	DB	05eH
	DB	0ffH
	DB	01eH
	DB	0d5H
	DB	0b6H
	DB	0a8H
	DB	079H
	DB	060H
	DB	0a8H
	DB	02fH
	DB	0c1H
	DB	08dH
	DB	020H
	DB	08aH
	DB	0ebH
	DB	046H
	DB	0c3H
	DB	01H
	DB	0ecH
	DB	0c4H
	DB	0dbH
	DB	0dfH
	DB	0a1H
	DB	04H
	DB	0d1H
	DB	0dfH
	DB	023H
	DB	069H
	DB	05eH
	DB	0ccH
	DB	050H
	DB	0c3H
	DB	0f4H
	DB	0ddH
	DB	0a4H
	DB	080H
	DB	07dH
	DB	05H
	DB	02dH
	DB	057H
	DB	0ffH
	DB	060H
	DB	0a5H
	DB	058H
	DB	069H
	DB	027H
	DB	09aH
	DB	033H
	DB	070H
	DB	0e8H
	DB	0c2H
	DB	082H
	DB	0dcH
	DB	0daH
	DB	0e2H
	DB	04dH
	DB	0e1H
	DB	0f8H
	DB	0a1H
	DB	0d2H
	DB	0ccH
	DB	08dH
	DB	098H
	DB	05H
	DB	0d1H
	DB	0a3H
	DB	02eH
	DB	037H
	DB	06H
	DB	0fH
	DB	0f7H
	DB	0efH
	DB	070H
	DB	0efH
	DB	028H
	DB	0d7H
	DB	0aeH
	DB	0d5H
	DB	05bH
	DB	019H
	DB	01bH
	DB	013H
	DB	050H
	DB	0dH
	DB	015H
	DB	00H
	DB	092H
	DB	01H
	DB	0eeH
	DB	038H
	DB	0a7H
	DB	061H
	DB	0b1H
	DB	0a1H
	DB	027H
	DB	0bfH
	DB	0b0H
	DB	042H
	DB	0fH
	DB	07H
	DB	0c3H
	DB	08fH
	DB	078H
	DB	0adH
	DB	0afH
	DB	087H
	DB	08fH
	DB	034H
	DB	08aH
	DB	0a6H
	DB	069H
	DB	07dH
	DB	040H
	DB	0b6H
	DB	05cH
	DB	09eH
	DB	01H
	DB	0ecH
	DB	09fH
	DB	05eH
	DB	078H
	DB	030H
	DB	09H
	DB	05aH
	DB	021H
	DB	0ffH
	DB	035H
	DB	08cH
	DB	013H
	DB	0beH
	DB	0bcH
	DB	092H
	DB	067H
	DB	0e3H
	DB	017H
	DB	0bH
	DB	09H
	DB	01cH
	DB	0e2H
	DB	09dH
	DB	0ecH
	DB	0fdH
	DB	0fbH
	DB	06cH
	DB	049H
	DB	03aH
	DB	0ccH
	DB	0e7H
	DB	099H
	DB	0b6H
	DB	0b3H
	DB	08aH
	DB	08fH
	DB	0efH
	DB	0f7H
	DB	0a0H
	DB	028H
	DB	04fH
	DB	072H
	DB	0c7H
	DB	03dH
	DB	0d7H
	DB	0ccH
	DB	0ebH
	DB	0b2H
	DB	01bH
	DB	074H
	DB	093H
	DB	0d7H
	DB	02H
	DB	05H
	DB	0d5H
	DB	0e1H
	DB	025H
	DB	035H
	DB	0d7H
	DB	0e0H
	DB	050H
	DB	0eaH
	DB	0cfH
	DB	082H
	DB	069H
	DB	0e3H
	DB	03bH
	DB	06fH
	DB	0faH
	DB	013H
	DB	0f0H
	DB	05bH
	DB	0d9H
	DB	01aH
	DB	0b0H
	DB	0d3H
	DB	0bH
	DB	085H
	DB	04dH
	DB	06aH
	DB	0fcH
	DB	031H
	DB	045H
	DB	0c3H
	DB	0a3H
	DB	0faH
	DB	07eH
	DB	0daH
	DB	093H
	DB	084H
	DB	0d4H
	DB	0e7H
	DB	0faH
	DB	0abH
	DB	07cH
	DB	022H
	DB	096H
	DB	054H
	DB	069H
	DB	07fH
	DB	0c9H
	DB	0f8H
	DB	0c4H
	DB	05aH
	DB	0c2H
	DB	082H
	DB	099H
	DB	034H
	DB	046H
	DB	081H
	DB	06fH
	DB	06H
	DB	033H
	DB	019H
	DB	094H
	DB	074H
	DB	0a4H
	DB	076H
	DB	02H
	DB	04fH
	DB	0b9H
	DB	048H
	DB	056H
	DB	050H
	DB	050H
	DB	00H
	DB	00H
	DB	00H
	DB	00H
	DB	00H
	DB	00H
	DB	00H
	DB	00H
	DB	00H
	DB	00H
	DB	00H
	DB	00H
	DB	00H
	DB	00H
	DB	00H
	DB	00H
	DB	00H
	DB	00H
	DB	00H
	DB	00H
	DB	00H
	DB	00H
	DB	00H
	DB	00H
	DB	00H
	DB	00H
	DB	00H
	DB	00H
	DB	00H
	DB	00H
	DB	00H
	DB	00H
	DB	00H
	DB	00H
	DB	00H
	DB	00H
	DB	00H
	DB	00H
	DB	01H
	DB	060H
	DB	00H
	DB	00H
	DB	01H
	DB	090H
	DB	00H
	DB	00H
	DB	00H
	DB	010H
	DB	00H
	DB	00H
	DB	00H
	DB	010H
	DB	00H
	DB	00H
	DB	01H
	DB	080H
	DB	00H
	DB	00H
	DB	00H
	DB	00H
	DB	07dH
	DB	088H
	DB	02H
	DB	0a6H
	DB	0fbH
	DB	0e1H
	DB	0ffH
	DB	0f0H
	DB	0f9H
	DB	081H
	DB	0ffH
	DB	0f8H
	DB	094H
	DB	021H
	DB	0ffH
	DB	00H
	DB	07cH
	DB	09fH
	DB	023H
	DB	078H
	DB	02cH
	DB	01fH
	DB	00H
	DB	00H
	DB	041H
	DB	082H
	DB	00H
	DB	0c0H
	DB	02cH
	DB	01fH
	DB	00H
	DB	01H
	DB	041H
	DB	082H
	DB	00H
	DB	0c0H
	DB	02cH
	DB	01fH
	DB	00H
	DB	02H
	DB	041H
	DB	082H
	DB	00H
	DB	0c0H
	DB	02cH
	DB	01fH
	DB	00H
	DB	03H
	DB	041H
	DB	082H
	DB	00H
	DB	0c0H
	DB	02cH
	DB	01fH
	DB	00H
	DB	0aH
	DB	041H
	DB	082H
	DB	00H
	DB	064H
	DB	02cH
	DB	01fH
	DB	00H
	DB	05H
	DB	041H
	DB	082H
	DB	00H
	DB	0d4H
	DB	02cH
	DB	01fH
	DB	00H
	DB	06H
	DB	041H
	DB	082H
	DB	00H
	DB	0d4H
	DB	02cH
	DB	01fH
	DB	00H
	DB	07H
	DB	041H
	DB	082H
	DB	00H
	DB	0d4H
	DB	02cH
	DB	01fH
	DB	00H
	DB	08H
	DB	041H
	DB	082H
	DB	00H
	DB	0d4H
	DB	02cH
	DB	01fH
	DB	00H
	DB	0bH
	DB	040H
	DB	080H
	DB	00H
	DB	00H
	DB	080H
	DB	060H
	DB	00H
	DB	04cH
	DB	07cH
	DB	062H
	DB	01aH
	DB	014H
	DB	080H
	DB	063H
	DB	00H
	DB	08H
	DB	07cH
	DB	069H
	DB	03H
	DB	0a6H
	DB	07cH
	DB	0c3H
	DB	033H
	DB	078H
	DB	038H
	DB	080H
	DB	00H
	DB	01H
	DB	04eH
	DB	080H
	DB	04H
	DB	021H
	DB	07cH
	DB	066H
	DB	01bH
	DB	078H
	DB	07cH
	DB	0e9H
	DB	03H
	DB	0a6H
	DB	02cH
	DB	01fH
	DB	00H
	DB	04H
	DB	041H
	DB	082H
	DB	00H
	DB	06cH
	DB	02cH
	DB	01fH
	DB	00H
	DB	09H
	DB	041H
	DB	082H
	DB	00H
	DB	0a0H
	DB	048H
	DB	00H
	DB	00H
	DB	00H
	DB	048H
	DB	00H
	DB	00H
	DB	05H
	DB	07cH
	DB	0a6H
	DB	02bH
	DB	078H
	DB	03cH
	DB	080H
	DB	07cH
	DB	060H
	DB	050H
	DB	0a6H
	DB	054H
	DB	06aH
	DB	060H
	DB	084H
	DB	02H
	DB	0a6H
	DB	050H
	DB	0c4H
	DB	032H
	DB	0e8H
	DB	07cH
	DB	068H
	DB	02H
	DB	0a6H
	DB	038H
	DB	063H
	DB	00H
	DB	030H
	DB	090H
	DB	083H
	DB	00H
	DB	00H
	DB	07cH
	DB	00H
	DB	018H
	DB	06cH
	DB	07cH
	DB	00H
	DB	01fH
	DB	0acH
	DB	07cH
	DB	00H
	DB	04H
	DB	0acH
	DB	04cH
	DB	00H
	DB	01H
	DB	02cH
	DB	07cH
	DB	079H
	DB	04aH
	DB	0a6H
	DB	048H
	DB	00H
	DB	00H
	DB	098H
	DB	088H
	DB	065H
	DB	00H
	DB	00H
	DB	048H
	DB	00H
	DB	00H
	DB	090H
	DB	0a0H
	DB	065H
	DB	00H
	DB	00H
	DB	048H
	DB	00H
	DB	00H
	DB	088H
	DB	080H
	DB	065H
	DB	00H
	DB	00H
	DB	048H
	DB	00H
	DB	00H
	DB	080H
	DB	0e8H
	DB	065H
	DB	00H
	DB	00H
	DB	048H
	DB	00H
	DB	00H
	DB	078H
	DB	08bH
	DB	0e5H
	DB	00H
	DB	00H
	DB	09bH
	DB	0e6H
	DB	00H
	DB	00H
	DB	038H
	DB	0a5H
	DB	00H
	DB	01H
	DB	038H
	DB	0c6H
	DB	00H
	DB	01H
	DB	042H
	DB	00H
	DB	0ffH
	DB	0f0H
	DB	038H
	DB	060H
	DB	00H
	DB	00H
	DB	048H
	DB	00H
	DB	00H
	DB	05cH
	DB	098H
	DB	0c5H
	DB	00H
	DB	00H
	DB	048H
	DB	00H
	DB	00H
	DB	040H
	DB	0b0H
	DB	0c5H
	DB	00H
	DB	00H
	DB	048H
	DB	00H
	DB	00H
	DB	038H
	DB	090H
	DB	0c5H
	DB	00H
	DB	00H
	DB	048H
	DB	00H
	DB	00H
	DB	030H
	DB	0f8H
	DB	0c5H
	DB	00H
	DB	00H
	DB	048H
	DB	00H
	DB	00H
	DB	028H
	DB	08bH
	DB	0e6H
	DB	00H
	DB	00H
	DB	09bH
	DB	0e5H
	DB	00H
	DB	00H
	DB	07cH
	DB	00H
	DB	028H
	DB	06cH
	DB	07cH
	DB	00H
	DB	02fH
	DB	0acH
	DB	07cH
	DB	00H
	DB	04H
	DB	0acH
	DB	04cH
	DB	00H
	DB	01H
	DB	02cH
	DB	038H
	DB	0a5H
	DB	00H
	DB	01H
	DB	038H
	DB	0c6H
	DB	00H
	DB	01H
	DB	042H
	DB	00H
	DB	0ffH
	DB	0e0H
	DB	038H
	DB	060H
	DB	00H
	DB	00H
	DB	07cH
	DB	00H
	DB	028H
	DB	06cH
	DB	07cH
	DB	00H
	DB	02fH
	DB	0acH
	DB	07cH
	DB	00H
	DB	04H
	DB	0acH
	DB	04cH
	DB	00H
	DB	01H
	DB	02cH
	DB	038H
	DB	021H
	DB	01H
	DB	00H
	DB	0ebH
	DB	0e1H
	DB	0ffH
	DB	0f0H
	DB	0e9H
	DB	081H
	DB	0ffH
	DB	0f8H
	DB	07dH
	DB	088H
	DB	03H
	DB	0a6H
	DB	04eH
	DB	080H
	DB	00H
	DB	020H
;	COMDAT ?g_XMUnsignedFix@@3UXMVECTORF32@@B
.rdata	SEGMENT
?g_XMUnsignedFix@@3UXMVECTORF32@@B DD 04f000000r ; 2.14748e+009 ; g_XMUnsignedFix
	DD	04f000000r			; 2.14748e+009
	DD	04f000000r			; 2.14748e+009
	DD	04f000000r			; 2.14748e+009
;	COMDAT ?g_XMMaxUInt@@3UXMVECTORF32@@B
.rdata	SEGMENT
?g_XMMaxUInt@@3UXMVECTORF32@@B DD 04f7fffffr	; 4.29497e+009 ; g_XMMaxUInt
	DD	04f7fffffr			; 4.29497e+009
	DD	04f7fffffr			; 4.29497e+009
	DD	04f7fffffr			; 4.29497e+009
;	COMDAT ?g_XMMaxInt@@3UXMVECTORF32@@B
.rdata	SEGMENT
?g_XMMaxInt@@3UXMVECTORF32@@B DD 04effffffr	; 2.14748e+009 ; g_XMMaxInt
	DD	04effffffr			; 2.14748e+009
	DD	04effffffr			; 2.14748e+009
	DD	04effffffr			; 2.14748e+009
;	COMDAT ?g_XMFixUnsigned@@3UXMVECTORF32@@B
.rdata	SEGMENT
?g_XMFixUnsigned@@3UXMVECTORF32@@B DD 04f000000r ; 2.14748e+009 ; g_XMFixUnsigned
	DD	04f000000r			; 2.14748e+009
	DD	04f000000r			; 2.14748e+009
	DD	04f000000r			; 2.14748e+009
;	COMDAT ?g_XMAddByte4@@3UXMVECTORF32@@B
.rdata	SEGMENT
?g_XMAddByte4@@3UXMVECTORF32@@B DD 0c3000000r	; -128	; g_XMAddByte4
	DD	0c7000000r			; -32768
	DD	0cb000000r			; -8.38861e+006
	DD	000000000r			; 0
;	COMDAT ?g_XMXorByte4@@3UXMVECTORI32@@B
.rdata	SEGMENT
?g_XMXorByte4@@3UXMVECTORI32@@B DD 080H			; g_XMXorByte4
	DD	08000H
	DD	0800000H
	DD	00H
;	COMDAT ?g_XMMaskByte4@@3UXMVECTORI32@@B
.rdata	SEGMENT
?g_XMMaskByte4@@3UXMVECTORI32@@B DD 0ffH		; g_XMMaskByte4
	DD	0ff00H
	DD	0ff0000H
	DD	0ff000000H
;	COMDAT ?g_XMMulDec4@@3UXMVECTORF32@@B
.rdata	SEGMENT
?g_XMMulDec4@@3UXMVECTORF32@@B DD 03f800000r	; 1	; g_XMMulDec4
	DD	03a800000r			; 0.000976563
	DD	035800000r			; 9.53674e-007
	DD	030800000r			; 9.31323e-010
;	COMDAT ?g_XMAddDec4@@3UXMVECTORF32@@B
.rdata	SEGMENT
?g_XMAddDec4@@3UXMVECTORF32@@B DD 0c4000000r	; -512	; g_XMAddDec4
	DD	0c9000000r			; -524288
	DD	0ce000000r			; -5.36871e+008
	DD	000000000r			; 0
;	COMDAT ?g_XMAddUDec4@@3UXMVECTORF32@@B
.rdata	SEGMENT
?g_XMAddUDec4@@3UXMVECTORF32@@B DD 000000000r	; 0	; g_XMAddUDec4
	DD	000000000r			; 0
	DD	000000000r			; 0
	DD	04f000000r			; 2.14748e+009
;	COMDAT ?g_XMXorDec4@@3UXMVECTORI32@@B
.rdata	SEGMENT
?g_XMXorDec4@@3UXMVECTORI32@@B DD 0200H			; g_XMXorDec4
	DD	080000H
	DD	020000000H
	DD	00H
;	COMDAT ?g_XMMaskDec4@@3UXMVECTORI32@@B
.rdata	SEGMENT
?g_XMMaskDec4@@3UXMVECTORI32@@B DD 03ffH		; g_XMMaskDec4
	DD	0ffc00H
	DD	03ff00000H
	DD	0c0000000H
;	COMDAT ?g_XMMulIco4@@3UXMVECTORF32@@B
.rdata	SEGMENT
?g_XMMulIco4@@3UXMVECTORF32@@B DD 03f800000r	; 1	; g_XMMulIco4
	DD	039800000r			; 0.000244141
	DD	03f800000r			; 1
	DD	031800000r			; 3.72529e-009
;	COMDAT ?g_XMAddIco4@@3UXMVECTORF32@@B
.rdata	SEGMENT
?g_XMAddIco4@@3UXMVECTORF32@@B DD 0c9000000r	; -524288 ; g_XMAddIco4
	DD	000000000r			; 0
	DD	0c9000000r			; -524288
	DD	000000000r			; 0
;	COMDAT ?g_XMAddUIco4@@3UXMVECTORF32@@B
.rdata	SEGMENT
?g_XMAddUIco4@@3UXMVECTORF32@@B DD 000000000r	; 0	; g_XMAddUIco4
	DD	04f000000r			; 2.14748e+009
	DD	000000000r			; 0
	DD	04f000000r			; 2.14748e+009
;	COMDAT ?g_XMAddXIco4@@3UXMVECTORF32@@B
.rdata	SEGMENT
?g_XMAddXIco4@@3UXMVECTORF32@@B DD 0c9000000r	; -524288 ; g_XMAddXIco4
	DD	000000000r			; 0
	DD	0c9000000r			; -524288
	DD	04f000000r			; 2.14748e+009
;	COMDAT ?g_XMXorIco4@@3UXMVECTORI32@@B
.rdata	SEGMENT
?g_XMXorIco4@@3UXMVECTORI32@@B DD 080000H		; g_XMXorIco4
	DD	00H
	DD	080000H
	DD	00H
;	COMDAT ?g_XMXorXIco4@@3UXMVECTORI32@@B
.rdata	SEGMENT
?g_XMXorXIco4@@3UXMVECTORI32@@B DD 080000H		; g_XMXorXIco4
	DD	00H
	DD	080000H
	DD	080000000H
;	COMDAT ?g_XMMaskIco4@@3UXMVECTORI32@@B
.rdata	SEGMENT
?g_XMMaskIco4@@3UXMVECTORI32@@B DD 0fffffH		; g_XMMaskIco4
	DD	0fffff000H
	DD	0fffffH
	DD	0f0000000H
;	COMDAT ?g_XMXorDHen3@@3UXMVECTORI32@@B
.rdata	SEGMENT
?g_XMXorDHen3@@3UXMVECTORI32@@B DD 0200H		; g_XMXorDHen3
	DD	0100000H
	DD	00H
	DD	00H
;	COMDAT ?g_XMXorHenD3@@3UXMVECTORI32@@B
.rdata	SEGMENT
?g_XMXorHenD3@@3UXMVECTORI32@@B DD 0400H		; g_XMXorHenD3
	DD	0200000H
	DD	00H
	DD	00H
;	COMDAT ?g_XMMulDHen3@@3UXMVECTORF32@@B
.rdata	SEGMENT
?g_XMMulDHen3@@3UXMVECTORF32@@B DD 03f800000r	; 1	; g_XMMulDHen3
	DD	03a800000r			; 0.000976563
	DD	035000000r			; 4.76837e-007
	DD	000000000r			; 0
;	COMDAT ?g_XMMulHenD3@@3UXMVECTORF32@@B
.rdata	SEGMENT
?g_XMMulHenD3@@3UXMVECTORF32@@B DD 03f800000r	; 1	; g_XMMulHenD3
	DD	03a000000r			; 0.000488281
	DD	034800000r			; 2.38419e-007
	DD	000000000r			; 0
;	COMDAT ?g_XMAddDHen3@@3UXMVECTORF32@@B
.rdata	SEGMENT
?g_XMAddDHen3@@3UXMVECTORF32@@B DD 0c4000000r	; -512	; g_XMAddDHen3
	DD	0c9800000r			; -1.04858e+006
	DD	000000000r			; 0
	DD	000000000r			; 0
;	COMDAT ?g_XMAddHenD3@@3UXMVECTORF32@@B
.rdata	SEGMENT
?g_XMAddHenD3@@3UXMVECTORF32@@B DD 0c4800000r	; -1024	; g_XMAddHenD3
	DD	0ca000000r			; -2.09715e+006
	DD	000000000r			; 0
	DD	000000000r			; 0
;	COMDAT ?g_XMAddUHenD3@@3UXMVECTORF32@@B
.rdata	SEGMENT
?g_XMAddUHenD3@@3UXMVECTORF32@@B DD 000000000r	; 0	; g_XMAddUHenD3
	DD	000000000r			; 0
	DD	04f000000r			; 2.14748e+009
	DD	000000000r			; 0
;	COMDAT ?g_XMMaskDHen3@@3UXMVECTORI32@@B
.rdata	SEGMENT
?g_XMMaskDHen3@@3UXMVECTORI32@@B DD 03ffH		; g_XMMaskDHen3
	DD	01ffc00H
	DD	0ffe00000H
	DD	00H
;	COMDAT ?g_XMMaskHenD3@@3UXMVECTORI32@@B
.rdata	SEGMENT
?g_XMMaskHenD3@@3UXMVECTORI32@@B DD 07ffH		; g_XMMaskHenD3
	DD	03ff800H
	DD	0ffc00000H
	DD	00H
;	COMDAT ?g_XMFlipYW@@3UXMVECTORI32@@B
.rdata	SEGMENT
?g_XMFlipYW@@3UXMVECTORI32@@B DD 00H			; g_XMFlipYW
	DD	080000000H
	DD	00H
	DD	080000000H
;	COMDAT ?g_XMFlipZW@@3UXMVECTORI32@@B
.rdata	SEGMENT
?g_XMFlipZW@@3UXMVECTORI32@@B DD 00H			; g_XMFlipZW
	DD	00H
	DD	080000000H
	DD	080000000H
;	COMDAT ?g_XMFlipYZ@@3UXMVECTORI32@@B
.rdata	SEGMENT
?g_XMFlipYZ@@3UXMVECTORI32@@B DD 00H			; g_XMFlipYZ
	DD	080000000H
	DD	080000000H
	DD	00H
;	COMDAT ?g_XMFlipW@@3UXMVECTORI32@@B
.rdata	SEGMENT
?g_XMFlipW@@3UXMVECTORI32@@B DD 00H			; g_XMFlipW
	DD	00H
	DD	00H
	DD	080000000H
;	COMDAT ?g_XMFlipZ@@3UXMVECTORI32@@B
.rdata	SEGMENT
?g_XMFlipZ@@3UXMVECTORI32@@B DD 00H			; g_XMFlipZ
	DD	00H
	DD	080000000H
	DD	00H
;	COMDAT ?g_XMFlipY@@3UXMVECTORI32@@B
.rdata	SEGMENT
?g_XMFlipY@@3UXMVECTORI32@@B DD 00H			; g_XMFlipY
	DD	080000000H
	DD	00H
	DD	00H
;	COMDAT ?g_XMFixupY16W16@@3UXMVECTORF32@@B
.rdata	SEGMENT
?g_XMFixupY16W16@@3UXMVECTORF32@@B DD 03f800000r ; 1	; g_XMFixupY16W16
	DD	03f800000r			; 1
	DD	037800000r			; 1.52588e-005
	DD	037800000r			; 1.52588e-005
;	COMDAT ?g_XMFixupY16@@3UXMVECTORF32@@B
.rdata	SEGMENT
?g_XMFixupY16@@3UXMVECTORF32@@B DD 03f800000r	; 1	; g_XMFixupY16
	DD	037800000r			; 1.52588e-005
	DD	000000000r			; 0
	DD	000000000r			; 0
;	COMDAT ?g_XMPermute0Z0W1Z1W@@3UXMVECTORI32@@B
.rdata	SEGMENT
?g_XMPermute0Z0W1Z1W@@3UXMVECTORI32@@B DD 08090a0bH	; g_XMPermute0Z0W1Z1W
	DD	0c0d0e0fH
	DD	018191a1bH
	DD	01c1d1e1fH
;	COMDAT ?g_XMPermute0X0Y1X1Y@@3UXMVECTORI32@@B
.rdata	SEGMENT
?g_XMPermute0X0Y1X1Y@@3UXMVECTORI32@@B DD 010203H	; g_XMPermute0X0Y1X1Y
	DD	04050607H
	DD	010111213H
	DD	014151617H
;	COMDAT ?g_XMSwizzleZXYW@@3UXMVECTORI32@@B
.rdata	SEGMENT
?g_XMSwizzleZXYW@@3UXMVECTORI32@@B DD 08090a0bH		; g_XMSwizzleZXYW
	DD	010203H
	DD	04050607H
	DD	0c0d0e0fH
;	COMDAT ?g_XMSwizzleYZXW@@3UXMVECTORI32@@B
.rdata	SEGMENT
?g_XMSwizzleYZXW@@3UXMVECTORI32@@B DD 04050607H		; g_XMSwizzleYZXW
	DD	08090a0bH
	DD	010203H
	DD	0c0d0e0fH
;	COMDAT ?g_XMSwizzleYXZW@@3UXMVECTORI32@@B
.rdata	SEGMENT
?g_XMSwizzleYXZW@@3UXMVECTORI32@@B DD 04050607H		; g_XMSwizzleYXZW
	DD	010203H
	DD	08090a0bH
	DD	0c0d0e0fH
;	COMDAT ?g_XMSwizzleXYZX@@3UXMVECTORI32@@B
.rdata	SEGMENT
?g_XMSwizzleXYZX@@3UXMVECTORI32@@B DD 010203H		; g_XMSwizzleXYZX
	DD	04050607H
	DD	08090a0bH
	DD	010203H
;	COMDAT ?g_XMSwizzleXYXY@@3UXMVECTORI32@@B
.rdata	SEGMENT
?g_XMSwizzleXYXY@@3UXMVECTORI32@@B DD 010203H		; g_XMSwizzleXYXY
	DD	04050607H
	DD	010203H
	DD	04050607H
;	COMDAT ?g_XMSelect1110@@3UXMVECTORI32@@B
.rdata	SEGMENT
?g_XMSelect1110@@3UXMVECTORI32@@B DD 0ffffffffH		; g_XMSelect1110
	DD	0ffffffffH
	DD	0ffffffffH
	DD	00H
;	COMDAT ?g_XMSelect1100@@3UXMVECTORI32@@B
.rdata	SEGMENT
?g_XMSelect1100@@3UXMVECTORI32@@B DD 0ffffffffH		; g_XMSelect1100
	DD	0ffffffffH
	DD	00H
	DD	00H
;	COMDAT ?g_XMSelect1000@@3UXMVECTORI32@@B
.rdata	SEGMENT
?g_XMSelect1000@@3UXMVECTORI32@@B DD 0ffffffffH		; g_XMSelect1000
	DD	00H
	DD	00H
	DD	00H
;	COMDAT ?g_XMOneHalfMinusEpsilon@@3UXMVECTORI32@@B
.rdata	SEGMENT
?g_XMOneHalfMinusEpsilon@@3UXMVECTORI32@@B DD 03efffffdH ; g_XMOneHalfMinusEpsilon
	DD	03efffffdH
	DD	03efffffdH
	DD	03efffffdH
;	COMDAT ?g_XMSelect1010@@3UXMVECTORI32@@B
.rdata	SEGMENT
?g_XMSelect1010@@3UXMVECTORI32@@B DD 0ffffffffH		; g_XMSelect1010
	DD	00H
	DD	0ffffffffH
	DD	00H
;	COMDAT ?g_XMSelect0101@@3UXMVECTORI32@@B
.rdata	SEGMENT
?g_XMSelect0101@@3UXMVECTORI32@@B DD 00H		; g_XMSelect0101
	DD	0ffffffffH
	DD	00H
	DD	0ffffffffH
;	COMDAT ?g_XMNegateW@@3UXMVECTORF32@@B
.rdata	SEGMENT
?g_XMNegateW@@3UXMVECTORF32@@B DD 03f800000r	; 1	; g_XMNegateW
	DD	03f800000r			; 1
	DD	03f800000r			; 1
	DD	0bf800000r			; -1
;	COMDAT ?g_XMNegateZ@@3UXMVECTORF32@@B
.rdata	SEGMENT
?g_XMNegateZ@@3UXMVECTORF32@@B DD 03f800000r	; 1	; g_XMNegateZ
	DD	03f800000r			; 1
	DD	0bf800000r			; -1
	DD	03f800000r			; 1
;	COMDAT ?g_XMNegateY@@3UXMVECTORF32@@B
.rdata	SEGMENT
?g_XMNegateY@@3UXMVECTORF32@@B DD 03f800000r	; 1	; g_XMNegateY
	DD	0bf800000r			; -1
	DD	03f800000r			; 1
	DD	03f800000r			; 1
;	COMDAT ?g_XMNegateX@@3UXMVECTORF32@@B
.rdata	SEGMENT
?g_XMNegateX@@3UXMVECTORF32@@B DD 0bf800000r	; -1	; g_XMNegateX
	DD	03f800000r			; 1
	DD	03f800000r			; 1
	DD	03f800000r			; 1
;	COMDAT ?g_XMMaskByte@@3UXMVECTORI32@@B
.rdata	SEGMENT
?g_XMMaskByte@@3UXMVECTORI32@@B DD 0ffH			; g_XMMaskByte
	DD	0ffH
	DD	0ffH
	DD	0ffH
;	COMDAT ?g_XMNoFraction@@3UXMVECTORF32@@B
.rdata	SEGMENT
?g_XMNoFraction@@3UXMVECTORF32@@B DD 04b000000r	; 8.38861e+006 ; g_XMNoFraction
	DD	04b000000r			; 8.38861e+006
	DD	04b000000r			; 8.38861e+006
	DD	04b000000r			; 8.38861e+006
;	COMDAT ?g_XMNormalizeX16Y16Z16W16@@3UXMVECTORF32@@B
.rdata	SEGMENT
?g_XMNormalizeX16Y16Z16W16@@3UXMVECTORF32@@B DD 038000100r ; 3.05185e-005 ; g_XMNormalizeX16Y16Z16W16
	DD	038000100r			; 3.05185e-005
	DD	030000100r			; 4.65675e-010
	DD	030000100r			; 4.65675e-010
;	COMDAT ?g_XMFixX16Y16Z16W16@@3UXMVECTORF32@@B
.rdata	SEGMENT
?g_XMFixX16Y16Z16W16@@3UXMVECTORF32@@B DD 0c7000000r ; -32768 ; g_XMFixX16Y16Z16W16
	DD	0c7000000r			; -32768
	DD	000000000r			; 0
	DD	000000000r			; 0
;	COMDAT ?g_XMFlipX16Y16Z16W16@@3UXMVECTORI32@@B
.rdata	SEGMENT
?g_XMFlipX16Y16Z16W16@@3UXMVECTORI32@@B DD 08000H	; g_XMFlipX16Y16Z16W16
	DD	08000H
	DD	00H
	DD	00H
;	COMDAT ?g_XMMaskX16Y16Z16W16@@3UXMVECTORI32@@B
.rdata	SEGMENT
?g_XMMaskX16Y16Z16W16@@3UXMVECTORI32@@B DD 0ffffH	; g_XMMaskX16Y16Z16W16
	DD	0ffffH
	DD	0ffff0000H
	DD	0ffff0000H
;	COMDAT ?g_XMNormalizeX16Y16@@3UXMVECTORF32@@B
.rdata	SEGMENT
?g_XMNormalizeX16Y16@@3UXMVECTORF32@@B DD 038000100r ; 3.05185e-005 ; g_XMNormalizeX16Y16
	DD	030000100r			; 4.65675e-010
	DD	000000000r			; 0
	DD	000000000r			; 0
;	COMDAT ?g_XMFixX16Y16@@3UXMVECTORF32@@B
.rdata	SEGMENT
?g_XMFixX16Y16@@3UXMVECTORF32@@B DD 0c7000000r	; -32768 ; g_XMFixX16Y16
	DD	000000000r			; 0
	DD	000000000r			; 0
	DD	000000000r			; 0
;	COMDAT ?g_XMFlipX16Y16@@3UXMVECTORI32@@B
.rdata	SEGMENT
?g_XMFlipX16Y16@@3UXMVECTORI32@@B DD 08000H		; g_XMFlipX16Y16
	DD	00H
	DD	00H
	DD	00H
;	COMDAT ?g_XMMaskX16Y16@@3UXMVECTORI32@@B
.rdata	SEGMENT
?g_XMMaskX16Y16@@3UXMVECTORI32@@B DD 0ffffH		; g_XMMaskX16Y16
	DD	0ffff0000H
	DD	00H
	DD	00H
;	COMDAT ?g_XMNormalizeA2B10G10R10@@3UXMVECTORF32@@B
.rdata	SEGMENT
?g_XMNormalizeA2B10G10R10@@3UXMVECTORF32@@B DD 03b004020r ; 0.00195695 ; g_XMNormalizeA2B10G10R10
	DD	036004020r			; 1.91108e-006
	DD	031004020r			; 1.86629e-009
	DD	02faaaaabr			; 3.10441e-010
;	COMDAT ?g_XMFixAA2B10G10R10@@3UXMVECTORF32@@B
.rdata	SEGMENT
?g_XMFixAA2B10G10R10@@3UXMVECTORF32@@B DD 0c4000000r ; -512 ; g_XMFixAA2B10G10R10
	DD	0c9000000r			; -524288
	DD	0ce000000r			; -5.36871e+008
	DD	04f000000r			; 2.14748e+009
;	COMDAT ?g_XMFlipA2B10G10R10@@3UXMVECTORI32@@B
.rdata	SEGMENT
?g_XMFlipA2B10G10R10@@3UXMVECTORI32@@B DD 0200H		; g_XMFlipA2B10G10R10
	DD	080000H
	DD	020000000H
	DD	080000000H
;	COMDAT ?g_XMMaskA2B10G10R10@@3UXMVECTORI32@@B
.rdata	SEGMENT
?g_XMMaskA2B10G10R10@@3UXMVECTORI32@@B DD 03ffH		; g_XMMaskA2B10G10R10
	DD	0ffc00H
	DD	03ff00000H
	DD	0c0000000H
;	COMDAT ?g_XMNormalizeA8R8G8B8@@3UXMVECTORF32@@B
.rdata	SEGMENT
?g_XMNormalizeA8R8G8B8@@3UXMVECTORF32@@B DD 033808081r ; 5.98384e-008 ; g_XMNormalizeA8R8G8B8
	DD	037808081r			; 1.53186e-005
	DD	03b808081r			; 0.00392157
	DD	02f808081r			; 2.33744e-010
;	COMDAT ?g_XMFixAA8R8G8B8@@3UXMVECTORF32@@B
.rdata	SEGMENT
?g_XMFixAA8R8G8B8@@3UXMVECTORF32@@B DD 000000000r ; 0	; g_XMFixAA8R8G8B8
	DD	000000000r			; 0
	DD	000000000r			; 0
	DD	04f000000r			; 2.14748e+009
;	COMDAT ?g_XMFlipA8R8G8B8@@3UXMVECTORI32@@B
.rdata	SEGMENT
?g_XMFlipA8R8G8B8@@3UXMVECTORI32@@B DD 00H		; g_XMFlipA8R8G8B8
	DD	00H
	DD	00H
	DD	080000000H
;	COMDAT ?g_XMMaskA8R8G8B8@@3UXMVECTORI32@@B
.rdata	SEGMENT
?g_XMMaskA8R8G8B8@@3UXMVECTORI32@@B DD 0ff0000H		; g_XMMaskA8R8G8B8
	DD	0ff00H
	DD	0ffH
	DD	0ff000000H
;	COMDAT ?g_XMNegOneMask@@3UXMVECTORI32@@B
.rdata	SEGMENT
?g_XMNegOneMask@@3UXMVECTORI32@@B DD 0ffffffffH		; g_XMNegOneMask
	DD	0ffffffffH
	DD	0ffffffffH
	DD	0ffffffffH
;	COMDAT ?g_XMFltMax@@3UXMVECTORI32@@B
.rdata	SEGMENT
?g_XMFltMax@@3UXMVECTORI32@@B DD 07f7fffffH		; g_XMFltMax
	DD	07f7fffffH
	DD	07f7fffffH
	DD	07f7fffffH
;	COMDAT ?g_XMFltMin@@3UXMVECTORI32@@B
.rdata	SEGMENT
?g_XMFltMin@@3UXMVECTORI32@@B DD 0800000H		; g_XMFltMin
	DD	0800000H
	DD	0800000H
	DD	0800000H
;	COMDAT ?g_XMAbsMask@@3UXMVECTORI32@@B
.rdata	SEGMENT
?g_XMAbsMask@@3UXMVECTORI32@@B DD 07fffffffH		; g_XMAbsMask
	DD	07fffffffH
	DD	07fffffffH
	DD	07fffffffH
;	COMDAT ?g_XMQNaNTest@@3UXMVECTORI32@@B
.rdata	SEGMENT
?g_XMQNaNTest@@3UXMVECTORI32@@B DD 07fffffH		; g_XMQNaNTest
	DD	07fffffH
	DD	07fffffH
	DD	07fffffH
;	COMDAT ?g_XMQNaN@@3UXMVECTORI32@@B
.rdata	SEGMENT
?g_XMQNaN@@3UXMVECTORI32@@B DD 07fc00000H		; g_XMQNaN
	DD	07fc00000H
	DD	07fc00000H
	DD	07fc00000H
;	COMDAT ?g_XMInfinity@@3UXMVECTORI32@@B
.rdata	SEGMENT
?g_XMInfinity@@3UXMVECTORI32@@B DD 07f800000H		; g_XMInfinity
	DD	07f800000H
	DD	07f800000H
	DD	07f800000H
;	COMDAT ?g_XMEpsilon@@3UXMVECTORF32@@B
.rdata	SEGMENT
?g_XMEpsilon@@3UXMVECTORF32@@B DD 034000000r	; 1.19209e-007 ; g_XMEpsilon
	DD	034000000r			; 1.19209e-007
	DD	034000000r			; 1.19209e-007
	DD	034000000r			; 1.19209e-007
;	COMDAT ?g_XMReciprocalTwoPi@@3UXMVECTORF32@@B
.rdata	SEGMENT
?g_XMReciprocalTwoPi@@3UXMVECTORF32@@B DD 03e22f983r ; 0.159155 ; g_XMReciprocalTwoPi
	DD	03e22f983r			; 0.159155
	DD	03e22f983r			; 0.159155
	DD	03e22f983r			; 0.159155
;	COMDAT ?g_XMTwoPi@@3UXMVECTORF32@@B
.rdata	SEGMENT
?g_XMTwoPi@@3UXMVECTORF32@@B DD 040c90fdbr	; 6.28319 ; g_XMTwoPi
	DD	040c90fdbr			; 6.28319
	DD	040c90fdbr			; 6.28319
	DD	040c90fdbr			; 6.28319
;	COMDAT ?g_XMReciprocalPi@@3UXMVECTORF32@@B
.rdata	SEGMENT
?g_XMReciprocalPi@@3UXMVECTORF32@@B DD 03ea2f983r ; 0.31831 ; g_XMReciprocalPi
	DD	03ea2f983r			; 0.31831
	DD	03ea2f983r			; 0.31831
	DD	03ea2f983r			; 0.31831
;	COMDAT ?g_XMPi@@3UXMVECTORF32@@B
.rdata	SEGMENT
?g_XMPi@@3UXMVECTORF32@@B DD 040490fdbr		; 3.14159 ; g_XMPi
	DD	040490fdbr			; 3.14159
	DD	040490fdbr			; 3.14159
	DD	040490fdbr			; 3.14159
;	COMDAT ?g_XMHalfPi@@3UXMVECTORF32@@B
.rdata	SEGMENT
?g_XMHalfPi@@3UXMVECTORF32@@B DD 03fc90fdbr	; 1.5708 ; g_XMHalfPi
	DD	03fc90fdbr			; 1.5708
	DD	03fc90fdbr			; 1.5708
	DD	03fc90fdbr			; 1.5708
;	COMDAT ?g_XMNegativePi@@3UXMVECTORF32@@B
.rdata	SEGMENT
?g_XMNegativePi@@3UXMVECTORF32@@B DD 0c0490fdbr	; -3.14159 ; g_XMNegativePi
	DD	0c0490fdbr			; -3.14159
	DD	0c0490fdbr			; -3.14159
	DD	0c0490fdbr			; -3.14159
;	COMDAT ?g_XMNegativeTwoPi@@3UXMVECTORF32@@B
.rdata	SEGMENT
?g_XMNegativeTwoPi@@3UXMVECTORF32@@B DD 0c0c90fdbr ; -6.28319 ; g_XMNegativeTwoPi
	DD	0c0c90fdbr			; -6.28319
	DD	0c0c90fdbr			; -6.28319
	DD	0c0c90fdbr			; -6.28319
;	COMDAT ?g_XMNegativeOneHalf@@3UXMVECTORF32@@B
.rdata	SEGMENT
?g_XMNegativeOneHalf@@3UXMVECTORF32@@B DD 0bf000000r ; -0.5 ; g_XMNegativeOneHalf
	DD	0bf000000r			; -0.5
	DD	0bf000000r			; -0.5
	DD	0bf000000r			; -0.5
;	COMDAT ?g_XMOneHalf@@3UXMVECTORF32@@B
.rdata	SEGMENT
?g_XMOneHalf@@3UXMVECTORF32@@B DD 03f000000r	; 0.5	; g_XMOneHalf
	DD	03f000000r			; 0.5
	DD	03f000000r			; 0.5
	DD	03f000000r			; 0.5
;	COMDAT ?g_XMNegativeOne@@3UXMVECTORF32@@B
.rdata	SEGMENT
?g_XMNegativeOne@@3UXMVECTORF32@@B DD 0bf800000r ; -1	; g_XMNegativeOne
	DD	0bf800000r			; -1
	DD	0bf800000r			; -1
	DD	0bf800000r			; -1
;	COMDAT ?g_XMZero@@3UXMVECTORF32@@B
.rdata	SEGMENT
?g_XMZero@@3UXMVECTORF32@@B DD 000000000r	; 0	; g_XMZero
	DD	000000000r			; 0
	DD	000000000r			; 0
	DD	000000000r			; 0
;	COMDAT ?g_XMOne3@@3UXMVECTORF32@@B
.rdata	SEGMENT
?g_XMOne3@@3UXMVECTORF32@@B DD 03f800000r	; 1	; g_XMOne3
	DD	03f800000r			; 1
	DD	03f800000r			; 1
	DD	000000000r			; 0
;	COMDAT ?g_XMOne@@3UXMVECTORF32@@B
.rdata	SEGMENT
?g_XMOne@@3UXMVECTORF32@@B DD 03f800000r	; 1	; g_XMOne
	DD	03f800000r			; 1
	DD	03f800000r			; 1
	DD	03f800000r			; 1
;	COMDAT ?g_XMMaskW@@3UXMVECTORI32@@B
.rdata	SEGMENT
?g_XMMaskW@@3UXMVECTORI32@@B DD 00H			; g_XMMaskW
	DD	00H
	DD	00H
	DD	0ffffffffH
;	COMDAT ?g_XMMaskZ@@3UXMVECTORI32@@B
.rdata	SEGMENT
?g_XMMaskZ@@3UXMVECTORI32@@B DD 00H			; g_XMMaskZ
	DD	00H
	DD	0ffffffffH
	DD	00H
;	COMDAT ?g_XMMaskY@@3UXMVECTORI32@@B
.rdata	SEGMENT
?g_XMMaskY@@3UXMVECTORI32@@B DD 00H			; g_XMMaskY
	DD	0ffffffffH
	DD	00H
	DD	00H
;	COMDAT ?g_XMMaskX@@3UXMVECTORI32@@B
.rdata	SEGMENT
?g_XMMaskX@@3UXMVECTORI32@@B DD 0ffffffffH		; g_XMMaskX
	DD	00H
	DD	00H
	DD	00H
;	COMDAT ?g_XMMask3@@3UXMVECTORI32@@B
.rdata	SEGMENT
?g_XMMask3@@3UXMVECTORI32@@B DD 0ffffffffH		; g_XMMask3
	DD	0ffffffffH
	DD	0ffffffffH
	DD	00H
;	COMDAT ?g_XMNegate3@@3UXMVECTORI32@@B
.rdata	SEGMENT
?g_XMNegate3@@3UXMVECTORI32@@B DD 080000000H		; g_XMNegate3
	DD	080000000H
	DD	080000000H
	DD	00H
;	COMDAT ?g_XMNegativeZero@@3UXMVECTORI32@@B
.rdata	SEGMENT
?g_XMNegativeZero@@3UXMVECTORI32@@B DD 080000000H	; g_XMNegativeZero
	DD	080000000H
	DD	080000000H
	DD	080000000H
;	COMDAT ?g_XMNegIdentityR3@@3UXMVECTORF32@@B
.rdata	SEGMENT
?g_XMNegIdentityR3@@3UXMVECTORF32@@B DD 000000000r ; 0	; g_XMNegIdentityR3
	DD	000000000r			; 0
	DD	000000000r			; 0
	DD	0bf800000r			; -1
;	COMDAT ?g_XMNegIdentityR2@@3UXMVECTORF32@@B
.rdata	SEGMENT
?g_XMNegIdentityR2@@3UXMVECTORF32@@B DD 000000000r ; 0	; g_XMNegIdentityR2
	DD	000000000r			; 0
	DD	0bf800000r			; -1
	DD	000000000r			; 0
;	COMDAT ?g_XMNegIdentityR1@@3UXMVECTORF32@@B
.rdata	SEGMENT
?g_XMNegIdentityR1@@3UXMVECTORF32@@B DD 000000000r ; 0	; g_XMNegIdentityR1
	DD	0bf800000r			; -1
	DD	000000000r			; 0
	DD	000000000r			; 0
;	COMDAT ?g_XMNegIdentityR0@@3UXMVECTORF32@@B
.rdata	SEGMENT
?g_XMNegIdentityR0@@3UXMVECTORF32@@B DD 0bf800000r ; -1	; g_XMNegIdentityR0
	DD	000000000r			; 0
	DD	000000000r			; 0
	DD	000000000r			; 0
;	COMDAT ?g_XMIdentityR3@@3UXMVECTORF32@@B
.rdata	SEGMENT
?g_XMIdentityR3@@3UXMVECTORF32@@B DD 000000000r	; 0	; g_XMIdentityR3
	DD	000000000r			; 0
	DD	000000000r			; 0
	DD	03f800000r			; 1
;	COMDAT ?g_XMIdentityR2@@3UXMVECTORF32@@B
.rdata	SEGMENT
?g_XMIdentityR2@@3UXMVECTORF32@@B DD 000000000r	; 0	; g_XMIdentityR2
	DD	000000000r			; 0
	DD	03f800000r			; 1
	DD	000000000r			; 0
;	COMDAT ?g_XMIdentityR1@@3UXMVECTORF32@@B
.rdata	SEGMENT
?g_XMIdentityR1@@3UXMVECTORF32@@B DD 000000000r	; 0	; g_XMIdentityR1
	DD	03f800000r			; 1
	DD	000000000r			; 0
	DD	000000000r			; 0
;	COMDAT ?g_XMIdentityR0@@3UXMVECTORF32@@B
.rdata	SEGMENT
?g_XMIdentityR0@@3UXMVECTORF32@@B DD 03f800000r	; 1	; g_XMIdentityR0
	DD	000000000r			; 0
	DD	000000000r			; 0
	DD	000000000r			; 0
;	COMDAT ?g_XMPiConstants0@@3UXMVECTORF32@@B
.rdata	SEGMENT
?g_XMPiConstants0@@3UXMVECTORF32@@B DD 040490fdbr ; 3.14159 ; g_XMPiConstants0
	DD	040c90fdbr			; 6.28319
	DD	03ea2f983r			; 0.31831
	DD	03e22f983r			; 0.159155
;	COMDAT ?g_XMASinEstConstants@@3UXMVECTORF32@@B
.rdata	SEGMENT
?g_XMASinEstConstants@@3UXMVECTORF32@@B DD 03f800001r ; 1 ; g_XMASinEstConstants
	DD	03fc90fdbr			; 1.5708
	DD	000000000r			; 0
	DD	000000000r			; 0
;	COMDAT ?g_XMASinEstCoefficients@@3UXMVECTORF32@@B
.rdata	SEGMENT
?g_XMASinEstCoefficients@@3UXMVECTORF32@@B DD 0bfae4ee5r ; -1.36178 ; g_XMASinEstCoefficients
	DD	0401849a5r			; 2.37949
	DD	0bf4ee811r			; -0.808229
	DD	03e8e8fb5r			; 0.27844
;	COMDAT ?g_XMATanEstCoefficients@@3UXMVECTORF32@@B
.rdata	SEGMENT
?g_XMATanEstCoefficients@@3UXMVECTORF32@@B DD 03f44dc79r ; 0.768989 ; g_XMATanEstCoefficients
	DD	03f8d6834r			; 1.10474
	DD	03f5dbe43r			; 0.866184
	DD	03fc90fdbr			; 1.5708
;	COMDAT ?g_XMTanEstCoefficients@@3UXMVECTORF32@@B
.rdata	SEGMENT
?g_XMTanEstCoefficients@@3UXMVECTORF32@@B DD 0401ef9dbr ; 2.484 ; g_XMTanEstCoefficients
	DD	0be482f23r			; -0.195492
	DD	0401de9e6r			; 2.4674
	DD	03ea2f983r			; 0.31831
;	COMDAT ?g_XMCosEstCoefficients@@3UXMVECTORF32@@B
.rdata	SEGMENT
?g_XMCosEstCoefficients@@3UXMVECTORF32@@B DD 03f800000r ; 1 ; g_XMCosEstCoefficients
	DD	0befd9e41r			; -0.495348
	DD	03d1eda81r			; 0.0387826
	DD	0ba72600cr			; -0.000924588
;	COMDAT ?g_XMSinEstCoefficients@@3UXMVECTORF32@@B
.rdata	SEGMENT
?g_XMSinEstCoefficients@@3UXMVECTORF32@@B DD 03f800000r ; 1 ; g_XMSinEstCoefficients
	DD	0be2a84b5r			; -0.166522
	DD	03c0658eer			; 0.00819991
	DD	0b92951der			; -0.000161476
;	COMDAT ?g_XMATanCoefficients2@@3UXMVECTORF32@@B
.rdata	SEGMENT
?g_XMATanCoefficients2@@3UXMVECTORF32@@B DD 03d70f0f1r ; 0.0588235 ; g_XMATanCoefficients2
	DD	03d579436r			; 0.0526316
	DD	03d430c31r			; 0.047619
	DD	03d321643r			; 0.0434783
;	COMDAT ?g_XMATanCoefficients1@@3UXMVECTORF32@@B
.rdata	SEGMENT
?g_XMATanCoefficients1@@3UXMVECTORF32@@B DD 03de38e39r ; 0.111111 ; g_XMATanCoefficients1
	DD	03dba2e8cr			; 0.0909091
	DD	03d9d89d9r			; 0.0769231
	DD	03d888889r			; 0.0666667
;	COMDAT ?g_XMATanCoefficients0@@3UXMVECTORF32@@B
.rdata	SEGMENT
?g_XMATanCoefficients0@@3UXMVECTORF32@@B DD 03f800000r ; 1 ; g_XMATanCoefficients0
	DD	03eaaaaabr			; 0.333333
	DD	03e4ccccdr			; 0.2
	DD	03e124925r			; 0.142857
;	COMDAT ?g_XMASinCoefficients2@@3UXMVECTORF32@@B
.rdata	SEGMENT
?g_XMASinCoefficients2@@3UXMVECTORF32@@B DD 0bfaf4418r ; -1.36927 ; g_XMASinCoefficients2
	DD	0c08f6ad9r			; -4.48179
	DD	03fb58485r			; 1.41811
	DD	040af6ad8r			; 5.48179
;	COMDAT ?g_XMASinCoefficients1@@3UXMVECTORF32@@B
.rdata	SEGMENT
?g_XMASinCoefficients1@@3UXMVECTORF32@@B DD 03f1dd7b6r ; 0.616573 ; g_XMASinCoefficients1
	DD	0408980bdr			; 4.29697
	DD	0bf983f2fr			; -1.18943
	DD	0c0d1360er			; -6.53785
;	COMDAT ?g_XMASinCoefficients0@@3UXMVECTORF32@@B
.rdata	SEGMENT
?g_XMASinCoefficients0@@3UXMVECTORF32@@B DD 0bd6dd42dr ; -0.0580637 ; g_XMASinCoefficients0
	DD	0bed65553r			; -0.41862
	DD	03e663246r			; 0.224801
	DD	0400b1889r			; 2.17337
;	COMDAT ?g_XMTanCoefficients2@@3UXMVECTORF32@@B
.rdata	SEGMENT
?g_XMTanCoefficients2@@3UXMVECTORF32@@B DD 03a1aac12r ; 0.000590027 ; g_XMTanCoefficients2
	DD	0397abeb9r			; 0.000239129
	DD	038cb3f0cr			; 9.69154e-005
	DD	03824bec9r			; 3.92783e-005
;	COMDAT ?g_XMTanCoefficients1@@3UXMVECTORF32@@B
.rdata	SEGMENT
?g_XMTanCoefficients1@@3UXMVECTORF32@@B DD 03cb327a4r ; 0.0218695 ; g_XMTanCoefficients1
	DD	03c11371br			; 0.00886324
	DD	03b6b69e9r			; 0.00359213
	DD	03abed1b3r			; 0.00145583
;	COMDAT ?g_XMTanCoefficients0@@3UXMVECTORF32@@B
.rdata	SEGMENT
?g_XMTanCoefficients0@@3UXMVECTORF32@@B DD 03f800000r ; 1 ; g_XMTanCoefficients0
	DD	03eaaaaabr			; 0.333333
	DD	03e088889r			; 0.133333
	DD	03d5d0dd1r			; 0.0539683
;	COMDAT ?g_XMCosCoefficients2@@3UXMVECTORF32@@B
.rdata	SEGMENT
?g_XMCosCoefficients2@@3UXMVECTORF32@@B DD 029573f9fr ; 4.77948e-014 ; g_XMCosCoefficients2
	DD	0a53413c3r			; -1.56192e-016
	DD	020f2a15dr			; 4.11032e-019
	DD	09c8671cbr			; -8.89679e-022
;	COMDAT ?g_XMCosCoefficients1@@3UXMVECTORF32@@B
.rdata	SEGMENT
?g_XMCosCoefficients1@@3UXMVECTORF32@@B DD 037d00d01r ; 2.48016e-005 ; g_XMCosCoefficients1
	DD	0b493f27er			; -2.75573e-007
	DD	0310f76c8r			; 2.08768e-009
	DD	0ad49cba5r			; -1.14707e-011
;	COMDAT ?g_XMCosCoefficients0@@3UXMVECTORF32@@B
.rdata	SEGMENT
?g_XMCosCoefficients0@@3UXMVECTORF32@@B DD 03f800000r ; 1 ; g_XMCosCoefficients0
	DD	0bf000000r			; -0.5
	DD	03d2aaaabr			; 0.0416667
	DD	0bab60b61r			; -0.00138889
;	COMDAT ?g_XMSinCoefficients2@@3UXMVECTORF32@@B
.rdata	SEGMENT
?g_XMSinCoefficients2@@3UXMVECTORF32@@B DD 0274a963cr ; 2.81146e-015 ; g_XMSinCoefficients2
	DD	0a317a4dar			; -8.22064e-018
	DD	01eb8dc78r			; 1.95729e-020
	DD	09a3b0da1r			; -3.86817e-023
;	COMDAT ?g_XMSinCoefficients1@@3UXMVECTORF32@@B
.rdata	SEGMENT
?g_XMSinCoefficients1@@3UXMVECTORF32@@B DD 03638ef1dr ; 2.75573e-006 ; g_XMSinCoefficients1
	DD	0b2d7322br			; -2.50521e-008
	DD	02f309231r			; 1.6059e-010
	DD	0ab573f9fr			; -7.64716e-013
;	COMDAT ?g_XMSinCoefficients0@@3UXMVECTORF32@@B
.rdata	SEGMENT
?g_XMSinCoefficients0@@3UXMVECTORF32@@B DD 03f800000r ; 1 ; g_XMSinCoefficients0
	DD	0be2aaaabr			; -0.166667
	DD	03c088889r			; 0.00833333
	DD	0b9500d01r			; -0.000198413
;	COMDAT D3DTESSPRIMITIVEVERTEXCOUNT
.rdata	SEGMENT
D3DTESSPRIMITIVEVERTEXCOUNT DD 00H
	DD	00H
	DD	00H
	DD	00H
	DD	02H
	DD	00H
	DD	01H
	DD	01H
	DD	03H
	DD	00H
	DD	01H
	DD	02H
	DD	01H
	DD	02H
	DD	00H
	DD	00H
	DD	00H
	DD	00H
	DD	00H
	DD	00H
	DD	00H
	DD	00H
	DD	00H
	DD	00H
	DD	00H
	DD	00H
	DD	04H
	DD	00H
	DD	00H
	DD	00H
	DD	00H
	DD	00H
	DD	01H
	DD	00H
	DD	01H
	DD	00H
	DD	01H
	DD	00H
;	COMDAT D3DPRIMITIVEVERTEXCOUNT
.rdata	SEGMENT
D3DPRIMITIVEVERTEXCOUNT DD 00H
	DD	00H
	DD	01H
	DD	00H
	DD	02H
	DD	00H
	DD	01H
	DD	01H
	DD	03H
	DD	00H
	DD	01H
	DD	02H
	DD	01H
	DD	02H
	DD	00H
	DD	00H
	DD	03H
	DD	00H
	DD	00H
	DD	00H
	DD	00H
	DD	00H
	DD	00H
	DD	00H
	DD	00H
	DD	00H
	DD	04H
	DD	00H
;	COMDAT __C1_11886
.XBLD$W	SEGMENT
__C1_11886 DW	04331H
	DW	00H
	DW	00H
	DW	00H
	DW	010H
	DW	00H
	DW	02e6eH
	DW	04400H
;	COMDAT __C2_11886
.XBLD$W	SEGMENT
__C2_11886 DB	'C2', 00H, 00H, 00H, 00H, 00H, 00H, 00H, 010H, 00H, 00H, '.'
	DB	'nD', 00H
PUBLIC	?va@@YAPADPADZZ					; va
EXTRN	vsprintf:PROC
;	COMDAT .pdata
; File c:\users\s7clutch\documents\visual studio 2010\projects\the saiyan project\src\tools.cpp
.pdata	SEGMENT
$T72995	DD	?va@@YAPADPADZZ
	DD	04000170aH
; Function compile flags: /Odtu

	.code
Buffer$ = 80						; size = 2048
VA_ARGS$ = 2128						; size = 4

?va@@YAPADPADZZ	PROC NEAR				; va, COMDAT

; Begin code for function: ?va@@YAPADPADZZ
; Line 8
	mflr         r12
	stw          r12,-8(r1)
	std          r4,18h(r1)
	std          r5,20h(r1)
	std          r6,28h(r1)
	std          r7,30h(r1)
	std          r8,38h(r1)
	std          r9,40h(r1)
	std          r10,48h(r1)
	stwu         r1,-860h(r1)
.endprolog
$M72993:
	stw          r3,Text$(r1)		; 2164 (874h)
; Line 11
	addi         r11,r1,VA_ARGS$
	addi         r10,r1,Text$+4
	stw          r10,0(r11)
; Line 12
	lwz          r5,VA_ARGS$(r1)		; 2128 (850h)
	lwz          r4,Text$(r1)		; 2164 (874h)
	addi         r3,r1,Buffer$
	bl           vsprintf
; Line 13
	addi         r3,r1,Buffer$
; Line 14
	addi         r1,r1,2144		; 860h
	lwz          r12,-8(r1)
	mtlr         r12
	blr
$M72994:
; End code for function: ?va@@YAPADPADZZ
?va@@YAPADPADZZ ENDP
							; va
PUBLIC	?va@@YAPADPAD0ZZ				; va
;	COMDAT .pdata
.pdata	SEGMENT
$T73001	DD	?va@@YAPADPAD0ZZ
	DD	040001709H
; Function compile flags: /Odtu

	.code
VA_ARGS$ = 80						; size = 4

?va@@YAPADPAD0ZZ PROC NEAR				; va, COMDAT

; Begin code for function: ?va@@YAPADPAD0ZZ
; Line 16
	mflr         r12
	stw          r12,-8(r1)
	std          r5,20h(r1)
	std          r6,28h(r1)
	std          r7,30h(r1)
	std          r8,38h(r1)
	std          r9,40h(r1)
	std          r10,48h(r1)
	stwu         r1,-60h(r1)
.endprolog
$M72999:
	stw          r3,Out$(r1)		; 116 (74h)
	stw          r4,Text$(r1)		; 124 (7Ch)
; Line 18
	addi         r11,r1,VA_ARGS$
	addi         r10,r1,Text$+4
	stw          r10,0(r11)
; Line 19
	lwz          r5,VA_ARGS$(r1)		; 80 (50h)
	lwz          r4,Text$(r1)		; 124 (7Ch)
	lwz          r3,Out$(r1)		; 116 (74h)
	bl           vsprintf
; Line 20
	lwz          r3,Out$(r1)		; 116 (74h)
; Line 21
	addi         r1,r1,96		; 60h
	lwz          r12,-8(r1)
	mtlr         r12
	blr
$M73000:
; End code for function: ?va@@YAPADPAD0ZZ
?va@@YAPADPAD0ZZ ENDP
							; va
PUBLIC	??_C@_02DKCKIIND@?$CFs?$AA@			; `string'
PUBLIC	??_C@_0BK@MNJHDMIO@game?3?2GTA?5V?5Menu?5Base?4log?$AA@ ; `string'
PUBLIC	??_C@_02DPNLHKJD@a?$CL?$AA@			; `string'
PUBLIC	?DebugData@@YAXQADZZ				; DebugData
EXTRN	DbgPrint:PROC
EXTRN	fclose:PROC
EXTRN	fprintf:PROC
EXTRN	fopen:PROC
EXTRN	vsprintf_s:PROC
;	COMDAT .pdata
.pdata	SEGMENT
$T73007	DD	?DebugData@@YAXQADZZ
	DD	040002e0aH
;	COMDAT ??_C@_02DKCKIIND@?$CFs?$AA@
.rdata	SEGMENT
??_C@_02DKCKIIND@?$CFs?$AA@ DB '%s', 00H		; `string'
;	COMDAT ??_C@_0BK@MNJHDMIO@game?3?2GTA?5V?5Menu?5Base?4log?$AA@
.rdata	SEGMENT
??_C@_0BK@MNJHDMIO@game?3?2GTA?5V?5Menu?5Base?4log?$AA@ DB 'game:\GTA V M'
	DB	'enu Base.log', 00H				; `string'
;	COMDAT ??_C@_02DPNLHKJD@a?$CL?$AA@
.rdata	SEGMENT
??_C@_02DPNLHKJD@a?$CL?$AA@ DB 'a+', 00H		; `string'
; Function compile flags: /Odtu

	.code
fp$ = 80						; size = 4
now$ = 84						; size = 4
pArgList$ = 88						; size = 4
t$ = 96							; size = 8
buffer$ = 112						; size = 1000

?DebugData@@YAXQADZZ PROC NEAR				; DebugData, COMDAT

; Begin code for function: ?DebugData@@YAXQADZZ
; Line 23
	mflr         r12
	stw          r12,-8(r1)
	std          r4,18h(r1)
	std          r5,20h(r1)
	std          r6,28h(r1)
	std          r7,30h(r1)
	std          r8,38h(r1)
	std          r9,40h(r1)
	std          r10,48h(r1)
	stwu         r1,-460h(r1)
.endprolog
$M73005:
	stw          r3,fmt$(r1)		; 1140 (474h)
; Line 26
	addi         r11,r1,pArgList$
	addi         r10,r1,fmt$+4
	stw          r10,0(r11)
; Line 27
	lwz          r6,pArgList$(r1)		; 88 (58h)
	lwz          r5,fmt$(r1)		; 1140 (474h)
	li           r4,1000		; 3E8h
	addi         r3,r1,buffer$
	bl           vsprintf_s
; Line 28
	li           r9,0
	stw          r9,pArgList$(r1)		; 88 (58h)
; Line 30
	li           r3,0
	bl           time
	std          r3,t$(r1)
; Line 31
	addi         r3,r1,t$
	bl           localtime
	stw          r3,now$(r1)		; 84 (54h)
; Line 33
	lis          r8,??_C@_02DPNLHKJD@a?$CL?$AA@
	addi         r4,r8,??_C@_02DPNLHKJD@a?$CL?$AA@
	lis          r7,??_C@_0BK@MNJHDMIO@game?3?2GTA?5V?5Menu?5Base?4log?$AA@
	addi         r3,r7,??_C@_0BK@MNJHDMIO@game?3?2GTA?5V?5Menu?5Base?4log?$AA@
	bl           fopen
	stw          r3,fp$(r1)		; 80 (50h)
; Line 34
	addi         r5,r1,buffer$
	lis          r6,??_C@_02DKCKIIND@?$CFs?$AA@
	addi         r4,r6,??_C@_02DKCKIIND@?$CFs?$AA@
	lwz          r3,fp$(r1)		; 80 (50h)
	bl           fprintf
; Line 35
	lwz          r3,fp$(r1)		; 80 (50h)
	bl           fclose
; Line 37
	addi         r3,r1,buffer$
	bl           DbgPrint
; Line 38
	addi         r1,r1,1120		; 460h
	lwz          r12,-8(r1)
	mtlr         r12
	blr
$M73006:
; End code for function: ?DebugData@@YAXQADZZ
?DebugData@@YAXQADZZ ENDP
							; DebugData
EXTRN	_localtime64:PROC
;	COMDAT .pdata
; File c:\program files (x86)\microsoft xbox 360 sdk\include\xbox\time.inl
.pdata	SEGMENT
$T73013	DD	localtime
	DD	040000a03H
; Function compile flags: /Odtu

	.code

localtime PROC NEAR					; COMDAT

; Begin code for function: localtime
; Line 109
	mflr         r12
	stw          r12,-8(r1)
	stwu         r1,-60h(r1)
.endprolog
$M73011:
	stw          r3,_Time$(r1)		; 116 (74h)
; Line 112
	lwz          r3,_Time$(r1)		; 116 (74h)
	bl           _localtime64
; Line 114
	addi         r1,r1,96		; 60h
	lwz          r12,-8(r1)
	mtlr         r12
	blr
$M73012:
; End code for function: localtime
localtime ENDP

EXTRN	_time64:PROC
;	COMDAT .pdata
.pdata	SEGMENT
$T73019	DD	time
	DD	040000a03H
; Function compile flags: /Odtu

	.code

time PROC NEAR						; COMDAT

; Begin code for function: time
; Line 128
	mflr         r12
	stw          r12,-8(r1)
	stwu         r1,-60h(r1)
.endprolog
$M73017:
	stw          r3,_Time$(r1)		; 116 (74h)
; Line 129
	lwz          r3,_Time$(r1)		; 116 (74h)
	bl           _time64
; Line 130
	addi         r1,r1,96		; 60h
	lwz          r12,-8(r1)
	mtlr         r12
	blr
$M73018:
; End code for function: time
time	ENDP

PUBLIC	?XKeyboard@@YAPADKPB_W00@Z			; XKeyboard
EXTRN	wcstombs:PROC
EXTRN	Sleep:PROC
EXTRN	XShowKeyboardUI:PROC
;	COMDAT .pdata
; File c:\users\s7clutch\documents\visual studio 2010\projects\the saiyan project\src\tools.cpp
.pdata	SEGMENT
$T73025	DD	?XKeyboard@@YAPADKPB_W00@Z
	DD	040001f03H
; Function compile flags: /Odtu

	.code
Overlapped$ = 80					; size = 28
wszBuffer$ = 112					; size = 1024
szBuffer$ = 1136					; size = 4

?XKeyboard@@YAPADKPB_W00@Z PROC NEAR			; XKeyboard, COMDAT

; Begin code for function: ?XKeyboard@@YAPADKPB_W00@Z
; Line 40
	mflr         r12
	stw          r12,-8(r1)
	stwu         r1,-480h(r1)
.endprolog
$M73023:
	stw          r3,KeyboardFlag$(r1)		; 1172 (494h)
	stw          r4,DefaultText$(r1)		; 1180 (49Ch)
	stw          r5,Title$(r1)		; 1188 (4A4h)
	stw          r6,Body$(r1)		; 1196 (4ACh)
; Line 44
	addi         r10,r1,Overlapped$
	li           r9,512		; 200h
	addi         r8,r1,wszBuffer$
	lwz          r7,Body$(r1)		; 1196 (4ACh)
	lwz          r6,Title$(r1)		; 1188 (4A4h)
	lwz          r5,DefaultText$(r1)		; 1180 (49Ch)
	lwz          r4,KeyboardFlag$(r1)		; 1172 (494h)
	li           r3,0
	bl           XShowKeyboardUI
$LN2@XKeyboard:
; Line 45
	lwz          r11,Overlapped$(r1)		; 80 (50h)
	cmplwi       cr6,r11,997		; 3E5h
	bne          cr6,$LN1@XKeyboard
	li           r3,100		; 64h
	bl           Sleep
	b            $LN2@XKeyboard
$LN1@XKeyboard:
; Line 46
	li           r5,512		; 200h
	addi         r4,r1,wszBuffer$
	lwz          r3,szBuffer$(r1)		; 1136 (470h)
	bl           wcstombs
; Line 47
	lwz          r3,szBuffer$(r1)		; 1136 (470h)
; Line 48
	addi         r1,r1,1152		; 480h
	lwz          r12,-8(r1)
	mtlr         r12
	blr
$M73024:
; End code for function: ?XKeyboard@@YAPADKPB_W00@Z
?XKeyboard@@YAPADKPB_W00@Z ENDP
							; XKeyboard
PUBLIC	??_C@_1BC@GOAHBJBA@C?$AAo?$AAn?$AAt?$AAi?$AAn?$AAu?$AAe?$AA?$AA?$AA@ ; `string'
PUBLIC	?XMessageBox@@YAXPB_W0K_N@Z			; XMessageBox
EXTRN	XShowMessageBoxUI:PROC
;	COMDAT .pdata
.pdata	SEGMENT
$T73031	DD	?XMessageBox@@YAXPB_W0K_N@Z
	DD	040002203H
;	COMDAT ??_C@_1BC@GOAHBJBA@C?$AAo?$AAn?$AAt?$AAi?$AAn?$AAu?$AAe?$AA?$AA?$AA@
.rdata	SEGMENT
??_C@_1BC@GOAHBJBA@C?$AAo?$AAn?$AAt?$AAi?$AAn?$AAu?$AAe?$AA?$AA?$AA@ DB 00H
	DB	'C', 00H, 'o', 00H, 'n', 00H, 't', 00H, 'i', 00H, 'n', 00H, 'u'
	DB	00H, 'e', 00H, 00H				; `string'
; Function compile flags: /Odtu

	.code
Overlapped$ = 96					; size = 28
Result$ = 128						; size = 8
ButtonText$ = 136					; size = 4

?XMessageBox@@YAXPB_W0K_N@Z PROC NEAR			; XMessageBox, COMDAT

; Begin code for function: ?XMessageBox@@YAXPB_W0K_N@Z
; Line 50
	mflr         r12
	stw          r12,-8(r1)
	stwu         r1,-0A0h(r1)
.endprolog
$M73029:
	stw          r3,Title$(r1)		; 180 (0B4h)
	stw          r4,Body$(r1)		; 188 (0BCh)
	stw          r5,Icon$(r1)		; 196 (0C4h)
	stb          r6,Wait$(r1)		; 207 (0CFh)
; Line 53
	lis          r11,??_C@_1BC@GOAHBJBA@C?$AAo?$AAn?$AAt?$AAi?$AAn?$AAu?$AAe?$AA?$AA?$AA@
	addi         r10,r11,??_C@_1BC@GOAHBJBA@C?$AAo?$AAn?$AAt?$AAi?$AAn?$AAu?$AAe?$AA?$AA?$AA@
	stw          r10,ButtonText$(r1)		; 136 (88h)
; Line 54
	addi         r9,r1,Overlapped$
	stw          r9,54h(r1)
	addi         r10,r1,Result$
	lwz          r9,Icon$(r1)		; 196 (0C4h)
	li           r8,0
	addi         r7,r1,ButtonText$
	li           r6,1
	lwz          r5,Body$(r1)		; 188 (0BCh)
	lwz          r4,Title$(r1)		; 180 (0B4h)
	li           r3,0
	bl           XShowMessageBoxUI
; Line 55
	lbz          r8,Wait$(r1)		; 207 (0CFh)
	cmpwi        cr6,r8,0
	beq          cr6,$LN4@XMessageBo
$LN2@XMessageBo:
	lwz          r7,Overlapped$(r1)		; 96 (60h)
	cmplwi       cr6,r7,997		; 3E5h
	bne          cr6,$LN4@XMessageBo
	li           r3,100		; 64h
	bl           Sleep
	b            $LN2@XMessageBo
$LN4@XMessageBo:
; Line 56
	addi         r1,r1,160		; 0A0h
	lwz          r12,-8(r1)
	mtlr         r12
	blr
$M73030:
; End code for function: ?XMessageBox@@YAXPB_W0K_N@Z
?XMessageBox@@YAXPB_W0K_N@Z ENDP
							; XMessageBox
PUBLIC	?XMessageBox@@YA?AU_MESSAGEBOX_RESULT@@PB_W0KPAPB_WK@Z ; XMessageBox
;	COMDAT .pdata
.pdata	SEGMENT
$T73037	DD	?XMessageBox@@YA?AU_MESSAGEBOX_RESULT@@PB_W0KPAPB_WK@Z
	DD	040001e03H
; Function compile flags: /Odtu

	.code
Overlapped$ = 96					; size = 28
Result$ = 128						; size = 8

?XMessageBox@@YA?AU_MESSAGEBOX_RESULT@@PB_W0KPAPB_WK@Z PROC NEAR ; XMessageBox, COMDAT

; Begin code for function: ?XMessageBox@@YA?AU_MESSAGEBOX_RESULT@@PB_W0KPAPB_WK@Z
; Line 58
	mflr         r12
	stw          r12,-8(r1)
	stwu         r1,-90h(r1)
.endprolog
$M73035:
	stw          r3,Title$(r1)		; 164 (0A4h)
	stw          r4,Body$(r1)		; 172 (0ACh)
	stw          r5,ButtonCount$(r1)		; 180 (0B4h)
	stw          r6,ButtonText$(r1)		; 188 (0BCh)
	stw          r7,Icon$(r1)		; 196 (0C4h)
; Line 61
	addi         r11,r1,Overlapped$
	stw          r11,54h(r1)
	addi         r10,r1,Result$
	lwz          r9,Icon$(r1)		; 196 (0C4h)
	li           r8,0
	lwz          r7,ButtonText$(r1)		; 188 (0BCh)
	lwz          r6,ButtonCount$(r1)		; 180 (0B4h)
	lwz          r5,Body$(r1)		; 172 (0ACh)
	lwz          r4,Title$(r1)		; 164 (0A4h)
	li           r3,0
	bl           XShowMessageBoxUI
$LN2@XMessageBo@2:
; Line 62
	lwz          r10,Overlapped$(r1)		; 96 (60h)
	cmplwi       cr6,r10,997		; 3E5h
	bne          cr6,$LN1@XMessageBo@2
	li           r3,100		; 64h
	bl           Sleep
	b            $LN2@XMessageBo@2
$LN1@XMessageBo@2:
; Line 63
	ld           r3,Result$(r1)
; Line 64
	addi         r1,r1,144		; 90h
	lwz          r12,-8(r1)
	mtlr         r12
	blr
$M73036:
; End code for function: ?XMessageBox@@YA?AU_MESSAGEBOX_RESULT@@PB_W0KPAPB_WK@Z
?XMessageBox@@YA?AU_MESSAGEBOX_RESULT@@PB_W0KPAPB_WK@Z ENDP
							; XMessageBox
PUBLIC	?XNotify@@YAXPA_W@Z				; XNotify
EXTRN	XNotifyQueueUI:PROC
;	COMDAT .pdata
.pdata	SEGMENT
$T73043	DD	?XNotify@@YAXPA_W@Z
	DD	040000e03H
; Function compile flags: /Odtu

	.code

?XNotify@@YAXPA_W@Z PROC NEAR				; XNotify, COMDAT

; Begin code for function: ?XNotify@@YAXPA_W@Z
; Line 66
	mflr         r12
	stw          r12,-8(r1)
	stwu         r1,-60h(r1)
.endprolog
$M73041:
	stw          r3,Text$(r1)		; 116 (74h)
; Line 67
	li           r7,0
	lwz          r6,Text$(r1)		; 116 (74h)
	li           r5,2
	li           r4,0
	li           r3,14		; 0Eh
	bl           XNotifyQueueUI
; Line 68
	addi         r1,r1,96		; 60h
	lwz          r12,-8(r1)
	mtlr         r12
	blr
$M73042:
; End code for function: ?XNotify@@YAXPA_W@Z
?XNotify@@YAXPA_W@Z ENDP
							; XNotify
PUBLIC	?doMountPath@@YAJQAD00@Z			; doMountPath
EXTRN	ObCreateSymbolicLink:PROC
EXTRN	ObDeleteSymbolicLink:PROC
EXTRN	strlen:PROC
EXTRN	sprintf_s:PROC
;	COMDAT .pdata
.pdata	SEGMENT
$T73049	DD	?doMountPath@@YAJQAD00@Z
	DD	040002a03H
; Function compile flags: /Odtu

	.code
szDestinationDrive$ = 80				; size = 260
DeviceName$ = 344					; size = 8
LinkName$ = 352						; size = 8

?doMountPath@@YAJQAD00@Z PROC NEAR			; doMountPath, COMDAT

; Begin code for function: ?doMountPath@@YAJQAD00@Z
; Line 70
	mflr         r12
	stw          r12,-8(r1)
	stwu         r1,-170h(r1)
.endprolog
$M73047:
	stw          r3,szDrive$(r1)		; 388 (184h)
	stw          r4,szDevice$(r1)		; 396 (18Ch)
	stw          r5,sysStr$(r1)		; 404 (194h)
; Line 72
	lwz          r6,szDrive$(r1)		; 388 (184h)
	lwz          r5,sysStr$(r1)		; 404 (194h)
	li           r4,260		; 104h
	addi         r3,r1,szDestinationDrive$
	bl           sprintf_s
; Line 73
	lwz          r3,szDevice$(r1)		; 396 (18Ch)
	bl           strlen
	clrlwi       r11,r3,16
	sth          r11,DeviceName$(r1)		; 344 (158h)
	lwz          r3,szDevice$(r1)		; 396 (18Ch)
	bl           strlen
	addi         r10,r3,1
	clrlwi       r9,r10,16
	sth          r9,DeviceName$+2(r1)		; 346 (15Ah)
	lwz          r8,szDevice$(r1)		; 396 (18Ch)
	stw          r8,DeviceName$+4(r1)		; 348 (15Ch)
; Line 74
	addi         r3,r1,szDestinationDrive$
	bl           strlen
	clrlwi       r7,r3,16
	sth          r7,LinkName$(r1)		; 352 (160h)
	addi         r3,r1,szDestinationDrive$
	bl           strlen
	addi         r6,r3,1
	clrlwi       r5,r6,16
	sth          r5,LinkName$+2(r1)		; 354 (162h)
	addi         r4,r1,szDestinationDrive$
	stw          r4,LinkName$+4(r1)		; 356 (164h)
; Line 75
	addi         r3,r1,LinkName$
	bl           ObDeleteSymbolicLink
; Line 76
	addi         r4,r1,DeviceName$
	addi         r3,r1,LinkName$
	bl           ObCreateSymbolicLink
; Line 77
	addi         r1,r1,368		; 170h
	lwz          r12,-8(r1)
	mtlr         r12
	blr
$M73048:
; End code for function: ?doMountPath@@YAJQAD00@Z
?doMountPath@@YAJQAD00@Z ENDP
							; doMountPath
PUBLIC	??_C@_06OLPECHEJ@?2?$DP?$DP?2?$CFs?$AA@		; `string'
PUBLIC	??_C@_0N@CHIHIMO@?2System?$DP?$DP?2?$CFs?$AA@	; `string'
PUBLIC	?MountPath@@YAJQAD0_N@Z				; MountPath
EXTRN	KeGetCurrentProcessType:PROC
;	COMDAT .pdata
.pdata	SEGMENT
$T73055	DD	?MountPath@@YAJQAD0_N@Z
	DD	040002c03H
;	COMDAT ??_C@_06OLPECHEJ@?2?$DP?$DP?2?$CFs?$AA@
.rdata	SEGMENT
??_C@_06OLPECHEJ@?2?$DP?$DP?2?$CFs?$AA@ DB '\??\%s', 00H ; `string'
;	COMDAT ??_C@_0N@CHIHIMO@?2System?$DP?$DP?2?$CFs?$AA@
.rdata	SEGMENT
??_C@_0N@CHIHIMO@?2System?$DP?$DP?2?$CFs?$AA@ DB '\System??\%s', 00H ; `string'
; Function compile flags: /Odtu

	.code
res$ = 80						; size = 4

?MountPath@@YAJQAD0_N@Z	PROC NEAR			; MountPath, COMDAT

; Begin code for function: ?MountPath@@YAJQAD0_N@Z
; Line 79
	mflr         r12
	stw          r12,-8(r1)
	stwu         r1,-60h(r1)
.endprolog
$M73053:
	stw          r3,szDrive$(r1)		; 116 (74h)
	stw          r4,szDevice$(r1)		; 124 (7Ch)
	stb          r5,both$(r1)		; 135 (87h)
; Line 81
	lbz          r11,both$(r1)		; 135 (87h)
	cmpwi        cr6,r11,0
	beq          cr6,$LN4@MountPath
; Line 83
	lis          r10,??_C@_0N@CHIHIMO@?2System?$DP?$DP?2?$CFs?$AA@
	addi         r5,r10,??_C@_0N@CHIHIMO@?2System?$DP?$DP?2?$CFs?$AA@
	lwz          r4,szDevice$(r1)		; 124 (7Ch)
	lwz          r3,szDrive$(r1)		; 116 (74h)
	bl           ?doMountPath@@YAJQAD00@Z
	stw          r3,res$(r1)		; 80 (50h)
; Line 84
	lis          r9,??_C@_06OLPECHEJ@?2?$DP?$DP?2?$CFs?$AA@
	addi         r5,r9,??_C@_06OLPECHEJ@?2?$DP?$DP?2?$CFs?$AA@
	lwz          r4,szDevice$(r1)		; 124 (7Ch)
	lwz          r3,szDrive$(r1)		; 116 (74h)
	bl           ?doMountPath@@YAJQAD00@Z
	stw          r3,res$(r1)		; 80 (50h)
; Line 86
	b            $LN3@MountPath
$LN4@MountPath:
; Line 88
	bl           KeGetCurrentProcessType
	clrlwi       r8,r3,24
	cmpwi        cr6,r8,2
	bne          cr6,$LN2@MountPath
; Line 89
	lis          r7,??_C@_0N@CHIHIMO@?2System?$DP?$DP?2?$CFs?$AA@
	addi         r5,r7,??_C@_0N@CHIHIMO@?2System?$DP?$DP?2?$CFs?$AA@
	lwz          r4,szDevice$(r1)		; 124 (7Ch)
	lwz          r3,szDrive$(r1)		; 116 (74h)
	bl           ?doMountPath@@YAJQAD00@Z
	stw          r3,res$(r1)		; 80 (50h)
; Line 90
	b            $LN3@MountPath
$LN2@MountPath:
; Line 91
	lis          r6,??_C@_06OLPECHEJ@?2?$DP?$DP?2?$CFs?$AA@
	addi         r5,r6,??_C@_06OLPECHEJ@?2?$DP?$DP?2?$CFs?$AA@
	lwz          r4,szDevice$(r1)		; 124 (7Ch)
	lwz          r3,szDrive$(r1)		; 116 (74h)
	bl           ?doMountPath@@YAJQAD00@Z
	stw          r3,res$(r1)		; 80 (50h)
$LN3@MountPath:
; Line 93
	lwz          r3,res$(r1)		; 80 (50h)
; Line 94
	addi         r1,r1,96		; 60h
	lwz          r12,-8(r1)
	mtlr         r12
	blr
$M73054:
; End code for function: ?MountPath@@YAJQAD0_N@Z
?MountPath@@YAJQAD0_N@Z ENDP
							; MountPath
PUBLIC	??_C@_04BHBCCPGF@HDD?3?$AA@			; `string'
PUBLIC	??_C@_0BN@HJEIBBJL@?2Device?2Harddisk0?2Partition1?$AA@ ; `string'
PUBLIC	?MountDrives@@YA_NXZ				; MountDrives
;	COMDAT .pdata
.pdata	SEGMENT
$T73061	DD	?MountDrives@@YA_NXZ
	DD	040001003H
;	COMDAT ??_C@_04BHBCCPGF@HDD?3?$AA@
.rdata	SEGMENT
??_C@_04BHBCCPGF@HDD?3?$AA@ DB 'HDD:', 00H		; `string'
;	COMDAT ??_C@_0BN@HJEIBBJL@?2Device?2Harddisk0?2Partition1?$AA@
.rdata	SEGMENT
??_C@_0BN@HJEIBBJL@?2Device?2Harddisk0?2Partition1?$AA@ DB '\Device\Hardd'
	DB	'isk0\Partition1', 00H			; `string'
; Function compile flags: /Odtu

	.code

?MountDrives@@YA_NXZ PROC NEAR				; MountDrives, COMDAT

; Begin code for function: ?MountDrives@@YA_NXZ
; Line 96
	mflr         r12
	stw          r12,-8(r1)
	stwu         r1,-60h(r1)
.endprolog
$M73059:
; Line 97
	li           r5,0
	lis          r11,??_C@_0BN@HJEIBBJL@?2Device?2Harddisk0?2Partition1?$AA@
	addi         r4,r11,??_C@_0BN@HJEIBBJL@?2Device?2Harddisk0?2Partition1?$AA@
	lis          r10,??_C@_04BHBCCPGF@HDD?3?$AA@
	addi         r3,r10,??_C@_04BHBCCPGF@HDD?3?$AA@
	bl           ?MountPath@@YAJQAD0_N@Z
	cntlzw       r9,r3
	rlwinm       r8,r9,27,31,31
	clrlwi       r3,r8,24
; Line 98
	addi         r1,r1,96		; 60h
	lwz          r12,-8(r1)
	mtlr         r12
	blr
$M73060:
; End code for function: ?MountDrives@@YA_NXZ
?MountDrives@@YA_NXZ ENDP
							; MountDrives
PUBLIC	?GetFile@@YAPAEPADPAK@Z				; GetFile
PUBLIC	??_C@_0BL@KNBDICGE@game?3?2TheSaiyanProject?4xex?$AA@ ; `string'
PUBLIC	?GetModuleHash@@YA_NPAE@Z			; GetModuleHash
EXTRN	memcpy:PROC
EXTRN	XeCryptShaFinal:PROC
EXTRN	XeCryptShaUpdate:PROC
EXTRN	XeCryptShaInit:PROC
;	COMDAT .pdata
.pdata	SEGMENT
$T73067	DD	?GetModuleHash@@YA_NPAE@Z
	DD	040002403H
;	COMDAT ??_C@_0BL@KNBDICGE@game?3?2TheSaiyanProject?4xex?$AA@
.rdata	SEGMENT
??_C@_0BL@KNBDICGE@game?3?2TheSaiyanProject?4xex?$AA@ DB 'game:\TheSaiyan'
	DB	'Project.xex', 00H				; `string'
; Function compile flags: /Odtu

	.code
ModuleSize$ = 80					; size = 4
sha$ = 96						; size = 88
Module$ = 184						; size = 4
buffer$ = 192						; size = 20

?GetModuleHash@@YA_NPAE@Z PROC NEAR			; GetModuleHash, COMDAT

; Begin code for function: ?GetModuleHash@@YA_NPAE@Z
; Line 100
	mflr         r12
	stw          r12,-8(r1)
	stwu         r1,-0E0h(r1)
.endprolog
$M73065:
	stw          r3,ModuleHash$(r1)		; 244 (0F4h)
; Line 102
	addi         r4,r1,ModuleSize$
	lis          r11,??_C@_0BL@KNBDICGE@game?3?2TheSaiyanProject?4xex?$AA@
	addi         r3,r11,??_C@_0BL@KNBDICGE@game?3?2TheSaiyanProject?4xex?$AA@
	bl           ?GetFile@@YAPAEPADPAK@Z
	stw          r3,Module$(r1)		; 184 (0B8h)
; Line 104
	lwz          r10,Module$(r1)		; 184 (0B8h)
	cmplwi       cr6,r10,0
	beq          cr6,$LN1@GetModuleH
	lwz          r9,ModuleSize$(r1)		; 80 (50h)
	cmplwi       cr6,r9,0
	bne          cr6,$LN2@GetModuleH
$LN1@GetModuleH:
; Line 105
	li           r3,0
	b            $LN3@GetModuleH
$LN2@GetModuleH:
; Line 110
	addi         r3,r1,sha$
	bl           XeCryptShaInit
; Line 111
	lwz          r5,ModuleSize$(r1)		; 80 (50h)
	lwz          r4,Module$(r1)		; 184 (0B8h)
	addi         r3,r1,sha$
	bl           XeCryptShaUpdate
; Line 112
	li           r5,20		; 14h
	addi         r4,r1,buffer$
	addi         r3,r1,sha$
	bl           XeCryptShaFinal
; Line 114
	li           r5,20		; 14h
	addi         r4,r1,buffer$
	lwz          r3,ModuleHash$(r1)		; 244 (0F4h)
	bl           memcpy
; Line 116
	li           r3,1
$LN3@GetModuleH:
; Line 117
	addi         r1,r1,224		; 0E0h
	lwz          r12,-8(r1)
	mtlr         r12
	blr
$M73066:
; End code for function: ?GetModuleHash@@YA_NPAE@Z
?GetModuleHash@@YA_NPAE@Z ENDP
							; GetModuleHash
PUBLIC	?HvPeekQWORD@@YA_K_K@Z				; HvPeekQWORD
PUBLIC	?GetCPUKey@@YA_NPAE@Z				; GetCPUKey
;	COMDAT .pdata
.pdata	SEGMENT
$T73073	DD	?GetCPUKey@@YA_NPAE@Z
	DD	040001b03H
; Function compile flags: /Odtu

	.code
Fuses$ = 80						; size = 16

?GetCPUKey@@YA_NPAE@Z PROC NEAR				; GetCPUKey, COMDAT

; Begin code for function: ?GetCPUKey@@YA_NPAE@Z
; Line 119
	mflr         r12
	stw          r12,-8(r1)
	stwu         r1,-70h(r1)
.endprolog
$M73071:
	stw          r3,CPUKey$(r1)		; 132 (84h)
; Line 121
	lis          r11,2
	ori          r3,r11,1536		; 600h
	lis          r10,-32768		; 8000h
	ori          r9,r10,512		; 200h
	rldimi       r3,r9,32,0
	bl           ?HvPeekQWORD@@YA_K_K@Z
	std          r3,Fuses$(r1)
; Line 122
	lis          r8,2
	ori          r3,r8,2560		; 0A00h
	lis          r7,-32768		; 8000h
	ori          r6,r7,512		; 200h
	rldimi       r3,r6,32,0
	bl           ?HvPeekQWORD@@YA_K_K@Z
	std          r3,Fuses$+8(r1)
; Line 123
	li           r5,16		; 10h
	addi         r4,r1,Fuses$
	lwz          r3,CPUKey$(r1)		; 132 (84h)
	bl           memcpy
; Line 125
	li           r3,1
; Line 126
	addi         r1,r1,112		; 70h
	lwz          r12,-8(r1)
	mtlr         r12
	blr
$M73072:
; End code for function: ?GetCPUKey@@YA_NPAE@Z
?GetCPUKey@@YA_NPAE@Z ENDP
							; GetCPUKey
PUBLIC	??_C@_02JDPG@rb?$AA@				; `string'
EXTRN	fread:PROC
EXTRN	malloc:PROC
EXTRN	rewind:PROC
EXTRN	ftell:PROC
EXTRN	fseek:PROC
;	COMDAT .pdata
.pdata	SEGMENT
$T73079	DD	?GetFile@@YAPAEPADPAK@Z
	DD	040002d03H
;	COMDAT ??_C@_02JDPG@rb?$AA@
.rdata	SEGMENT
??_C@_02JDPG@rb?$AA@ DB 'rb', 00H			; `string'
; Function compile flags: /Odtu

	.code
f$ = 80							; size = 4
pbReturnData$ = 84					; size = 4

?GetFile@@YAPAEPADPAK@Z	PROC NEAR			; GetFile, COMDAT

; Begin code for function: ?GetFile@@YAPAEPADPAK@Z
; Line 128
	mflr         r12
	stw          r12,-8(r1)
	stwu         r1,-60h(r1)
.endprolog
$M73077:
	stw          r3,szPath$(r1)		; 116 (74h)
	stw          r4,pdwOutSize$(r1)		; 124 (7Ch)
; Line 129
	lis          r11,??_C@_02JDPG@rb?$AA@
	addi         r4,r11,??_C@_02JDPG@rb?$AA@
	lwz          r3,szPath$(r1)		; 116 (74h)
	bl           fopen
	stw          r3,f$(r1)		; 80 (50h)
; Line 131
	lwz          r10,f$(r1)		; 80 (50h)
	cmplwi       cr6,r10,0
	bne          cr6,$LN1@GetFile
; Line 133
	lwz          r9,pdwOutSize$(r1)		; 124 (7Ch)
	li           r8,0
	stw          r8,0(r9)
; Line 134
	li           r3,0
	b            $LN2@GetFile
$LN1@GetFile:
; Line 137
	li           r5,2
	li           r4,0
	lwz          r3,f$(r1)		; 80 (50h)
	bl           fseek
; Line 138
	lwz          r3,f$(r1)		; 80 (50h)
	bl           ftell
	lwz          r7,pdwOutSize$(r1)		; 124 (7Ch)
	stw          r3,0(r7)
; Line 139
	lwz          r3,f$(r1)		; 80 (50h)
	bl           rewind
; Line 141
	lwz          r6,pdwOutSize$(r1)		; 124 (7Ch)
	lwz          r3,0(r6)
	bl           malloc
	stw          r3,pbReturnData$(r1)		; 84 (54h)
; Line 143
	lwz          r6,f$(r1)		; 80 (50h)
	lwz          r5,pdwOutSize$(r1)		; 124 (7Ch)
	lwz          r5,0(r5)
	li           r4,1
	lwz          r3,pbReturnData$(r1)		; 84 (54h)
	bl           fread
; Line 145
	lwz          r3,f$(r1)		; 80 (50h)
	bl           fclose
; Line 147
	lwz          r3,pbReturnData$(r1)		; 84 (54h)
$LN2@GetFile:
; Line 148
	addi         r1,r1,96		; 60h
	lwz          r12,-8(r1)
	mtlr         r12
	blr
$M73078:
; End code for function: ?GetFile@@YAPAEPADPAK@Z
?GetFile@@YAPAEPADPAK@Z ENDP
							; GetFile
PUBLIC	??_C@_02GMLFBBN@wb?$AA@				; `string'
PUBLIC	?DumpFile@@YA_NPADPAEK@Z			; DumpFile
EXTRN	fflush:PROC
EXTRN	fwrite:PROC
;	COMDAT .pdata
.pdata	SEGMENT
$T73085	DD	?DumpFile@@YA_NPADPAEK@Z
	DD	040001e03H
;	COMDAT ??_C@_02GMLFBBN@wb?$AA@
.rdata	SEGMENT
??_C@_02GMLFBBN@wb?$AA@ DB 'wb', 00H			; `string'
; Function compile flags: /Odtu

	.code
f$ = 80							; size = 4

?DumpFile@@YA_NPADPAEK@Z PROC NEAR			; DumpFile, COMDAT

; Begin code for function: ?DumpFile@@YA_NPADPAEK@Z
; Line 150
	mflr         r12
	stw          r12,-8(r1)
	stwu         r1,-60h(r1)
.endprolog
$M73083:
	stw          r3,szFileName$(r1)		; 116 (74h)
	stw          r4,pbData$(r1)		; 124 (7Ch)
	stw          r5,dwSize$(r1)		; 132 (84h)
; Line 151
	lis          r11,??_C@_02GMLFBBN@wb?$AA@
	addi         r4,r11,??_C@_02GMLFBBN@wb?$AA@
	lwz          r3,szFileName$(r1)		; 116 (74h)
	bl           fopen
	stw          r3,f$(r1)		; 80 (50h)
; Line 153
	lwz          r10,f$(r1)		; 80 (50h)
	cmplwi       cr6,r10,0
	beq          cr6,$LN1@DumpFile
; Line 155
	lwz          r6,f$(r1)		; 80 (50h)
	lwz          r5,dwSize$(r1)		; 132 (84h)
	li           r4,1
	lwz          r3,pbData$(r1)		; 124 (7Ch)
	bl           fwrite
; Line 156
	lwz          r3,f$(r1)		; 80 (50h)
	bl           fflush
; Line 157
	lwz          r3,f$(r1)		; 80 (50h)
	bl           fclose
; Line 158
	li           r3,1
	b            $LN2@DumpFile
$LN1@DumpFile:
; Line 161
	li           r3,0
$LN2@DumpFile:
; Line 162
	addi         r1,r1,96		; 60h
	lwz          r12,-8(r1)
	mtlr         r12
	blr
$M73084:
; End code for function: ?DumpFile@@YA_NPADPAEK@Z
?DumpFile@@YA_NPADPAEK@Z ENDP
							; DumpFile
PUBLIC	?ResolveFunction@@YAKPADK@Z			; ResolveFunction
EXTRN	XexGetProcedureAddress:PROC
EXTRN	XexGetModuleHandle:PROC
;	COMDAT .pdata
.pdata	SEGMENT
$T73091	DD	?ResolveFunction@@YAKPADK@Z
	DD	040001f03H
; Function compile flags: /Odtu

	.code
Return$ = 80						; size = 4
Handle$ = 84						; size = 4
Pointer$ = 88						; size = 4

?ResolveFunction@@YAKPADK@Z PROC NEAR			; ResolveFunction, COMDAT

; Begin code for function: ?ResolveFunction@@YAKPADK@Z
; Line 164
	mflr         r12
	stw          r12,-8(r1)
	stwu         r1,-70h(r1)
.endprolog
$M73089:
	stw          r3,Module$(r1)		; 132 (84h)
	stw          r4,Ordinal$(r1)		; 140 (8Ch)
; Line 165
	li           r11,0
	stw          r11,Return$(r1)		; 80 (50h)
	li           r10,0
	stw          r10,Pointer$(r1)		; 88 (58h)
; Line 167
	addi         r4,r1,Handle$
	lwz          r3,Module$(r1)		; 132 (84h)
	bl           XexGetModuleHandle
	stw          r3,Return$(r1)		; 80 (50h)
; Line 168
	lwz          r9,Return$(r1)		; 80 (50h)
	cmplwi       cr6,r9,0
	bne          cr6,$LN2@ResolveFun
; Line 170
	addi         r5,r1,Pointer$
	lwz          r4,Ordinal$(r1)		; 140 (8Ch)
	lwz          r3,Handle$(r1)		; 84 (54h)
	bl           XexGetProcedureAddress
	stw          r3,Return$(r1)		; 80 (50h)
; Line 171
	lwz          r8,Pointer$(r1)		; 88 (58h)
	cmplwi       cr6,r8,0
	beq          cr6,$LN2@ResolveFun
; Line 172
	lwz          r3,Pointer$(r1)		; 88 (58h)
	b            $LN3@ResolveFun
$LN2@ResolveFun:
; Line 174
	li           r3,0
$LN3@ResolveFun:
; Line 175
	addi         r1,r1,112		; 70h
	lwz          r12,-8(r1)
	mtlr         r12
	blr
$M73090:
; End code for function: ?ResolveFunction@@YAKPADK@Z
?ResolveFunction@@YAKPADK@Z ENDP
							; ResolveFunction
PUBLIC	?PatchInJump@@YAXPAKK_N@Z			; PatchInJump
; Function compile flags: /Odtu

	.code

?PatchInJump@@YAXPAKK_N@Z PROC NEAR			; PatchInJump, COMDAT

; Begin code for function: ?PatchInJump@@YAXPAKK_N@Z
; Line 177
	stw          r3,addr$(r1)		; 20 (14h)
	stw          r4,dest$(r1)		; 28 (1Ch)
	stb          r5,linked$(r1)		; 39 (27h)
; Line 178
	lwz          r11,dest$(r1)		; 28 (1Ch)
	rlwinm       r10,r11,0,16,16
	cmplwi       cr6,r10,0
	beq          cr6,$LN3@PatchInJum
; Line 179
	lwz          r9,dest$(r1)		; 28 (1Ch)
	srwi         r8,r9,16
	clrlwi       r7,r8,16
	lis          r6,15712		; 3D60h
	ori          r5,r6,1
	add          r4,r7,r5
	lwz          r3,addr$(r1)		; 20 (14h)
	stw          r4,0(r3)
; Line 180
	b            $LN2@PatchInJum
$LN3@PatchInJum:
; Line 181
	lwz          r11,dest$(r1)		; 28 (1Ch)
	srwi         r10,r11,16
	clrlwi       r9,r10,16
	lis          r8,15712		; 3D60h
	add          r7,r9,r8
	lwz          r6,addr$(r1)		; 20 (14h)
	stw          r7,0(r6)
$LN2@PatchInJum:
; Line 183
	lwz          r5,dest$(r1)		; 28 (1Ch)
	clrlwi       r4,r5,16
	lis          r3,14699		; 396Bh
	add          r11,r4,r3
	lwz          r10,addr$(r1)		; 20 (14h)
	stw          r11,4(r10)
; Line 184
	lwz          r9,addr$(r1)		; 20 (14h)
	lis          r8,32105		; 7D69h
	ori          r7,r8,934		; 3A6h
	stw          r7,8(r9)
; Line 186
	lwz          r6,addr$(r1)		; 20 (14h)
	lis          r5,20096		; 4E80h
	ori          r4,r5,1056		; 420h
	stw          r4,0Ch(r6)
; Line 187
	lbz          r3,linked$(r1)		; 39 (27h)
	cmpwi        cr6,r3,0
	beq          cr6,$LN1@PatchInJum
; Line 188
	lwz          r11,addr$(r1)		; 20 (14h)
	lwz          r10,0Ch(r11)
	addi         r9,r10,1
	lwz          r8,addr$(r1)		; 20 (14h)
	stw          r9,0Ch(r8)
$LN1@PatchInJum:
; Line 190
	lwz          r7,addr$(r1)		; 20 (14h)
	dcbst        r0,r7
; Line 191
	sync
; Line 192
	blr
; End code for function: ?PatchInJump@@YAXPAKK_N@Z
?PatchInJump@@YAXPAKK_N@Z ENDP
							; PatchInJump
PUBLIC	?GLPR@@YAXXZ					; GLPR
; Function compile flags: /Odtu

	.code

?GLPR@@YAXXZ PROC NEAR					; GLPR, COMDAT

; Begin code for function: ?GLPR@@YAXXZ
; Line 197
	std          r14,-98h(r1)
; Line 198
	std          r15,-90h(r1)
; Line 199
	std          r16,-88h(r1)
; Line 200
	std          r17,-80h(r1)
; Line 201
	std          r18,-78h(r1)
; Line 202
	std          r19,-70h(r1)
; Line 203
	std          r20,-68h(r1)
; Line 204
	std          r21,-60h(r1)
; Line 205
	std          r22,-58h(r1)
; Line 206
	std          r23,-50h(r1)
; Line 207
	std          r24,-48h(r1)
; Line 208
	std          r25,-40h(r1)
; Line 209
	std          r26,-38h(r1)
; Line 210
	std          r27,-30h(r1)
; Line 211
	std          r28,-28h(r1)
; Line 212
	std          r29,-20h(r1)
; Line 213
	std          r30,-18h(r1)
; Line 214
	std          r31,-10h(r1)
; Line 215
	stw          r12,-8(r1)
; Line 216
	blr
; End code for function: ?GLPR@@YAXXZ
?GLPR@@YAXXZ ENDP
							; GLPR
PUBLIC	?RelinkGPLR@@YAKKPAK0@Z				; RelinkGPLR
; Function compile flags: /Odtu

	.code
Saver$ = -32						; size = 4
Instruction$ = -28					; size = 4
Replacing$ = -24					; size = 4
i$71304 = -20						; size = 4
NewOffset$71309 = -16					; size = 4

?RelinkGPLR@@YAKKPAK0@Z	PROC NEAR			; RelinkGPLR, COMDAT

; Begin code for function: ?RelinkGPLR@@YAKKPAK0@Z
; Line 220
	stw          r3,SFSOffset$(r1)		; 20 (14h)
	stw          r4,SaveStubAddress$(r1)		; 28 (1Ch)
	stw          r5,OriginalAddress$(r1)		; 36 (24h)
; Line 221
	li           r11,0
	stw          r11,Instruction$(r1)		; 4294967268 (0FFFFFFE4h)
; Line 222
	lis          r10,?GLPR@@YAXXZ
	addi         r9,r10,?GLPR@@YAXXZ
	stw          r9,Saver$(r1)		; 4294967264 (0FFFFFFE0h)
; Line 224
	lwz          r8,SFSOffset$(r1)		; 20 (14h)
	rlwinm       r7,r8,0,6,6
	cmplwi       cr6,r7,0
	beq          cr6,$LN5@RelinkGPLR
; Line 225
	lwz          r6,SFSOffset$(r1)		; 20 (14h)
	oris         r5,r6,64512		; 0FC00h
	stw          r5,SFSOffset$(r1)		; 20 (14h)
$LN5@RelinkGPLR:
; Line 227
	lwz          r4,SFSOffset$(r1)		; 20 (14h)
	li           r3,4
	divwu        r11,r4,r3
	slwi         r10,r11,2
	lwz          r9,OriginalAddress$(r1)		; 36 (24h)
	lwzx         r8,r9,r10
	stw          r8,Replacing$(r1)		; 4294967272 (0FFFFFFE8h)
; Line 228
	li           r7,0
	stw          r7,i$71304(r1)		; 4294967276 (0FFFFFFECh)
	b            $LN4@RelinkGPLR
$LN3@RelinkGPLR:
	lwz          r6,i$71304(r1)		; 4294967276 (0FFFFFFECh)
	addi         r5,r6,1
	stw          r5,i$71304(r1)		; 4294967276 (0FFFFFFECh)
$LN4@RelinkGPLR:
	lwz          r4,i$71304(r1)		; 4294967276 (0FFFFFFECh)
	cmpwi        cr6,r4,20		; 14h
	bge          cr6,$LN2@RelinkGPLR
; Line 230
	lwz          r3,i$71304(r1)		; 4294967276 (0FFFFFFECh)
	slwi         r11,r3,2
	lwz          r10,Saver$(r1)		; 4294967264 (0FFFFFFE0h)
	lwz          r9,Replacing$(r1)		; 4294967272 (0FFFFFFE8h)
	lwzx         r8,r10,r11
	cmplw        cr6,r9,r8
	bne          cr6,$LN1@RelinkGPLR
; Line 232
	lwz          r7,i$71304(r1)		; 4294967276 (0FFFFFFECh)
	slwi         r6,r7,2
	lwz          r5,Saver$(r1)		; 4294967264 (0FFFFFFE0h)
	add          r4,r5,r6
	lwz          r3,SaveStubAddress$(r1)		; 28 (1Ch)
	subf         r11,r3,r4
	stw          r11,NewOffset$71309(r1)		; 4294967280 (0FFFFFFF0h)
; Line 233
	lwz          r10,NewOffset$71309(r1)		; 4294967280 (0FFFFFFF0h)
	rlwinm       r9,r10,0,6,29
	oris         r8,r9,18432		; 4800h
	ori          r8,r8,1
	stw          r8,Instruction$(r1)		; 4294967268 (0FFFFFFE4h)
$LN1@RelinkGPLR:
; Line 235
	b            $LN3@RelinkGPLR
$LN2@RelinkGPLR:
; Line 236
	lwz          r3,Instruction$(r1)		; 4294967268 (0FFFFFFE4h)
; Line 237
	blr
; End code for function: ?RelinkGPLR@@YAKKPAK0@Z
?RelinkGPLR@@YAKKPAK0@Z ENDP
							; RelinkGPLR
PUBLIC	?HookFunctionStart@@YAXPAK0K@Z			; HookFunctionStart
;	COMDAT .pdata
.pdata	SEGMENT
$T73103	DD	?HookFunctionStart@@YAXPAK0K@Z
	DD	040007203H
; Function compile flags: /Odtu

	.code
AddressRelocation$71318 = 80				; size = 4
i$71322 = 84						; size = 4

?HookFunctionStart@@YAXPAK0K@Z PROC NEAR			; HookFunctionStart, COMDAT

; Begin code for function: ?HookFunctionStart@@YAXPAK0K@Z
; Line 239
	mflr         r12
	stw          r12,-8(r1)
	stwu         r1,-60h(r1)
.endprolog
$M73101:
	stw          r3,Address$(r1)		; 116 (74h)
	stw          r4,SaveStub$(r1)		; 124 (7Ch)
	stw          r5,Destination$(r1)		; 132 (84h)
; Line 240
	lwz          r11,SaveStub$(r1)		; 124 (7Ch)
	cmplwi       cr6,r11,0
	beq          cr6,$LN9@HookFuncti
	lwz          r10,Address$(r1)		; 116 (74h)
	cmplwi       cr6,r10,0
	beq          cr6,$LN9@HookFuncti
; Line 242
	lwz          r9,Address$(r1)		; 116 (74h)
	addi         r8,r9,16		; 10h
	stw          r8,AddressRelocation$71318(r1)		; 80 (50h)
; Line 244
	lwz          r7,AddressRelocation$71318(r1)		; 80 (50h)
	rlwinm       r6,r7,0,16,16
	cmplwi       cr6,r6,0
	beq          cr6,$LN7@HookFuncti
; Line 246
	lwz          r5,AddressRelocation$71318(r1)		; 80 (50h)
	srwi         r4,r5,16
	clrlwi       r3,r4,16
	lis          r11,15712		; 3D60h
	ori          r10,r11,1
	add          r9,r3,r10
	lwz          r8,SaveStub$(r1)		; 124 (7Ch)
	stw          r9,0(r8)
; Line 248
	b            $LN6@HookFuncti
$LN7@HookFuncti:
; Line 250
	lwz          r7,AddressRelocation$71318(r1)		; 80 (50h)
	srwi         r6,r7,16
	clrlwi       r5,r6,16
	lis          r4,15712		; 3D60h
	add          r3,r5,r4
	lwz          r11,SaveStub$(r1)		; 124 (7Ch)
	stw          r3,0(r11)
$LN6@HookFuncti:
; Line 253
	lwz          r10,AddressRelocation$71318(r1)		; 80 (50h)
	clrlwi       r9,r10,16
	lis          r8,14699		; 396Bh
	add          r7,r9,r8
	lwz          r6,SaveStub$(r1)		; 124 (7Ch)
	stw          r7,4(r6)
; Line 254
	lwz          r5,SaveStub$(r1)		; 124 (7Ch)
	lis          r4,32105		; 7D69h
	ori          r3,r4,934		; 3A6h
	stw          r3,8(r5)
; Line 256
	li           r11,0
	stw          r11,i$71322(r1)		; 84 (54h)
	b            $LN5@HookFuncti
$LN4@HookFuncti:
	lwz          r10,i$71322(r1)		; 84 (54h)
	addi         r9,r10,1
	stw          r9,i$71322(r1)		; 84 (54h)
$LN5@HookFuncti:
	lwz          r8,i$71322(r1)		; 84 (54h)
	cmpwi        cr6,r8,4
	bge          cr6,$LN3@HookFuncti
; Line 258
	lwz          r7,i$71322(r1)		; 84 (54h)
	slwi         r6,r7,2
	lwz          r5,Address$(r1)		; 116 (74h)
	lwzx         r4,r5,r6
	lis          r12,18432		; 4800h
	ori          r12,r12,3
	and          r3,r4,r12
	lis          r11,18432		; 4800h
	ori          r10,r11,1
	cmplw        cr6,r3,r10
	bne          cr6,$LN2@HookFuncti
; Line 260
	lwz          r9,i$71322(r1)		; 84 (54h)
	slwi         r8,r9,2
	lwz          r7,Address$(r1)		; 116 (74h)
	add          r5,r7,r8
	lwz          r6,i$71322(r1)		; 84 (54h)
	addi         r4,r6,3
	slwi         r3,r4,2
	lwz          r11,SaveStub$(r1)		; 124 (7Ch)
	add          r4,r11,r3
	lwz          r10,i$71322(r1)		; 84 (54h)
	slwi         r9,r10,2
	lwz          r8,Address$(r1)		; 116 (74h)
	lwzx         r7,r8,r9
	lis          r12,-18433		; 0B7FFh
	ori          r12,r12,65532		; 0FFFCh
	and          r3,r7,r12
	bl           ?RelinkGPLR@@YAKKPAK0@Z
	lwz          r6,i$71322(r1)		; 84 (54h)
	addi         r5,r6,3
	slwi         r4,r5,2
	lwz          r11,SaveStub$(r1)		; 124 (7Ch)
	stwx         r3,r11,r4
; Line 262
	b            $LN1@HookFuncti
$LN2@HookFuncti:
; Line 264
	lwz          r10,i$71322(r1)		; 84 (54h)
	slwi         r9,r10,2
	lwz          r8,Address$(r1)		; 116 (74h)
	lwz          r7,i$71322(r1)		; 84 (54h)
	addi         r6,r7,3
	slwi         r5,r6,2
	lwz          r4,SaveStub$(r1)		; 124 (7Ch)
	lwzx         r3,r8,r9
	stwx         r3,r4,r5
$LN1@HookFuncti:
; Line 266
	b            $LN4@HookFuncti
$LN3@HookFuncti:
; Line 268
	lwz          r11,SaveStub$(r1)		; 124 (7Ch)
	lis          r10,20096		; 4E80h
	ori          r9,r10,1056		; 420h
	stw          r9,1Ch(r11)
; Line 269
	lwz          r8,SaveStub$(r1)		; 124 (7Ch)
	dcbst        r0,r8
; Line 270
	sync
; Line 271
	isync
; Line 273
	li           r5,0
	lwz          r4,Destination$(r1)		; 132 (84h)
	lwz          r3,Address$(r1)		; 116 (74h)
	bl           ?PatchInJump@@YAXPAKK_N@Z
$LN9@HookFuncti:
; Line 275
	addi         r1,r1,96		; 60h
	lwz          r12,-8(r1)
	mtlr         r12
	blr
$M73102:
; End code for function: ?HookFunctionStart@@YAXPAK0K@Z
?HookFunctionStart@@YAXPAK0K@Z ENDP
							; HookFunctionStart
PUBLIC	?PatchModuleImport@@YAKPAU_LDR_DATA_TABLE_ENTRY@@PADKK@Z ; PatchModuleImport
EXTRN	RtlImageXexHeaderField:PROC
;	COMDAT .pdata
.pdata	SEGMENT
$T73109	DD	?PatchModuleImport@@YAKPAU_LDR_DATA_TABLE_ENTRY@@PADKK@Z
	DD	040006b03H
; Function compile flags: /Odtu

	.code
importDesc$ = 80					; size = 4
importTable$ = 84					; size = 4
stringTable$ = 88					; size = 4
result$ = 92						; size = 4
headerBase$ = 96					; size = 4
address$ = 100						; size = 4
x$71349 = 104						; size = 4
importAdd$71353 = 108					; size = 4
y$71355 = 112						; size = 4
value$71359 = 116					; size = 4
newCode$71363 = 128					; size = 16

?PatchModuleImport@@YAKPAU_LDR_DATA_TABLE_ENTRY@@PADKK@Z PROC NEAR ; PatchModuleImport, COMDAT

; Begin code for function: ?PatchModuleImport@@YAKPAU_LDR_DATA_TABLE_ENTRY@@PADKK@Z
; Line 277
	mflr         r12
	stw          r12,-8(r1)
	stwu         r1,-0A0h(r1)
.endprolog
$M73107:
	stw          r3,Module$(r1)		; 180 (0B4h)
	stw          r4,ImportedModuleName$(r1)		; 188 (0BCh)
	stw          r5,Ordinal$(r1)		; 196 (0C4h)
	stw          r6,PatchAddress$(r1)		; 204 (0CCh)
; Line 278
	lwz          r4,Ordinal$(r1)		; 196 (0C4h)
	lwz          r3,ImportedModuleName$(r1)		; 188 (0BCh)
	bl           ?ResolveFunction@@YAKPADK@Z
	stw          r3,address$(r1)		; 100 (64h)
; Line 279
	lwz          r11,address$(r1)		; 100 (64h)
	cmplwi       cr6,r11,0
	bne          cr6,$LN9@PatchModul
; Line 280
	li           r3,1
	b            $LN10@PatchModul
$LN9@PatchModul:
; Line 282
	lwz          r10,Module$(r1)		; 180 (0B4h)
	lwz          r9,58h(r10)
	stw          r9,headerBase$(r1)		; 96 (60h)
; Line 283
	lis          r8,1
	ori          r4,r8,1023		; 3FFh
	lwz          r3,headerBase$(r1)		; 96 (60h)
	bl           RtlImageXexHeaderField
	stw          r3,importDesc$(r1)		; 80 (50h)
; Line 284
	lwz          r7,importDesc$(r1)		; 80 (50h)
	cmplwi       cr6,r7,0
	bne          cr6,$LN8@PatchModul
; Line 285
	li           r3,1
	b            $LN10@PatchModul
$LN8@PatchModul:
; Line 287
	li           r6,2
	stw          r6,result$(r1)		; 92 (5Ch)
; Line 288
	lwz          r5,importDesc$(r1)		; 80 (50h)
	addi         r4,r5,12		; 0Ch
	stw          r4,stringTable$(r1)		; 88 (58h)
; Line 289
	lwz          r3,importDesc$(r1)		; 80 (50h)
	lwz          r11,stringTable$(r1)		; 88 (58h)
	lwz          r10,4(r3)
	add          r9,r11,r10
	stw          r9,importTable$(r1)		; 84 (54h)
; Line 291
	li           r8,0
	stw          r8,x$71349(r1)		; 104 (68h)
	b            $LN7@PatchModul
$LN6@PatchModul:
	lwz          r7,x$71349(r1)		; 104 (68h)
	addi         r6,r7,1
	stw          r6,x$71349(r1)		; 104 (68h)
$LN7@PatchModul:
	lwz          r5,importDesc$(r1)		; 80 (50h)
	lwz          r4,x$71349(r1)		; 104 (68h)
	lwz          r3,8(r5)
	cmplw        cr6,r4,r3
	bge          cr6,$LN5@PatchModul
; Line 293
	lwz          r11,importTable$(r1)		; 84 (54h)
	addi         r10,r11,40		; 28h
	stw          r10,importAdd$71353(r1)		; 108 (6Ch)
; Line 294
	li           r9,0
	stw          r9,y$71355(r1)		; 112 (70h)
	b            $LN4@PatchModul
$LN3@PatchModul:
	lwz          r8,y$71355(r1)		; 112 (70h)
	addi         r7,r8,1
	stw          r7,y$71355(r1)		; 112 (70h)
$LN4@PatchModul:
	lwz          r6,importTable$(r1)		; 84 (54h)
	lhz          r5,26h(r6)
	lwz          r4,y$71355(r1)		; 112 (70h)
	cmplw        cr6,r4,r5
	bge          cr6,$LN2@PatchModul
; Line 296
	lwz          r3,y$71355(r1)		; 112 (70h)
	slwi         r11,r3,2
	lwz          r10,importAdd$71353(r1)		; 108 (6Ch)
	lwzx         r9,r10,r11
	lwz          r8,0(r9)
	stw          r8,value$71359(r1)		; 116 (74h)
; Line 297
	lwz          r7,value$71359(r1)		; 116 (74h)
	lwz          r6,address$(r1)		; 100 (64h)
	cmplw        cr6,r7,r6
	bne          cr6,$LN1@PatchModul
; Line 299
	li           r5,4
	addi         r4,r1,PatchAddress$
	lwz          r3,y$71355(r1)		; 112 (70h)
	slwi         r11,r3,2
	lwz          r10,importAdd$71353(r1)		; 108 (6Ch)
	lwzx         r3,r10,r11
	bl           memcpy
; Line 301
	li           r5,0
	lwz          r4,PatchAddress$(r1)		; 204 (0CCh)
	addi         r3,r1,newCode$71363
	bl           ?PatchInJump@@YAXPAKK_N@Z
; Line 302
	li           r5,16		; 10h
	addi         r4,r1,newCode$71363
	lwz          r9,y$71355(r1)		; 112 (70h)
	addi         r8,r9,1
	slwi         r7,r8,2
	lwz          r6,importAdd$71353(r1)		; 108 (6Ch)
	lwzx         r3,r6,r7
	bl           memcpy
; Line 304
	li           r5,0
	stw          r5,result$(r1)		; 92 (5Ch)
$LN1@PatchModul:
; Line 306
	b            $LN3@PatchModul
$LN2@PatchModul:
; Line 308
	lwz          r4,importTable$(r1)		; 84 (54h)
	lwz          r3,importTable$(r1)		; 84 (54h)
	lwz          r11,0(r3)
	add          r10,r4,r11
	stw          r10,importTable$(r1)		; 84 (54h)
; Line 309
	b            $LN6@PatchModul
$LN5@PatchModul:
; Line 311
	lwz          r3,result$(r1)		; 92 (5Ch)
$LN10@PatchModul:
; Line 312
	addi         r1,r1,160		; 0A0h
	lwz          r12,-8(r1)
	mtlr         r12
	blr
$M73108:
; End code for function: ?PatchModuleImport@@YAKPAU_LDR_DATA_TABLE_ENTRY@@PADKK@Z
?PatchModuleImport@@YAKPAU_LDR_DATA_TABLE_ENTRY@@PADKK@Z ENDP
							; PatchModuleImport
PUBLIC	?PatchModuleImport@@YAKPAD0KK@Z			; PatchModuleImport
EXTRN	GetModuleHandleA:PROC
;	COMDAT .pdata
.pdata	SEGMENT
$T73117	DD	?PatchModuleImport@@YAKPAD0KK@Z
	DD	040001b03H
; Function compile flags: /Odtu

	.code
moduleHandle$ = 80					; size = 4
tv72 = 84						; size = 4

?PatchModuleImport@@YAKPAD0KK@Z	PROC NEAR		; PatchModuleImport, COMDAT

; Begin code for function: ?PatchModuleImport@@YAKPAD0KK@Z
; Line 314
	mflr         r12
	stw          r12,-8(r1)
	stwu         r1,-60h(r1)
.endprolog
$M73115:
	stw          r3,Module$(r1)		; 116 (74h)
	stw          r4,ImportedModuleName$(r1)		; 124 (7Ch)
	stw          r5,Ordinal$(r1)		; 132 (84h)
	stw          r6,PatchAddress$(r1)		; 140 (8Ch)
; Line 315
	lwz          r3,Module$(r1)		; 116 (74h)
	bl           GetModuleHandleA
	stw          r3,moduleHandle$(r1)		; 80 (50h)
; Line 316
	lwz          r11,moduleHandle$(r1)		; 80 (50h)
	cmplwi       cr6,r11,0
	bne          cr6,$LN3@PatchModul@2
	li           r10,1
	stw          r10,54h(r1)
	b            $LN4@PatchModul@2
$LN3@PatchModul@2:
	lwz          r6,PatchAddress$(r1)		; 140 (8Ch)
	lwz          r5,Ordinal$(r1)		; 132 (84h)
	lwz          r4,ImportedModuleName$(r1)		; 124 (7Ch)
	lwz          r3,moduleHandle$(r1)		; 80 (50h)
	bl           ?PatchModuleImport@@YAKPAU_LDR_DATA_TABLE_ENTRY@@PADKK@Z
	stw          r3,54h(r1)
$LN4@PatchModul@2:
	lwz          r3,54h(r1)
; Line 317
	addi         r1,r1,96		; 60h
	lwz          r12,-8(r1)
	mtlr         r12
	blr
$M73116:
; End code for function: ?PatchModuleImport@@YAKPAD0KK@Z
?PatchModuleImport@@YAKPAD0KK@Z ENDP
							; PatchModuleImport
PUBLIC	?InitializeHvPeekPoke@@YAJXZ			; InitializeHvPeekPoke
EXTRN	XPhysicalFree:PROC
EXTRN	memset:PROC
EXTRN	MmGetPhysicalAddress:PROC
EXTRN	XPhysicalAlloc:PROC
;	COMDAT .pdata
.pdata	SEGMENT
$T73123	DD	?InitializeHvPeekPoke@@YAJXZ
	DD	040002103H
; Function compile flags: /Odtu

	.code
pPhysExp$ = 80						; size = 4
physExpAdd$ = 84					; size = 4
result$ = 88						; size = 4

?InitializeHvPeekPoke@@YAJXZ PROC NEAR			; InitializeHvPeekPoke, COMDAT

; Begin code for function: ?InitializeHvPeekPoke@@YAJXZ
; Line 343
	mflr         r12
	stw          r12,-8(r1)
	stwu         r1,-70h(r1)
.endprolog
$M73121:
; Line 346
	li           r6,4
	li           r5,0
	li           r4,-1		; 0FFFFh
	li           r3,4096		; 1000h
	bl           XPhysicalAlloc
	stw          r3,pPhysExp$(r1)		; 80 (50h)
; Line 347
	lwz          r3,pPhysExp$(r1)		; 80 (50h)
	bl           MmGetPhysicalAddress
	stw          r3,physExpAdd$(r1)		; 84 (54h)
; Line 350
	li           r5,4096		; 1000h
	li           r4,0
	lwz          r3,pPhysExp$(r1)		; 80 (50h)
	bl           memset
; Line 351
	li           r5,752		; 2F0h
	lis          r11,HvPeekPokeExp
	addi         r4,r11,HvPeekPokeExp
	lwz          r3,pPhysExp$(r1)		; 80 (50h)
	bl           memcpy
; Line 354
	li           r4,4096		; 1000h
	lwz          r3,physExpAdd$(r1)		; 84 (54h)
	bl           ?HvxExpansionInstall@@YA_KKK@Z
	rlwinm       r10,r3,0,0,31
	stw          r10,result$(r1)		; 88 (58h)
; Line 357
	lwz          r3,pPhysExp$(r1)		; 80 (50h)
	bl           XPhysicalFree
; Line 360
	lwz          r3,result$(r1)		; 88 (58h)
; Line 361
	addi         r1,r1,112		; 70h
	lwz          r12,-8(r1)
	mtlr         r12
	blr
$M73122:
; End code for function: ?InitializeHvPeekPoke@@YAJXZ
?InitializeHvPeekPoke@@YAJXZ ENDP
							; InitializeHvPeekPoke
; Function compile flags: /Odtu

	.code

?HvxExpansionInstall@@YA_KKK@Z PROC NEAR			; HvxExpansionInstall, COMDAT

; Begin code for function: ?HvxExpansionInstall@@YA_KKK@Z
; Line 320
	li           r0,112		; 70h
; Line 321
	sc
; Line 322
	blr
; End code for function: ?HvxExpansionInstall@@YA_KKK@Z
?HvxExpansionInstall@@YA_KKK@Z ENDP
							; HvxExpansionInstall
PUBLIC	?HvPokeBytes@@YAJ_KQAXK@Z			; HvPokeBytes
PUBLIC	?HvBlowFuses@@YAXXZ				; HvBlowFuses
;	COMDAT .pdata
.pdata	SEGMENT
$T73131	DD	?HvBlowFuses@@YAXXZ
	DD	040001e03H
; Function compile flags: /Odtu

	.code
HvxBlowFusesData$ = 80					; size = 8

?HvBlowFuses@@YAXXZ PROC NEAR				; HvBlowFuses, COMDAT

; Begin code for function: ?HvBlowFuses@@YAXXZ
; Line 363
	mflr         r12
	stw          r12,-8(r1)
	stwu         r1,-60h(r1)
.endprolog
$M73129:
; Line 364
	li           r11,125		; 7Dh
	stb          r11,HvxBlowFusesData$(r1)		; 80 (50h)
	li           r10,136		; 88h
	stb          r10,HvxBlowFusesData$+1(r1)		; 81 (51h)
	li           r9,2
	stb          r9,HvxBlowFusesData$+2(r1)		; 82 (52h)
	li           r8,166		; 0A6h
	stb          r8,HvxBlowFusesData$+3(r1)		; 83 (53h)
	li           r7,72		; 48h
	stb          r7,HvxBlowFusesData$+4(r1)		; 84 (54h)
	li           r6,0
	stb          r6,HvxBlowFusesData$+5(r1)		; 85 (55h)
	li           r5,2
	stb          r5,HvxBlowFusesData$+6(r1)		; 86 (56h)
	li           r4,153		; 99h
	stb          r4,HvxBlowFusesData$+7(r1)		; 87 (57h)
; Line 365
	li           r5,8
	addi         r4,r1,HvxBlowFusesData$
	lis          r3,-32768		; 8000h
	ori          r11,r3,512		; 200h
	rldicr       r10,r11,32,31
	ori          r3,r10,42336		; 0A560h
	bl           ?HvPokeBytes@@YAJ_KQAXK@Z
; Line 366
	addi         r1,r1,96		; 60h
	lwz          r12,-8(r1)
	mtlr         r12
	blr
$M73130:
; End code for function: ?HvBlowFuses@@YAXXZ
?HvBlowFuses@@YAXXZ ENDP
							; HvBlowFuses
PUBLIC	?HvPeekBYTE@@YAE_K@Z				; HvPeekBYTE
;	COMDAT .pdata
.pdata	SEGMENT
$T73137	DD	?HvPeekBYTE@@YAE_K@Z
	DD	040001003H
; Function compile flags: /Odtu

	.code

?HvPeekBYTE@@YAE_K@Z PROC NEAR				; HvPeekBYTE, COMDAT

; Begin code for function: ?HvPeekBYTE@@YAE_K@Z
; Line 367
	mflr         r12
	stw          r12,-8(r1)
	stwu         r1,-60h(r1)
.endprolog
$M73135:
	std          r3,Address$(r1)
; Line 368
	li           r7,0
	li           r6,0
	ld           r5,Address$(r1)
	li           r4,0
	lis          r11,18518		; 4856h
	ori          r3,r11,20560		; 5050h
	bl           ?HvxExpansionCall@@YA_KK_K000@Z
	clrlwi       r3,r3,24
; Line 369
	addi         r1,r1,96		; 60h
	lwz          r12,-8(r1)
	mtlr         r12
	blr
$M73136:
; End code for function: ?HvPeekBYTE@@YAE_K@Z
?HvPeekBYTE@@YAE_K@Z ENDP
							; HvPeekBYTE
; Function compile flags: /Odtu

	.code

?HvxExpansionCall@@YA_KK_K000@Z	PROC NEAR		; HvxExpansionCall, COMDAT

; Begin code for function: ?HvxExpansionCall@@YA_KK_K000@Z
; Line 327
	li           r0,113		; 71h
; Line 328
	sc
; Line 329
	blr
; End code for function: ?HvxExpansionCall@@YA_KK_K000@Z
?HvxExpansionCall@@YA_KK_K000@Z ENDP
							; HvxExpansionCall
PUBLIC	?HvPeekWORD@@YAG_K@Z				; HvPeekWORD
;	COMDAT .pdata
.pdata	SEGMENT
$T73145	DD	?HvPeekWORD@@YAG_K@Z
	DD	040001003H
; Function compile flags: /Odtu

	.code

?HvPeekWORD@@YAG_K@Z PROC NEAR				; HvPeekWORD, COMDAT

; Begin code for function: ?HvPeekWORD@@YAG_K@Z
; Line 370
	mflr         r12
	stw          r12,-8(r1)
	stwu         r1,-60h(r1)
.endprolog
$M73143:
	std          r3,Address$(r1)
; Line 371
	li           r7,0
	li           r6,0
	ld           r5,Address$(r1)
	li           r4,1
	lis          r11,18518		; 4856h
	ori          r3,r11,20560		; 5050h
	bl           ?HvxExpansionCall@@YA_KK_K000@Z
	clrlwi       r3,r3,16
; Line 372
	addi         r1,r1,96		; 60h
	lwz          r12,-8(r1)
	mtlr         r12
	blr
$M73144:
; End code for function: ?HvPeekWORD@@YAG_K@Z
?HvPeekWORD@@YAG_K@Z ENDP
							; HvPeekWORD
PUBLIC	?HvPeekDWORD@@YAK_K@Z				; HvPeekDWORD
;	COMDAT .pdata
.pdata	SEGMENT
$T73151	DD	?HvPeekDWORD@@YAK_K@Z
	DD	040001003H
; Function compile flags: /Odtu

	.code

?HvPeekDWORD@@YAK_K@Z PROC NEAR				; HvPeekDWORD, COMDAT

; Begin code for function: ?HvPeekDWORD@@YAK_K@Z
; Line 373
	mflr         r12
	stw          r12,-8(r1)
	stwu         r1,-60h(r1)
.endprolog
$M73149:
	std          r3,Address$(r1)
; Line 374
	li           r7,0
	li           r6,0
	ld           r5,Address$(r1)
	li           r4,2
	lis          r11,18518		; 4856h
	ori          r3,r11,20560		; 5050h
	bl           ?HvxExpansionCall@@YA_KK_K000@Z
	rlwinm       r3,r3,0,0,31
; Line 375
	addi         r1,r1,96		; 60h
	lwz          r12,-8(r1)
	mtlr         r12
	blr
$M73150:
; End code for function: ?HvPeekDWORD@@YAK_K@Z
?HvPeekDWORD@@YAK_K@Z ENDP
							; HvPeekDWORD
;	COMDAT .pdata
.pdata	SEGMENT
$T73157	DD	?HvPeekQWORD@@YA_K_K@Z
	DD	040000f03H
; Function compile flags: /Odtu

	.code

?HvPeekQWORD@@YA_K_K@Z PROC NEAR				; HvPeekQWORD, COMDAT

; Begin code for function: ?HvPeekQWORD@@YA_K_K@Z
; Line 376
	mflr         r12
	stw          r12,-8(r1)
	stwu         r1,-60h(r1)
.endprolog
$M73155:
	std          r3,Address$(r1)
; Line 377
	li           r7,0
	li           r6,0
	ld           r5,Address$(r1)
	li           r4,3
	lis          r11,18518		; 4856h
	ori          r3,r11,20560		; 5050h
	bl           ?HvxExpansionCall@@YA_KK_K000@Z
; Line 378
	addi         r1,r1,96		; 60h
	lwz          r12,-8(r1)
	mtlr         r12
	blr
$M73156:
; End code for function: ?HvPeekQWORD@@YA_K_K@Z
?HvPeekQWORD@@YA_K_K@Z ENDP
							; HvPeekQWORD
PUBLIC	?HvPeekBytes@@YAJ_KPAXK@Z			; HvPeekBytes
;	COMDAT .pdata
.pdata	SEGMENT
$T73163	DD	?HvPeekBytes@@YAJ_KPAXK@Z
	DD	040002d04H
; Function compile flags: /Odtu

	.code
data$ = 80						; size = 4
result$ = 84						; size = 4

?HvPeekBytes@@YAJ_KPAXK@Z PROC NEAR			; HvPeekBytes, COMDAT

; Begin code for function: ?HvPeekBytes@@YAJ_KPAXK@Z
; Line 379
	mflr         r12
	stw          r12,-8(r1)
	std          r31,-10h(r1)
	stwu         r1,-70h(r1)
.endprolog
$M73161:
	std          r3,Address$(r1)
	stw          r4,Buffer$(r1)		; 140 (8Ch)
	stw          r5,Size$(r1)		; 148 (94h)
; Line 382
	li           r6,4
	li           r5,0
	li           r4,-1		; 0FFFFh
	lwz          r3,Size$(r1)		; 148 (94h)
	bl           XPhysicalAlloc
	stw          r3,data$(r1)		; 80 (50h)
; Line 383
	lwz          r5,Size$(r1)		; 148 (94h)
	li           r4,0
	lwz          r3,data$(r1)		; 80 (50h)
	bl           memset
; Line 386
	lwz          r7,Size$(r1)		; 148 (94h)
	mr           r31,r7
	lwz          r3,data$(r1)		; 80 (50h)
	bl           MmGetPhysicalAddress
	extsw        r6,r3
	ld           r5,Address$(r1)
	li           r4,4
	lis          r11,18518		; 4856h
	ori          r3,r11,20560		; 5050h
	mr           r7,r31
	bl           ?HvxExpansionCall@@YA_KK_K000@Z
	rlwinm       r10,r3,0,0,31
	stw          r10,result$(r1)		; 84 (54h)
; Line 389
	lwz          r9,result$(r1)		; 84 (54h)
	cmpwi        cr6,r9,0
	bne          cr6,$LN1@HvPeekByte
	lwz          r5,Size$(r1)		; 148 (94h)
	lwz          r4,data$(r1)		; 80 (50h)
	lwz          r3,Buffer$(r1)		; 140 (8Ch)
	bl           memcpy
$LN1@HvPeekByte:
; Line 392
	lwz          r3,data$(r1)		; 80 (50h)
	bl           XPhysicalFree
; Line 393
	lwz          r3,result$(r1)		; 84 (54h)
; Line 394
	addi         r1,r1,112		; 70h
	lwz          r12,-8(r1)
	mtlr         r12
	ld           r31,-10h(r1)
	blr
$M73162:
; End code for function: ?HvPeekBytes@@YAJ_KPAXK@Z
?HvPeekBytes@@YAJ_KPAXK@Z ENDP
							; HvPeekBytes
PUBLIC	?HvPokeBYTE@@YAJ_KE@Z				; HvPokeBYTE
;	COMDAT .pdata
.pdata	SEGMENT
$T73169	DD	?HvPokeBYTE@@YAJ_KE@Z
	DD	040001203H
; Function compile flags: /Odtu

	.code

?HvPokeBYTE@@YAJ_KE@Z PROC NEAR				; HvPokeBYTE, COMDAT

; Begin code for function: ?HvPokeBYTE@@YAJ_KE@Z
; Line 395
	mflr         r12
	stw          r12,-8(r1)
	stwu         r1,-60h(r1)
.endprolog
$M73167:
	std          r3,Address$(r1)
	stb          r4,Value$(r1)		; 127 (7Fh)
; Line 396
	li           r7,0
	lbz          r11,Value$(r1)		; 127 (7Fh)
	extsw        r6,r11
	ld           r5,Address$(r1)
	li           r4,5
	lis          r10,18518		; 4856h
	ori          r3,r10,20560		; 5050h
	bl           ?HvxExpansionCall@@YA_KK_K000@Z
	rlwinm       r3,r3,0,0,31
; Line 397
	addi         r1,r1,96		; 60h
	lwz          r12,-8(r1)
	mtlr         r12
	blr
$M73168:
; End code for function: ?HvPokeBYTE@@YAJ_KE@Z
?HvPokeBYTE@@YAJ_KE@Z ENDP
							; HvPokeBYTE
PUBLIC	?HvPokeWORD@@YAJ_KG@Z				; HvPokeWORD
;	COMDAT .pdata
.pdata	SEGMENT
$T73175	DD	?HvPokeWORD@@YAJ_KG@Z
	DD	040001203H
; Function compile flags: /Odtu

	.code

?HvPokeWORD@@YAJ_KG@Z PROC NEAR				; HvPokeWORD, COMDAT

; Begin code for function: ?HvPokeWORD@@YAJ_KG@Z
; Line 398
	mflr         r12
	stw          r12,-8(r1)
	stwu         r1,-60h(r1)
.endprolog
$M73173:
	std          r3,Address$(r1)
	sth          r4,Value$(r1)		; 126 (7Eh)
; Line 399
	li           r7,0
	lhz          r11,Value$(r1)		; 126 (7Eh)
	extsw        r6,r11
	ld           r5,Address$(r1)
	li           r4,6
	lis          r10,18518		; 4856h
	ori          r3,r10,20560		; 5050h
	bl           ?HvxExpansionCall@@YA_KK_K000@Z
	rlwinm       r3,r3,0,0,31
; Line 400
	addi         r1,r1,96		; 60h
	lwz          r12,-8(r1)
	mtlr         r12
	blr
$M73174:
; End code for function: ?HvPokeWORD@@YAJ_KG@Z
?HvPokeWORD@@YAJ_KG@Z ENDP
							; HvPokeWORD
PUBLIC	?HvPokeDWORD@@YAJ_KK@Z				; HvPokeDWORD
;	COMDAT .pdata
.pdata	SEGMENT
$T73181	DD	?HvPokeDWORD@@YAJ_KK@Z
	DD	040001103H
; Function compile flags: /Odtu

	.code

?HvPokeDWORD@@YAJ_KK@Z PROC NEAR				; HvPokeDWORD, COMDAT

; Begin code for function: ?HvPokeDWORD@@YAJ_KK@Z
; Line 401
	mflr         r12
	stw          r12,-8(r1)
	stwu         r1,-60h(r1)
.endprolog
$M73179:
	std          r3,Address$(r1)
	stw          r4,Value$(r1)		; 124 (7Ch)
; Line 402
	li           r7,0
	lwz          r6,Value$(r1)		; 124 (7Ch)
	ld           r5,Address$(r1)
	li           r4,7
	lis          r11,18518		; 4856h
	ori          r3,r11,20560		; 5050h
	bl           ?HvxExpansionCall@@YA_KK_K000@Z
	rlwinm       r3,r3,0,0,31
; Line 403
	addi         r1,r1,96		; 60h
	lwz          r12,-8(r1)
	mtlr         r12
	blr
$M73180:
; End code for function: ?HvPokeDWORD@@YAJ_KK@Z
?HvPokeDWORD@@YAJ_KK@Z ENDP
							; HvPokeDWORD
PUBLIC	?HvPokeQWORD@@YAJ_K0@Z				; HvPokeQWORD
;	COMDAT .pdata
.pdata	SEGMENT
$T73187	DD	?HvPokeQWORD@@YAJ_K0@Z
	DD	040001103H
; Function compile flags: /Odtu

	.code

?HvPokeQWORD@@YAJ_K0@Z PROC NEAR				; HvPokeQWORD, COMDAT

; Begin code for function: ?HvPokeQWORD@@YAJ_K0@Z
; Line 404
	mflr         r12
	stw          r12,-8(r1)
	stwu         r1,-60h(r1)
.endprolog
$M73185:
	std          r3,Address$(r1)
	std          r4,Value$(r1)
; Line 405
	li           r7,0
	ld           r6,Value$(r1)
	ld           r5,Address$(r1)
	li           r4,8
	lis          r11,18518		; 4856h
	ori          r3,r11,20560		; 5050h
	bl           ?HvxExpansionCall@@YA_KK_K000@Z
	rlwinm       r3,r3,0,0,31
; Line 406
	addi         r1,r1,96		; 60h
	lwz          r12,-8(r1)
	mtlr         r12
	blr
$M73186:
; End code for function: ?HvPokeQWORD@@YAJ_K0@Z
?HvPokeQWORD@@YAJ_K0@Z ENDP
							; HvPokeQWORD
;	COMDAT .pdata
.pdata	SEGMENT
$T73193	DD	?HvPokeBytes@@YAJ_KQAXK@Z
	DD	040002604H
; Function compile flags: /Odtu

	.code
data$ = 80						; size = 4
result$ = 84						; size = 4

?HvPokeBytes@@YAJ_KQAXK@Z PROC NEAR			; HvPokeBytes, COMDAT

; Begin code for function: ?HvPokeBytes@@YAJ_KQAXK@Z
; Line 407
	mflr         r12
	stw          r12,-8(r1)
	std          r31,-10h(r1)
	stwu         r1,-70h(r1)
.endprolog
$M73191:
	std          r3,Address$(r1)
	stw          r4,Buffer$(r1)		; 140 (8Ch)
	stw          r5,Size$(r1)		; 148 (94h)
; Line 410
	li           r6,4
	li           r5,0
	li           r4,-1		; 0FFFFh
	lwz          r3,Size$(r1)		; 148 (94h)
	bl           XPhysicalAlloc
	stw          r3,data$(r1)		; 80 (50h)
; Line 411
	lwz          r5,Size$(r1)		; 148 (94h)
	lwz          r4,Buffer$(r1)		; 140 (8Ch)
	lwz          r3,data$(r1)		; 80 (50h)
	bl           memcpy
; Line 414
	lwz          r7,Size$(r1)		; 148 (94h)
	mr           r31,r7
	lwz          r3,data$(r1)		; 80 (50h)
	bl           MmGetPhysicalAddress
	extsw        r6,r3
	ld           r5,Address$(r1)
	li           r4,9
	lis          r11,18518		; 4856h
	ori          r3,r11,20560		; 5050h
	mr           r7,r31
	bl           ?HvxExpansionCall@@YA_KK_K000@Z
	rlwinm       r10,r3,0,0,31
	stw          r10,result$(r1)		; 84 (54h)
; Line 417
	lwz          r3,data$(r1)		; 80 (50h)
	bl           XPhysicalFree
; Line 418
	lwz          r3,result$(r1)		; 84 (54h)
; Line 419
	addi         r1,r1,112		; 70h
	lwz          r12,-8(r1)
	mtlr         r12
	ld           r31,-10h(r1)
	blr
$M73192:
; End code for function: ?HvPokeBytes@@YAJ_KQAXK@Z
?HvPokeBytes@@YAJ_KQAXK@Z ENDP
							; HvPokeBytes
END
