; Listing generated by Microsoft (R) Optimizing Compiler Version 16.00.11886.00 

	TITLE	C:\Users\S7Clutch\Documents\Visual Studio 2010\Projects\The Saiyan Project\src\DllMain.cpp
	.PPC
	.MODEL FLAT
PUBLIC	__C2_11886
PUBLIC	?Distance@_Vector3@@QAAMU1@@Z			; _Vector3::Distance
PUBLIC	??G_Vector3@@QAA?AU0@U0@@Z			; _Vector3::operator-
PUBLIC	sqrtf
PUBLIC	?sqrt@@YAMM@Z					; sqrt
PUBLIC	?DistanceEx@_Vector3@@QAAMU1@@Z			; _Vector3::DistanceEx
PUBLIC	?Distance@_Vector3@@QAAMXZ			; _Vector3::Distance
PUBLIC	?DistanceTo@_Vector3@@QAAMU1@@Z			; _Vector3::DistanceTo
PUBLIC	fabsf
PUBLIC	?abs@@YAMM@Z					; abs
PUBLIC	??$addressof@QAD@std@@YAPBQADABQAD@Z		; std::addressof<char * const>
PUBLIC	??$forward@AAPAD@std@@YAAAPADAAPAD@Z		; std::forward<char * &>
PUBLIC	??$construct@AAPAD@?$allocator@PAD@std@@QAAXPAPADAAPAD@Z ; std::allocator<char *>::construct<char * &>
PUBLIC	??$_Cons_val@V?$allocator@PAD@std@@PADAAPAD@std@@YAXAAV?$allocator@PAD@0@PAPADAAPAD@Z ; std::_Cons_val<std::allocator<char *>,char *,char * &>
PUBLIC	??$_Construct@PADABQAD@std@@YAXPAPADABQAD@Z	; std::_Construct<char *,char * const &>
PUBLIC	?construct@?$allocator@PAD@std@@QAAXPAPADABQAD@Z ; std::allocator<char *>::construct
PUBLIC	??$forward@ABQAD@std@@YAABQADABQAD@Z		; std::forward<char * const &>
PUBLIC	??$_Cons_val@V?$allocator@PAD@std@@PADABQAD@std@@YAXAAV?$allocator@PAD@0@PAPADABQAD@Z ; std::_Cons_val<std::allocator<char *>,char *,char * const &>
PUBLIC	?push_back@?$vector@PADV?$allocator@PAD@std@@@std@@QAAXABQAD@Z ; std::vector<char *,std::allocator<char *> >::push_back
PUBLIC	?AddOption@MenuDisplay@@QAAXPAD@Z		; MenuDisplay::AddOption
PUBLIC	cosf
PUBLIC	?cos@@YAMM@Z					; cos
PUBLIC	sinf
PUBLIC	?sin@@YAMM@Z					; sin
PUBLIC	?Refresh@ButtonMonitor@@QAAXK@Z			; ButtonMonitor::Refresh
PUBLIC	??1?$_Vector_val@KV?$allocator@K@std@@@std@@QAA@XZ ; std::_Vector_val<unsigned long,std::allocator<unsigned long> >::~_Vector_val<unsigned long,std::allocator<unsigned long> >
PUBLIC	?deallocate@?$allocator@K@std@@QAAXPAKI@Z	; std::allocator<unsigned long>::deallocate
PUBLIC	?_Tidy@?$vector@KV?$allocator@K@std@@@std@@IAAXXZ ; std::vector<unsigned long,std::allocator<unsigned long> >::_Tidy
PUBLIC	??1?$vector@KV?$allocator@K@std@@@std@@QAA@XZ	; std::vector<unsigned long,std::allocator<unsigned long> >::~vector<unsigned long,std::allocator<unsigned long> >
PUBLIC	?size@?$vector@KV?$allocator@K@std@@@std@@QBAIXZ ; std::vector<unsigned long,std::allocator<unsigned long> >::size
PUBLIC	??A?$vector@KV?$allocator@K@std@@@std@@QAAAAKI@Z ; std::vector<unsigned long,std::allocator<unsigned long> >::operator[]
PUBLIC	?begin@?$vector@KV?$allocator@K@std@@@std@@QAA?AV?$_Vector_iterator@V?$_Vector_val@KV?$allocator@K@std@@@std@@@2@XZ ; std::vector<unsigned long,std::allocator<unsigned long> >::begin
PUBLIC	?end@?$vector@KV?$allocator@K@std@@@std@@QAA?AV?$_Vector_iterator@V?$_Vector_val@KV?$allocator@K@std@@@std@@@2@XZ ; std::vector<unsigned long,std::allocator<unsigned long> >::end
PUBLIC	??0?$_Vector_const_iterator@V?$_Vector_val@KV?$allocator@K@std@@@std@@@std@@QAA@PAKPBU_Container_base0@1@@Z ; std::_Vector_const_iterator<std::_Vector_val<unsigned long,std::allocator<unsigned long> > >::_Vector_const_iterator<std::_Vector_val<unsigned long,std::allocator<unsigned long> > >
PUBLIC	??0?$_Vector_iterator@V?$_Vector_val@KV?$allocator@K@std@@@std@@@std@@QAA@PAKPBU_Container_base0@1@@Z ; std::_Vector_iterator<std::_Vector_val<unsigned long,std::allocator<unsigned long> > >::_Vector_iterator<std::_Vector_val<unsigned long,std::allocator<unsigned long> > >
PUBLIC	?_Make_iter@?$vector@KV?$allocator@K@std@@@std@@QBA?AV?$_Vector_iterator@V?$_Vector_val@KV?$allocator@K@std@@@std@@@2@V?$_Vector_const_iterator@V?$_Vector_val@KV?$allocator@K@std@@@std@@@2@@Z ; std::vector<unsigned long,std::allocator<unsigned long> >::_Make_iter
PUBLIC	??$_Destroy_range@V?$allocator@K@std@@@std@@YAXPAK0AAV?$allocator@K@0@U_Scalar_ptr_iterator_tag@0@@Z ; std::_Destroy_range<std::allocator<unsigned long> >
PUBLIC	??$_Destroy_range@V?$allocator@K@std@@@std@@YAXPAK0AAV?$allocator@K@0@@Z ; std::_Destroy_range<std::allocator<unsigned long> >
PUBLIC	?_Destroy@?$vector@KV?$allocator@K@std@@@std@@IAAXPAK0@Z ; std::vector<unsigned long,std::allocator<unsigned long> >::_Destroy
PUBLIC	?_Compat@?$_Vector_const_iterator@V?$_Vector_val@KV?$allocator@K@std@@@std@@@std@@QBAXABV12@@Z ; std::_Vector_const_iterator<std::_Vector_val<unsigned long,std::allocator<unsigned long> > >::_Compat
PUBLIC	??8?$_Vector_const_iterator@V?$_Vector_val@KV?$allocator@K@std@@@std@@@std@@QBA_NABV01@@Z ; std::_Vector_const_iterator<std::_Vector_val<unsigned long,std::allocator<unsigned long> > >::operator==
PUBLIC	??9?$_Vector_const_iterator@V?$_Vector_val@KV?$allocator@K@std@@@std@@@std@@QBA_NABV01@@Z ; std::_Vector_const_iterator<std::_Vector_val<unsigned long,std::allocator<unsigned long> > >::operator!=
PUBLIC	??$_Ptr_cat@KK@std@@YA?AU_Scalar_ptr_iterator_tag@0@PAK0@Z ; std::_Ptr_cat<unsigned long,unsigned long>
PUBLIC	??$_Move@PAKPAK@std@@YAPAKPAK00U_Scalar_ptr_iterator_tag@0@@Z ; std::_Move<unsigned long *,unsigned long *>
PUBLIC	??$_Move@PAKPAK@std@@YAPAKPAK00@Z		; std::_Move<unsigned long *,unsigned long *>
PUBLIC	?erase@?$vector@KV?$allocator@K@std@@@std@@QAA?AV?$_Vector_iterator@V?$_Vector_val@KV?$allocator@K@std@@@std@@@2@V?$_Vector_const_iterator@V?$_Vector_val@KV?$allocator@K@std@@@std@@@2@0@Z ; std::vector<unsigned long,std::allocator<unsigned long> >::erase
PUBLIC	?clear@?$vector@KV?$allocator@K@std@@@std@@QAAXXZ ; std::vector<unsigned long,std::allocator<unsigned long> >::clear
PUBLIC	?getNext@_Node@@QAAPAU1@XZ			; _Node::getNext
PUBLIC	??0_Vector3@@QAA@MMM@Z				; _Vector3::_Vector3
PUBLIC	??0?$allocator@PAD@std@@QAA@XZ			; std::allocator<char *>::allocator<char *>
PUBLIC	??0?$_Vector_val@PADV?$allocator@PAD@std@@@std@@QAA@V?$allocator@PAD@1@@Z ; std::_Vector_val<char *,std::allocator<char *> >::_Vector_val<char *,std::allocator<char *> >
PUBLIC	??0?$vector@PADV?$allocator@PAD@std@@@std@@QAA@XZ ; std::vector<char *,std::allocator<char *> >::vector<char *,std::allocator<char *> >
PUBLIC	?_Swap_all@_Container_base0@std@@QAAXAAU12@@Z	; std::_Container_base0::_Swap_all
PUBLIC	?_Inside@?$vector@PADV?$allocator@PAD@std@@@std@@IBA_NPBQAD@Z ; std::vector<char *,std::allocator<char *> >::_Inside
PUBLIC	?_Raise@exception@stdext@@QBAXXZ		; stdext::exception::_Raise
PUBLIC	??0exception@stdext@@QAA@PBDH@Z			; stdext::exception::exception
PUBLIC	??0bad_alloc@stdext@@QAA@PBD@Z			; stdext::bad_alloc::bad_alloc
PUBLIC	?_Doraise@exception@stdext@@MBAXXZ		; stdext::exception::_Doraise
PUBLIC	??_Gexception@stdext@@UAAPAXI@Z			; stdext::exception::`scalar deleting destructor'
PUBLIC	??1exception@stdext@@UAA@XZ			; stdext::exception::~exception
PUBLIC	?what@exception@stdext@@UBAPBDXZ		; stdext::exception::what
PUBLIC	?_Doraise@bad_alloc@stdext@@MBAXXZ		; stdext::bad_alloc::_Doraise
PUBLIC	??_Gbad_alloc@stdext@@UAAPAXI@Z			; stdext::bad_alloc::`scalar deleting destructor'
PUBLIC	??1bad_alloc@stdext@@UAA@XZ			; stdext::bad_alloc::~bad_alloc
PUBLIC	??$_Allocate@PAD@std@@YAPAPADIPAPAD@Z		; std::_Allocate<char *>
PUBLIC	?allocate@?$allocator@PAD@std@@QAAPAPADI@Z	; std::allocator<char *>::allocate
PUBLIC	??$_Val_type@PAPAD@std@@YAPAPADPAPAD@Z		; std::_Val_type<char * *>
PUBLIC	??$_Uninit_move@PADPADPAD@std@@YAPAPADPAPAD00AAV?$allocator@PAD@0@0U_Scalar_ptr_iterator_tag@0@@Z ; std::_Uninit_move<char *,char *,char *>
PUBLIC	??$_Uninitialized_move@PAPADPAPADV?$allocator@PAD@std@@@std@@YAPAPADPAPAD00AAV?$allocator@PAD@0@@Z ; std::_Uninitialized_move<char * *,char * *,std::allocator<char *> >
PUBLIC	??$_Umove@PAPAD@?$vector@PADV?$allocator@PAD@std@@@std@@IAAPAPADPAPAD00@Z ; std::vector<char *,std::allocator<char *> >::_Umove<char * *>
PUBLIC	?reserve@?$vector@PADV?$allocator@PAD@std@@@std@@QAAXI@Z ; std::vector<char *,std::allocator<char *> >::reserve
PUBLIC	?size@?$vector@PADV?$allocator@PAD@std@@@std@@QBAIXZ ; std::vector<char *,std::allocator<char *> >::size
PUBLIC	?capacity@?$vector@PADV?$allocator@PAD@std@@@std@@QBAIXZ ; std::vector<char *,std::allocator<char *> >::capacity
PUBLIC	?max_size@?$allocator@PAD@std@@QBAIXZ		; std::allocator<char *>::max_size
PUBLIC	?max_size@?$vector@PADV?$allocator@PAD@std@@@std@@QBAIXZ ; std::vector<char *,std::allocator<char *> >::max_size
PUBLIC	?_Grow_to@?$vector@PADV?$allocator@PAD@std@@@std@@IBAII@Z ; std::vector<char *,std::allocator<char *> >::_Grow_to
PUBLIC	?_Xlen@?$vector@PADV?$allocator@PAD@std@@@std@@IBAXXZ ; std::vector<char *,std::allocator<char *> >::_Xlen
PUBLIC	?_Reserve@?$vector@PADV?$allocator@PAD@std@@@std@@IAAXI@Z ; std::vector<char *,std::allocator<char *> >::_Reserve
PUBLIC	?_Orphan_range@?$vector@PADV?$allocator@PAD@std@@@std@@IBAXPAPAD0@Z ; std::vector<char *,std::allocator<char *> >::_Orphan_range
PUBLIC	??$addressof@PAD@std@@YAPAPADAAPAD@Z		; std::addressof<char *>
PUBLIC	??2@YAPAXIPAX@Z					; operator new
PUBLIC	?construct@?$allocator@PAD@std@@QAAXPAPAD$$QAPAD@Z ; std::allocator<char *>::construct
PUBLIC	??$_Cons_val@V?$allocator@PAD@std@@PADPAD@std@@YAXAAV?$allocator@PAD@0@PAPAD$$QAPAD@Z ; std::_Cons_val<std::allocator<char *>,char *,char *>
PUBLIC	?push_back@?$vector@PADV?$allocator@PAD@std@@@std@@QAAX$$QAPAD@Z ; std::vector<char *,std::allocator<char *> >::push_back
PUBLIC	??0?$allocator@PAD@std@@QAA@ABV01@@Z		; std::allocator<char *>::allocator<char *>
PUBLIC	?get_allocator@?$vector@PADV?$allocator@PAD@std@@@std@@QBA?AV?$allocator@PAD@2@XZ ; std::vector<char *,std::allocator<char *> >::get_allocator
PUBLIC	?begin@?$vector@PADV?$allocator@PAD@std@@@std@@QAA?AV?$_Vector_iterator@V?$_Vector_val@PADV?$allocator@PAD@std@@@std@@@2@XZ ; std::vector<char *,std::allocator<char *> >::begin
PUBLIC	?end@?$vector@PADV?$allocator@PAD@std@@@std@@QAA?AV?$_Vector_iterator@V?$_Vector_val@PADV?$allocator@PAD@std@@@std@@@2@XZ ; std::vector<char *,std::allocator<char *> >::end
PUBLIC	?_Adopt@_Iterator_base0@std@@QAAXPBX@Z		; std::_Iterator_base0::_Adopt
PUBLIC	??0?$_Vector_const_iterator@V?$_Vector_val@PADV?$allocator@PAD@std@@@std@@@std@@QAA@PAPADPBU_Container_base0@1@@Z ; std::_Vector_const_iterator<std::_Vector_val<char *,std::allocator<char *> > >::_Vector_const_iterator<std::_Vector_val<char *,std::allocator<char *> > >
PUBLIC	??0?$_Vector_iterator@V?$_Vector_val@PADV?$allocator@PAD@std@@@std@@@std@@QAA@PAPADPBU_Container_base0@1@@Z ; std::_Vector_iterator<std::_Vector_val<char *,std::allocator<char *> > >::_Vector_iterator<std::_Vector_val<char *,std::allocator<char *> > >
PUBLIC	?_Make_iter@?$vector@PADV?$allocator@PAD@std@@@std@@QBA?AV?$_Vector_iterator@V?$_Vector_val@PADV?$allocator@PAD@std@@@std@@@2@V?$_Vector_const_iterator@V?$_Vector_val@PADV?$allocator@PAD@std@@@std@@@2@@Z ; std::vector<char *,std::allocator<char *> >::_Make_iter
PUBLIC	??$_Move@PAPADPAPAD@std@@YAPAPADPAPAD00U_Scalar_ptr_iterator_tag@0@@Z ; std::_Move<char * *,char * *>
PUBLIC	??$_Move@PAPADPAPAD@std@@YAPAPADPAPAD00@Z	; std::_Move<char * *,char * *>
PUBLIC	?erase@?$vector@PADV?$allocator@PAD@std@@@std@@QAA?AV?$_Vector_iterator@V?$_Vector_val@PADV?$allocator@PAD@std@@@std@@@2@V?$_Vector_const_iterator@V?$_Vector_val@PADV?$allocator@PAD@std@@@std@@@2@0@Z ; std::vector<char *,std::allocator<char *> >::erase
PUBLIC	?clear@?$vector@PADV?$allocator@PAD@std@@@std@@QAAXXZ ; std::vector<char *,std::allocator<char *> >::clear
PUBLIC	?_Compat@?$_Vector_const_iterator@V?$_Vector_val@PADV?$allocator@PAD@std@@@std@@@std@@QBAXABV12@@Z ; std::_Vector_const_iterator<std::_Vector_val<char *,std::allocator<char *> > >::_Compat
PUBLIC	??8?$_Vector_const_iterator@V?$_Vector_val@PADV?$allocator@PAD@std@@@std@@@std@@QBA_NABV01@@Z ; std::_Vector_const_iterator<std::_Vector_val<char *,std::allocator<char *> > >::operator==
PUBLIC	??9?$_Vector_const_iterator@V?$_Vector_val@PADV?$allocator@PAD@std@@@std@@@std@@QBA_NABV01@@Z ; std::_Vector_const_iterator<std::_Vector_val<char *,std::allocator<char *> > >::operator!=
PUBLIC	??D?$_Vector_const_iterator@V?$_Vector_val@PADV?$allocator@PAD@std@@@std@@@std@@QBAABQADXZ ; std::_Vector_const_iterator<std::_Vector_val<char *,std::allocator<char *> > >::operator*
PUBLIC	??D?$_Vector_iterator@V?$_Vector_val@PADV?$allocator@PAD@std@@@std@@@std@@QBAAAPADXZ ; std::_Vector_iterator<std::_Vector_val<char *,std::allocator<char *> > >::operator*
PUBLIC	??E?$_Vector_const_iterator@V?$_Vector_val@PADV?$allocator@PAD@std@@@std@@@std@@QAAAAV01@XZ ; std::_Vector_const_iterator<std::_Vector_val<char *,std::allocator<char *> > >::operator++
PUBLIC	??E?$_Vector_iterator@V?$_Vector_val@PADV?$allocator@PAD@std@@@std@@@std@@QAAAAV01@XZ ; std::_Vector_iterator<std::_Vector_val<char *,std::allocator<char *> > >::operator++
PUBLIC	??$?8PADPAD@std@@YA_NABV?$allocator@PAD@0@0@Z	; std::operator==<char *,char *>
PUBLIC	??$?9PADPAD@std@@YA_NABV?$allocator@PAD@0@0@Z	; std::operator!=<char *,char *>
PUBLIC	??$forward@PAD@std@@YA$$QAPADAAPAD@Z		; std::forward<char *>
PUBLIC	?_Assign_rv@?$vector@PADV?$allocator@PAD@std@@@std@@QAAX$$QAV12@@Z ; std::vector<char *,std::allocator<char *> >::_Assign_rv
PUBLIC	??$forward@V?$vector@PADV?$allocator@PAD@std@@@std@@@std@@YA$$QAV?$vector@PADV?$allocator@PAD@std@@@0@AAV10@@Z ; std::forward<std::vector<char *,std::allocator<char *> > >
PUBLIC	??4?$vector@PADV?$allocator@PAD@std@@@std@@QAAAAV01@$$QAV01@@Z ; std::vector<char *,std::allocator<char *> >::operator=
PUBLIC	??0MenuDisplay@@QAA@PAD@Z			; MenuDisplay::MenuDisplay
PUBLIC	??1?$_Vector_val@PADV?$allocator@PAD@std@@@std@@QAA@XZ ; std::_Vector_val<char *,std::allocator<char *> >::~_Vector_val<char *,std::allocator<char *> >
PUBLIC	?_Orphan_all@_Container_base0@std@@QAAXXZ	; std::_Container_base0::_Orphan_all
PUBLIC	?deallocate@?$allocator@PAD@std@@QAAXPAPADI@Z	; std::allocator<char *>::deallocate
PUBLIC	??$_Ptr_cat@PADPAD@std@@YA?AU_Scalar_ptr_iterator_tag@0@PAPAD0@Z ; std::_Ptr_cat<char *,char *>
PUBLIC	??$_Destroy_range@V?$allocator@PAD@std@@@std@@YAXPAPAD0AAV?$allocator@PAD@0@U_Scalar_ptr_iterator_tag@0@@Z ; std::_Destroy_range<std::allocator<char *> >
PUBLIC	??$_Destroy_range@V?$allocator@PAD@std@@@std@@YAXPAPAD0AAV?$allocator@PAD@0@@Z ; std::_Destroy_range<std::allocator<char *> >
PUBLIC	?_Destroy@?$vector@PADV?$allocator@PAD@std@@@std@@IAAXPAPAD0@Z ; std::vector<char *,std::allocator<char *> >::_Destroy
PUBLIC	?_Tidy@?$vector@PADV?$allocator@PAD@std@@@std@@IAAXXZ ; std::vector<char *,std::allocator<char *> >::_Tidy
PUBLIC	??1?$vector@PADV?$allocator@PAD@std@@@std@@QAA@XZ ; std::vector<char *,std::allocator<char *> >::~vector<char *,std::allocator<char *> >
PUBLIC	??1MenuDisplay@@QAA@XZ				; MenuDisplay::~MenuDisplay
PUBLIC	??0_Vector3@@QAA@XZ				; _Vector3::_Vector3
PUBLIC	?_Player@@3KA					; _Player
PUBLIC	?_Vehicle@@3KA					; _Vehicle
PUBLIC	?CashLobby_Amount@@3KA				; CashLobby_Amount
PUBLIC	?NativePoolHead@@3PAU_Node@@A			; NativePoolHead
PUBLIC	?_Entity@@3KA					; _Entity
PUBLIC	?FirstPerson_Camera@@3KA			; FirstPerson_Camera
PUBLIC	?CashLobby_Toggle@@3PA_NA			; CashLobby_Toggle
PUBLIC	?NativePool@@3PAU_Node@@A			; NativePool
PUBLIC	?_Ped@@3KA					; _Ped
PUBLIC	__C1_11886
PUBLIC	D3DPRIMITIVEVERTEXCOUNT
PUBLIC	D3DTESSPRIMITIVEVERTEXCOUNT
PUBLIC	?g_XMSinCoefficients0@@3UXMVECTORF32@@B		; g_XMSinCoefficients0
PUBLIC	?g_XMSinCoefficients1@@3UXMVECTORF32@@B		; g_XMSinCoefficients1
PUBLIC	?g_XMSinCoefficients2@@3UXMVECTORF32@@B		; g_XMSinCoefficients2
PUBLIC	?g_XMCosCoefficients0@@3UXMVECTORF32@@B		; g_XMCosCoefficients0
PUBLIC	?g_XMCosCoefficients1@@3UXMVECTORF32@@B		; g_XMCosCoefficients1
PUBLIC	?g_XMCosCoefficients2@@3UXMVECTORF32@@B		; g_XMCosCoefficients2
PUBLIC	?g_XMTanCoefficients0@@3UXMVECTORF32@@B		; g_XMTanCoefficients0
PUBLIC	?g_XMTanCoefficients1@@3UXMVECTORF32@@B		; g_XMTanCoefficients1
PUBLIC	?g_XMTanCoefficients2@@3UXMVECTORF32@@B		; g_XMTanCoefficients2
PUBLIC	?g_XMASinCoefficients0@@3UXMVECTORF32@@B	; g_XMASinCoefficients0
PUBLIC	?g_XMASinCoefficients1@@3UXMVECTORF32@@B	; g_XMASinCoefficients1
PUBLIC	?g_XMASinCoefficients2@@3UXMVECTORF32@@B	; g_XMASinCoefficients2
PUBLIC	?g_XMATanCoefficients0@@3UXMVECTORF32@@B	; g_XMATanCoefficients0
PUBLIC	?g_XMATanCoefficients1@@3UXMVECTORF32@@B	; g_XMATanCoefficients1
PUBLIC	?g_XMATanCoefficients2@@3UXMVECTORF32@@B	; g_XMATanCoefficients2
PUBLIC	?g_XMSinEstCoefficients@@3UXMVECTORF32@@B	; g_XMSinEstCoefficients
PUBLIC	?g_XMCosEstCoefficients@@3UXMVECTORF32@@B	; g_XMCosEstCoefficients
PUBLIC	?g_XMTanEstCoefficients@@3UXMVECTORF32@@B	; g_XMTanEstCoefficients
PUBLIC	?g_XMATanEstCoefficients@@3UXMVECTORF32@@B	; g_XMATanEstCoefficients
PUBLIC	?g_XMASinEstCoefficients@@3UXMVECTORF32@@B	; g_XMASinEstCoefficients
PUBLIC	?g_XMASinEstConstants@@3UXMVECTORF32@@B		; g_XMASinEstConstants
PUBLIC	?g_XMPiConstants0@@3UXMVECTORF32@@B		; g_XMPiConstants0
PUBLIC	?g_XMIdentityR0@@3UXMVECTORF32@@B		; g_XMIdentityR0
PUBLIC	?g_XMIdentityR1@@3UXMVECTORF32@@B		; g_XMIdentityR1
PUBLIC	?g_XMIdentityR2@@3UXMVECTORF32@@B		; g_XMIdentityR2
PUBLIC	?g_XMIdentityR3@@3UXMVECTORF32@@B		; g_XMIdentityR3
PUBLIC	?g_XMNegIdentityR0@@3UXMVECTORF32@@B		; g_XMNegIdentityR0
PUBLIC	?g_XMNegIdentityR1@@3UXMVECTORF32@@B		; g_XMNegIdentityR1
PUBLIC	?g_XMNegIdentityR2@@3UXMVECTORF32@@B		; g_XMNegIdentityR2
PUBLIC	?g_XMNegIdentityR3@@3UXMVECTORF32@@B		; g_XMNegIdentityR3
PUBLIC	?g_XMNegativeZero@@3UXMVECTORI32@@B		; g_XMNegativeZero
PUBLIC	?g_XMNegate3@@3UXMVECTORI32@@B			; g_XMNegate3
PUBLIC	?g_XMMask3@@3UXMVECTORI32@@B			; g_XMMask3
PUBLIC	?g_XMMaskX@@3UXMVECTORI32@@B			; g_XMMaskX
PUBLIC	?g_XMMaskY@@3UXMVECTORI32@@B			; g_XMMaskY
PUBLIC	?g_XMMaskZ@@3UXMVECTORI32@@B			; g_XMMaskZ
PUBLIC	?g_XMMaskW@@3UXMVECTORI32@@B			; g_XMMaskW
PUBLIC	?g_XMOne@@3UXMVECTORF32@@B			; g_XMOne
PUBLIC	?g_XMOne3@@3UXMVECTORF32@@B			; g_XMOne3
PUBLIC	?g_XMZero@@3UXMVECTORF32@@B			; g_XMZero
PUBLIC	?g_XMNegativeOne@@3UXMVECTORF32@@B		; g_XMNegativeOne
PUBLIC	?g_XMOneHalf@@3UXMVECTORF32@@B			; g_XMOneHalf
PUBLIC	?g_XMNegativeOneHalf@@3UXMVECTORF32@@B		; g_XMNegativeOneHalf
PUBLIC	?g_XMNegativeTwoPi@@3UXMVECTORF32@@B		; g_XMNegativeTwoPi
PUBLIC	?g_XMNegativePi@@3UXMVECTORF32@@B		; g_XMNegativePi
PUBLIC	?g_XMHalfPi@@3UXMVECTORF32@@B			; g_XMHalfPi
PUBLIC	?g_XMPi@@3UXMVECTORF32@@B			; g_XMPi
PUBLIC	?g_XMReciprocalPi@@3UXMVECTORF32@@B		; g_XMReciprocalPi
PUBLIC	?g_XMTwoPi@@3UXMVECTORF32@@B			; g_XMTwoPi
PUBLIC	?g_XMReciprocalTwoPi@@3UXMVECTORF32@@B		; g_XMReciprocalTwoPi
PUBLIC	?g_XMEpsilon@@3UXMVECTORF32@@B			; g_XMEpsilon
PUBLIC	?g_XMInfinity@@3UXMVECTORI32@@B			; g_XMInfinity
PUBLIC	?g_XMQNaN@@3UXMVECTORI32@@B			; g_XMQNaN
PUBLIC	?g_XMQNaNTest@@3UXMVECTORI32@@B			; g_XMQNaNTest
PUBLIC	?g_XMAbsMask@@3UXMVECTORI32@@B			; g_XMAbsMask
PUBLIC	?g_XMFltMin@@3UXMVECTORI32@@B			; g_XMFltMin
PUBLIC	?g_XMFltMax@@3UXMVECTORI32@@B			; g_XMFltMax
PUBLIC	?g_XMNegOneMask@@3UXMVECTORI32@@B		; g_XMNegOneMask
PUBLIC	?g_XMMaskA8R8G8B8@@3UXMVECTORI32@@B		; g_XMMaskA8R8G8B8
PUBLIC	?g_XMFlipA8R8G8B8@@3UXMVECTORI32@@B		; g_XMFlipA8R8G8B8
PUBLIC	?g_XMFixAA8R8G8B8@@3UXMVECTORF32@@B		; g_XMFixAA8R8G8B8
PUBLIC	?g_XMNormalizeA8R8G8B8@@3UXMVECTORF32@@B	; g_XMNormalizeA8R8G8B8
PUBLIC	?g_XMMaskA2B10G10R10@@3UXMVECTORI32@@B		; g_XMMaskA2B10G10R10
PUBLIC	?g_XMFlipA2B10G10R10@@3UXMVECTORI32@@B		; g_XMFlipA2B10G10R10
PUBLIC	?g_XMFixAA2B10G10R10@@3UXMVECTORF32@@B		; g_XMFixAA2B10G10R10
PUBLIC	?g_XMNormalizeA2B10G10R10@@3UXMVECTORF32@@B	; g_XMNormalizeA2B10G10R10
PUBLIC	?g_XMMaskX16Y16@@3UXMVECTORI32@@B		; g_XMMaskX16Y16
PUBLIC	?g_XMFlipX16Y16@@3UXMVECTORI32@@B		; g_XMFlipX16Y16
PUBLIC	?g_XMFixX16Y16@@3UXMVECTORF32@@B		; g_XMFixX16Y16
PUBLIC	?g_XMNormalizeX16Y16@@3UXMVECTORF32@@B		; g_XMNormalizeX16Y16
PUBLIC	?g_XMMaskX16Y16Z16W16@@3UXMVECTORI32@@B		; g_XMMaskX16Y16Z16W16
PUBLIC	?g_XMFlipX16Y16Z16W16@@3UXMVECTORI32@@B		; g_XMFlipX16Y16Z16W16
PUBLIC	?g_XMFixX16Y16Z16W16@@3UXMVECTORF32@@B		; g_XMFixX16Y16Z16W16
PUBLIC	?g_XMNormalizeX16Y16Z16W16@@3UXMVECTORF32@@B	; g_XMNormalizeX16Y16Z16W16
PUBLIC	?g_XMNoFraction@@3UXMVECTORF32@@B		; g_XMNoFraction
PUBLIC	?g_XMMaskByte@@3UXMVECTORI32@@B			; g_XMMaskByte
PUBLIC	?g_XMNegateX@@3UXMVECTORF32@@B			; g_XMNegateX
PUBLIC	?g_XMNegateY@@3UXMVECTORF32@@B			; g_XMNegateY
PUBLIC	?g_XMNegateZ@@3UXMVECTORF32@@B			; g_XMNegateZ
PUBLIC	?g_XMNegateW@@3UXMVECTORF32@@B			; g_XMNegateW
PUBLIC	?g_XMSelect0101@@3UXMVECTORI32@@B		; g_XMSelect0101
PUBLIC	?g_XMSelect1010@@3UXMVECTORI32@@B		; g_XMSelect1010
PUBLIC	?g_XMOneHalfMinusEpsilon@@3UXMVECTORI32@@B	; g_XMOneHalfMinusEpsilon
PUBLIC	?g_XMSelect1000@@3UXMVECTORI32@@B		; g_XMSelect1000
PUBLIC	?g_XMSelect1100@@3UXMVECTORI32@@B		; g_XMSelect1100
PUBLIC	?g_XMSelect1110@@3UXMVECTORI32@@B		; g_XMSelect1110
PUBLIC	?g_XMSwizzleXYXY@@3UXMVECTORI32@@B		; g_XMSwizzleXYXY
PUBLIC	?g_XMSwizzleXYZX@@3UXMVECTORI32@@B		; g_XMSwizzleXYZX
PUBLIC	?g_XMSwizzleYXZW@@3UXMVECTORI32@@B		; g_XMSwizzleYXZW
PUBLIC	?g_XMSwizzleYZXW@@3UXMVECTORI32@@B		; g_XMSwizzleYZXW
PUBLIC	?g_XMSwizzleZXYW@@3UXMVECTORI32@@B		; g_XMSwizzleZXYW
PUBLIC	?g_XMPermute0X0Y1X1Y@@3UXMVECTORI32@@B		; g_XMPermute0X0Y1X1Y
PUBLIC	?g_XMPermute0Z0W1Z1W@@3UXMVECTORI32@@B		; g_XMPermute0Z0W1Z1W
PUBLIC	?g_XMFixupY16@@3UXMVECTORF32@@B			; g_XMFixupY16
PUBLIC	?g_XMFixupY16W16@@3UXMVECTORF32@@B		; g_XMFixupY16W16
PUBLIC	?g_XMFlipY@@3UXMVECTORI32@@B			; g_XMFlipY
PUBLIC	?g_XMFlipZ@@3UXMVECTORI32@@B			; g_XMFlipZ
PUBLIC	?g_XMFlipW@@3UXMVECTORI32@@B			; g_XMFlipW
PUBLIC	?g_XMFlipYZ@@3UXMVECTORI32@@B			; g_XMFlipYZ
PUBLIC	?g_XMFlipZW@@3UXMVECTORI32@@B			; g_XMFlipZW
PUBLIC	?g_XMFlipYW@@3UXMVECTORI32@@B			; g_XMFlipYW
PUBLIC	?g_XMMaskHenD3@@3UXMVECTORI32@@B		; g_XMMaskHenD3
PUBLIC	?g_XMMaskDHen3@@3UXMVECTORI32@@B		; g_XMMaskDHen3
PUBLIC	?g_XMAddUHenD3@@3UXMVECTORF32@@B		; g_XMAddUHenD3
PUBLIC	?g_XMAddHenD3@@3UXMVECTORF32@@B			; g_XMAddHenD3
PUBLIC	?g_XMAddDHen3@@3UXMVECTORF32@@B			; g_XMAddDHen3
PUBLIC	?g_XMMulHenD3@@3UXMVECTORF32@@B			; g_XMMulHenD3
PUBLIC	?g_XMMulDHen3@@3UXMVECTORF32@@B			; g_XMMulDHen3
PUBLIC	?g_XMXorHenD3@@3UXMVECTORI32@@B			; g_XMXorHenD3
PUBLIC	?g_XMXorDHen3@@3UXMVECTORI32@@B			; g_XMXorDHen3
PUBLIC	?g_XMMaskIco4@@3UXMVECTORI32@@B			; g_XMMaskIco4
PUBLIC	?g_XMXorXIco4@@3UXMVECTORI32@@B			; g_XMXorXIco4
PUBLIC	?g_XMXorIco4@@3UXMVECTORI32@@B			; g_XMXorIco4
PUBLIC	?g_XMAddXIco4@@3UXMVECTORF32@@B			; g_XMAddXIco4
PUBLIC	?g_XMAddUIco4@@3UXMVECTORF32@@B			; g_XMAddUIco4
PUBLIC	?g_XMAddIco4@@3UXMVECTORF32@@B			; g_XMAddIco4
PUBLIC	?g_XMMulIco4@@3UXMVECTORF32@@B			; g_XMMulIco4
PUBLIC	?g_XMMaskDec4@@3UXMVECTORI32@@B			; g_XMMaskDec4
PUBLIC	?g_XMXorDec4@@3UXMVECTORI32@@B			; g_XMXorDec4
PUBLIC	?g_XMAddUDec4@@3UXMVECTORF32@@B			; g_XMAddUDec4
PUBLIC	?g_XMAddDec4@@3UXMVECTORF32@@B			; g_XMAddDec4
PUBLIC	?g_XMMulDec4@@3UXMVECTORF32@@B			; g_XMMulDec4
PUBLIC	?g_XMMaskByte4@@3UXMVECTORI32@@B		; g_XMMaskByte4
PUBLIC	?g_XMXorByte4@@3UXMVECTORI32@@B			; g_XMXorByte4
PUBLIC	?g_XMAddByte4@@3UXMVECTORF32@@B			; g_XMAddByte4
PUBLIC	?g_XMFixUnsigned@@3UXMVECTORF32@@B		; g_XMFixUnsigned
PUBLIC	?g_XMMaxInt@@3UXMVECTORF32@@B			; g_XMMaxInt
PUBLIC	?g_XMMaxUInt@@3UXMVECTORF32@@B			; g_XMMaxUInt
PUBLIC	?g_XMUnsignedFix@@3UXMVECTORF32@@B		; g_XMUnsignedFix
PUBLIC	??_C@_0BC@BDKFLDHL@unknown?5exception?$AA@	; `string'
PUBLIC	?has_denorm@_Num_base@std@@2W4float_denorm_style@2@B ; std::_Num_base::has_denorm
PUBLIC	?has_denorm_loss@_Num_base@std@@2_NB		; std::_Num_base::has_denorm_loss
PUBLIC	?has_infinity@_Num_base@std@@2_NB		; std::_Num_base::has_infinity
PUBLIC	?has_quiet_NaN@_Num_base@std@@2_NB		; std::_Num_base::has_quiet_NaN
PUBLIC	?has_signaling_NaN@_Num_base@std@@2_NB		; std::_Num_base::has_signaling_NaN
PUBLIC	?is_bounded@_Num_base@std@@2_NB			; std::_Num_base::is_bounded
PUBLIC	?is_exact@_Num_base@std@@2_NB			; std::_Num_base::is_exact
PUBLIC	?is_iec559@_Num_base@std@@2_NB			; std::_Num_base::is_iec559
PUBLIC	?is_integer@_Num_base@std@@2_NB			; std::_Num_base::is_integer
PUBLIC	?is_modulo@_Num_base@std@@2_NB			; std::_Num_base::is_modulo
PUBLIC	?is_signed@_Num_base@std@@2_NB			; std::_Num_base::is_signed
PUBLIC	?is_specialized@_Num_base@std@@2_NB		; std::_Num_base::is_specialized
PUBLIC	?tinyness_before@_Num_base@std@@2_NB		; std::_Num_base::tinyness_before
PUBLIC	?traps@_Num_base@std@@2_NB			; std::_Num_base::traps
PUBLIC	?round_style@_Num_base@std@@2W4float_round_style@2@B ; std::_Num_base::round_style
PUBLIC	?digits@_Num_base@std@@2HB			; std::_Num_base::digits
PUBLIC	?digits10@_Num_base@std@@2HB			; std::_Num_base::digits10
PUBLIC	?max_digits10@_Num_base@std@@2HB		; std::_Num_base::max_digits10
PUBLIC	?max_exponent@_Num_base@std@@2HB		; std::_Num_base::max_exponent
PUBLIC	?max_exponent10@_Num_base@std@@2HB		; std::_Num_base::max_exponent10
PUBLIC	?min_exponent@_Num_base@std@@2HB		; std::_Num_base::min_exponent
PUBLIC	?min_exponent10@_Num_base@std@@2HB		; std::_Num_base::min_exponent10
PUBLIC	?radix@_Num_base@std@@2HB			; std::_Num_base::radix
PUBLIC	?is_bounded@_Num_int_base@std@@2_NB		; std::_Num_int_base::is_bounded
PUBLIC	?is_exact@_Num_int_base@std@@2_NB		; std::_Num_int_base::is_exact
PUBLIC	?is_integer@_Num_int_base@std@@2_NB		; std::_Num_int_base::is_integer
PUBLIC	?is_modulo@_Num_int_base@std@@2_NB		; std::_Num_int_base::is_modulo
PUBLIC	?is_specialized@_Num_int_base@std@@2_NB		; std::_Num_int_base::is_specialized
PUBLIC	?radix@_Num_int_base@std@@2HB			; std::_Num_int_base::radix
PUBLIC	?has_denorm@_Num_float_base@std@@2W4float_denorm_style@2@B ; std::_Num_float_base::has_denorm
PUBLIC	?has_denorm_loss@_Num_float_base@std@@2_NB	; std::_Num_float_base::has_denorm_loss
PUBLIC	?has_infinity@_Num_float_base@std@@2_NB		; std::_Num_float_base::has_infinity
PUBLIC	?has_quiet_NaN@_Num_float_base@std@@2_NB	; std::_Num_float_base::has_quiet_NaN
PUBLIC	?has_signaling_NaN@_Num_float_base@std@@2_NB	; std::_Num_float_base::has_signaling_NaN
PUBLIC	?is_bounded@_Num_float_base@std@@2_NB		; std::_Num_float_base::is_bounded
PUBLIC	?is_exact@_Num_float_base@std@@2_NB		; std::_Num_float_base::is_exact
PUBLIC	?is_iec559@_Num_float_base@std@@2_NB		; std::_Num_float_base::is_iec559
PUBLIC	?is_integer@_Num_float_base@std@@2_NB		; std::_Num_float_base::is_integer
PUBLIC	?is_modulo@_Num_float_base@std@@2_NB		; std::_Num_float_base::is_modulo
PUBLIC	?is_signed@_Num_float_base@std@@2_NB		; std::_Num_float_base::is_signed
PUBLIC	?is_specialized@_Num_float_base@std@@2_NB	; std::_Num_float_base::is_specialized
PUBLIC	?tinyness_before@_Num_float_base@std@@2_NB	; std::_Num_float_base::tinyness_before
PUBLIC	?traps@_Num_float_base@std@@2_NB		; std::_Num_float_base::traps
PUBLIC	?round_style@_Num_float_base@std@@2W4float_round_style@2@B ; std::_Num_float_base::round_style
PUBLIC	?radix@_Num_float_base@std@@2HB			; std::_Num_float_base::radix
PUBLIC	?is_signed@?$numeric_limits@D@std@@2_NB		; std::numeric_limits<char>::is_signed
PUBLIC	?digits@?$numeric_limits@D@std@@2HB		; std::numeric_limits<char>::digits
PUBLIC	?digits10@?$numeric_limits@D@std@@2HB		; std::numeric_limits<char>::digits10
PUBLIC	?max_digits10@?$numeric_limits@D@std@@2HB	; std::numeric_limits<char>::max_digits10
PUBLIC	?is_signed@?$numeric_limits@_W@std@@2_NB	; std::numeric_limits<wchar_t>::is_signed
PUBLIC	?digits@?$numeric_limits@_W@std@@2HB		; std::numeric_limits<wchar_t>::digits
PUBLIC	?digits10@?$numeric_limits@_W@std@@2HB		; std::numeric_limits<wchar_t>::digits10
PUBLIC	?max_digits10@?$numeric_limits@_W@std@@2HB	; std::numeric_limits<wchar_t>::max_digits10
PUBLIC	?is_modulo@?$numeric_limits@_N@std@@2_NB	; std::numeric_limits<bool>::is_modulo
PUBLIC	?is_signed@?$numeric_limits@_N@std@@2_NB	; std::numeric_limits<bool>::is_signed
PUBLIC	?digits@?$numeric_limits@_N@std@@2HB		; std::numeric_limits<bool>::digits
PUBLIC	?digits10@?$numeric_limits@_N@std@@2HB		; std::numeric_limits<bool>::digits10
PUBLIC	?max_digits10@?$numeric_limits@_N@std@@2HB	; std::numeric_limits<bool>::max_digits10
PUBLIC	?is_signed@?$numeric_limits@C@std@@2_NB		; std::numeric_limits<signed char>::is_signed
PUBLIC	?digits@?$numeric_limits@C@std@@2HB		; std::numeric_limits<signed char>::digits
PUBLIC	?digits10@?$numeric_limits@C@std@@2HB		; std::numeric_limits<signed char>::digits10
PUBLIC	?max_digits10@?$numeric_limits@C@std@@2HB	; std::numeric_limits<signed char>::max_digits10
PUBLIC	?is_signed@?$numeric_limits@E@std@@2_NB		; std::numeric_limits<unsigned char>::is_signed
PUBLIC	?digits@?$numeric_limits@E@std@@2HB		; std::numeric_limits<unsigned char>::digits
PUBLIC	?digits10@?$numeric_limits@E@std@@2HB		; std::numeric_limits<unsigned char>::digits10
PUBLIC	?max_digits10@?$numeric_limits@E@std@@2HB	; std::numeric_limits<unsigned char>::max_digits10
PUBLIC	?is_signed@?$numeric_limits@F@std@@2_NB		; std::numeric_limits<short>::is_signed
PUBLIC	?digits@?$numeric_limits@F@std@@2HB		; std::numeric_limits<short>::digits
PUBLIC	?digits10@?$numeric_limits@F@std@@2HB		; std::numeric_limits<short>::digits10
PUBLIC	?max_digits10@?$numeric_limits@F@std@@2HB	; std::numeric_limits<short>::max_digits10
PUBLIC	?is_signed@?$numeric_limits@G@std@@2_NB		; std::numeric_limits<unsigned short>::is_signed
PUBLIC	?digits@?$numeric_limits@G@std@@2HB		; std::numeric_limits<unsigned short>::digits
PUBLIC	?digits10@?$numeric_limits@G@std@@2HB		; std::numeric_limits<unsigned short>::digits10
PUBLIC	?max_digits10@?$numeric_limits@G@std@@2HB	; std::numeric_limits<unsigned short>::max_digits10
PUBLIC	?is_signed@?$numeric_limits@H@std@@2_NB		; std::numeric_limits<int>::is_signed
PUBLIC	?digits@?$numeric_limits@H@std@@2HB		; std::numeric_limits<int>::digits
PUBLIC	?digits10@?$numeric_limits@H@std@@2HB		; std::numeric_limits<int>::digits10
PUBLIC	?max_digits10@?$numeric_limits@H@std@@2HB	; std::numeric_limits<int>::max_digits10
PUBLIC	?is_signed@?$numeric_limits@I@std@@2_NB		; std::numeric_limits<unsigned int>::is_signed
PUBLIC	?digits@?$numeric_limits@I@std@@2HB		; std::numeric_limits<unsigned int>::digits
PUBLIC	?digits10@?$numeric_limits@I@std@@2HB		; std::numeric_limits<unsigned int>::digits10
PUBLIC	?max_digits10@?$numeric_limits@I@std@@2HB	; std::numeric_limits<unsigned int>::max_digits10
PUBLIC	?is_signed@?$numeric_limits@J@std@@2_NB		; std::numeric_limits<long>::is_signed
PUBLIC	?digits@?$numeric_limits@J@std@@2HB		; std::numeric_limits<long>::digits
PUBLIC	?digits10@?$numeric_limits@J@std@@2HB		; std::numeric_limits<long>::digits10
PUBLIC	?max_digits10@?$numeric_limits@J@std@@2HB	; std::numeric_limits<long>::max_digits10
PUBLIC	?is_signed@?$numeric_limits@K@std@@2_NB		; std::numeric_limits<unsigned long>::is_signed
PUBLIC	?digits@?$numeric_limits@K@std@@2HB		; std::numeric_limits<unsigned long>::digits
PUBLIC	?digits10@?$numeric_limits@K@std@@2HB		; std::numeric_limits<unsigned long>::digits10
PUBLIC	?max_digits10@?$numeric_limits@K@std@@2HB	; std::numeric_limits<unsigned long>::max_digits10
PUBLIC	?is_signed@?$numeric_limits@_J@std@@2_NB	; std::numeric_limits<__int64>::is_signed
PUBLIC	?digits@?$numeric_limits@_J@std@@2HB		; std::numeric_limits<__int64>::digits
PUBLIC	?digits10@?$numeric_limits@_J@std@@2HB		; std::numeric_limits<__int64>::digits10
PUBLIC	?max_digits10@?$numeric_limits@_J@std@@2HB	; std::numeric_limits<__int64>::max_digits10
PUBLIC	?is_signed@?$numeric_limits@_K@std@@2_NB	; std::numeric_limits<unsigned __int64>::is_signed
PUBLIC	?digits@?$numeric_limits@_K@std@@2HB		; std::numeric_limits<unsigned __int64>::digits
PUBLIC	?digits10@?$numeric_limits@_K@std@@2HB		; std::numeric_limits<unsigned __int64>::digits10
PUBLIC	?max_digits10@?$numeric_limits@_K@std@@2HB	; std::numeric_limits<unsigned __int64>::max_digits10
PUBLIC	?digits@?$numeric_limits@M@std@@2HB		; std::numeric_limits<float>::digits
PUBLIC	?digits10@?$numeric_limits@M@std@@2HB		; std::numeric_limits<float>::digits10
PUBLIC	?max_digits10@?$numeric_limits@M@std@@2HB	; std::numeric_limits<float>::max_digits10
PUBLIC	?max_exponent@?$numeric_limits@M@std@@2HB	; std::numeric_limits<float>::max_exponent
PUBLIC	?max_exponent10@?$numeric_limits@M@std@@2HB	; std::numeric_limits<float>::max_exponent10
PUBLIC	?min_exponent@?$numeric_limits@M@std@@2HB	; std::numeric_limits<float>::min_exponent
PUBLIC	?min_exponent10@?$numeric_limits@M@std@@2HB	; std::numeric_limits<float>::min_exponent10
PUBLIC	?digits@?$numeric_limits@N@std@@2HB		; std::numeric_limits<double>::digits
PUBLIC	?digits10@?$numeric_limits@N@std@@2HB		; std::numeric_limits<double>::digits10
PUBLIC	?max_digits10@?$numeric_limits@N@std@@2HB	; std::numeric_limits<double>::max_digits10
PUBLIC	?max_exponent@?$numeric_limits@N@std@@2HB	; std::numeric_limits<double>::max_exponent
PUBLIC	?max_exponent10@?$numeric_limits@N@std@@2HB	; std::numeric_limits<double>::max_exponent10
PUBLIC	?min_exponent@?$numeric_limits@N@std@@2HB	; std::numeric_limits<double>::min_exponent
PUBLIC	?min_exponent10@?$numeric_limits@N@std@@2HB	; std::numeric_limits<double>::min_exponent10
PUBLIC	?digits@?$numeric_limits@O@std@@2HB		; std::numeric_limits<long double>::digits
PUBLIC	?digits10@?$numeric_limits@O@std@@2HB		; std::numeric_limits<long double>::digits10
PUBLIC	?max_digits10@?$numeric_limits@O@std@@2HB	; std::numeric_limits<long double>::max_digits10
PUBLIC	?max_exponent@?$numeric_limits@O@std@@2HB	; std::numeric_limits<long double>::max_exponent
PUBLIC	?max_exponent10@?$numeric_limits@O@std@@2HB	; std::numeric_limits<long double>::max_exponent10
PUBLIC	?min_exponent@?$numeric_limits@O@std@@2HB	; std::numeric_limits<long double>::min_exponent
PUBLIC	?min_exponent10@?$numeric_limits@O@std@@2HB	; std::numeric_limits<long double>::min_exponent10
PUBLIC	?value@?$integral_constant@_N$0A@@tr1@std@@2_NB	; std::tr1::integral_constant<bool,0>::value
PUBLIC	?value@?$integral_constant@_N$00@tr1@std@@2_NB	; std::tr1::integral_constant<bool,1>::value
PUBLIC	?value@?$integral_constant@I$0A@@tr1@std@@2IB	; std::tr1::integral_constant<unsigned int,0>::value
PUBLIC	?_Rank@?$_Arithmetic_traits@_N@std@@2HB		; std::_Arithmetic_traits<bool>::_Rank
PUBLIC	?_Rank@?$_Arithmetic_traits@D@std@@2HB		; std::_Arithmetic_traits<char>::_Rank
PUBLIC	?_Rank@?$_Arithmetic_traits@C@std@@2HB		; std::_Arithmetic_traits<signed char>::_Rank
PUBLIC	?_Rank@?$_Arithmetic_traits@E@std@@2HB		; std::_Arithmetic_traits<unsigned char>::_Rank
PUBLIC	?_Rank@?$_Arithmetic_traits@F@std@@2HB		; std::_Arithmetic_traits<short>::_Rank
PUBLIC	?_Rank@?$_Arithmetic_traits@G@std@@2HB		; std::_Arithmetic_traits<unsigned short>::_Rank
PUBLIC	?_Rank@?$_Arithmetic_traits@H@std@@2HB		; std::_Arithmetic_traits<int>::_Rank
PUBLIC	?_Rank@?$_Arithmetic_traits@I@std@@2HB		; std::_Arithmetic_traits<unsigned int>::_Rank
PUBLIC	?_Rank@?$_Arithmetic_traits@J@std@@2HB		; std::_Arithmetic_traits<long>::_Rank
PUBLIC	?_Rank@?$_Arithmetic_traits@K@std@@2HB		; std::_Arithmetic_traits<unsigned long>::_Rank
PUBLIC	?_Rank@?$_Arithmetic_traits@_J@std@@2HB		; std::_Arithmetic_traits<__int64>::_Rank
PUBLIC	?_Rank@?$_Arithmetic_traits@_K@std@@2HB		; std::_Arithmetic_traits<unsigned __int64>::_Rank
PUBLIC	?_Rank@?$_Arithmetic_traits@M@std@@2HB		; std::_Arithmetic_traits<float>::_Rank
PUBLIC	?_Rank@?$_Arithmetic_traits@N@std@@2HB		; std::_Arithmetic_traits<double>::_Rank
PUBLIC	?_Rank@?$_Arithmetic_traits@O@std@@2HB		; std::_Arithmetic_traits<long double>::_Rank
PUBLIC	?_VehicleExists@@3_NA				; _VehicleExists
PUBLIC	??_C@_00CNPNBAHC@?$AA@				; `string'
PUBLIC	??_C@_09JDDCPHDA@Main?5Menu?$AA@		; `string'
PUBLIC	??_C@_09KHECDFAE@Main?5Mods?$AA@		; `string'
PUBLIC	??_C@_0M@OMAACFCM@Player?5Mods?$AA@		; `string'
PUBLIC	??_C@_0BN@PPPGCAIK@Player?5Mods?5?$DO?5Online?5Players?$AA@ ; `string'
PUBLIC	??_C@_0CC@PKBCPHMM@Player?5Mods?5?$DO?5Online?5Players?5?$DO?5?$CF@ ; `string'
PUBLIC	??_C@_0DG@JNINBGGA@Player?5Mods?5?$DO?5Online?5Players?5?$DO?5?$CF@ ; `string'
PUBLIC	??_C@_0DG@GPGIDGAN@Player?5Mods?5?$DO?5Online?5Players?5?$DO?5?$CF@ ; `string'
PUBLIC	??_C@_0DD@DALAHFHN@Player?5Mods?5?$DO?5Online?5Players?5?$DO?5?$CF@ ; `string'
PUBLIC	??_C@_0DE@ILPNPFJC@Player?5Mods?5?$DO?5Online?5Players?5?$DO?5?$CF@ ; `string'
PUBLIC	??_C@_0DF@JAHODGKL@Player?5Mods?5?$DO?5Online?5Players?5?$DO?5?$CF@ ; `string'
PUBLIC	??_C@_0M@HOMIKOAP@Weapon?5Mods?$AA@		; `string'
PUBLIC	??_C@_0BN@LJOHNBNJ@Weapon?5Mods?5?$DO?5Cannon?5Options?$AA@ ; `string'
PUBLIC	??_C@_0N@JKJCEOIL@Vehicle?5Mods?$AA@		; `string'
PUBLIC	??_C@_0BO@KFBCAGNH@Vehicle?5Mods?5?$DO?5Vehicle?5Editor?$AA@ ; `string'
PUBLIC	??_C@_0BP@CGHIOEFJ@Vehicle?5Mods?5?$DO?5Vehicle?5Spawner?$AA@ ; `string'
PUBLIC	??_C@_0CG@DCNFOGOK@Vehicle?5Mods?5?$DO?5Vehicle?5Spawner?5?$DO@ ; `string'
PUBLIC	??_C@_0CM@OFOFILDK@Vehicle?5Mods?5?$DO?5Vehicle?5Spawner?5?$DO@ ; `string'
PUBLIC	??_C@_0CJ@JGFIBILN@Vehicle?5Mods?5?$DO?5Vehicle?5Spawner?5?$DO@ ; `string'
PUBLIC	??_C@_0CH@ELEJPKND@Vehicle?5Mods?5?$DO?5Vehicle?5Spawner?5?$DO@ ; `string'
PUBLIC	??_C@_0CH@MEKHMKKG@Vehicle?5Mods?5?$DO?5Vehicle?5Spawner?5?$DO@ ; `string'
PUBLIC	??_C@_0CL@PHEEJKCG@Vehicle?5Mods?5?$DO?5Vehicle?5Spawner?5?$DO@ ; `string'
PUBLIC	??_C@_0CM@MIDEFHGC@Vehicle?5Mods?5?$DO?5Vehicle?5Spawner?5?$DO@ ; `string'
PUBLIC	??_C@_0CM@GEKCNAJO@Vehicle?5Mods?5?$DO?5Vehicle?5Spawner?5?$DO@ ; `string'
PUBLIC	??_C@_0CK@MBDMHDKP@Vehicle?5Mods?5?$DO?5Vehicle?5Spawner?5?$DO@ ; `string'
PUBLIC	??_C@_0CM@DNBGHEI@Vehicle?5Mods?5?$DO?5Vehicle?5Spawner?5?$DO@ ; `string'
PUBLIC	??_C@_0CI@DHFEDJII@Vehicle?5Mods?5?$DO?5Vehicle?5Spawner?5?$DO@ ; `string'
PUBLIC	??_C@_0CK@EJABICBD@Vehicle?5Mods?5?$DO?5Vehicle?5Spawner?5?$DO@ ; `string'
PUBLIC	??_C@_0CH@EAGILOIE@Vehicle?5Mods?5?$DO?5Vehicle?5Spawner?5?$DO@ ; `string'
PUBLIC	??_C@_0CH@BEJKMAJP@Vehicle?5Mods?5?$DO?5Vehicle?5Spawner?5?$DO@ ; `string'
PUBLIC	??_C@_0CJ@KFDODIMJ@Vehicle?5Mods?5?$DO?5Vehicle?5Spawner?5?$DO@ ; `string'
PUBLIC	??_C@_0CH@MFNGLIJO@Vehicle?5Mods?5?$DO?5Vehicle?5Spawner?5?$DO@ ; `string'
PUBLIC	??_C@_0CP@KIHBNPPI@Vehicle?5Mods?5?$DO?5Vehicle?5Spawner?5?$DO@ ; `string'
PUBLIC	??_C@_0CH@EKHPGCFE@Vehicle?5Mods?5?$DO?5Vehicle?5Spawner?5?$DO@ ; `string'
PUBLIC	??_C@_0CF@LLMEMIB@Vehicle?5Mods?5?$DO?5Vehicle?5Spawner?5?$DO@ ; `string'
PUBLIC	??_C@_0CJ@BOKHDDOH@Vehicle?5Mods?5?$DO?5Vehicle?5Spawner?5?$DO@ ; `string'
PUBLIC	??_C@_0CF@IJPENAE@Vehicle?5Mods?5?$DO?5Vehicle?5Spawner?5?$DO@ ; `string'
PUBLIC	??_C@_0N@OAHDGEBD@World?5Editor?$AA@		; `string'
PUBLIC	??_C@_0BF@KDODDPED@World?5Editor?5?$DO?5Forge?$AA@ ; `string'
PUBLIC	??_C@_0CF@GKFCKHKF@World?5Editor?5?$DO?5Forge?5?$DO?5Object?5Ed@ ; `string'
PUBLIC	??_C@_0BH@HKCOKLOG@World?5Editor?5?$DO?5Weather?$AA@ ; `string'
PUBLIC	??_C@_0O@DHBDOMFO@Teleport?5Menu?$AA@		; `string'
PUBLIC	?Menu_CanOpen@@3_NA				; Menu_CanOpen
PUBLIC	?Menu_Index@@3KA				; Menu_Index
PUBLIC	?Menu_Open@@3_NA				; Menu_Open
PUBLIC	?Menu_Scroll@@3KA				; Menu_Scroll
PUBLIC	?Menu_SelectedPlayer@@3KA			; Menu_SelectedPlayer
PUBLIC	?Toggle_ESP@@3_NA				; Toggle_ESP
PUBLIC	?Toggle_ExplosiveAmmo@@3_NA			; Toggle_ExplosiveAmmo
PUBLIC	?Toggle_FireAmmo@@3_NA				; Toggle_FireAmmo
PUBLIC	?Toggle_FireworkAmmo@@3_NA			; Toggle_FireworkAmmo
PUBLIC	?Toggle_FlyingBikes@@3_NA			; Toggle_FlyingBikes
PUBLIC	?Toggle_FPSCounter@@3_NA			; Toggle_FPSCounter
PUBLIC	?Toggle_HandbrakeDrift@@3_NA			; Toggle_HandbrakeDrift
PUBLIC	?Toggle_Hydraulics@@3_NA			; Toggle_Hydraulics
PUBLIC	?Toggle_LaserSight@@3_NA			; Toggle_LaserSight
PUBLIC	?Toggle_Moses@@3_NA				; Toggle_Moses
PUBLIC	?Toggle_NoWanted@@3_NA				; Toggle_NoWanted
PUBLIC	?Toggle_Noclip@@3_NA				; Toggle_Noclip
PUBLIC	?Toggle_NOS@@3_NA				; Toggle_NOS
PUBLIC	?Toggle_ParachuteEject@@3_NA			; Toggle_ParachuteEject
PUBLIC	?Toggle_RainbowPaint@@3_NA			; Toggle_RainbowPaint
PUBLIC	?Toggle_RainbowSmoke@@3_NA			; Toggle_RainbowSmoke
PUBLIC	?Toggle_SharkOMatic@@3_NA			; Toggle_SharkOMatic
PUBLIC	?Toggle_Speedometer@@3_NA			; Toggle_Speedometer
PUBLIC	?Toggle_SuperJump@@3_NA				; Toggle_SuperJump
PUBLIC	?Toggle_SuperSpeed@@3_NA			; Toggle_SuperSpeed
PUBLIC	?Toggle_SupermanPunch@@3_NA			; Toggle_SupermanPunch
PUBLIC	?Toggle_TeleportGun@@3_NA			; Toggle_TeleportGun
PUBLIC	?Toggle_UnlimitedAmmo@@3_NA			; Toggle_UnlimitedAmmo
PUBLIC	?Toggle_VehicleCollision@@3_NA			; Toggle_VehicleCollision
PUBLIC	?Toggle_VehicleInvincibility@@3_NA		; Toggle_VehicleInvincibility
PUBLIC	?Toggle_Whiplash@@3_NA				; Toggle_Whiplash
PUBLIC	?NativeHitCount@@3KA				; NativeHitCount
PUBLIC	?Aimbot_Client@@3KA				; Aimbot_Client
PUBLIC	?Aimbot_Arrest@@3_NA				; Aimbot_Arrest
PUBLIC	?Aimbot_ArrestHandle@@3KA			; Aimbot_ArrestHandle
PUBLIC	?Aimbot_ArrestHit@@3_NA				; Aimbot_ArrestHit
PUBLIC	?Aimbot_HasAimed@@3_NA				; Aimbot_HasAimed
PUBLIC	?Aimbot_HasAimedAtPlayer@@3_NA			; Aimbot_HasAimedAtPlayer
PUBLIC	?Aimbot_Toggle@@3_NA				; Aimbot_Toggle
PUBLIC	?FirstPerson_Check@@3_NA			; FirstPerson_Check
PUBLIC	?FirstPerson_Load@@3_NA				; FirstPerson_Load
PUBLIC	?FirstPerson_Toggle@@3_NA			; FirstPerson_Toggle
PUBLIC	?Forge_Object@@3KA				; Forge_Object
PUBLIC	?Forge_ObjectHash@@3KA				; Forge_ObjectHash
PUBLIC	?Forge_Toggle@@3_NA				; Forge_Toggle
PUBLIC	?GrapplingHook_MovingToTarget@@3_NA		; GrapplingHook_MovingToTarget
PUBLIC	?GrapplingHook_Rope@@3KA			; GrapplingHook_Rope
PUBLIC	?GrapplingHook_Toggle@@3_NA			; GrapplingHook_Toggle
PUBLIC	?WeaponCannon_Toggle@@3_NA			; WeaponCannon_Toggle
PUBLIC	?WeaponCannon_Type@@3W4_WeaponCannon_Projectiles@@A ; WeaponCannon_Type
PUBLIC	?Zombies_Toggle@@3_NA				; Zombies_Toggle
PUBLIC	?bInitialized@@3_NA				; bInitialized
PUBLIC	?bListInitialized@@3_NA				; bListInitialized
PUBLIC	?bPlayingGTAV@@3_NA				; bPlayingGTAV
PUBLIC	?Check_Airstrike@@3KA				; Check_Airstrike
PUBLIC	?Check_SetModel@@3KA				; Check_SetModel
PUBLIC	?Check_SpawnVeh_Fulfilled@@3_NA			; Check_SpawnVeh_Fulfilled
PUBLIC	?Check_SpawnVeh_Handle@@3KA			; Check_SpawnVeh_Handle
PUBLIC	?Check_SpawnVeh_Hash@@3KA			; Check_SpawnVeh_Hash
PUBLIC	?Request_AnimDict@@3PADA			; Request_AnimDict
PUBLIC	?Request_ClipSet@@3PADA				; Request_ClipSet
PUBLIC	?Request_Hash@@3KA				; Request_Hash
PUBLIC	?XUIDSpoof_Gamertag@@3PADA			; XUIDSpoof_Gamertag
PUBLIC	?XUIDSpoof_Spoofing@@3_NA			; XUIDSpoof_Spoofing
PUBLIC	?XUIDSpoof_XUID@@3_KA				; XUIDSpoof_XUID
PUBLIC	??_C@_1FK@NLNNEAKK@T?$AAh?$AAe?$AA?5?$AAS?$AAa?$AAi?$AAy?$AAa?$AAn?$AA?5?$AAP?$AAr?$AAo?$AAj?$AAe?$AAc?$AAt?$AA?5?$AA?9?$AA?5?$AAC?$AAl?$AAe?$AAa?$AAr?$AAe?$AAd?$AA?5?$AAp?$AAl?$AAa?$AA@ ; `string'
PUBLIC	??_C@_0BH@KFCLKLKM@move_m?$EAdrunk?$EAverydrunk?$AA@ ; `string'
PUBLIC	??_C@_0BA@PHJBHDCI@BigHitByVehicle?$AA@		; `string'
PUBLIC	??_C@_0N@OEEMGMJC@SCR_Dumpster?$AA@		; `string'
PUBLIC	??_C@_0M@GFFLEONH@SCR_Torture?$AA@		; `string'
PUBLIC	??_C@_0BH@EPICEKHK@Zombies?5?$HOr?$HODeactivated?$AA@ ; `string'
PUBLIC	??_C@_0BB@OCFAMJCC@Activate?5Zombies?$AA@	; `string'
PUBLIC	??_C@_0L@DDLKAIEJ@Toggle?5ESP?$AA@		; `string'
PUBLIC	??_C@_0BE@EKNNIABK@Toggle?5First?5Person?$AA@	; `string'
PUBLIC	??_C@_0BD@MPBOGBJN@Toggle?5FPS?5Counter?$AA@	; `string'
PUBLIC	??_C@_0BK@BFHALLNP@Toggle?5Grappling?5Hook?5Gun?$AA@ ; `string'
PUBLIC	??_C@_0BB@HIHIOOLK@Toggle?5No?5Wanted?$AA@	; `string'
PUBLIC	??_C@_0O@BCNBPGHO@Toggle?5Noclip?$AA@		; `string'
PUBLIC	??_C@_0BF@KOLJOFPM@Toggle?5Shark?9O?9Matic?$AA@	; `string'
PUBLIC	??_C@_0P@BGPDEBOI@Online?5Players?$AA@		; `string'
PUBLIC	??_C@_0N@GPKFCDLF@Model?5Editor?$AA@		; `string'
PUBLIC	??_C@_0BF@FAKACAJB@Toggle?5Invincibility?$AA@	; `string'
PUBLIC	??_C@_0BE@HGGJEIBD@Toggle?5Invisibility?$AA@	; `string'
PUBLIC	??_C@_0BB@FOHDGCKC@Toggle?5Moses?5Mod?$AA@	; `string'
PUBLIC	??_C@_0BC@MGBKFBKJ@Toggle?5Super?5Jump?$AA@	; `string'
PUBLIC	??_C@_0BD@JNDNDKOJ@Toggle?5Super?5Speed?$AA@	; `string'
PUBLIC	??_C@_0BG@PKAIFIJD@Toggle?5Superman?5Punch?$AA@	; `string'
PUBLIC	??_C@_0BA@OEHGPJDB@Toggle?5Whiplash?$AA@	; `string'
PUBLIC	??_C@_0O@FGICINFJ@Online?5Player?$AA@		; `string'
PUBLIC	??_C@_04EIJLDGJE@SCTV?$AA@			; `string'
PUBLIC	??_C@_0BC@LFFKAHPC@Cash?5Drop?5Options?$AA@	; `string'
PUBLIC	??_C@_0BC@EHLPCHJP@Explosion?5Options?$AA@	; `string'
PUBLIC	??_C@_0P@HBEMNBAO@Weapon?5Options?$AA@		; `string'
PUBLIC	??_C@_0BA@ECLACJLA@Vehicle?5Options?$AA@	; `string'
PUBLIC	??_C@_0BB@EFNHDKJD@Teleport?5Options?$AA@	; `string'
PUBLIC	??_C@_0N@IKDPBEMO@Drop?5$10?0000?$AA@		; `string'
PUBLIC	??_C@_0N@OLBKJPOA@Drop?5$25?0000?$AA@		; `string'
PUBLIC	??_C@_0N@HOHADANN@Drop?5$50?0000?$AA@		; `string'
PUBLIC	??_C@_0N@LJCCLAEH@Drop?5$75?0000?$AA@		; `string'
PUBLIC	??_C@_0O@HCBEFODD@Drop?5$100?0000?$AA@		; `string'
PUBLIC	??_C@_0O@KOKDHGHH@Drop?5$250?0000?$AA@		; `string'
PUBLIC	??_C@_0O@PGFOFAMJ@Drop?5$500?0000?$AA@		; `string'
PUBLIC	??_C@_0O@OGEDHIBD@Drop?5$750?0000?$AA@		; `string'
PUBLIC	??_C@_0BN@CFOAMOFE@Enter?5amount?5of?5cash?5to?5drop?$AA@ ; `string'
PUBLIC	??_C@_09KHLPGPGB@Airstrike?$AA@			; `string'
PUBLIC	??_C@_0BA@BOHGAAFL@Blimp?5Explosion?$AA@	; `string'
PUBLIC	??_C@_0P@IIAIHEKJ@Boat?5Explosion?$AA@		; `string'
PUBLIC	??_C@_0O@OELBIIHA@Car?5Explosion?$AA@		; `string'
PUBLIC	??_C@_09BJPEJKCC@Fire?5Bomb?$AA@		; `string'
PUBLIC	??_C@_0BC@PHGBOEPB@Fire?5Extinguisher?$AA@	; `string'
PUBLIC	??_C@_05HJLJONL@Flare?$AA@			; `string'
PUBLIC	??_C@_0O@GGLIELAE@Gas?5Explosion?$AA@		; `string'
PUBLIC	??_C@_0BC@BMMKBMFI@Grenade?5Explosion?$AA@	; `string'
PUBLIC	??_C@_0BK@PEJHCFE@Grenade?5Explosion?5?$CIsmoke?$CJ?$AA@ ; `string'
PUBLIC	??_C@_0BA@BEBIJKFJ@Train?5Explosion?$AA@	; `string'
PUBLIC	??_C@_0BB@BBHDCHJB@Give?5All?5Weapons?$AA@	; `string'
PUBLIC	??_C@_0BE@OIMFOMHH@Give?5Unlimited?5Ammo?$AA@	; `string'
PUBLIC	??_C@_0BB@JOMHJHGE@Take?5All?5Weapons?$AA@	; `string'
PUBLIC	??_C@_0BE@HDADIEOO@Take?5Unlimited?5Ammo?$AA@	; `string'
PUBLIC	??_C@_0BA@LNJHNABE@Destroy?5Vehicle?$AA@	; `string'
PUBLIC	??_C@_0P@PBPCEJIN@Knock?5Off?5Bike?$AA@		; `string'
PUBLIC	??_C@_0P@BDCJPCAC@Launch?5Vehicle?$AA@		; `string'
PUBLIC	??_C@_0L@PAJNHLGO@Lock?5Doors?$AA@		; `string'
PUBLIC	??_C@_0N@MHDEDIKD@Unlock?5Doors?$AA@		; `string'
PUBLIC	??_C@_0BG@KKEPOFBM@Toggle?5Remote?5Control?$AA@	; `string'
PUBLIC	??_C@_0BB@PENGAAGE@Toggle?5Tow?5Truck?$AA@	; `string'
PUBLIC	??_C@_0BE@NJIAIPLP@?$DMenter?5option?5here?$DO?$AA@ ; `string'
PUBLIC	??_C@_0P@GEKHEPOO@Cannon?5Options?$AA@		; `string'
PUBLIC	??_C@_0BB@NMDKMGEK@Activate?5Ped?5War?$AA@	; `string'
PUBLIC	??_C@_0BJ@JHLFOFDF@Activate?5Poltergeist?5Gun?$AA@ ; `string'
PUBLIC	??_C@_0O@NMOBFGO@Toggle?5Aimbot?$AA@		; `string'
PUBLIC	??_C@_0BG@OAJKLEIP@Toggle?5Explosive?5Ammo?$AA@	; `string'
PUBLIC	??_C@_0BB@HHCJGGHO@Toggle?5Fire?5Ammo?$AA@	; `string'
PUBLIC	??_C@_0BD@JDEKPIFE@Toggle?5Laser?5Sight?$AA@	; `string'
PUBLIC	??_C@_0BE@FMGOGNFF@Toggle?5Teleport?5Gun?$AA@	; `string'
PUBLIC	??_C@_0BG@ONLKAEJB@Toggle?5Unlimited?5Ammo?$AA@	; `string'
PUBLIC	??_C@_0BF@OIFKEONH@Toggle?5Weapon?5Cannon?$AA@	; `string'
PUBLIC	??_C@_0O@KGBNIEGM@Animal?5Cannon?$AA@		; `string'
PUBLIC	??_C@_0O@CJIMGLPG@Object?5Cannon?$AA@		; `string'
PUBLIC	??_C@_0BC@LIFEMNGH@Pedestrian?5Cannon?$AA@	; `string'
PUBLIC	??_C@_0P@HDBAPAHP@Vehicle?5Cannon?$AA@		; `string'
PUBLIC	??_C@_0P@CLPOGCEA@Vehicle?5Editor?$AA@		; `string'
PUBLIC	??_C@_0BA@EIJNAONK@Vehicle?5Spawner?$AA@	; `string'
PUBLIC	??_C@_0BF@FIJMDMI@Fix?5and?5Wash?5Vehicle?$AA@	; `string'
PUBLIC	??_C@_0N@KFCMBLAK@Lock?5Vehicle?$AA@		; `string'
PUBLIC	??_C@_0P@DEKNJFIK@Unlock?5Vehicle?$AA@		; `string'
PUBLIC	??_C@_0BB@HIPIHAEA@Toggle?5Collision?$AA@	; `string'
PUBLIC	??_C@_0BE@FNMCLHPI@Toggle?5Flying?5Bikes?$AA@	; `string'
PUBLIC	??_C@_0BH@NJHDMOML@Toggle?5Handbrake?5Drift?$AA@ ; `string'
PUBLIC	??_C@_0BC@KJCLIKLK@Toggle?5Hydraulics?$AA@	; `string'
PUBLIC	??_C@_0L@NKKKIGJP@Toggle?5NOS?$AA@		; `string'
PUBLIC	??_C@_0BH@EADOHPOP@Toggle?5Parachute?5Eject?$AA@ ; `string'
PUBLIC	??_C@_0BF@DALKALMH@Toggle?5Rainbow?5Paint?$AA@	; `string'
PUBLIC	??_C@_0BK@EICFFFAE@Toggle?5Rainbow?5Tire?5Smoke?$AA@ ; `string'
PUBLIC	??_C@_0BD@EHDHBKDJ@Toggle?5Speedometer?$AA@	; `string'
PUBLIC	??_C@_05JOOFIMIN@Armor?$AA@			; `string'
PUBLIC	??_C@_06PFJGOFBK@Brakes?$AA@			; `string'
PUBLIC	??_C@_07FNBCHHPL@Bumpers?$AA@			; `string'
PUBLIC	??_C@_06HBKBHOGJ@Engine?$AA@			; `string'
PUBLIC	??_C@_07CFNHJLMM@Exhaust?$AA@			; `string'
PUBLIC	??_C@_0L@MBCOMCBC@Explosives?$AA@		; `string'
PUBLIC	??_C@_04JOBAAGCI@Horn?$AA@			; `string'
PUBLIC	??_C@_06EMKJPPBG@Lights?$AA@			; `string'
PUBLIC	??_C@_0BI@IDNIENGA@Loss?5?1?5Theft?5Protection?$AA@ ; `string'
PUBLIC	??_C@_05NGJJADOP@Plate?$AA@			; `string'
PUBLIC	??_C@_07FGOKCDHA@Respray?$AA@			; `string'
PUBLIC	??_C@_06BAGDLLKA@Skirts?$AA@			; `string'
PUBLIC	??_C@_07OCHJPGCP@Spoiler?$AA@			; `string'
PUBLIC	??_C@_0L@KLODDAKA@Suspension?$AA@		; `string'
PUBLIC	??_C@_0N@POEMFCEL@Transmission?$AA@		; `string'
PUBLIC	??_C@_05IABAHLDD@Turbo?$AA@			; `string'
PUBLIC	??_C@_06HILDJNPC@Wheels?$AA@			; `string'
PUBLIC	??_C@_07LDLFNPGN@Windows?$AA@			; `string'
PUBLIC	??_C@_04HKONPJHL@Boat?$AA@			; `string'
PUBLIC	??_C@_0L@JKHJECLJ@Commercial?$AA@		; `string'
PUBLIC	??_C@_07IPNBHMDC@Compact?$AA@			; `string'
PUBLIC	??_C@_05MMAJGBBO@Coupe?$AA@			; `string'
PUBLIC	??_C@_05EDOHFBGL@Cycle?$AA@			; `string'
PUBLIC	??_C@_09BIAKCGK@Emergency?$AA@			; `string'
PUBLIC	??_C@_0L@LHKIJOOB@Helicopter?$AA@		; `string'
PUBLIC	??_C@_0L@BLDOBJBN@Industrial?$AA@		; `string'
PUBLIC	??_C@_08LMCCGEHK@Military?$AA@			; `string'
PUBLIC	??_C@_0L@HMENKOML@Motorcycle?$AA@		; `string'
PUBLIC	??_C@_06NCAGMHBO@Muscle?$AA@			; `string'
PUBLIC	??_C@_08DEBPJFMG@Off?9Road?$AA@			; `string'
PUBLIC	??_C@_05MHCICFEJ@Plane?$AA@			; `string'
PUBLIC	??_C@_05JDNKFLFC@Sedan?$AA@			; `string'
PUBLIC	??_C@_07LMLHFMEG@Service?$AA@			; `string'
PUBLIC	??_C@_05ECJGCDFD@Sport?$AA@			; `string'
PUBLIC	??_C@_0O@KIIDMJDG@Sport?5Classic?$AA@		; `string'
PUBLIC	??_C@_05MNDPPJJJ@Super?$AA@			; `string'
PUBLIC	??_C@_03IBJFJGCG@SUV?$AA@			; `string'
PUBLIC	??_C@_07HCOFHGI@Utility?$AA@			; `string'
PUBLIC	??_C@_03ICLGJHKD@Van?$AA@			; `string'
PUBLIC	??_C@_06MFOGHBMI@Dinghy?$AA@			; `string'
PUBLIC	??_C@_06LBDMKPGH@Jetmax?$AA@			; `string'
PUBLIC	??_C@_0BB@KHLCLB@Kraken?5?$CIEV?5?1?5RP?$CJ?$AA@ ; `string'
PUBLIC	??_C@_07JICJFPHK@Marquis?$AA@			; `string'
PUBLIC	??_C@_08JBPBKCLL@Seashark?$AA@			; `string'
PUBLIC	??_C@_0O@BAEMMICN@Speeder?5?$CIDLC?$CJ?$AA@	; `string'
PUBLIC	??_C@_06KBNALHDK@Squalo?$AA@			; `string'
PUBLIC	??_C@_0M@KIEGKMD@Submersible?$AA@		; `string'
PUBLIC	??_C@_07GGJELDOM@Suntrap?$AA@			; `string'
PUBLIC	??_C@_0L@MFAEONLF@Toro?5?$CIDLC?$CJ?$AA@	; `string'
PUBLIC	??_C@_06IKGIMJCE@Tropic?$AA@			; `string'
PUBLIC	??_C@_06OEDNGFC@Benson?$AA@			; `string'
PUBLIC	??_C@_04CCDNMAPB@Biff?$AA@			; `string'
PUBLIC	??_C@_06MFAIPCNL@Hauler?$AA@			; `string'
PUBLIC	??_C@_04JMBIGJBC@Mule?$AA@			; `string'
PUBLIC	??_C@_06ODEOHKOJ@Packer?$AA@			; `string'
PUBLIC	??_C@_07OFINGKDN@Phantom?$AA@			; `string'
PUBLIC	??_C@_07CILJMIOJ@Pounder?$AA@			; `string'
PUBLIC	??_C@_08LDIBGCFE@Stockade?$AA@			; `string'
PUBLIC	??_C@_06MIHALNE@Blista?$AA@			; `string'
PUBLIC	??_C@_0L@EBAKONOH@Dilettante?$AA@		; `string'
PUBLIC	??_C@_0L@MHCBIAIG@Issi?5?$CIRET?$CJ?$AA@	; `string'
PUBLIC	??_C@_0M@CMMIDFNA@Panto?5?$CIDLC?$CJ?$AA@	; `string'
PUBLIC	??_C@_07HNDMNMML@Prairie?$AA@			; `string'
PUBLIC	??_C@_0P@NNENIACO@Rhapsody?5?$CIDLC?$CJ?$AA@	; `string'
PUBLIC	??_C@_08EDJMEKON@Exemplar?$AA@			; `string'
PUBLIC	??_C@_04MDIHAFHL@F620?$AA@			; `string'
PUBLIC	??_C@_05POLMNJP@Felon?$AA@			; `string'
PUBLIC	??_C@_0P@MFBEJMPH@Felon?5GT?5?$CIRET?$CJ?$AA@	; `string'
PUBLIC	??_C@_06PDKICOGK@Jackal?$AA@			; `string'
PUBLIC	??_C@_06ECLMCCGN@Oracle?$AA@			; `string'
PUBLIC	??_C@_09HGGBDPBH@Oracle?5XS?$AA@		; `string'
PUBLIC	??_C@_0P@PMEAIBPH@Sentinel?5?$CIRET?$CJ?$AA@	; `string'
PUBLIC	??_C@_0M@MPPAHLCA@Sentinel?5XS?$AA@		; `string'
PUBLIC	??_C@_0O@NKDCIAMF@Windsor?5?$CIDLC?$CJ?$AA@	; `string'
PUBLIC	??_C@_04LFKFKNDF@Zion?$AA@			; `string'
PUBLIC	??_C@_0BB@LPHDICHL@Zion?5Cabri?5?$CIRET?$CJ?$AA@ ; `string'
PUBLIC	??_C@_03OFIGHJJK@BMX?$AA@			; `string'
PUBLIC	??_C@_07KDGKLABJ@Cruiser?$AA@			; `string'
PUBLIC	??_C@_0BC@NOFEEHMP@Endurex?5Race?5Bike?$AA@	; `string'
PUBLIC	??_C@_06BEFJLACK@Fixter?$AA@			; `string'
PUBLIC	??_C@_08EEEMGBLC@Scorcher?$AA@			; `string'
PUBLIC	??_C@_0BF@HMLNDBNG@Tri?9Cycles?5Race?5Bike?$AA@	; `string'
PUBLIC	??_C@_0BC@IMLOLCKC@Whippet?5Race?5Bike?$AA@	; `string'
PUBLIC	??_C@_0O@JHDFHJOF@Air?5Ambulance?$AA@		; `string'
PUBLIC	??_C@_09LODJDONJ@Ambulance?$AA@			; `string'
PUBLIC	??_C@_0M@NDMKNICI@FIB?5Buffalo?$AA@		; `string'
PUBLIC	??_C@_03NNMALMMK@FIB?$AA@			; `string'
PUBLIC	??_C@_0L@IKOAKAOA@Fire?5Truck?$AA@		; `string'
PUBLIC	??_C@_0M@INALPGNH@Interceptor?$AA@		; `string'
PUBLIC	??_C@_0P@CPAKJGAM@Lifeguard?5?$CISP?$CJ?$AA@	; `string'
PUBLIC	??_C@_0M@FIPDDCKG@Park?5Ranger?$AA@		; `string'
PUBLIC	??_C@_0M@PIDFBLMM@Police?5Bike?$AA@		; `string'
PUBLIC	??_C@_0P@BMECCKJL@Police?5Buffalo?$AA@		; `string'
PUBLIC	??_C@_0P@BIPADLOI@Police?5Cruiser?$AA@		; `string'
PUBLIC	??_C@_0BA@DOEOEAOO@Police?5Maverick?$AA@	; `string'
PUBLIC	??_C@_0BE@KJHJCHGK@Police?5Rancher?5?$CISP?$CJ?$AA@ ; `string'
PUBLIC	??_C@_0M@MMAFAHIC@Police?5Riot?$AA@		; `string'
PUBLIC	??_C@_0BI@DBAPAKMA@Police?5Roadcruiser?5?$CISP?$CJ?$AA@ ; `string'
PUBLIC	??_C@_0BD@LAHFGGJC@Police?5Transporter?$AA@	; `string'
PUBLIC	??_C@_0BC@FJDKCIIC@Police?5Prison?5Bus?$AA@	; `string'
PUBLIC	??_C@_08NBLHOMJL@Predator?$AA@			; `string'
PUBLIC	??_C@_0BA@MHJBAFCK@Sheriff?5Cruiser?$AA@	; `string'
PUBLIC	??_C@_0M@KLMDFFLP@Sheriff?5SUV?$AA@		; `string'
PUBLIC	??_C@_0BG@OBOKDPCO@Unmarked?5Cruiser?5?$CISP?$CJ?$AA@ ; `string'
PUBLIC	??_C@_0BB@CJEODFEI@Annihilator?5?$CION?$CJ?$AA@	; `string'
PUBLIC	??_C@_07IDJAEOLI@Buzzard?$AA@			; `string'
PUBLIC	??_C@_0BH@NPCIHFHA@Buzzard?5Attack?5Chopper?$AA@ ; `string'
PUBLIC	??_C@_08BCKDNAHK@Cargobob?$AA@			; `string'
PUBLIC	??_C@_07CJIMOBCJ@Frogger?$AA@			; `string'
PUBLIC	??_C@_08PEEPBIOP@Maverick?$AA@			; `string'
PUBLIC	??_C@_0BC@LGMJKECL@Savage?5?$CIDLC?5?1?5ON?$CJ?$AA@ ; `string'
PUBLIC	??_C@_0N@KKIDLIFD@Skylift?5?$CISP?$CJ?$AA@	; `string'
PUBLIC	??_C@_0M@FMCOLFFL@Swift?5?$CIDLC?$CJ?$AA@	; `string'
PUBLIC	??_C@_0BD@PDBIGHDN@Swift?5Deluxe?5?$CIDLC?$CJ?$AA@ ; `string'
PUBLIC	??_C@_0BE@JEKMCEPM@Valkyrie?5?$CIDLC?5?1?5ON?$CJ?$AA@ ; `string'
PUBLIC	??_C@_0M@PKOMAKCD@Cutter?5?$CISP?$CJ?$AA@	; `string'
PUBLIC	??_C@_0N@BOKJEHIO@Dock?5Handler?$AA@		; `string'
PUBLIC	??_C@_05JGABKEPN@Dozer?$AA@			; `string'
PUBLIC	??_C@_04KHHPIHEA@Dump?$AA@			; `string'
PUBLIC	??_C@_07CIGBMPHN@Flatbed?$AA@			; `string'
PUBLIC	??_C@_0BE@MPAALENP@Guardian?5?$CIDLC?5?1?5ON?$CJ?$AA@ ; `string'
PUBLIC	??_C@_05JEEHMIBO@Mixer?$AA@			; `string'
PUBLIC	??_C@_06KGKMPCGO@Rubble?$AA@			; `string'
PUBLIC	??_C@_06FLAKOBFL@Tipper?$AA@			; `string'
PUBLIC	??_C@_08FJPAFNJ@Barracks?$AA@			; `string'
PUBLIC	??_C@_0O@LINENJBD@Barracks?5Semi?$AA@		; `string'
PUBLIC	??_C@_08GAHJOOIL@Crusader?$AA@			; `string'
PUBLIC	??_C@_0L@LDCAHPBF@Rhino?5Tank?$AA@		; `string'
PUBLIC	??_C@_05ENDJDPC@Akuma?$AA@			; `string'
PUBLIC	??_C@_06KMFJOOHG@Bagger?$AA@			; `string'
PUBLIC	??_C@_08NEGHNHDH@Bati?5801?$AA@			; `string'
PUBLIC	??_C@_0L@GPAFPGCM@Bati?5801RR?$AA@		; `string'
PUBLIC	??_C@_09FBIAFKDI@Carbon?5RS?$AA@		; `string'
PUBLIC	??_C@_06DBBELAMD@Daemon?$AA@			; `string'
PUBLIC	??_C@_08NOIPBJFN@Double?5T?$AA@			; `string'
PUBLIC	??_C@_0N@NINANNEI@Enduro?5?$CIDLC?$CJ?$AA@	; `string'
PUBLIC	??_C@_06KOGAFPBN@Faggio?$AA@			; `string'
PUBLIC	??_C@_0P@GLFKNICB@Hakuchou?5?$CIDLC?$CJ?$AA@	; `string'
PUBLIC	??_C@_05BHKLEKM@Hexer?$AA@			; `string'
PUBLIC	??_C@_0BB@IEBKIILO@Innovation?5?$CIDLC?$CJ?$AA@	; `string'
PUBLIC	??_C@_0BC@COMIINPP@Lectro?5?$CIDLC?5?1?5ON?$CJ?$AA@ ; `string'
PUBLIC	??_C@_07KAGCKCFK@Nemesis?$AA@			; `string'
PUBLIC	??_C@_07PLHHMOKE@PCJ?5600?$AA@			; `string'
PUBLIC	??_C@_07PBEBKLM@Ruffian?$AA@			; `string'
PUBLIC	??_C@_07OFIHLHAO@Sanchez?$AA@			; `string'
PUBLIC	??_C@_0BA@LCBIIAAK@Sovereign?5?$CIDLC?$CJ?$AA@	; `string'
PUBLIC	??_C@_0N@COJFDAEB@Thrust?5?$CIDLC?$CJ?$AA@	; `string'
PUBLIC	??_C@_05NHOJJJKA@Vader?$AA@			; `string'
PUBLIC	??_C@_0BB@LOKBEKEL@Vindicator?5?$CIDLC?$CJ?$AA@	; `string'
PUBLIC	??_C@_0M@MLHEAOIA@Blade?5?$CIDLC?$CJ?$AA@	; `string'
PUBLIC	??_C@_0BP@GGBEMPPA@Burger?5Shot?5Stallion?5?$CIEV?5?1?5RP?$CJ?$AA@ ; `string'
PUBLIC	??_C@_09GCHDDHPD@Buccaneer?$AA@			; `string'
PUBLIC	??_C@_0M@PHDBOHMP@Chino?5?$CIDLC?$CJ?$AA@	; `string'
PUBLIC	??_C@_0BI@HBJHEHCP@Coquette?5Blackfin?5?$CIDLC?$CJ?$AA@ ; `string'
PUBLIC	??_C@_09HBENFCAP@Dominator?$AA@			; `string'
PUBLIC	??_C@_0BM@PFEPMMEO@Duke?5O?8Death?5?$CIEV?5?1?5RP?5?1?5SP?$CJ?$AA@ ; `string'
PUBLIC	??_C@_0L@PJEBFKH@Dukes?5?$CIEV?$CJ?$AA@		; `string'
PUBLIC	??_C@_08ELAHAPJB@Gauntlet?$AA@			; `string'
PUBLIC	??_C@_0O@JMNBEEMB@Hotknife?5?$CICE?$CJ?$AA@	; `string'
PUBLIC	??_C@_07KEMLBHAB@Phoenix?$AA@			; `string'
PUBLIC	??_C@_07BBCBAOFC@Picador?$AA@			; `string'
PUBLIC	??_C@_0BP@OLKOCADN@Pisswasser?5Dominator?5?$CIEV?5?1?5RP?$CJ?$AA@ ; `string'
PUBLIC	??_C@_0L@HMLJCOHC@Rat?9Loader?$AA@		; `string'
PUBLIC	??_C@_0BA@KPLMBONL@Rat?9Truck?5?$CIDLC?$CJ?$AA@	; `string'
PUBLIC	??_C@_0BL@FEIPGBAM@Redwood?5Gauntlet?5?$CIEV?5?1?5RP?$CJ?$AA@ ; `string'
PUBLIC	??_C@_06JBPIMDNO@Ruiner?$AA@			; `string'
PUBLIC	??_C@_0M@MMEJHFKG@Sabre?5Turbo?$AA@		; `string'
PUBLIC	??_C@_0O@NCJHCJIL@Slamvan?5?$CIDLC?$CJ?$AA@	; `string'
PUBLIC	??_C@_0O@HJKDAIEP@Stallion?5?$CIEV?$CJ?$AA@	; `string'
PUBLIC	??_C@_0M@NBOJGOKH@Virgo?5?$CIDLC?$CJ?$AA@	; `string'
PUBLIC	??_C@_06JPJHMFKE@Vigero?$AA@			; `string'
PUBLIC	??_C@_06NFPMDKDO@Voodoo?$AA@			; `string'
PUBLIC	??_C@_0M@HAHFPFDA@Bifta?5?$CIDLC?$CJ?$AA@	; `string'
PUBLIC	??_C@_06DNPEIHEK@Blazer?$AA@			; `string'
PUBLIC	??_C@_0BB@PFFEGDBD@Blazer?5Lifeguard?$AA@	; `string'
PUBLIC	??_C@_05FBHADPIF@Bodhi?$AA@			; `string'
PUBLIC	??_C@_0O@GNOGKGPN@Brawler?5?$CIDLC?$CJ?$AA@	; `string'
PUBLIC	??_C@_0BB@INKMDLMJ@Dubsta?56x6?5?$CIDLC?$CJ?$AA@ ; `string'
PUBLIC	??_C@_0L@EHKILDKP@Dune?5Buggy?$AA@		; `string'
PUBLIC	??_C@_0L@BIJECJED@Duneloader?$AA@		; `string'
PUBLIC	??_C@_0P@DCMLJDPK@Hot?5Rod?5Blazer?$AA@		; `string'
PUBLIC	??_C@_09ODHHHKC@Injection?$AA@			; `string'
PUBLIC	??_C@_0BF@CBHOHJCO@Insurgent?5?$CIDLC?5?1?5ON?$CJ?$AA@ ; `string'
PUBLIC	??_C@_0BM@IKBFGEAF@Insurgen?5Pick?9Up?5?$CIDLC?5?1?5ON?$CJ?$AA@ ; `string'
PUBLIC	??_C@_0P@KBOFEPEP@Kalahari?5?$CIDLC?$CJ?$AA@	; `string'
PUBLIC	??_C@_0BD@FIDNGPIN@Marshall?5?$CIEV?5?1?5RP?$CJ?$AA@ ; `string'
PUBLIC	??_C@_0BE@CHJFCNIN@Mesa?5?$CIMerryweather?$CJ?$AA@ ; `string'
PUBLIC	??_C@_0L@LNGJEHCN@Rancher?5XL?$AA@		; `string'
PUBLIC	??_C@_05EINCBNHF@Rebel?$AA@			; `string'
PUBLIC	??_C@_0N@EBLNONNI@Sandking?5SWB?$AA@		; `string'
PUBLIC	??_C@_0M@IECGLMGM@Sandking?5XL?$AA@		; `string'
PUBLIC	??_C@_0BC@NJOMHKE@Space?5Docker?5?$CISP?$CJ?$AA@ ; `string'
PUBLIC	??_C@_0BF@GNCMECE@Technical?5?$CIDLC?5?1?5ON?$CJ?$AA@ ; `string'
PUBLIC	??_C@_0BE@ECHGGNML@The?5Liberator?5?$CIDLC?$CJ?$AA@ ; `string'
PUBLIC	??_C@_0BH@DAJCIKHD@Atomic?5Blimp?5?$CICE?5?1?5SP?$CJ?$AA@ ; `string'
PUBLIC	??_C@_0M@MIPCFENB@Besra?5?$CIDLC?$CJ?$AA@	; `string'
PUBLIC	??_C@_0BB@DKFALLHB@Cargo?5Plane?5?$CISP?$CJ?$AA@ ; `string'
PUBLIC	??_C@_09FBEOAPCE@Cuban?5800?$AA@		; `string'
PUBLIC	??_C@_0P@EKEMDNJL@Dodo?5?$CIEV?5?1?5RP?$CJ?$AA@	; `string'
PUBLIC	??_C@_06IAACFCPC@Duster?$AA@			; `string'
PUBLIC	??_C@_0BB@LGEFDMMA@Hydra?5?$CIDLC?5?1?5ON?$CJ?$AA@ ; `string'
PUBLIC	??_C@_08NFDJEIML@Jet?5?$CISP?$CJ?$AA@		; `string'
PUBLIC	??_C@_05PHJMOEOO@Luxor?$AA@			; `string'
PUBLIC	??_C@_0BD@MJGHCJGI@Luxor?5Deluxe?5?$CIDLC?$CJ?$AA@ ; `string'
PUBLIC	??_C@_07PDAOGHGN@Mallard?$AA@			; `string'
PUBLIC	??_C@_08GCEGHHDN@Mammatus?$AA@			; `string'
PUBLIC	??_C@_0N@HDFNNOEP@Miljet?5?$CIDLC?$CJ?$AA@	; `string'
PUBLIC	??_C@_0M@CIFHDJIE@P?9996?5LAZER?$AA@		; `string'
PUBLIC	??_C@_06HJEKKKAD@Shamal?$AA@			; `string'
PUBLIC	??_C@_05BLDGNBHE@Titan?$AA@			; `string'
PUBLIC	??_C@_05DGKBLKGB@Velum?$AA@			; `string'
PUBLIC	??_C@_0N@NNAKBLBG@Vestra?5?$CIDLC?$CJ?$AA@	; `string'
PUBLIC	??_C@_0BK@OOCJIKIA@Xero?5Blimp?5?$CIEV?5?1?5RP?5?1?5SP?$CJ?$AA@ ; `string'
PUBLIC	??_C@_04BHDOCFEE@Asea?$AA@			; `string'
PUBLIC	??_C@_08BOPCKDPP@Asterope?$AA@			; `string'
PUBLIC	??_C@_07NEIFMLLI@Emperor?$AA@			; `string'
PUBLIC	??_C@_08DDKOFHFH@Fugitive?$AA@			; `string'
PUBLIC	??_C@_0P@JPFMBNAC@Glendale?5?$CIDLC?$CJ?$AA@	; `string'
PUBLIC	??_C@_05OOEBDDIB@Ingot?$AA@			; `string'
PUBLIC	??_C@_08CGAIKJCC@Intruder?$AA@			; `string'
PUBLIC	??_C@_07JIKMJFHB@Premier?$AA@			; `string'
PUBLIC	??_C@_05CFOFHCJG@Primo?$AA@			; `string'
PUBLIC	??_C@_06NNHDOJOO@Regina?$AA@			; `string'
PUBLIC	??_C@_0N@JNIDMNDF@Romero?5House?$AA@		; `string'
PUBLIC	??_C@_08NGIGEIFO@Schafter?$AA@			; `string'
PUBLIC	??_C@_07KJMCJPGO@Stanier?$AA@			; `string'
PUBLIC	??_C@_07NNNPFKCG@Stratum?$AA@			; `string'
PUBLIC	??_C@_07ENIDNHGB@Stretch?$AA@			; `string'
PUBLIC	??_C@_0O@JGBPMOJP@Super?5Diamond?$AA@		; `string'
PUBLIC	??_C@_05GBDBGBOK@Surge?$AA@			; `string'
PUBLIC	??_C@_09GCMLPNDG@Tailgater?$AA@			; `string'
PUBLIC	??_C@_0P@EGPKPIMN@Warrener?5?$CIDLC?$CJ?$AA@	; `string'
PUBLIC	??_C@_0L@GKJCJMFK@Washington?$AA@		; `string'
PUBLIC	??_C@_0M@ECBBPPDM@Airport?5Bus?$AA@		; `string'
PUBLIC	??_C@_03LJIODANL@Bus?$AA@			; `string'
PUBLIC	??_C@_08LLLFKGEF@Dashound?$AA@			; `string'
PUBLIC	??_C@_0BD@FNCBOOKC@Rental?5Shuttle?5Bus?$AA@	; `string'
PUBLIC	??_C@_04JJAJBIIJ@Taxi?$AA@			; `string'
PUBLIC	??_C@_07CJLFHBHN@Tourbus?$AA@			; `string'
PUBLIC	??_C@_0M@MJOPNGDA@Trashmaster?$AA@		; `string'
PUBLIC	??_C@_02INCHBAHB@9F?$AA@			; `string'
PUBLIC	??_C@_0BA@EPFFJJJC@9F?5Cabrio?5?$CIRET?$CJ?$AA@	; `string'
PUBLIC	??_C@_0M@BGPIMLEI@Alpha?5?$CIDLC?$CJ?$AA@	; `string'
PUBLIC	??_C@_07PICMBPKH@Banshee?$AA@			; `string'
PUBLIC	??_C@_0BE@NNDKPGJN@Blista?5Compact?5?$CIEV?$CJ?$AA@ ; `string'
PUBLIC	??_C@_07KHNIKBGK@Buffalo?$AA@			; `string'
PUBLIC	??_C@_09JHBIPPPM@Buffalo?5S?$AA@		; `string'
PUBLIC	??_C@_0BD@FKOMICFF@Carbonizzare?5?$CIRET?$CJ?$AA@ ; `string'
PUBLIC	??_C@_05BAJAFMOF@Comet?$AA@			; `string'
PUBLIC	??_C@_08BICPLBPB@Coquette?$AA@			; `string'
PUBLIC	??_C@_0P@CJIJAFBM@Elegy?5RH8?5?$CIR?$CK?$CJ?$AA@ ; `string'
PUBLIC	??_C@_07IIFCFDNH@Feltzer?$AA@			; `string'
PUBLIC	??_C@_0BA@NKKLIJJK@Furore?5GT?5?$CIDLC?$CJ?$AA@	; `string'
PUBLIC	??_C@_08CKLJGMDI@Fusilade?$AA@			; `string'
PUBLIC	??_C@_04DBCECEB@Futo?$AA@			; `string'
PUBLIC	??_C@_0BO@KIAMHGAF@Go?5Go?5Monkey?5Blista?5?$CIEV?5?1?5RP?$CJ?$AA@ ; `string'
PUBLIC	??_C@_0N@MJCCBNEH@Jester?5?$CIDLC?$CJ?$AA@	; `string'
PUBLIC	??_C@_0BH@PIDIPCNG@Jester?5?$CIRacecar?$CJ?5?$CIDLC?$CJ?$AA@ ; `string'
PUBLIC	??_C@_0P@CFMNKENE@Khamelion?5?$CION?$CJ?$AA@	; `string'
PUBLIC	??_C@_0BC@ODMDOOCL@Kuruma?5?$CIDLC?5?1?5ON?$CJ?$AA@ ; `string'
PUBLIC	??_C@_0BM@LDKFOJAC@Kuruma?5?$CIArmored?$CJ?5?$CIDLC?5?1?5ON?$CJ?$AA@ ; `string'
PUBLIC	??_C@_0P@EJJMHMAO@Massacro?5?$CIDLC?$CJ?$AA@	; `string'
PUBLIC	??_C@_0BJ@JKOFGFDM@Massacro?5?$CIRacecar?$CJ?5?$CIDLC?$CJ?$AA@ ; `string'
PUBLIC	??_C@_08KINHMFJO@Penumbra?$AA@			; `string'
PUBLIC	??_C@_08PNACNBJL@Rapid?5GT?$AA@			; `string'
PUBLIC	??_C@_0BN@FBJFMLJC@Rapid?5GT?5?$CIConvertible?$CJ?5?$CIRET?$CJ?$AA@ ; `string'
PUBLIC	??_C@_0L@DODEAOKD@Schwartzer?$AA@		; `string'
PUBLIC	??_C@_0BJ@DBNOKADI@Sprunk?5Buffalo?5?$CIEV?5?1?5RP?$CJ?$AA@ ; `string'
PUBLIC	??_C@_06CBLFAFGA@Sultan?$AA@			; `string'
PUBLIC	??_C@_0N@BIILOLJP@Surano?5?$CIRET?$CJ?$AA@	; `string'
PUBLIC	??_C@_0BB@EIMDMIPE@Casco?5?$CIDLC?5?1?5ON?$CJ?$AA@ ; `string'
PUBLIC	??_C@_0BH@NINGPDGK@Coquette?5Classic?5?$CIDLC?$CJ?$AA@ ; `string'
PUBLIC	??_C@_06JHGIJNKO@JB?5700?$AA@			; `string'
PUBLIC	??_C@_06BPNAANEB@Manana?$AA@			; `string'
PUBLIC	??_C@_06CNIDLHD@Monroe?$AA@			; `string'
PUBLIC	??_C@_06MFIKGNFK@Peyote?$AA@			; `string'
PUBLIC	??_C@_0O@MKFHGCEE@Pigalle?5?$CIDLC?$CJ?$AA@	; `string'
PUBLIC	??_C@_0BA@PKPAFOLJ@Roosevelt?5?$CIDLC?$CJ?$AA@	; `string'
PUBLIC	??_C@_07KFEOGKDA@Stinger?$AA@			; `string'
PUBLIC	??_C@_0BA@FKIFKJGG@Stinger?5GT?5?$CION?$CJ?$AA@	; `string'
PUBLIC	??_C@_0BC@GGHJKJPE@Stirling?5GT?5?$CIDLC?$CJ?$AA@ ; `string'
PUBLIC	??_C@_0O@OLOBKEBF@Zornado?5?$CIRET?$CJ?$AA@	; `string'
PUBLIC	??_C@_06MJNLPBDP@Z?9Type?$AA@			; `string'
PUBLIC	??_C@_05BNKCEPD@Adder?$AA@			; `string'
PUBLIC	??_C@_06MCJFLPGN@Bullet?$AA@			; `string'
PUBLIC	??_C@_07IMBBPGLN@Cheetah?$AA@			; `string'
PUBLIC	??_C@_09MGLMGCNL@Entity?5XF?$AA@		; `string'
PUBLIC	??_C@_08BADKLIKD@Infernus?$AA@			; `string'
PUBLIC	??_C@_0N@FMPBPJMK@Osiris?5?$CIDLC?$CJ?$AA@	; `string'
PUBLIC	??_C@_09EHOJABCL@T20?5?$CIDLC?$CJ?$AA@		; `string'
PUBLIC	??_C@_0BA@KLHDFJFH@Turismo?5R?5?$CIDLC?$CJ?$AA@	; `string'
PUBLIC	??_C@_05CPFMJMDJ@Vacca?$AA@			; `string'
PUBLIC	??_C@_06GKHNCEMP@Voltic?$AA@			; `string'
PUBLIC	??_C@_0P@NIAODMNO@Zentorno?5?$CIDLC?$CJ?$AA@	; `string'
PUBLIC	??_C@_06MIIFIGG@Baller?$AA@			; `string'
PUBLIC	??_C@_09EBIFIOGJ@BeeJay?5XL?$AA@		; `string'
PUBLIC	??_C@_09BAHEMPEP@Cavalcade?$AA@			; `string'
PUBLIC	??_C@_06DMFOFMKM@Dubsta?$AA@			; `string'
PUBLIC	??_C@_04EIOCNPFN@FQ?52?$AA@			; `string'
PUBLIC	??_C@_07NCDMOCLG@Granger?$AA@			; `string'
PUBLIC	??_C@_07OFCIKNFJ@Gresley?$AA@			; `string'
PUBLIC	??_C@_08CAJGGOBD@Habanero?$AA@			; `string'
PUBLIC	??_C@_0BA@HHEPLNBN@Huntley?5S?5?$CIDLC?$CJ?$AA@	; `string'
PUBLIC	??_C@_0M@PEBICIDH@Landstalker?$AA@		; `string'
PUBLIC	??_C@_04LPBHBPME@Mesa?$AA@			; `string'
PUBLIC	??_C@_07LPGNOABP@Patriot?$AA@			; `string'
PUBLIC	??_C@_06GJMFONGK@Radius?$AA@			; `string'
PUBLIC	??_C@_06CDDBDILM@Rocoto?$AA@			; `string'
PUBLIC	??_C@_08BDLIMIFF@Seminole?$AA@			; `string'
PUBLIC	??_C@_07HOLEKJLA@Serrano?$AA@			; `string'
PUBLIC	??_C@_06LANNNDGB@Airtug?$AA@			; `string'
PUBLIC	??_C@_05GGMELJHE@Caddy?$AA@			; `string'
PUBLIC	??_C@_07LGKNILDF@Docktug?$AA@			; `string'
PUBLIC	??_C@_0M@IJCGNOEJ@Fieldmaster?$AA@		; `string'
PUBLIC	??_C@_08LJJEDEPF@Forklift?$AA@			; `string'
PUBLIC	??_C@_0L@OFEIPMMI@Lawn?5Mower?$AA@		; `string'
PUBLIC	??_C@_06MBOBOFIN@Ripley?$AA@			; `string'
PUBLIC	??_C@_06PNFBIENN@Sadler?$AA@			; `string'
PUBLIC	??_C@_0M@FIMEEHOO@Scrap?5Truck?$AA@		; `string'
PUBLIC	??_C@_0O@LPELJIED@Towtruck?5?$CISP?$CJ?$AA@	; `string'
PUBLIC	??_C@_0BG@JKPGMJGH@Towtruck?5?$CIsmall?$CJ?5?$CISP?$CJ?$AA@ ; `string'
PUBLIC	??_C@_07JHKDGNGI@Tractor?$AA@			; `string'
PUBLIC	??_C@_0O@GAPPAHAN@Utility?5Truck?$AA@		; `string'
PUBLIC	??_C@_0BG@DCPFGBEF@Utility?5Truck?5?$CIsmall?$CJ?$AA@ ; `string'
PUBLIC	??_C@_05FJPACFEB@Bison?$AA@			; `string'
PUBLIC	??_C@_06IAICJIHL@Bobcat?$AA@			; `string'
PUBLIC	??_C@_08FODAPCHG@Boxville?$AA@			; `string'
PUBLIC	??_C@_07HNHOAKIC@Burrito?$AA@			; `string'
PUBLIC	??_C@_06INFAJCEF@Camper?$AA@			; `string'
PUBLIC	??_C@_09FMJJPDEG@Clown?5Van?$AA@		; `string'
PUBLIC	??_C@_0N@NHEJAEGJ@Gang?5Burrito?$AA@		; `string'
PUBLIC	??_C@_07OMJLKGCG@Journey?$AA@			; `string'
PUBLIC	??_C@_07GMIIJNPE@Minivan?$AA@			; `string'
PUBLIC	??_C@_0P@CMILAPKL@Paradise?5?$CIDLC?$CJ?$AA@	; `string'
PUBLIC	??_C@_04NODPAEOJ@Pony?$AA@			; `string'
PUBLIC	??_C@_05EBJBKIPJ@Rumpo?$AA@			; `string'
PUBLIC	??_C@_06ILBNDFPC@Speedo?$AA@			; `string'
PUBLIC	??_C@_06OFALEGBG@Surfer?$AA@			; `string'
PUBLIC	??_C@_08PEDJCILN@Taco?5Van?$AA@			; `string'
PUBLIC	??_C@_05BDEBDABC@Youga?$AA@			; `string'
PUBLIC	??_C@_05BIHKHNOB@Forge?$AA@			; `string'
PUBLIC	??_C@_07JMGDFJEK@Gravity?$AA@			; `string'
PUBLIC	??_C@_09EHNDBPFO@Timescale?$AA@			; `string'
PUBLIC	??_C@_07HOMNOOKI@Weather?$AA@			; `string'
PUBLIC	??_C@_0O@HBGCPJMJ@Object?5Editor?$AA@		; `string'
PUBLIC	??_C@_0P@NMKDKJMF@Object?5Spawner?$AA@		; `string'
PUBLIC	??_C@_0BC@FCHNBDMK@Toggle?5Forge?5Mode?$AA@	; `string'
PUBLIC	??_C@_0M@HKADKGLJ@Copy?5Object?$AA@		; `string'
PUBLIC	??_C@_0O@FALBAFKE@Delete?5Object?$AA@		; `string'
PUBLIC	??_C@_0BH@CCADFLJD@Get?5Object?5Coordinates?$AA@ ; `string'
PUBLIC	??_C@_0BA@DKNMIDNC@Get?5Object?5Hash?$AA@	; `string'
PUBLIC	??_C@_0BB@JLICOINB@Increase?5Heading?$AA@	; `string'
PUBLIC	??_C@_0BB@NDOHGAHO@Decrease?5Heading?$AA@	; `string'
PUBLIC	??_C@_0P@LCNBGAOJ@Increase?5Pitch?$AA@		; `string'
PUBLIC	??_C@_0P@BOHCJAI@Decrease?5Pitch?$AA@		; `string'
PUBLIC	??_C@_0O@OFAEMKGI@Increase?5Roll?$AA@		; `string'
PUBLIC	??_C@_0O@LFDHAFJA@Decrease?5Roll?$AA@		; `string'
PUBLIC	??_C@_07DMGIOHNE@Move?5Up?$AA@			; `string'
PUBLIC	??_C@_09CEAAIKKP@Move?5Down?$AA@		; `string'
PUBLIC	??_C@_09NGAEBCJG@Move?5Left?$AA@		; `string'
PUBLIC	??_C@_0L@DEFDNAK@Move?5Right?$AA@		; `string'
PUBLIC	??_C@_0N@LJCOILHO@Move?5Forward?$AA@		; `string'
PUBLIC	??_C@_0O@POOJIPCG@Move?5Backward?$AA@		; `string'
PUBLIC	??_C@_0BD@OHMIJIAL@Snap?5to?5the?5Ground?$AA@	; `string'
PUBLIC	??_C@_0BC@BAIDEKEO@Straighten?5Object?$AA@	; `string'
PUBLIC	??_C@_08LMFNCICA@Blizzard?$AA@			; `string'
PUBLIC	??_C@_05MDNHABIA@Clear?$AA@			; `string'
PUBLIC	??_C@_08MOECMOLG@Clearing?$AA@			; `string'
PUBLIC	??_C@_05KLNNFPJP@Cloud?$AA@			; `string'
PUBLIC	??_C@_0M@EGGFKMIN@Extra?5Sunny?$AA@		; `string'
PUBLIC	??_C@_05JJMKIHBB@Foggy?$AA@			; `string'
PUBLIC	??_C@_07GJJCKENN@Neutral?$AA@			; `string'
PUBLIC	??_C@_08KNGKIHBI@Overcast?$AA@			; `string'
PUBLIC	??_C@_04EEOMLCKJ@Rain?$AA@			; `string'
PUBLIC	??_C@_04OGBFODFK@Smog?$AA@			; `string'
PUBLIC	??_C@_04LOGCFOOF@Snow?$AA@			; `string'
PUBLIC	??_C@_0L@BHCGBIGO@Snow?5Light?$AA@		; `string'
PUBLIC	??_C@_07GJFEPIJN@Thunder?$AA@			; `string'
PUBLIC	??_C@_0N@CBMEEMPC@10ft?5Infront?$AA@		; `string'
PUBLIC	??_C@_0BD@LKEOCFGK@Airport?5?$CIentrance?$CJ?$AA@ ; `string'
PUBLIC	??_C@_0BA@CFBLDFDE@Airport?5?$CIstrip?$CJ?$AA@	; `string'
PUBLIC	??_C@_0BF@CINKIPAP@Ammu?9Nation?5?$CIoffice?$CJ?$AA@ ; `string'
PUBLIC	??_C@_0BE@JGHIEKL@Ammu?9Nation?5?$CIrange?$CJ?$AA@ ; `string'
PUBLIC	??_C@_0L@HCMGMGNG@Cargo?5Ship?$AA@		; `string'
PUBLIC	??_C@_06IMKICAEO@Casino?$AA@			; `string'
PUBLIC	??_C@_0O@EFFEFDEI@Cluckin?8?5Bell?$AA@		; `string'
PUBLIC	??_C@_0BB@MBOBNKIB@Epsilon?5Building?$AA@	; `string'
PUBLIC	??_C@_0BF@JBPNEJFF@FIB?5Building?5?$CIlobby?$CJ?$AA@ ; `string'
PUBLIC	??_C@_0BE@KNJDBEJM@FIB?5Building?5?$CIroof?$CJ?$AA@ ; `string'
PUBLIC	??_C@_0BJ@PNCOKMPA@FIB?5Building?5?$CItop?5floor?$CJ?$AA@ ; `string'
PUBLIC	??_C@_0BM@GAAMLOMJ@Fort?5Zancudo?5ATC?5?$CIentrance?$CJ?$AA@ ; `string'
PUBLIC	??_C@_0BN@COAAGPHC@Fort?5Zancudo?5ATC?5?$CItop?5floor?$CJ?$AA@ ; `string'
PUBLIC	??_C@_0O@LKAAPEJE@Heist?5Carrier?$AA@		; `string'
PUBLIC	??_C@_0BD@BJFAOCJH@Humane?5Labs?5Tunnel?$AA@	; `string'
PUBLIC	??_C@_0BG@LIGFGJEN@IAA?5Building?5?$CIoffice?$CJ?$AA@ ; `string'
PUBLIC	??_C@_0BE@DCCLKEFK@IAA?5Building?5?$CIroof?$CJ?$AA@ ; `string'
PUBLIC	??_C@_0O@BMJJNEEL@Jewelry?5Store?$AA@		; `string'
PUBLIC	??_C@_0P@LNFGDLIG@Lester?8s?5House?$AA@		; `string'
PUBLIC	??_C@_0BC@NODEEBNB@LifeInvader?5Lobby?$AA@	; `string'
PUBLIC	??_C@_0BC@PMGHBPLJ@Merryweather?5Dock?$AA@	; `string'
PUBLIC	??_C@_0BD@NLJKEPFP@NOOSE?5Headquarters?$AA@	; `string'
PUBLIC	??_C@_0O@KMLCKJCK@North?5Yankton?$AA@		; `string'
PUBLIC	??_C@_0BD@BNDPHCIO@North?5Yankton?5Bank?$AA@	; `string'
PUBLIC	??_C@_0BA@JCIDCCIH@Playboy?5Mansion?$AA@	; `string'
PUBLIC	??_C@_0P@GGBJNHLN@Slaughterhouse?$AA@		; `string'
PUBLIC	??_C@_0BG@LEFKCOBJ@Strip?5Club?5?$CIdj?5booth?$CJ?$AA@ ; `string'
PUBLIC	??_C@_0N@CLPENDJ@Torture?5Room?$AA@		; `string'
PUBLIC	??_C@_0BB@MGFJHHHK@Underwater?5Hatch?$AA@	; `string'
PUBLIC	??_C@_0P@NMJGBFCC@Underwater?5UFO?$AA@		; `string'
PUBLIC	??_C@_0BE@JGGIJFFN@Underwater?5WW2?5Tank?$AA@	; `string'
PUBLIC	??_C@_0O@PBKBMKJE@Vinewood?5Sign?$AA@		; `string'
PUBLIC	??_C@_08DFAAPNDP@Waypoint?$AA@			; `string'
PUBLIC	??_C@_09GCBIJJBH@Weed?5Farm?$AA@		; `string'
PUBLIC	??_C@_05OFOKCHBJ@Yacht?$AA@			; `string'
PUBLIC	??_C@_09JOKJKFJ@?$HOg?$HOOpened?$AA@		; `string'
PUBLIC	??_C@_09LEMKKCBA@?$HOr?$HOClosed?$AA@		; `string'
PUBLIC	??_C@_07GIKBJEHN@Menu?5?$CFs?$AA@		; `string'
PUBLIC	??_C@_0FO@JPNGCEHB@Zombies?5?$HOg?$HOActivated?$HOw?$HO?0?5you?5can@ ; `string'
PUBLIC	??_C@_0L@JHKFNMJI@?$HOg?$HOEnabled?$AA@		; `string'
PUBLIC	??_C@_0M@IIOCABEP@?$HOr?$HODisabled?$AA@	; `string'
PUBLIC	??_C@_06FMAPMOMN@ESP?5?$CFs?$AA@		; `string'
PUBLIC	??_C@_0BI@OAGDIOB@First?5Person?5?$HOg?$HOEnabled?$AA@ ; `string'
PUBLIC	??_C@_0BJ@KBKCGLDD@First?5Person?5?$HOr?$HODisabled?$AA@ ; `string'
PUBLIC	??_C@_0P@COONEDD@FPS?5Counter?5?$CFs?$AA@	; `string'
PUBLIC	??_C@_0L@EFONFGGP@?$HOrDisabled?$AA@		; `string'
PUBLIC	??_C@_0N@IABFIML@No?5Wanted?5?$CFs?$AA@		; `string'
PUBLIC	??_C@_09EBCBNAHL@Noclip?5?$CFs?$AA@		; `string'
PUBLIC	??_C@_1PE@OKCHFDE@E?$AAn?$AAt?$AAe?$AAr?$AA?5?$AAt?$AAh?$AAe?$AA?5?$AAn?$AAa?$AAm?$AAe?$AA?5?$AAo?$AAf?$AA?5?$AAt?$AAh?$AAe?$AA?5?$AAm?$AAo?$AAd?$AAe?$AAl?$AA?5?$AAy?$AAo?$AAu?$AA?8?$AA@ ; `string'
PUBLIC	??_C@_1BK@EGJNHPOE@M?$AAo?$AAd?$AAe?$AAl?$AA?5?$AAE?$AAd?$AAi?$AAt?$AAo?$AAr?$AA?$AA?$AA@ ; `string'
PUBLIC	??_C@_11LOCGONAA@?$AA?$AA@			; `string'
PUBLIC	??_C@_0BB@NHCBLJMC@Invincibility?5?$CFs?$AA@	; `string'
PUBLIC	??_C@_0BA@OOOFFBPN@Invisibility?5?$CFs?$AA@	; `string'
PUBLIC	??_C@_0N@BKNAKEOK@Moses?5Mod?5?$CFs?$AA@	; `string'
PUBLIC	??_C@_0O@HGGCBHID@Super?5Jump?5?$CFs?$AA@	; `string'
PUBLIC	??_C@_0P@KKDOOBAA@Super?5Speed?5?$CFs?$AA@	; `string'
PUBLIC	??_C@_0BC@JELAFBCF@Superman?5Punch?5?$CFs?$AA@	; `string'
PUBLIC	??_C@_0M@OPFIKBEH@Whiplash?5?$CFs?$AA@		; `string'
PUBLIC	??_C@_0CB@HBIKNDOH@?$HOb?$HO?$CFs?5?$HOw?$HOis?5an?5?$HOr?$HOSCTV?5admin?$HOw?$HO?$CB@ ; `string'
PUBLIC	??_C@_0BP@FDPDJLAB@Dropped?5?$HOg?$HO$10?0000?5?$HOw?$HOon?5?$HOb?$HO?$CFs?$AA@ ; `string'
PUBLIC	??_C@_0BP@BEFPHMEP@Dropped?5?$HOg?$HO$25?0000?5?$HOw?$HOon?5?$HOb?$HO?$CFs?$AA@ ; `string'
PUBLIC	??_C@_0BP@LKJLJGOD@Dropped?5?$HOg?$HO$50?0000?5?$HOw?$HOon?5?$HOb?$HO?$CFs?$AA@ ; `string'
PUBLIC	??_C@_0BP@CKNFPBPF@Dropped?5?$HOg?$HO$75?0000?5?$HOw?$HOon?5?$HOb?$HO?$CFs?$AA@ ; `string'
PUBLIC	??_C@_0CA@IFLMOANN@Dropped?5?$HOg?$HO$100?0000?5?$HOw?$HOon?5?$HOb?$HO?$CFs?$AA@ ; `string'
PUBLIC	??_C@_0CA@BEJPCAKN@Dropped?5?$HOg?$HO$250?0000?5?$HOw?$HOon?5?$HOb?$HO?$CFs?$AA@ ; `string'
PUBLIC	??_C@_0CA@MLFBALIE@Dropped?5?$HOg?$HO$500?0000?5?$HOw?$HOon?5?$HOb?$HO?$CFs?$AA@ ; `string'
PUBLIC	??_C@_0CA@DPBFPALC@Dropped?5?$HOg?$HO$750?0000?5?$HOw?$HOon?5?$HOb?$HO?$CFs?$AA@ ; `string'
PUBLIC	??_C@_1KM@LNHCNNFD@B?$AAe?$AAl?$AAo?$AAw?$AA?5?$AAy?$AAo?$AAu?$AA?5?$AAc?$AAa?$AAn?$AA?5?$AAe?$AAn?$AAt?$AAe?$AAr?$AA?5?$AAt?$AAh?$AAe?$AA?5?$AAa?$AAm?$AAo?$AAu?$AAn?$AAt?$AA?5?$AAo?$AA@ ; `string'
PUBLIC	??_C@_1BK@BOLNDMKM@C?$AAa?$AAs?$AAh?$AA?5?$AAD?$AAr?$AAo?$AAp?$AAp?$AAe?$AAr?$AA?$AA?$AA@ ; `string'
PUBLIC	??_C@_0BK@EMAHIGLO@Dropped?5?$HOg?$HO?$CFi?5?$HOw?$HOon?5?$HOb?$HO?$CFs?$AA@ ; `string'
PUBLIC	??_C@_0CB@BNHLHFPA@All?5Weapons?5?$HOg?$HOGiven?5?$HOw?$HOto?5?$HOb?$HO?$CFs@ ; `string'
PUBLIC	??_C@_0CE@LGNBAMFP@Unlimited?5Ammo?5?$HOg?$HOGiven?5?$HOw?$HOto?5?$HOb@ ; `string'
PUBLIC	??_C@_0CD@GLAHLHML@All?5Weapons?5?$HOr?$HOTaken?5?$HOw?$HOfrom?5?$HOb?$HO@ ; `string'
PUBLIC	??_C@_0CG@GLEBHFNP@Unlimited?5Ammo?5?$HOr?$HOTaken?5?$HOw?$HOfrom?5@ ; `string'
PUBLIC	??_C@_0BN@LGPGFJOE@Destroyed?5?$HOb?$HO?$CFs?$HOw?$HO?8s?5Vehicle?$AA@ ; `string'
PUBLIC	??_C@_0BN@JLIEPDKP@?$HOb?$HO?$CFs?5?$HOw?$HOis?5not?5in?5a?5vehicle?$AA@ ; `string'
PUBLIC	??_C@_0CA@DJJCEGDP@Knocked?5?$HOb?$HO?$CFs?5?$HOw?$HOoff?5their?5bike?$AA@ ; `string'
PUBLIC	??_C@_0BM@OMHCAKGD@Launched?5?$HOb?$HO?$CFs?$HOw?$HO?8s?5Vehicle?$AA@ ; `string'
PUBLIC	??_C@_0CA@GHPCMCGE@Locked?5?$HOb?$HO?$CFs?$HOw?$HO?8s?5Vehicle?5Doors?$AA@ ; `string'
PUBLIC	??_C@_0CC@GDDNKMGM@Unlocked?5?$HOb?$HO?$CFs?$HOw?$HO?8s?5Vehicle?5Door@ ; `string'
PUBLIC	??_C@_0O@DCOKMJEE@Armed?5?$CFi?5Peds?$AA@	; `string'
PUBLIC	??_C@_0BF@CEOKPEBN@All?5Weapons?5?$HOg?$HOGiven?$AA@ ; `string'
PUBLIC	??_C@_0BF@HPAHPOE@All?5Weapons?5?$HOr?$HOTaken?$AA@ ; `string'
PUBLIC	??_C@_09KFFMNOMO@Aimbot?5?$CFs?$AA@		; `string'
PUBLIC	??_C@_0BC@GNEGEFKD@Explosive?5Ammo?5?$CFs?$AA@	; `string'
PUBLIC	??_C@_0N@HBJBBFHJ@Fire?5Ammo?5?$CFs?$AA@	; `string'
PUBLIC	??_C@_0BB@CEPNNIGD@Firework?5Ammo?5?$CFs?$AA@	; `string'
PUBLIC	??_C@_0P@FABFNNBO@Laser?5Sight?5?$CFs?$AA@	; `string'
PUBLIC	??_C@_0BA@OMGFOFOB@Teleport?5Gun?5?$CFs?$AA@	; `string'
PUBLIC	??_C@_0BC@KEFFEFKE@Unlimited?5Ammo?5?$CFs?$AA@	; `string'
PUBLIC	??_C@_0BB@FCABFCD@Weapon?5Cannon?5?$CFs?$AA@	; `string'
PUBLIC	??_C@_0BP@KKGEPLHN@Weapon?5Cannon?5set?5to?5?$HOg?$HOAnimal?$AA@ ; `string'
PUBLIC	??_C@_0BP@IOBCFOFD@Weapon?5Cannon?5set?5to?5?$HOg?$HOObject?$AA@ ; `string'
PUBLIC	??_C@_0CD@MKPHPNDC@Weapon?5Cannon?5set?5to?5?$HOg?$HOPedestri@ ; `string'
PUBLIC	??_C@_0CA@NGDICHLO@Weapon?5Cannon?5set?5to?5?$HOg?$HOVehicle?$AA@ ; `string'
PUBLIC	??_C@_0CL@DENLGPKB@Vehicle?5has?5been?5?$HOg?$HOfixed?5?$HOw?$HOand@ ; `string'
PUBLIC	??_C@_0CP@JAGOMJGF@?$HOr?$HOYou?5must?5be?5in?5a?5vehicle?5to?5u@ ; `string'
PUBLIC	??_C@_0BC@CBEFKDLO@Vehicle?5?$HOr?$HOLocked?$AA@ ; `string'
PUBLIC	??_C@_0BE@NDIGLMHN@Vehicle?5?$HOg?$HOUnlocked?$AA@ ; `string'
PUBLIC	??_C@_0BF@MOMKPFNI@Vehicle?5Collision?5?$CFs?$AA@ ; `string'
PUBLIC	??_C@_0BA@JJHCOJIF@Flying?5Bikes?5?$CFs?$AA@	; `string'
PUBLIC	??_C@_0BD@IIMIMAGB@Handbrake?5Drift?5?$CFs?$AA@	; `string'
PUBLIC	??_C@_0O@FLBABGCL@Hydraulics?5?$CFs?$AA@	; `string'
PUBLIC	??_C@_0BJ@EIKAEELG@Vehicle?5Invincibility?5?$CFs?$AA@ ; `string'
PUBLIC	??_C@_0BI@NAPMIALL@Vehicle?5Invisibility?5?$CFs?$AA@ ; `string'
PUBLIC	??_C@_06GNLMCCAH@NOS?5?$CFs?$AA@		; `string'
PUBLIC	??_C@_0BD@ECDPIMBA@Parachute?5Eject?5?$CFs?$AA@	; `string'
PUBLIC	??_C@_0BB@DEACOPLD@Rainbow?5Paint?5?$CFs?$AA@	; `string'
PUBLIC	??_C@_0BG@PGEBGGJH@Rainbow?5Tire?5Smoke?5?$CFs?$AA@ ; `string'
PUBLIC	??_C@_0P@FCOGBJFG@Speedometer?5?$CFs?$AA@	; `string'
PUBLIC	??_C@_1BDA@EGJNLIOA@T?$AAh?$AAe?$AA?5?$AAv?$AAa?$AAl?$AAu?$AAe?$AA?5?$AAy?$AAo?$AAu?$AA?5?$AAp?$AAa?$AAs?$AAs?$AA?5?$AAt?$AAh?$AAr?$AAo?$AAu?$AAg?$AAh?$AA?5?$AAt?$AAh?$AAi?$AAs?$AA?5?$AA@ ; `string'
PUBLIC	??_C@_1BO@ICCKFALP@G?$AAr?$AAa?$AAv?$AAi?$AAt?$AAy?$AA?5?$AAE?$AAd?$AAi?$AAt?$AAo?$AAr?$AA?$AA?$AA@ ; `string'
PUBLIC	??_C@_0BC@GNBGEAFK@Gravity?5set?5to?5?$CFf?$AA@	; `string'
PUBLIC	??_C@_1BDE@ELJBIOOJ@T?$AAh?$AAe?$AA?5?$AAv?$AAa?$AAl?$AAu?$AAe?$AA?5?$AAy?$AAo?$AAu?$AA?5?$AAp?$AAa?$AAs?$AAs?$AA?5?$AAt?$AAh?$AAr?$AAo?$AAu?$AAg?$AAh?$AA?5?$AAt?$AAh?$AAi?$AAs?$AA?5?$AA@ ; `string'
PUBLIC	??_C@_1CC@LMDKFOHB@T?$AAi?$AAm?$AAe?$AAs?$AAc?$AAa?$AAl?$AAe?$AA?5?$AAE?$AAd?$AAi?$AAt?$AAo?$AAr?$AA?$AA?$AA@ ; `string'
PUBLIC	??_C@_0BE@JBOJJKFN@Timescale?5set?5to?5?$CFf?$AA@ ; `string'
PUBLIC	??_C@_1BGM@KMOAJHGK@T?$AAh?$AAe?$AA?5?$AAs?$AAt?$AAr?$AAi?$AAn?$AAg?$AA?5?$AAy?$AAo?$AAu?$AA?5?$AAp?$AAa?$AAs?$AAs?$AA?5?$AAt?$AAh?$AAi?$AAs?$AA?5?$AAt?$AAh?$AAr?$AAo?$AAu?$AAg?$AAh?$AA@ ; `string'
PUBLIC	??_C@_1BO@GHFINEOL@O?$AAb?$AAj?$AAe?$AAc?$AAt?$AA?5?$AAS?$AAp?$AAa?$AAw?$AAn?$AAe?$AAr?$AA?$AA?$AA@ ; `string'
PUBLIC	??_C@_0O@ECLMKKGF@Spawned?5?$HOg?$HO?$CFs?$AA@	; `string'
PUBLIC	??_C@_08BIMHCEBG@Forge?5?$CFs?$AA@		; `string'
PUBLIC	??_C@_0BE@BIAMLOHM@?$HOg?$HOCopied?5?$HOw?$HOObject?$AA@ ; `string'
PUBLIC	??_C@_0BF@NEHKHAGH@?$HOr?$HODeleted?5?$HOw?$HOObject?$AA@ ; `string'
PUBLIC	??_C@_0CO@JHCMBPL@Coordinates?3?5?$HL?5?$HOg?$HO?$CFf?$HOw?$HO?0?5?$HOg?$HO?$CFf?$HOw@ ; `string'
PUBLIC	??_C@_0O@EOIPCGNF@Hash?3?5?$HOg?$HO0x?$CFX?$AA@	; `string'
PUBLIC	??_C@_0BI@EPOPMDPA@?$HOg?$HOIncreased?5?$HOw?$HOHeading?$AA@ ; `string'
PUBLIC	??_C@_0CL@IFKCDKBE@?$HOr?$HOYou?5don?8t?5have?5control?5over?5t@ ; `string'
PUBLIC	??_C@_0BI@NFEMNGNL@?$HOg?$HODecreased?5?$HOw?$HOHeading?$AA@ ; `string'
PUBLIC	??_C@_0BG@HPLBOLEJ@?$HOg?$HOIncreased?5?$HOw?$HOPitch?$AA@ ; `string'
PUBLIC	??_C@_0BG@LFENAIBI@?$HOg?$HODecreased?5?$HOw?$HOPitch?$AA@ ; `string'
PUBLIC	??_C@_0BF@FCIJPJJN@?$HOg?$HOIncreased?5?$HOw?$HORoll?$AA@ ; `string'
PUBLIC	??_C@_0BF@BEKICCGM@?$HOg?$HODecreased?5?$HOw?$HORoll?$AA@ ; `string'
PUBLIC	??_C@_0M@ELOHMOHH@Moved?5?$HOg?$HOUp?$AA@	; `string'
PUBLIC	??_C@_0O@ODJIIKGG@Moved?5?$HOg?$HODown?$AA@	; `string'
PUBLIC	??_C@_0O@BBJMBCFP@Moved?5?$HOg?$HOLeft?$AA@	; `string'
PUBLIC	??_C@_0P@OBDKNPBO@Moved?5?$HOg?$HORight?$AA@	; `string'
PUBLIC	??_C@_0BB@NJIEDNAA@Moved?5?$HOg?$HOForward?$AA@	; `string'
PUBLIC	??_C@_0BC@EJDEHJKL@Moved?5?$HOg?$HOBackward?$AA@ ; `string'
PUBLIC	??_C@_0BJ@FOEMHKND@?$HOg?$HOSnapped?5to?5the?5ground?$AA@ ; `string'
PUBLIC	??_C@_0BH@KGHKPND@?$HOg?$HOStraightened?5object?$AA@ ; `string'
PUBLIC	??_C@_08EBAAJEKE@BLIZZARD?$AA@			; `string'
PUBLIC	??_C@_0BP@EBDOHDHL@Changed?5weather?5to?5?$HOg?$HOBlizzard?$AA@ ; `string'
PUBLIC	??_C@_05PONODPI@CLEAR?$AA@			; `string'
PUBLIC	??_C@_0BM@EPHDOEIJ@Changed?5weather?5to?5?$HOg?$HOClear?$AA@ ; `string'
PUBLIC	??_C@_08DDBPHCDC@CLEARING?$AA@			; `string'
PUBLIC	??_C@_0BP@DDCBJFON@Changed?5weather?5to?5?$HOg?$HOClearing?$AA@ ; `string'
PUBLIC	??_C@_06KPJPJOPB@CLOUDS?$AA@			; `string'
PUBLIC	??_C@_0BN@BNFJGFPO@Changed?5weather?5to?5?$HOg?$HOClouds?$AA@ ; `string'
PUBLIC	??_C@_0L@FDDKPEDF@EXTRASUNNY?$AA@		; `string'
PUBLIC	??_C@_0CC@KLHINJFM@Changed?5weather?5to?5?$HOg?$HOExtra?5Sunn@ ; `string'
PUBLIC	??_C@_05FFPAGFGJ@FOGGY?$AA@			; `string'
PUBLIC	??_C@_0BM@BFGOGCBI@Changed?5weather?5to?5?$HOg?$HOFoggy?$AA@ ; `string'
PUBLIC	??_C@_07GNLJHKAP@NEUTRAL?$AA@			; `string'
PUBLIC	??_C@_0BO@GIDAIFMH@Changed?5weather?5to?5?$HOg?$HONeutral?$AA@ ; `string'
PUBLIC	??_C@_08FADHDLJM@OVERCAST?$AA@			; `string'
PUBLIC	??_C@_0BP@FAAJNMED@Changed?5weather?5to?5?$HOg?$HOOvercast?$AA@ ; `string'
PUBLIC	??_C@_04EJBHHPNF@RAIN?$AA@			; `string'
PUBLIC	??_C@_0BL@DDHFEIPH@Changed?5weather?5to?5?$HOg?$HORain?$AA@ ; `string'
PUBLIC	??_C@_04OLOOCOCG@SMOG?$AA@			; `string'
PUBLIC	??_C@_0BL@JBIMBJAE@Changed?5weather?5to?5?$HOg?$HOSmog?$AA@ ; `string'
PUBLIC	??_C@_04LDJJJDJJ@SNOW?$AA@			; `string'
PUBLIC	??_C@_0BL@MJPLKELL@Changed?5weather?5to?5?$HOg?$HOSnow?$AA@ ; `string'
PUBLIC	??_C@_09MFCNKBKM@SNOWLIGHT?$AA@			; `string'
PUBLIC	??_C@_0CB@LCNAOJOO@Changed?5weather?5to?5?$HOg?$HOSnow?5Light@ ; `string'
PUBLIC	??_C@_07GNHPCGEP@THUNDER?$AA@			; `string'
PUBLIC	??_C@_0BO@GIPGNJIH@Changed?5weather?5to?5?$HOg?$HOThunder?$AA@ ; `string'
PUBLIC	??_C@_1CII@KCEINCBA@W?$AAe?$AAl?$AAc?$AAo?$AAm?$AAe?$AA?5?$AAt?$AAo?$AA?5?$AAT?$AAh?$AAe?$AA?5?$AAS?$AAa?$AAi?$AAy?$AAa?$AAn?$AA?5?$AAP?$AAr?$AAo?$AAj?$AAe?$AAc?$AAt?$AA?6?$AAV?$AAe?$AA@ ; `string'
PUBLIC	??_C@_1CG@MHOLIFHD@T?$AAh?$AAe?$AA?5?$AAS?$AAa?$AAi?$AAy?$AAa?$AAn?$AA?5?$AAP?$AAr?$AAo?$AAj?$AAe?$AAc?$AAt?$AA?$AA?$AA@ ; `string'
PUBLIC	??_C@_17CLPFKCMG@Y?$AAe?$AAs?$AA?$AA?$AA@	; `string'
PUBLIC	??_C@_15OKHFDEGJ@N?$AAo?$AA?$AA?$AA@		; `string'
PUBLIC	??_C@_1EG@EMDOGPBE@W?$AAo?$AAu?$AAl?$AAd?$AA?5?$AAy?$AAo?$AAu?$AA?5?$AAl?$AAi?$AAk?$AAe?$AA?5?$AAt?$AAo?$AA?5?$AAs?$AAp?$AAo?$AAo?$AAf?$AA?5?$AAy?$AAo?$AAu?$AAr?$AA?5?$AAX?$AAU?$AAI?$AA@ ; `string'
PUBLIC	??_C@_1HO@GHIDFEON@E?$AAn?$AAt?$AAe?$AAr?$AA?5?$AAt?$AAh?$AAe?$AA?5?$AAg?$AAa?$AAm?$AAe?$AAr?$AAt?$AAa?$AAg?$AA?5?$AAo?$AAf?$AA?5?$AAt?$AAh?$AAe?$AA?5?$AAu?$AAs?$AAe?$AAr?$AA?5?$AAy?$AA@ ; `string'
PUBLIC	??_C@_07FEDBCEF@xam?4xex?$AA@			; `string'
PUBLIC	??_C@_0M@FIIJKANM@default?4xex?$AA@		; `string'
PUBLIC	??_C@_0BI@DFHIPFDA@Gamertag?3?5?$CFs?6XUID?3?5?$CF16X?$AA@ ; `string'
PUBLIC	??_C@_0BO@ICIOACIJ@Unable?5to?5calculate?5?$CFs?8s?5XUID?$AA@ ; `string'
PUBLIC	??_C@_0BD@OLBABOEK@vector?$DMT?$DO?5too?5long?$AA@ ; `string'
PUBLIC	??_7exception@stdext@@6B@			; stdext::exception::`vftable'
PUBLIC	??_7bad_alloc@stdext@@6B@			; stdext::bad_alloc::`vftable'
EXTRN	fabs:PROC
EXTRN	_time64:PROC
EXTRN	strcmp:PROC
EXTRN	atof:PROC
EXTRN	atoi:PROC
EXTRN	rand:PROC
EXTRN	srand:PROC
EXTRN	cos:PROC
EXTRN	sin:PROC
EXTRN	XInputGetState:PROC
EXTRN	memcpy:PROC
EXTRN	memset:PROC
EXTRN	strcpy:PROC
EXTRN	strlen:PROC
EXTRN	Sleep:PROC
EXTRN	XUserGetXUID:PROC
EXTRN	mbstowcs:PROC
EXTRN	XOnlineStartup:PROC
EXTRN	XUserFindUsers:PROC
EXTRN	__imp_XamGetCurrentTitleId:PROC
EXTRN	ResumeThread:PROC
EXTRN	CloseHandle:PROC
EXTRN	XSetThreadProcessor:PROC
EXTRN	__imp_ExCreateThread:PROC
EXTRN	XapiThreadStartup:PROC
EXTRN	atexit:PROC
EXTRN	??2@YAPAXI@Z:PROC				; operator new
EXTRN	?_Raise_handler@std@@3P6AXABVexception@stdext@@@ZA:DWORD ; std::_Raise_handler
EXTRN	??_Eexception@stdext@@UAAPAXI@Z:PROC		; stdext::exception::`vector deleting destructor'
EXTRN	_invoke_watson:PROC
EXTRN	??_Ebad_alloc@stdext@@UAAPAXI@Z:PROC		; stdext::bad_alloc::`vector deleting destructor'
EXTRN	?_Xlength_error@std@@YAXPBD@Z:PROC		; std::_Xlength_error
EXTRN	memmove:PROC
EXTRN	??3@YAXPAX@Z:PROC				; operator delete
?_Player@@3KA DD 01H DUP (?)				; _Player
?_Vehicle@@3KA DD 01H DUP (?)				; _Vehicle
?CashLobby_Amount@@3KA DD 01H DUP (?)			; CashLobby_Amount
?NativePoolHead@@3PAU_Node@@A DD 01H DUP (?)		; NativePoolHead
?_Entity@@3KA DD 01H DUP (?)				; _Entity
?FirstPerson_Camera@@3KA DD 01H DUP (?)			; FirstPerson_Camera
?CashLobby_Toggle@@3PA_NA DB 010H DUP (?)		; CashLobby_Toggle
?NativePool@@3PAU_Node@@A DD 01H DUP (?)		; NativePool
?_Ped@@3KA DD	01H DUP (?)				; _Ped
?_VehicleExists@@3_NA DB 01H DUP (?)			; _VehicleExists
	ALIGN	4

?Menu_Open@@3_NA DB 01H DUP (?)				; Menu_Open
	ALIGN	4

?Menu_Scroll@@3KA DD 01H DUP (?)			; Menu_Scroll
?Menu_SelectedPlayer@@3KA DD 01H DUP (?)		; Menu_SelectedPlayer
?Toggle_ESP@@3_NA DB 01H DUP (?)			; Toggle_ESP
	ALIGN	4

?Toggle_ExplosiveAmmo@@3_NA DB 01H DUP (?)		; Toggle_ExplosiveAmmo
	ALIGN	4

?Toggle_FireAmmo@@3_NA DB 01H DUP (?)			; Toggle_FireAmmo
	ALIGN	4

?Toggle_FireworkAmmo@@3_NA DB 01H DUP (?)		; Toggle_FireworkAmmo
	ALIGN	4

?Toggle_FlyingBikes@@3_NA DB 01H DUP (?)		; Toggle_FlyingBikes
	ALIGN	4

?Toggle_FPSCounter@@3_NA DB 01H DUP (?)			; Toggle_FPSCounter
	ALIGN	4

?Toggle_HandbrakeDrift@@3_NA DB 01H DUP (?)		; Toggle_HandbrakeDrift
	ALIGN	4

?Toggle_Hydraulics@@3_NA DB 01H DUP (?)			; Toggle_Hydraulics
	ALIGN	4

?Toggle_LaserSight@@3_NA DB 01H DUP (?)			; Toggle_LaserSight
	ALIGN	4

?Toggle_Moses@@3_NA DB 01H DUP (?)			; Toggle_Moses
	ALIGN	4

?Toggle_NoWanted@@3_NA DB 01H DUP (?)			; Toggle_NoWanted
	ALIGN	4

?Toggle_Noclip@@3_NA DB 01H DUP (?)			; Toggle_Noclip
	ALIGN	4

?Toggle_NOS@@3_NA DB 01H DUP (?)			; Toggle_NOS
	ALIGN	4

?Toggle_ParachuteEject@@3_NA DB 01H DUP (?)		; Toggle_ParachuteEject
	ALIGN	4

?Toggle_RainbowPaint@@3_NA DB 01H DUP (?)		; Toggle_RainbowPaint
	ALIGN	4

?Toggle_RainbowSmoke@@3_NA DB 01H DUP (?)		; Toggle_RainbowSmoke
	ALIGN	4

?Toggle_SharkOMatic@@3_NA DB 01H DUP (?)		; Toggle_SharkOMatic
	ALIGN	4

?Toggle_Speedometer@@3_NA DB 01H DUP (?)		; Toggle_Speedometer
	ALIGN	4

?Toggle_SuperJump@@3_NA DB 01H DUP (?)			; Toggle_SuperJump
	ALIGN	4

?Toggle_SuperSpeed@@3_NA DB 01H DUP (?)			; Toggle_SuperSpeed
	ALIGN	4

?Toggle_SupermanPunch@@3_NA DB 01H DUP (?)		; Toggle_SupermanPunch
	ALIGN	4

?Toggle_TeleportGun@@3_NA DB 01H DUP (?)		; Toggle_TeleportGun
	ALIGN	4

?Toggle_UnlimitedAmmo@@3_NA DB 01H DUP (?)		; Toggle_UnlimitedAmmo
	ALIGN	4

?Toggle_VehicleCollision@@3_NA DB 01H DUP (?)		; Toggle_VehicleCollision
	ALIGN	4

?Toggle_VehicleInvincibility@@3_NA DB 01H DUP (?)	; Toggle_VehicleInvincibility
	ALIGN	4

?Toggle_Whiplash@@3_NA DB 01H DUP (?)			; Toggle_Whiplash
	ALIGN	4

?NativeHitCount@@3KA DD 01H DUP (?)			; NativeHitCount
?Aimbot_Client@@3KA DD 01H DUP (?)			; Aimbot_Client
?Aimbot_Arrest@@3_NA DB 01H DUP (?)			; Aimbot_Arrest
	ALIGN	4

?Aimbot_ArrestHandle@@3KA DD 01H DUP (?)		; Aimbot_ArrestHandle
?Aimbot_ArrestHit@@3_NA DB 01H DUP (?)			; Aimbot_ArrestHit
	ALIGN	4

?Aimbot_HasAimed@@3_NA DB 01H DUP (?)			; Aimbot_HasAimed
	ALIGN	4

?Aimbot_HasAimedAtPlayer@@3_NA DB 01H DUP (?)		; Aimbot_HasAimedAtPlayer
	ALIGN	4

?Aimbot_Toggle@@3_NA DB 01H DUP (?)			; Aimbot_Toggle
	ALIGN	4

?FirstPerson_Check@@3_NA DB 01H DUP (?)			; FirstPerson_Check
	ALIGN	4

?FirstPerson_Load@@3_NA DB 01H DUP (?)			; FirstPerson_Load
	ALIGN	4

?FirstPerson_Toggle@@3_NA DB 01H DUP (?)		; FirstPerson_Toggle
	ALIGN	4

?Forge_Object@@3KA DD 01H DUP (?)			; Forge_Object
?Forge_ObjectHash@@3KA DD 01H DUP (?)			; Forge_ObjectHash
?Forge_Toggle@@3_NA DB 01H DUP (?)			; Forge_Toggle
	ALIGN	4

?GrapplingHook_MovingToTarget@@3_NA DB 01H DUP (?)	; GrapplingHook_MovingToTarget
	ALIGN	4

?GrapplingHook_Rope@@3KA DD 01H DUP (?)			; GrapplingHook_Rope
?GrapplingHook_Toggle@@3_NA DB 01H DUP (?)		; GrapplingHook_Toggle
	ALIGN	4

?WeaponCannon_Toggle@@3_NA DB 01H DUP (?)		; WeaponCannon_Toggle
	ALIGN	4

?WeaponCannon_Type@@3W4_WeaponCannon_Projectiles@@A DD 01H DUP (?) ; WeaponCannon_Type
?Zombies_Toggle@@3_NA DB 01H DUP (?)			; Zombies_Toggle
	ALIGN	4

?bInitialized@@3_NA DB 01H DUP (?)			; bInitialized
	ALIGN	4

?bListInitialized@@3_NA DB 01H DUP (?)			; bListInitialized
	ALIGN	4

?bPlayingGTAV@@3_NA DB 01H DUP (?)			; bPlayingGTAV
	ALIGN	4

?Check_SetModel@@3KA DD 01H DUP (?)			; Check_SetModel
?Check_SpawnVeh_Fulfilled@@3_NA DB 01H DUP (?)		; Check_SpawnVeh_Fulfilled
	ALIGN	4

?Check_SpawnVeh_Handle@@3KA DD 01H DUP (?)		; Check_SpawnVeh_Handle
?Check_SpawnVeh_Hash@@3KA DD 01H DUP (?)		; Check_SpawnVeh_Hash
?Request_Hash@@3KA DD 01H DUP (?)			; Request_Hash
?XUIDSpoof_Spoofing@@3_NA DB 01H DUP (?)		; XUIDSpoof_Spoofing
	ALIGN	8

?XUIDSpoof_XUID@@3_KA DQ 01H DUP (?)			; XUIDSpoof_XUID
;	COMDAT ??_7bad_alloc@stdext@@6B@
.rdata	SEGMENT
??_7bad_alloc@stdext@@6B@ DD ??_Ebad_alloc@stdext@@UAAPAXI@Z ; stdext::bad_alloc::`vftable'
	DD	?what@exception@stdext@@UBAPBDXZ
	DD	?_Doraise@bad_alloc@stdext@@MBAXXZ
;	COMDAT ??_7exception@stdext@@6B@
.rdata	SEGMENT
??_7exception@stdext@@6B@ DD ??_Eexception@stdext@@UAAPAXI@Z ; stdext::exception::`vftable'
	DD	?what@exception@stdext@@UBAPBDXZ
	DD	?_Doraise@exception@stdext@@MBAXXZ
;	COMDAT ??_C@_0BD@OLBABOEK@vector?$DMT?$DO?5too?5long?$AA@
.rdata	SEGMENT
??_C@_0BD@OLBABOEK@vector?$DMT?$DO?5too?5long?$AA@ DB 'vector<T> too long'
	DB	00H						; `string'
;	COMDAT ??_C@_0BO@ICIOACIJ@Unable?5to?5calculate?5?$CFs?8s?5XUID?$AA@
.rdata	SEGMENT
??_C@_0BO@ICIOACIJ@Unable?5to?5calculate?5?$CFs?8s?5XUID?$AA@ DB 'Unable '
	DB	'to calculate %s''s XUID', 00H		; `string'
;	COMDAT ??_C@_0BI@DFHIPFDA@Gamertag?3?5?$CFs?6XUID?3?5?$CF16X?$AA@
.rdata	SEGMENT
??_C@_0BI@DFHIPFDA@Gamertag?3?5?$CFs?6XUID?3?5?$CF16X?$AA@ DB 'Gamertag: '
	DB	'%s', 0aH, 'XUID: %16X', 00H			; `string'
;	COMDAT ??_C@_0M@FIIJKANM@default?4xex?$AA@
.rdata	SEGMENT
??_C@_0M@FIIJKANM@default?4xex?$AA@ DB 'default.xex', 00H ; `string'
;	COMDAT ??_C@_07FEDBCEF@xam?4xex?$AA@
.rdata	SEGMENT
??_C@_07FEDBCEF@xam?4xex?$AA@ DB 'xam.xex', 00H		; `string'
;	COMDAT ??_C@_1HO@GHIDFEON@E?$AAn?$AAt?$AAe?$AAr?$AA?5?$AAt?$AAh?$AAe?$AA?5?$AAg?$AAa?$AAm?$AAe?$AAr?$AAt?$AAa?$AAg?$AA?5?$AAo?$AAf?$AA?5?$AAt?$AAh?$AAe?$AA?5?$AAu?$AAs?$AAe?$AAr?$AA?5?$AAy?$AA@
.rdata	SEGMENT
??_C@_1HO@GHIDFEON@E?$AAn?$AAt?$AAe?$AAr?$AA?5?$AAt?$AAh?$AAe?$AA?5?$AAg?$AAa?$AAm?$AAe?$AAr?$AAt?$AAa?$AAg?$AA?5?$AAo?$AAf?$AA?5?$AAt?$AAh?$AAe?$AA?5?$AAu?$AAs?$AAe?$AAr?$AA?5?$AAy?$AA@ DB 00H
	DB	'E', 00H, 'n', 00H, 't', 00H, 'e', 00H, 'r', 00H, ' ', 00H, 't'
	DB	00H, 'h', 00H, 'e', 00H, ' ', 00H, 'g', 00H, 'a', 00H, 'm', 00H
	DB	'e', 00H, 'r', 00H, 't', 00H, 'a', 00H, 'g', 00H, ' ', 00H, 'o'
	DB	00H, 'f', 00H, ' ', 00H, 't', 00H, 'h', 00H, 'e', 00H, ' ', 00H
	DB	'u', 00H, 's', 00H, 'e', 00H, 'r', 00H, ' ', 00H, 'y', 00H, 'o'
	DB	00H, 'u', 00H, ' ', 00H, 'w', 00H, 'a', 00H, 'n', 00H, 't', 00H
	DB	' ', 00H, 't', 00H, 'o', 00H, ' ', 00H, 's', 00H, 'p', 00H, 'o'
	DB	00H, 'o', 00H, 'f', 00H, ' ', 00H, 'y', 00H, 'o', 00H, 'u', 00H
	DB	'r', 00H, ' ', 00H, 'X', 00H, 'U', 00H, 'I', 00H, 'D', 00H, ' '
	DB	00H, 't', 00H, 'o', 00H, '.', 00H, 00H	; `string'
;	COMDAT ??_C@_1EG@EMDOGPBE@W?$AAo?$AAu?$AAl?$AAd?$AA?5?$AAy?$AAo?$AAu?$AA?5?$AAl?$AAi?$AAk?$AAe?$AA?5?$AAt?$AAo?$AA?5?$AAs?$AAp?$AAo?$AAo?$AAf?$AA?5?$AAy?$AAo?$AAu?$AAr?$AA?5?$AAX?$AAU?$AAI?$AA@
.rdata	SEGMENT
??_C@_1EG@EMDOGPBE@W?$AAo?$AAu?$AAl?$AAd?$AA?5?$AAy?$AAo?$AAu?$AA?5?$AAl?$AAi?$AAk?$AAe?$AA?5?$AAt?$AAo?$AA?5?$AAs?$AAp?$AAo?$AAo?$AAf?$AA?5?$AAy?$AAo?$AAu?$AAr?$AA?5?$AAX?$AAU?$AAI?$AA@ DB 00H
	DB	'W', 00H, 'o', 00H, 'u', 00H, 'l', 00H, 'd', 00H, ' ', 00H, 'y'
	DB	00H, 'o', 00H, 'u', 00H, ' ', 00H, 'l', 00H, 'i', 00H, 'k', 00H
	DB	'e', 00H, ' ', 00H, 't', 00H, 'o', 00H, ' ', 00H, 's', 00H, 'p'
	DB	00H, 'o', 00H, 'o', 00H, 'f', 00H, ' ', 00H, 'y', 00H, 'o', 00H
	DB	'u', 00H, 'r', 00H, ' ', 00H, 'X', 00H, 'U', 00H, 'I', 00H, 'D'
	DB	00H, '?', 00H, 00H				; `string'
;	COMDAT ??_C@_15OKHFDEGJ@N?$AAo?$AA?$AA?$AA@
.rdata	SEGMENT
??_C@_15OKHFDEGJ@N?$AAo?$AA?$AA?$AA@ DB 00H, 'N', 00H, 'o', 00H, 00H ; `string'
;	COMDAT ??_C@_17CLPFKCMG@Y?$AAe?$AAs?$AA?$AA?$AA@
.rdata	SEGMENT
??_C@_17CLPFKCMG@Y?$AAe?$AAs?$AA?$AA?$AA@ DB 00H, 'Y', 00H, 'e', 00H, 's', 00H
	DB	00H						; `string'
;	COMDAT ??_C@_1CG@MHOLIFHD@T?$AAh?$AAe?$AA?5?$AAS?$AAa?$AAi?$AAy?$AAa?$AAn?$AA?5?$AAP?$AAr?$AAo?$AAj?$AAe?$AAc?$AAt?$AA?$AA?$AA@
.rdata	SEGMENT
??_C@_1CG@MHOLIFHD@T?$AAh?$AAe?$AA?5?$AAS?$AAa?$AAi?$AAy?$AAa?$AAn?$AA?5?$AAP?$AAr?$AAo?$AAj?$AAe?$AAc?$AAt?$AA?$AA?$AA@ DB 00H
	DB	'T', 00H, 'h', 00H, 'e', 00H, ' ', 00H, 'S', 00H, 'a', 00H, 'i'
	DB	00H, 'y', 00H, 'a', 00H, 'n', 00H, ' ', 00H, 'P', 00H, 'r', 00H
	DB	'o', 00H, 'j', 00H, 'e', 00H, 'c', 00H, 't', 00H, 00H ; `string'
;	COMDAT ??_C@_1CII@KCEINCBA@W?$AAe?$AAl?$AAc?$AAo?$AAm?$AAe?$AA?5?$AAt?$AAo?$AA?5?$AAT?$AAh?$AAe?$AA?5?$AAS?$AAa?$AAi?$AAy?$AAa?$AAn?$AA?5?$AAP?$AAr?$AAo?$AAj?$AAe?$AAc?$AAt?$AA?6?$AAV?$AAe?$AA@
.rdata	SEGMENT
??_C@_1CII@KCEINCBA@W?$AAe?$AAl?$AAc?$AAo?$AAm?$AAe?$AA?5?$AAt?$AAo?$AA?5?$AAT?$AAh?$AAe?$AA?5?$AAS?$AAa?$AAi?$AAy?$AAa?$AAn?$AA?5?$AAP?$AAr?$AAo?$AAj?$AAe?$AAc?$AAt?$AA?6?$AAV?$AAe?$AA@ DB 00H
	DB	'W', 00H, 'e', 00H, 'l', 00H, 'c', 00H, 'o', 00H, 'm', 00H, 'e'
	DB	00H, ' ', 00H, 't', 00H, 'o', 00H, ' ', 00H, 'T', 00H, 'h', 00H
	DB	'e', 00H, ' ', 00H, 'S', 00H, 'a', 00H, 'i', 00H, 'y', 00H, 'a'
	DB	00H, 'n', 00H, ' ', 00H, 'P', 00H, 'r', 00H, 'o', 00H, 'j', 00H
	DB	'e', 00H, 'c', 00H, 't', 00H, 0aH, 00H, 'V', 00H, 'e', 00H, 'r'
	DB	00H, 's', 00H, 'i', 00H, 'o', 00H, 'n', 00H, ':', 00H, ' ', 00H
	DB	'0', 00H, '.', 00H, '8', 00H, 0aH, 00H, 0aH, 00H, 'G', 00H, 'o'
	DB	00H, ' ', 00H, 't', 00H, 'o', 00H, ' ', 00H, 'h', 00H, 't', 00H
	DB	't', 00H, 'p', 00H, ':', 00H, '/', 00H, '/', 00H, 'w', 00H, 'w'
	DB	00H, 'w', 00H, '.', 00H, 'e', 00H, 'x', 00H, 't', 00H, 'f', 00H
	DB	'o', 00H, 'r', 00H, 'u', 00H, 'm', 00H, '.', 00H, 'n', 00H, 'e'
	DB	00H, 't', 00H, '/', 00H, ' ', 00H, 'f', 00H, 'o', 00H, 'r', 00H
	DB	' ', 00H, 't', 00H, 'h', 00H, 'e', 00H, ' ', 00H, 'l', 00H, 'a'
	DB	00H, 't', 00H, 'e', 00H, 's', 00H, 't', 00H, ' ', 00H, 'a', 00H
	DB	'n', 00H, 'd', 00H, ' ', 00H, 'g', 00H, 'r', 00H, 'e', 00H, 'a'
	DB	00H, 't', 00H, 'e', 00H, 's', 00H, 't', 00H, ' ', 00H, 'i', 00H
	DB	'n', 00H, ' ', 00H, 'X', 00H, 'b', 00H, 'o', 00H, 'x', 00H, ' '
	DB	00H, '3', 00H, '6', 00H, '0', 00H, ' ', 00H, 'h', 00H, 'a', 00H
	DB	'c', 00H, 'k', 00H, 's', 00H, '!', 00H, ' ', 00H, 'W', 00H, 'a'
	DB	00H, 'n', 00H, 't', 00H, ' ', 00H, 't', 00H, 'o', 00H, ' ', 00H
	DB	'b', 00H, 'u', 00H, 'y', 00H, ' ', 00H, 's', 00H, 'o', 00H, 'm'
	DB	00H, 'e', 00H, ' ', 00H, 'G', 00H, 'T', 00H, 'A', 00H, ' ', 00H
	DB	'V', 00H, ' ', 00H, 's', 00H, 'o', 00H, 'u', 00H, 'r', 00H, 'c'
	DB	00H, 'e', 00H, ' ', 00H, 'c', 00H, 'o', 00H, 'd', 00H, 'e', 00H
	DB	'?', 00H, ' ', 00H, 'I', 00H, '''', 00H, 'm', 00H, ' ', 00H, 's'
	DB	00H, 'e', 00H, 'l', 00H, 'l', 00H, 'i', 00H, 'n', 00H, 'g', 00H
	DB	' ', 00H, 't', 00H, 'h', 00H, 'i', 00H, 's', 00H, ' ', 00H, 's'
	DB	00H, 'o', 00H, 'u', 00H, 'r', 00H, 'c', 00H, 'e', 00H, ' ', 00H
	DB	'a', 00H, 'l', 00H, 'o', 00H, 'n', 00H, 'g', 00H, ' ', 00H, 'w'
	DB	00H, 'i', 00H, 't', 00H, 'h', 00H, ' ', 00H, 'm', 00H, 'y', 00H
	DB	' ', 00H, 'G', 00H, 'T', 00H, 'A', 00H, ' ', 00H, 'V', 00H, ' '
	DB	00H, 'm', 00H, 'e', 00H, 'n', 00H, 'u', 00H, ' ', 00H, 'b', 00H
	DB	'a', 00H, 's', 00H, 'e', 00H, ' ', 00H, 'o', 00H, 'n', 00H, ' '
	DB	00H, 'E', 00H, 'x', 00H, 'T', 00H, '!', 00H, 0aH, 00H, 0aH, 00H
	DB	'C', 00H, 'r', 00H, 'e', 00H, 'd', 00H, 'i', 00H, 't', 00H, 's'
	DB	00H, ':', 00H, 0aH, 00H, '-', 00H, ' ', 00H, 'X', 00H, 'e', 00H
	DB	'C', 00H, 'l', 00H, 'u', 00H, 't', 00H, 'c', 00H, 'h', 00H, ':'
	DB	00H, ' ', 00H, 'S', 00H, 'c', 00H, 'r', 00H, 'i', 00H, 'p', 00H
	DB	't', 00H, ' ', 00H, 'H', 00H, 'o', 00H, 'o', 00H, 'k', 00H, ','
	DB	00H, ' ', 00H, 'D', 00H, 'e', 00H, 'v', 00H, ' ', 00H, 'M', 00H
	DB	'o', 00H, 'd', 00H, 'e', 00H, ',', 00H, ' ', 00H, 'B', 00H, 'a'
	DB	00H, 'n', 00H, ' ', 00H, 'B', 00H, 'y', 00H, 'p', 00H, 'a', 00H
	DB	's', 00H, 's', 00H, ',', 00H, ' ', 00H, 'a', 00H, 'n', 00H, 'd'
	DB	00H, ' ', 00H, 'm', 00H, 'o', 00H, 's', 00H, 't', 00H, ' ', 00H
	DB	's', 00H, 'c', 00H, 'r', 00H, 'i', 00H, 'p', 00H, 't', 00H, 's'
	DB	00H, 0aH, 00H, '-', 00H, ' ', 00H, 'p', 00H, 'r', 00H, 'o', 00H
	DB	'd', 00H, 'i', 00H, 't', 00H, 'a', 00H, 'k', 00H, 'i', 00H, ':'
	DB	00H, ' ', 00H, 'V', 00H, 'e', 00H, 'h', 00H, 'i', 00H, 'c', 00H
	DB	'l', 00H, 'e', 00H, ' ', 00H, 'S', 00H, 'p', 00H, 'a', 00H, 'w'
	DB	00H, 'n', 00H, 'i', 00H, 'n', 00H, 'g', 00H, 00H ; `string'
;	COMDAT ??_C@_0BO@GIPGNJIH@Changed?5weather?5to?5?$HOg?$HOThunder?$AA@
.rdata	SEGMENT
??_C@_0BO@GIPGNJIH@Changed?5weather?5to?5?$HOg?$HOThunder?$AA@ DB 'Change'
	DB	'd weather to ~g~Thunder', 00H		; `string'
;	COMDAT ??_C@_07GNHPCGEP@THUNDER?$AA@
.rdata	SEGMENT
??_C@_07GNHPCGEP@THUNDER?$AA@ DB 'THUNDER', 00H		; `string'
;	COMDAT ??_C@_0CB@LCNAOJOO@Changed?5weather?5to?5?$HOg?$HOSnow?5Light@
.rdata	SEGMENT
??_C@_0CB@LCNAOJOO@Changed?5weather?5to?5?$HOg?$HOSnow?5Light@ DB 'Change'
	DB	'd weather to ~g~Snow Light', 00H		; `string'
;	COMDAT ??_C@_09MFCNKBKM@SNOWLIGHT?$AA@
.rdata	SEGMENT
??_C@_09MFCNKBKM@SNOWLIGHT?$AA@ DB 'SNOWLIGHT', 00H	; `string'
;	COMDAT ??_C@_0BL@MJPLKELL@Changed?5weather?5to?5?$HOg?$HOSnow?$AA@
.rdata	SEGMENT
??_C@_0BL@MJPLKELL@Changed?5weather?5to?5?$HOg?$HOSnow?$AA@ DB 'Changed w'
	DB	'eather to ~g~Snow', 00H			; `string'
;	COMDAT ??_C@_04LDJJJDJJ@SNOW?$AA@
.rdata	SEGMENT
??_C@_04LDJJJDJJ@SNOW?$AA@ DB 'SNOW', 00H		; `string'
;	COMDAT ??_C@_0BL@JBIMBJAE@Changed?5weather?5to?5?$HOg?$HOSmog?$AA@
.rdata	SEGMENT
??_C@_0BL@JBIMBJAE@Changed?5weather?5to?5?$HOg?$HOSmog?$AA@ DB 'Changed w'
	DB	'eather to ~g~Smog', 00H			; `string'
;	COMDAT ??_C@_04OLOOCOCG@SMOG?$AA@
.rdata	SEGMENT
??_C@_04OLOOCOCG@SMOG?$AA@ DB 'SMOG', 00H		; `string'
;	COMDAT ??_C@_0BL@DDHFEIPH@Changed?5weather?5to?5?$HOg?$HORain?$AA@
.rdata	SEGMENT
??_C@_0BL@DDHFEIPH@Changed?5weather?5to?5?$HOg?$HORain?$AA@ DB 'Changed w'
	DB	'eather to ~g~Rain', 00H			; `string'
;	COMDAT ??_C@_04EJBHHPNF@RAIN?$AA@
.rdata	SEGMENT
??_C@_04EJBHHPNF@RAIN?$AA@ DB 'RAIN', 00H		; `string'
;	COMDAT ??_C@_0BP@FAAJNMED@Changed?5weather?5to?5?$HOg?$HOOvercast?$AA@
.rdata	SEGMENT
??_C@_0BP@FAAJNMED@Changed?5weather?5to?5?$HOg?$HOOvercast?$AA@ DB 'Chang'
	DB	'ed weather to ~g~Overcast', 00H		; `string'
;	COMDAT ??_C@_08FADHDLJM@OVERCAST?$AA@
.rdata	SEGMENT
??_C@_08FADHDLJM@OVERCAST?$AA@ DB 'OVERCAST', 00H	; `string'
;	COMDAT ??_C@_0BO@GIDAIFMH@Changed?5weather?5to?5?$HOg?$HONeutral?$AA@
.rdata	SEGMENT
??_C@_0BO@GIDAIFMH@Changed?5weather?5to?5?$HOg?$HONeutral?$AA@ DB 'Change'
	DB	'd weather to ~g~Neutral', 00H		; `string'
;	COMDAT ??_C@_07GNLJHKAP@NEUTRAL?$AA@
.rdata	SEGMENT
??_C@_07GNLJHKAP@NEUTRAL?$AA@ DB 'NEUTRAL', 00H		; `string'
;	COMDAT ??_C@_0BM@BFGOGCBI@Changed?5weather?5to?5?$HOg?$HOFoggy?$AA@
.rdata	SEGMENT
??_C@_0BM@BFGOGCBI@Changed?5weather?5to?5?$HOg?$HOFoggy?$AA@ DB 'Changed '
	DB	'weather to ~g~Foggy', 00H			; `string'
;	COMDAT ??_C@_05FFPAGFGJ@FOGGY?$AA@
.rdata	SEGMENT
??_C@_05FFPAGFGJ@FOGGY?$AA@ DB 'FOGGY', 00H		; `string'
;	COMDAT ??_C@_0CC@KLHINJFM@Changed?5weather?5to?5?$HOg?$HOExtra?5Sunn@
.rdata	SEGMENT
??_C@_0CC@KLHINJFM@Changed?5weather?5to?5?$HOg?$HOExtra?5Sunn@ DB 'Change'
	DB	'd weather to ~g~Extra Sunny', 00H		; `string'
;	COMDAT ??_C@_0L@FDDKPEDF@EXTRASUNNY?$AA@
.rdata	SEGMENT
??_C@_0L@FDDKPEDF@EXTRASUNNY?$AA@ DB 'EXTRASUNNY', 00H	; `string'
;	COMDAT ??_C@_0BN@BNFJGFPO@Changed?5weather?5to?5?$HOg?$HOClouds?$AA@
.rdata	SEGMENT
??_C@_0BN@BNFJGFPO@Changed?5weather?5to?5?$HOg?$HOClouds?$AA@ DB 'Changed'
	DB	' weather to ~g~Clouds', 00H			; `string'
;	COMDAT ??_C@_06KPJPJOPB@CLOUDS?$AA@
.rdata	SEGMENT
??_C@_06KPJPJOPB@CLOUDS?$AA@ DB 'CLOUDS', 00H		; `string'
;	COMDAT ??_C@_0BP@DDCBJFON@Changed?5weather?5to?5?$HOg?$HOClearing?$AA@
.rdata	SEGMENT
??_C@_0BP@DDCBJFON@Changed?5weather?5to?5?$HOg?$HOClearing?$AA@ DB 'Chang'
	DB	'ed weather to ~g~Clearing', 00H		; `string'
;	COMDAT ??_C@_08DDBPHCDC@CLEARING?$AA@
.rdata	SEGMENT
??_C@_08DDBPHCDC@CLEARING?$AA@ DB 'CLEARING', 00H	; `string'
;	COMDAT ??_C@_0BM@EPHDOEIJ@Changed?5weather?5to?5?$HOg?$HOClear?$AA@
.rdata	SEGMENT
??_C@_0BM@EPHDOEIJ@Changed?5weather?5to?5?$HOg?$HOClear?$AA@ DB 'Changed '
	DB	'weather to ~g~Clear', 00H			; `string'
;	COMDAT ??_C@_05PONODPI@CLEAR?$AA@
.rdata	SEGMENT
??_C@_05PONODPI@CLEAR?$AA@ DB 'CLEAR', 00H		; `string'
;	COMDAT ??_C@_0BP@EBDOHDHL@Changed?5weather?5to?5?$HOg?$HOBlizzard?$AA@
.rdata	SEGMENT
??_C@_0BP@EBDOHDHL@Changed?5weather?5to?5?$HOg?$HOBlizzard?$AA@ DB 'Chang'
	DB	'ed weather to ~g~Blizzard', 00H		; `string'
;	COMDAT ??_C@_08EBAAJEKE@BLIZZARD?$AA@
.rdata	SEGMENT
??_C@_08EBAAJEKE@BLIZZARD?$AA@ DB 'BLIZZARD', 00H	; `string'
;	COMDAT ??_C@_0BH@KGHKPND@?$HOg?$HOStraightened?5object?$AA@
.rdata	SEGMENT
??_C@_0BH@KGHKPND@?$HOg?$HOStraightened?5object?$AA@ DB '~g~Straightened '
	DB	'object', 00H				; `string'
;	COMDAT ??_C@_0BJ@FOEMHKND@?$HOg?$HOSnapped?5to?5the?5ground?$AA@
.rdata	SEGMENT
??_C@_0BJ@FOEMHKND@?$HOg?$HOSnapped?5to?5the?5ground?$AA@ DB '~g~Snapped '
	DB	'to the ground', 00H				; `string'
;	COMDAT ??_C@_0BC@EJDEHJKL@Moved?5?$HOg?$HOBackward?$AA@
.rdata	SEGMENT
??_C@_0BC@EJDEHJKL@Moved?5?$HOg?$HOBackward?$AA@ DB 'Moved ~g~Backward', 00H ; `string'
;	COMDAT ??_C@_0BB@NJIEDNAA@Moved?5?$HOg?$HOForward?$AA@
.rdata	SEGMENT
??_C@_0BB@NJIEDNAA@Moved?5?$HOg?$HOForward?$AA@ DB 'Moved ~g~Forward', 00H ; `string'
;	COMDAT ??_C@_0P@OBDKNPBO@Moved?5?$HOg?$HORight?$AA@
.rdata	SEGMENT
??_C@_0P@OBDKNPBO@Moved?5?$HOg?$HORight?$AA@ DB 'Moved ~g~Right', 00H ; `string'
;	COMDAT ??_C@_0O@BBJMBCFP@Moved?5?$HOg?$HOLeft?$AA@
.rdata	SEGMENT
??_C@_0O@BBJMBCFP@Moved?5?$HOg?$HOLeft?$AA@ DB 'Moved ~g~Left', 00H ; `string'
;	COMDAT ??_C@_0O@ODJIIKGG@Moved?5?$HOg?$HODown?$AA@
.rdata	SEGMENT
??_C@_0O@ODJIIKGG@Moved?5?$HOg?$HODown?$AA@ DB 'Moved ~g~Down', 00H ; `string'
;	COMDAT ??_C@_0M@ELOHMOHH@Moved?5?$HOg?$HOUp?$AA@
.rdata	SEGMENT
??_C@_0M@ELOHMOHH@Moved?5?$HOg?$HOUp?$AA@ DB 'Moved ~g~Up', 00H ; `string'
;	COMDAT ??_C@_0BF@BEKICCGM@?$HOg?$HODecreased?5?$HOw?$HORoll?$AA@
.rdata	SEGMENT
??_C@_0BF@BEKICCGM@?$HOg?$HODecreased?5?$HOw?$HORoll?$AA@ DB '~g~Decrease'
	DB	'd ~w~Roll', 00H				; `string'
;	COMDAT ??_C@_0BF@FCIJPJJN@?$HOg?$HOIncreased?5?$HOw?$HORoll?$AA@
.rdata	SEGMENT
??_C@_0BF@FCIJPJJN@?$HOg?$HOIncreased?5?$HOw?$HORoll?$AA@ DB '~g~Increase'
	DB	'd ~w~Roll', 00H				; `string'
;	COMDAT ??_C@_0BG@LFENAIBI@?$HOg?$HODecreased?5?$HOw?$HOPitch?$AA@
.rdata	SEGMENT
??_C@_0BG@LFENAIBI@?$HOg?$HODecreased?5?$HOw?$HOPitch?$AA@ DB '~g~Decreas'
	DB	'ed ~w~Pitch', 00H				; `string'
;	COMDAT ??_C@_0BG@HPLBOLEJ@?$HOg?$HOIncreased?5?$HOw?$HOPitch?$AA@
.rdata	SEGMENT
??_C@_0BG@HPLBOLEJ@?$HOg?$HOIncreased?5?$HOw?$HOPitch?$AA@ DB '~g~Increas'
	DB	'ed ~w~Pitch', 00H				; `string'
;	COMDAT ??_C@_0BI@NFEMNGNL@?$HOg?$HODecreased?5?$HOw?$HOHeading?$AA@
.rdata	SEGMENT
??_C@_0BI@NFEMNGNL@?$HOg?$HODecreased?5?$HOw?$HOHeading?$AA@ DB '~g~Decre'
	DB	'ased ~w~Heading', 00H			; `string'
;	COMDAT ??_C@_0CL@IFKCDKBE@?$HOr?$HOYou?5don?8t?5have?5control?5over?5t@
.rdata	SEGMENT
??_C@_0CL@IFKCDKBE@?$HOr?$HOYou?5don?8t?5have?5control?5over?5t@ DB '~r~Y'
	DB	'ou don''t have control over this object', 00H ; `string'
;	COMDAT ??_C@_0BI@EPOPMDPA@?$HOg?$HOIncreased?5?$HOw?$HOHeading?$AA@
.rdata	SEGMENT
??_C@_0BI@EPOPMDPA@?$HOg?$HOIncreased?5?$HOw?$HOHeading?$AA@ DB '~g~Incre'
	DB	'ased ~w~Heading', 00H			; `string'
;	COMDAT ??_C@_0O@EOIPCGNF@Hash?3?5?$HOg?$HO0x?$CFX?$AA@
.rdata	SEGMENT
??_C@_0O@EOIPCGNF@Hash?3?5?$HOg?$HO0x?$CFX?$AA@ DB 'Hash: ~g~0x%X', 00H ; `string'
;	COMDAT ??_C@_0CO@JHCMBPL@Coordinates?3?5?$HL?5?$HOg?$HO?$CFf?$HOw?$HO?0?5?$HOg?$HO?$CFf?$HOw@
.rdata	SEGMENT
??_C@_0CO@JHCMBPL@Coordinates?3?5?$HL?5?$HOg?$HO?$CFf?$HOw?$HO?0?5?$HOg?$HO?$CFf?$HOw@ DB 'C'
	DB	'oordinates: { ~g~%f~w~, ~g~%f~w~, ~g~%f ~w~}', 00H ; `string'
;	COMDAT ??_C@_0BF@NEHKHAGH@?$HOr?$HODeleted?5?$HOw?$HOObject?$AA@
.rdata	SEGMENT
??_C@_0BF@NEHKHAGH@?$HOr?$HODeleted?5?$HOw?$HOObject?$AA@ DB '~r~Deleted '
	DB	'~w~Object', 00H				; `string'
;	COMDAT ??_C@_0BE@BIAMLOHM@?$HOg?$HOCopied?5?$HOw?$HOObject?$AA@
.rdata	SEGMENT
??_C@_0BE@BIAMLOHM@?$HOg?$HOCopied?5?$HOw?$HOObject?$AA@ DB '~g~Copied ~w'
	DB	'~Object', 00H				; `string'
;	COMDAT ??_C@_08BIMHCEBG@Forge?5?$CFs?$AA@
.rdata	SEGMENT
??_C@_08BIMHCEBG@Forge?5?$CFs?$AA@ DB 'Forge %s', 00H	; `string'
;	COMDAT ??_C@_0O@ECLMKKGF@Spawned?5?$HOg?$HO?$CFs?$AA@
.rdata	SEGMENT
??_C@_0O@ECLMKKGF@Spawned?5?$HOg?$HO?$CFs?$AA@ DB 'Spawned ~g~%s', 00H ; `string'
;	COMDAT ??_C@_1BO@GHFINEOL@O?$AAb?$AAj?$AAe?$AAc?$AAt?$AA?5?$AAS?$AAp?$AAa?$AAw?$AAn?$AAe?$AAr?$AA?$AA?$AA@
.rdata	SEGMENT
??_C@_1BO@GHFINEOL@O?$AAb?$AAj?$AAe?$AAc?$AAt?$AA?5?$AAS?$AAp?$AAa?$AAw?$AAn?$AAe?$AAr?$AA?$AA?$AA@ DB 00H
	DB	'O', 00H, 'b', 00H, 'j', 00H, 'e', 00H, 'c', 00H, 't', 00H, ' '
	DB	00H, 'S', 00H, 'p', 00H, 'a', 00H, 'w', 00H, 'n', 00H, 'e', 00H
	DB	'r', 00H, 00H				; `string'
;	COMDAT ??_C@_1BGM@KMOAJHGK@T?$AAh?$AAe?$AA?5?$AAs?$AAt?$AAr?$AAi?$AAn?$AAg?$AA?5?$AAy?$AAo?$AAu?$AA?5?$AAp?$AAa?$AAs?$AAs?$AA?5?$AAt?$AAh?$AAi?$AAs?$AA?5?$AAt?$AAh?$AAr?$AAo?$AAu?$AAg?$AAh?$AA@
.rdata	SEGMENT
??_C@_1BGM@KMOAJHGK@T?$AAh?$AAe?$AA?5?$AAs?$AAt?$AAr?$AAi?$AAn?$AAg?$AA?5?$AAy?$AAo?$AAu?$AA?5?$AAp?$AAa?$AAs?$AAs?$AA?5?$AAt?$AAh?$AAi?$AAs?$AA?5?$AAt?$AAh?$AAr?$AAo?$AAu?$AAg?$AAh?$AA@ DB 00H
	DB	'T', 00H, 'h', 00H, 'e', 00H, ' ', 00H, 's', 00H, 't', 00H, 'r'
	DB	00H, 'i', 00H, 'n', 00H, 'g', 00H, ' ', 00H, 'y', 00H, 'o', 00H
	DB	'u', 00H, ' ', 00H, 'p', 00H, 'a', 00H, 's', 00H, 's', 00H, ' '
	DB	00H, 't', 00H, 'h', 00H, 'i', 00H, 's', 00H, ' ', 00H, 't', 00H
	DB	'h', 00H, 'r', 00H, 'o', 00H, 'u', 00H, 'g', 00H, 'h', 00H, ' '
	DB	00H, 't', 00H, 'h', 00H, 'i', 00H, 's', 00H, ' ', 00H, 'd', 00H
	DB	'i', 00H, 'a', 00H, 'l', 00H, 'o', 00H, 'g', 00H, ' ', 00H, 'm'
	DB	00H, 'u', 00H, 's', 00H, 't', 00H, ' ', 00H, 'b', 00H, 'e', 00H
	DB	' ', 00H, 'a', 00H, ' ', 00H, 'v', 00H, 'a', 00H, 'l', 00H, 'i'
	DB	00H, 'd', 00H, ' ', 00H, 'G', 00H, 'T', 00H, 'A', 00H, ' ', 00H
	DB	'V', 00H, ' ', 00H, 'o', 00H, 'b', 00H, 'j', 00H, 'e', 00H, 'c'
	DB	00H, 't', 00H, ' ', 00H, 'n', 00H, 'a', 00H, 'm', 00H, 'e', 00H
	DB	' ', 00H, '(', 00H, 'b', 00H, 'e', 00H, 'f', 00H, 'o', 00H, 'r'
	DB	00H, 'e', 00H, ' ', 00H, 'h', 00H, 'a', 00H, 's', 00H, 'h', 00H
	DB	'i', 00H, 'n', 00H, 'g', 00H, ')', 00H, '.', 00H, 0aH, 00H, 'Y'
	DB	00H, 'o', 00H, 'u', 00H, ' ', 00H, 'c', 00H, 'a', 00H, 'n', 00H
	DB	' ', 00H, 'f', 00H, 'i', 00H, 'n', 00H, 'd', 00H, ' ', 00H, 'a'
	DB	00H, ' ', 00H, 'l', 00H, 'i', 00H, 's', 00H, 't', 00H, ' ', 00H
	DB	'o', 00H, 'f', 00H, ' ', 00H, 'o', 00H, 'b', 00H, 'j', 00H, 'e'
	DB	00H, 'c', 00H, 't', 00H, 's', 00H, ' ', 00H, 'h', 00H, 'e', 00H
	DB	'r', 00H, 'e', 00H, ':', 00H, ' ', 00H, 'h', 00H, 't', 00H, 't'
	DB	00H, 'p', 00H, ':', 00H, '/', 00H, '/', 00H, 'e', 00H, 'c', 00H
	DB	'b', 00H, '2', 00H, '.', 00H, 'b', 00H, 'i', 00H, 'z', 00H, '/'
	DB	00H, 'r', 00H, 'e', 00H, 'l', 00H, 'e', 00H, 'a', 00H, 's', 00H
	DB	'e', 00H, 's', 00H, '/', 00H, 'G', 00H, 'T', 00H, 'A', 00H, 'V'
	DB	00H, '/', 00H, 'l', 00H, 'i', 00H, 's', 00H, 't', 00H, 's', 00H
	DB	'/', 00H, 'o', 00H, 'b', 00H, 'j', 00H, 'e', 00H, 'c', 00H, 't'
	DB	00H, 's', 00H, '.', 00H, 't', 00H, 'x', 00H, 't', 00H, 00H ; `string'
;	COMDAT ??_C@_0BE@JBOJJKFN@Timescale?5set?5to?5?$CFf?$AA@
.rdata	SEGMENT
??_C@_0BE@JBOJJKFN@Timescale?5set?5to?5?$CFf?$AA@ DB 'Timescale set to %f'
	DB	00H						; `string'
;	COMDAT ??_C@_1CC@LMDKFOHB@T?$AAi?$AAm?$AAe?$AAs?$AAc?$AAa?$AAl?$AAe?$AA?5?$AAE?$AAd?$AAi?$AAt?$AAo?$AAr?$AA?$AA?$AA@
.rdata	SEGMENT
??_C@_1CC@LMDKFOHB@T?$AAi?$AAm?$AAe?$AAs?$AAc?$AAa?$AAl?$AAe?$AA?5?$AAE?$AAd?$AAi?$AAt?$AAo?$AAr?$AA?$AA?$AA@ DB 00H
	DB	'T', 00H, 'i', 00H, 'm', 00H, 'e', 00H, 's', 00H, 'c', 00H, 'a'
	DB	00H, 'l', 00H, 'e', 00H, ' ', 00H, 'E', 00H, 'd', 00H, 'i', 00H
	DB	't', 00H, 'o', 00H, 'r', 00H, 00H		; `string'
;	COMDAT ??_C@_1BDE@ELJBIOOJ@T?$AAh?$AAe?$AA?5?$AAv?$AAa?$AAl?$AAu?$AAe?$AA?5?$AAy?$AAo?$AAu?$AA?5?$AAp?$AAa?$AAs?$AAs?$AA?5?$AAt?$AAh?$AAr?$AAo?$AAu?$AAg?$AAh?$AA?5?$AAt?$AAh?$AAi?$AAs?$AA?5?$AA@
.rdata	SEGMENT
??_C@_1BDE@ELJBIOOJ@T?$AAh?$AAe?$AA?5?$AAv?$AAa?$AAl?$AAu?$AAe?$AA?5?$AAy?$AAo?$AAu?$AA?5?$AAp?$AAa?$AAs?$AAs?$AA?5?$AAt?$AAh?$AAr?$AAo?$AAu?$AAg?$AAh?$AA?5?$AAt?$AAh?$AAi?$AAs?$AA?5?$AA@ DB 00H
	DB	'T', 00H, 'h', 00H, 'e', 00H, ' ', 00H, 'v', 00H, 'a', 00H, 'l'
	DB	00H, 'u', 00H, 'e', 00H, ' ', 00H, 'y', 00H, 'o', 00H, 'u', 00H
	DB	' ', 00H, 'p', 00H, 'a', 00H, 's', 00H, 's', 00H, ' ', 00H, 't'
	DB	00H, 'h', 00H, 'r', 00H, 'o', 00H, 'u', 00H, 'g', 00H, 'h', 00H
	DB	' ', 00H, 't', 00H, 'h', 00H, 'i', 00H, 's', 00H, ' ', 00H, 'd'
	DB	00H, 'i', 00H, 'a', 00H, 'l', 00H, 'o', 00H, 'g', 00H, ' ', 00H
	DB	'w', 00H, 'i', 00H, 'l', 00H, 'l', 00H, ' ', 00H, 'd', 00H, 'i'
	DB	00H, 'r', 00H, 'e', 00H, 'c', 00H, 't', 00H, 'l', 00H, 'y', 00H
	DB	' ', 00H, 'c', 00H, 'h', 00H, 'a', 00H, 'n', 00H, 'g', 00H, 'e'
	DB	00H, ' ', 00H, 't', 00H, 'h', 00H, 'e', 00H, ' ', 00H, 'i', 00H
	DB	'n', 00H, 'g', 00H, 'a', 00H, 'm', 00H, 'e', 00H, ' ', 00H, 't'
	DB	00H, 'i', 00H, 'm', 00H, 'e', 00H, 's', 00H, 'c', 00H, 'a', 00H
	DB	'l', 00H, 'e', 00H, '.', 00H, 0aH, 00H, 'T', 00H, 'h', 00H, 'e'
	DB	00H, ' ', 00H, 'd', 00H, 'e', 00H, 'f', 00H, 'a', 00H, 'u', 00H
	DB	'l', 00H, 't', 00H, ' ', 00H, 'v', 00H, 'a', 00H, 'l', 00H, 'u'
	DB	00H, 'e', 00H, ' ', 00H, 'f', 00H, 'o', 00H, 'r', 00H, ' ', 00H
	DB	'g', 00H, 'r', 00H, 'a', 00H, 'v', 00H, 'i', 00H, 't', 00H, 'y'
	DB	00H, ' ', 00H, 'i', 00H, 's', 00H, ' ', 00H, '1', 00H, '.', 00H
	DB	'0', 00H, ',', 00H, ' ', 00H, 'u', 00H, 's', 00H, 'e', 00H, ' '
	DB	00H, 't', 00H, 'h', 00H, 'a', 00H, 't', 00H, ' ', 00H, 'i', 00H
	DB	'n', 00H, 'f', 00H, 'o', 00H, 'r', 00H, 'm', 00H, 'a', 00H, 't'
	DB	00H, 'i', 00H, 'o', 00H, 'n', 00H, ' ', 00H, 'a', 00H, 's', 00H
	DB	' ', 00H, 'y', 00H, 'o', 00H, 'u', 00H, ' ', 00H, 'w', 00H, 'i'
	DB	00H, 'l', 00H, 'l', 00H, '.', 00H, 00H	; `string'
;	COMDAT ??_C@_0BC@GNBGEAFK@Gravity?5set?5to?5?$CFf?$AA@
.rdata	SEGMENT
??_C@_0BC@GNBGEAFK@Gravity?5set?5to?5?$CFf?$AA@ DB 'Gravity set to %f', 00H ; `string'
;	COMDAT ??_C@_1BO@ICCKFALP@G?$AAr?$AAa?$AAv?$AAi?$AAt?$AAy?$AA?5?$AAE?$AAd?$AAi?$AAt?$AAo?$AAr?$AA?$AA?$AA@
.rdata	SEGMENT
??_C@_1BO@ICCKFALP@G?$AAr?$AAa?$AAv?$AAi?$AAt?$AAy?$AA?5?$AAE?$AAd?$AAi?$AAt?$AAo?$AAr?$AA?$AA?$AA@ DB 00H
	DB	'G', 00H, 'r', 00H, 'a', 00H, 'v', 00H, 'i', 00H, 't', 00H, 'y'
	DB	00H, ' ', 00H, 'E', 00H, 'd', 00H, 'i', 00H, 't', 00H, 'o', 00H
	DB	'r', 00H, 00H				; `string'
;	COMDAT ??_C@_1BDA@EGJNLIOA@T?$AAh?$AAe?$AA?5?$AAv?$AAa?$AAl?$AAu?$AAe?$AA?5?$AAy?$AAo?$AAu?$AA?5?$AAp?$AAa?$AAs?$AAs?$AA?5?$AAt?$AAh?$AAr?$AAo?$AAu?$AAg?$AAh?$AA?5?$AAt?$AAh?$AAi?$AAs?$AA?5?$AA@
.rdata	SEGMENT
??_C@_1BDA@EGJNLIOA@T?$AAh?$AAe?$AA?5?$AAv?$AAa?$AAl?$AAu?$AAe?$AA?5?$AAy?$AAo?$AAu?$AA?5?$AAp?$AAa?$AAs?$AAs?$AA?5?$AAt?$AAh?$AAr?$AAo?$AAu?$AAg?$AAh?$AA?5?$AAt?$AAh?$AAi?$AAs?$AA?5?$AA@ DB 00H
	DB	'T', 00H, 'h', 00H, 'e', 00H, ' ', 00H, 'v', 00H, 'a', 00H, 'l'
	DB	00H, 'u', 00H, 'e', 00H, ' ', 00H, 'y', 00H, 'o', 00H, 'u', 00H
	DB	' ', 00H, 'p', 00H, 'a', 00H, 's', 00H, 's', 00H, ' ', 00H, 't'
	DB	00H, 'h', 00H, 'r', 00H, 'o', 00H, 'u', 00H, 'g', 00H, 'h', 00H
	DB	' ', 00H, 't', 00H, 'h', 00H, 'i', 00H, 's', 00H, ' ', 00H, 'd'
	DB	00H, 'i', 00H, 'a', 00H, 'l', 00H, 'o', 00H, 'g', 00H, ' ', 00H
	DB	'w', 00H, 'i', 00H, 'l', 00H, 'l', 00H, ' ', 00H, 'd', 00H, 'i'
	DB	00H, 'r', 00H, 'e', 00H, 'c', 00H, 't', 00H, 'l', 00H, 'y', 00H
	DB	' ', 00H, 'c', 00H, 'h', 00H, 'a', 00H, 'n', 00H, 'g', 00H, 'e'
	DB	00H, ' ', 00H, 't', 00H, 'h', 00H, 'e', 00H, ' ', 00H, 'i', 00H
	DB	'n', 00H, 'g', 00H, 'a', 00H, 'm', 00H, 'e', 00H, ' ', 00H, 'g'
	DB	00H, 'r', 00H, 'a', 00H, 'v', 00H, 'i', 00H, 't', 00H, 'y', 00H
	DB	'.', 00H, 0aH, 00H, 'T', 00H, 'h', 00H, 'e', 00H, ' ', 00H, 'd'
	DB	00H, 'e', 00H, 'f', 00H, 'a', 00H, 'u', 00H, 'l', 00H, 't', 00H
	DB	' ', 00H, 'v', 00H, 'a', 00H, 'l', 00H, 'u', 00H, 'e', 00H, ' '
	DB	00H, 'f', 00H, 'o', 00H, 'r', 00H, ' ', 00H, 'g', 00H, 'r', 00H
	DB	'a', 00H, 'v', 00H, 'i', 00H, 't', 00H, 'y', 00H, ' ', 00H, 'i'
	DB	00H, 's', 00H, ' ', 00H, '9', 00H, '.', 00H, '8', 00H, ',', 00H
	DB	' ', 00H, 'u', 00H, 's', 00H, 'e', 00H, ' ', 00H, 't', 00H, 'h'
	DB	00H, 'a', 00H, 't', 00H, ' ', 00H, 'i', 00H, 'n', 00H, 'f', 00H
	DB	'o', 00H, 'r', 00H, 'm', 00H, 'a', 00H, 't', 00H, 'i', 00H, 'o'
	DB	00H, 'n', 00H, ' ', 00H, 'a', 00H, 's', 00H, ' ', 00H, 'y', 00H
	DB	'o', 00H, 'u', 00H, ' ', 00H, 'w', 00H, 'i', 00H, 'l', 00H, 'l'
	DB	00H, '.', 00H, 00H				; `string'
;	COMDAT ??_C@_0P@FCOGBJFG@Speedometer?5?$CFs?$AA@
.rdata	SEGMENT
??_C@_0P@FCOGBJFG@Speedometer?5?$CFs?$AA@ DB 'Speedometer %s', 00H ; `string'
;	COMDAT ??_C@_0BG@PGEBGGJH@Rainbow?5Tire?5Smoke?5?$CFs?$AA@
.rdata	SEGMENT
??_C@_0BG@PGEBGGJH@Rainbow?5Tire?5Smoke?5?$CFs?$AA@ DB 'Rainbow Tire Smok'
	DB	'e %s', 00H					; `string'
;	COMDAT ??_C@_0BB@DEACOPLD@Rainbow?5Paint?5?$CFs?$AA@
.rdata	SEGMENT
??_C@_0BB@DEACOPLD@Rainbow?5Paint?5?$CFs?$AA@ DB 'Rainbow Paint %s', 00H ; `string'
;	COMDAT ??_C@_0BD@ECDPIMBA@Parachute?5Eject?5?$CFs?$AA@
.rdata	SEGMENT
??_C@_0BD@ECDPIMBA@Parachute?5Eject?5?$CFs?$AA@ DB 'Parachute Eject %s', 00H ; `string'
;	COMDAT ??_C@_06GNLMCCAH@NOS?5?$CFs?$AA@
.rdata	SEGMENT
??_C@_06GNLMCCAH@NOS?5?$CFs?$AA@ DB 'NOS %s', 00H	; `string'
;	COMDAT ??_C@_0BI@NAPMIALL@Vehicle?5Invisibility?5?$CFs?$AA@
.rdata	SEGMENT
??_C@_0BI@NAPMIALL@Vehicle?5Invisibility?5?$CFs?$AA@ DB 'Vehicle Invisibi'
	DB	'lity %s', 00H				; `string'
;	COMDAT ??_C@_0BJ@EIKAEELG@Vehicle?5Invincibility?5?$CFs?$AA@
.rdata	SEGMENT
??_C@_0BJ@EIKAEELG@Vehicle?5Invincibility?5?$CFs?$AA@ DB 'Vehicle Invinci'
	DB	'bility %s', 00H				; `string'
;	COMDAT ??_C@_0O@FLBABGCL@Hydraulics?5?$CFs?$AA@
.rdata	SEGMENT
??_C@_0O@FLBABGCL@Hydraulics?5?$CFs?$AA@ DB 'Hydraulics %s', 00H ; `string'
;	COMDAT ??_C@_0BD@IIMIMAGB@Handbrake?5Drift?5?$CFs?$AA@
.rdata	SEGMENT
??_C@_0BD@IIMIMAGB@Handbrake?5Drift?5?$CFs?$AA@ DB 'Handbrake Drift %s', 00H ; `string'
;	COMDAT ??_C@_0BA@JJHCOJIF@Flying?5Bikes?5?$CFs?$AA@
.rdata	SEGMENT
??_C@_0BA@JJHCOJIF@Flying?5Bikes?5?$CFs?$AA@ DB 'Flying Bikes %s', 00H ; `string'
;	COMDAT ??_C@_0BF@MOMKPFNI@Vehicle?5Collision?5?$CFs?$AA@
.rdata	SEGMENT
??_C@_0BF@MOMKPFNI@Vehicle?5Collision?5?$CFs?$AA@ DB 'Vehicle Collision %'
	DB	's', 00H					; `string'
;	COMDAT ??_C@_0BE@NDIGLMHN@Vehicle?5?$HOg?$HOUnlocked?$AA@
.rdata	SEGMENT
??_C@_0BE@NDIGLMHN@Vehicle?5?$HOg?$HOUnlocked?$AA@ DB 'Vehicle ~g~Unlocke'
	DB	'd', 00H					; `string'
;	COMDAT ??_C@_0BC@CBEFKDLO@Vehicle?5?$HOr?$HOLocked?$AA@
.rdata	SEGMENT
??_C@_0BC@CBEFKDLO@Vehicle?5?$HOr?$HOLocked?$AA@ DB 'Vehicle ~r~Locked', 00H ; `string'
;	COMDAT ??_C@_0CP@JAGOMJGF@?$HOr?$HOYou?5must?5be?5in?5a?5vehicle?5to?5u@
.rdata	SEGMENT
??_C@_0CP@JAGOMJGF@?$HOr?$HOYou?5must?5be?5in?5a?5vehicle?5to?5u@ DB '~r~'
	DB	'You must be in a vehicle to use this option', 00H ; `string'
;	COMDAT ??_C@_0CL@DENLGPKB@Vehicle?5has?5been?5?$HOg?$HOfixed?5?$HOw?$HOand@
.rdata	SEGMENT
??_C@_0CL@DENLGPKB@Vehicle?5has?5been?5?$HOg?$HOfixed?5?$HOw?$HOand@ DB 'V'
	DB	'ehicle has been ~g~fixed ~w~and ~g~washed', 00H ; `string'
;	COMDAT ??_C@_0CA@NGDICHLO@Weapon?5Cannon?5set?5to?5?$HOg?$HOVehicle?$AA@
.rdata	SEGMENT
??_C@_0CA@NGDICHLO@Weapon?5Cannon?5set?5to?5?$HOg?$HOVehicle?$AA@ DB 'Wea'
	DB	'pon Cannon set to ~g~Vehicle', 00H		; `string'
;	COMDAT ??_C@_0CD@MKPHPNDC@Weapon?5Cannon?5set?5to?5?$HOg?$HOPedestri@
.rdata	SEGMENT
??_C@_0CD@MKPHPNDC@Weapon?5Cannon?5set?5to?5?$HOg?$HOPedestri@ DB 'Weapon'
	DB	' Cannon set to ~g~Pedestrian', 00H		; `string'
;	COMDAT ??_C@_0BP@IOBCFOFD@Weapon?5Cannon?5set?5to?5?$HOg?$HOObject?$AA@
.rdata	SEGMENT
??_C@_0BP@IOBCFOFD@Weapon?5Cannon?5set?5to?5?$HOg?$HOObject?$AA@ DB 'Weap'
	DB	'on Cannon set to ~g~Object', 00H		; `string'
;	COMDAT ??_C@_0BP@KKGEPLHN@Weapon?5Cannon?5set?5to?5?$HOg?$HOAnimal?$AA@
.rdata	SEGMENT
??_C@_0BP@KKGEPLHN@Weapon?5Cannon?5set?5to?5?$HOg?$HOAnimal?$AA@ DB 'Weap'
	DB	'on Cannon set to ~g~Animal', 00H		; `string'
;	COMDAT ??_C@_0BB@FCABFCD@Weapon?5Cannon?5?$CFs?$AA@
.rdata	SEGMENT
??_C@_0BB@FCABFCD@Weapon?5Cannon?5?$CFs?$AA@ DB 'Weapon Cannon %s', 00H ; `string'
;	COMDAT ??_C@_0BC@KEFFEFKE@Unlimited?5Ammo?5?$CFs?$AA@
.rdata	SEGMENT
??_C@_0BC@KEFFEFKE@Unlimited?5Ammo?5?$CFs?$AA@ DB 'Unlimited Ammo %s', 00H ; `string'
;	COMDAT ??_C@_0BA@OMGFOFOB@Teleport?5Gun?5?$CFs?$AA@
.rdata	SEGMENT
??_C@_0BA@OMGFOFOB@Teleport?5Gun?5?$CFs?$AA@ DB 'Teleport Gun %s', 00H ; `string'
;	COMDAT ??_C@_0P@FABFNNBO@Laser?5Sight?5?$CFs?$AA@
.rdata	SEGMENT
??_C@_0P@FABFNNBO@Laser?5Sight?5?$CFs?$AA@ DB 'Laser Sight %s', 00H ; `string'
;	COMDAT ??_C@_0BB@CEPNNIGD@Firework?5Ammo?5?$CFs?$AA@
.rdata	SEGMENT
??_C@_0BB@CEPNNIGD@Firework?5Ammo?5?$CFs?$AA@ DB 'Firework Ammo %s', 00H ; `string'
;	COMDAT ??_C@_0N@HBJBBFHJ@Fire?5Ammo?5?$CFs?$AA@
.rdata	SEGMENT
??_C@_0N@HBJBBFHJ@Fire?5Ammo?5?$CFs?$AA@ DB 'Fire Ammo %s', 00H ; `string'
;	COMDAT ??_C@_0BC@GNEGEFKD@Explosive?5Ammo?5?$CFs?$AA@
.rdata	SEGMENT
??_C@_0BC@GNEGEFKD@Explosive?5Ammo?5?$CFs?$AA@ DB 'Explosive Ammo %s', 00H ; `string'
;	COMDAT ??_C@_09KFFMNOMO@Aimbot?5?$CFs?$AA@
.rdata	SEGMENT
??_C@_09KFFMNOMO@Aimbot?5?$CFs?$AA@ DB 'Aimbot %s', 00H	; `string'
;	COMDAT ??_C@_0BF@HPAHPOE@All?5Weapons?5?$HOr?$HOTaken?$AA@
.rdata	SEGMENT
??_C@_0BF@HPAHPOE@All?5Weapons?5?$HOr?$HOTaken?$AA@ DB 'All Weapons ~r~Ta'
	DB	'ken', 00H					; `string'
;	COMDAT ??_C@_0BF@CEOKPEBN@All?5Weapons?5?$HOg?$HOGiven?$AA@
.rdata	SEGMENT
??_C@_0BF@CEOKPEBN@All?5Weapons?5?$HOg?$HOGiven?$AA@ DB 'All Weapons ~g~G'
	DB	'iven', 00H					; `string'
;	COMDAT ??_C@_0O@DCOKMJEE@Armed?5?$CFi?5Peds?$AA@
.rdata	SEGMENT
??_C@_0O@DCOKMJEE@Armed?5?$CFi?5Peds?$AA@ DB 'Armed %i Peds', 00H ; `string'
;	COMDAT ??_C@_0CC@GDDNKMGM@Unlocked?5?$HOb?$HO?$CFs?$HOw?$HO?8s?5Vehicle?5Door@
.rdata	SEGMENT
??_C@_0CC@GDDNKMGM@Unlocked?5?$HOb?$HO?$CFs?$HOw?$HO?8s?5Vehicle?5Door@ DB 'U'
	DB	'nlocked ~b~%s~w~''s Vehicle Doors', 00H	; `string'
;	COMDAT ??_C@_0CA@GHPCMCGE@Locked?5?$HOb?$HO?$CFs?$HOw?$HO?8s?5Vehicle?5Doors?$AA@
.rdata	SEGMENT
??_C@_0CA@GHPCMCGE@Locked?5?$HOb?$HO?$CFs?$HOw?$HO?8s?5Vehicle?5Doors?$AA@ DB 'L'
	DB	'ocked ~b~%s~w~''s Vehicle Doors', 00H	; `string'
;	COMDAT ??_C@_0BM@OMHCAKGD@Launched?5?$HOb?$HO?$CFs?$HOw?$HO?8s?5Vehicle?$AA@
.rdata	SEGMENT
??_C@_0BM@OMHCAKGD@Launched?5?$HOb?$HO?$CFs?$HOw?$HO?8s?5Vehicle?$AA@ DB 'L'
	DB	'aunched ~b~%s~w~''s Vehicle', 00H		; `string'
;	COMDAT ??_C@_0CA@DJJCEGDP@Knocked?5?$HOb?$HO?$CFs?5?$HOw?$HOoff?5their?5bike?$AA@
.rdata	SEGMENT
??_C@_0CA@DJJCEGDP@Knocked?5?$HOb?$HO?$CFs?5?$HOw?$HOoff?5their?5bike?$AA@ DB 'K'
	DB	'nocked ~b~%s ~w~off their bike', 00H	; `string'
;	COMDAT ??_C@_0BN@JLIEPDKP@?$HOb?$HO?$CFs?5?$HOw?$HOis?5not?5in?5a?5vehicle?$AA@
.rdata	SEGMENT
??_C@_0BN@JLIEPDKP@?$HOb?$HO?$CFs?5?$HOw?$HOis?5not?5in?5a?5vehicle?$AA@ DB '~'
	DB	'b~%s ~w~is not in a vehicle', 00H		; `string'
;	COMDAT ??_C@_0BN@LGPGFJOE@Destroyed?5?$HOb?$HO?$CFs?$HOw?$HO?8s?5Vehicle?$AA@
.rdata	SEGMENT
??_C@_0BN@LGPGFJOE@Destroyed?5?$HOb?$HO?$CFs?$HOw?$HO?8s?5Vehicle?$AA@ DB 'D'
	DB	'estroyed ~b~%s~w~''s Vehicle', 00H		; `string'
;	COMDAT ??_C@_0CG@GLEBHFNP@Unlimited?5Ammo?5?$HOr?$HOTaken?5?$HOw?$HOfrom?5@
.rdata	SEGMENT
??_C@_0CG@GLEBHFNP@Unlimited?5Ammo?5?$HOr?$HOTaken?5?$HOw?$HOfrom?5@ DB 'U'
	DB	'nlimited Ammo ~r~Taken ~w~from ~b~%s', 00H	; `string'
;	COMDAT ??_C@_0CD@GLAHLHML@All?5Weapons?5?$HOr?$HOTaken?5?$HOw?$HOfrom?5?$HOb?$HO@
.rdata	SEGMENT
??_C@_0CD@GLAHLHML@All?5Weapons?5?$HOr?$HOTaken?5?$HOw?$HOfrom?5?$HOb?$HO@ DB 'A'
	DB	'll Weapons ~r~Taken ~w~from ~b~%s', 00H	; `string'
;	COMDAT ??_C@_0CE@LGNBAMFP@Unlimited?5Ammo?5?$HOg?$HOGiven?5?$HOw?$HOto?5?$HOb@
.rdata	SEGMENT
??_C@_0CE@LGNBAMFP@Unlimited?5Ammo?5?$HOg?$HOGiven?5?$HOw?$HOto?5?$HOb@ DB 'U'
	DB	'nlimited Ammo ~g~Given ~w~to ~b~%s', 00H	; `string'
;	COMDAT ??_C@_0CB@BNHLHFPA@All?5Weapons?5?$HOg?$HOGiven?5?$HOw?$HOto?5?$HOb?$HO?$CFs@
.rdata	SEGMENT
??_C@_0CB@BNHLHFPA@All?5Weapons?5?$HOg?$HOGiven?5?$HOw?$HOto?5?$HOb?$HO?$CFs@ DB 'A'
	DB	'll Weapons ~g~Given ~w~to ~b~%s', 00H	; `string'
;	COMDAT ??_C@_0BK@EMAHIGLO@Dropped?5?$HOg?$HO?$CFi?5?$HOw?$HOon?5?$HOb?$HO?$CFs?$AA@
.rdata	SEGMENT
??_C@_0BK@EMAHIGLO@Dropped?5?$HOg?$HO?$CFi?5?$HOw?$HOon?5?$HOb?$HO?$CFs?$AA@ DB 'D'
	DB	'ropped ~g~%i ~w~on ~b~%s', 00H		; `string'
;	COMDAT ??_C@_1BK@BOLNDMKM@C?$AAa?$AAs?$AAh?$AA?5?$AAD?$AAr?$AAo?$AAp?$AAp?$AAe?$AAr?$AA?$AA?$AA@
.rdata	SEGMENT
??_C@_1BK@BOLNDMKM@C?$AAa?$AAs?$AAh?$AA?5?$AAD?$AAr?$AAo?$AAp?$AAp?$AAe?$AAr?$AA?$AA?$AA@ DB 00H
	DB	'C', 00H, 'a', 00H, 's', 00H, 'h', 00H, ' ', 00H, 'D', 00H, 'r'
	DB	00H, 'o', 00H, 'p', 00H, 'p', 00H, 'e', 00H, 'r', 00H, 00H ; `string'
;	COMDAT ??_C@_1KM@LNHCNNFD@B?$AAe?$AAl?$AAo?$AAw?$AA?5?$AAy?$AAo?$AAu?$AA?5?$AAc?$AAa?$AAn?$AA?5?$AAe?$AAn?$AAt?$AAe?$AAr?$AA?5?$AAt?$AAh?$AAe?$AA?5?$AAa?$AAm?$AAo?$AAu?$AAn?$AAt?$AA?5?$AAo?$AA@
.rdata	SEGMENT
??_C@_1KM@LNHCNNFD@B?$AAe?$AAl?$AAo?$AAw?$AA?5?$AAy?$AAo?$AAu?$AA?5?$AAc?$AAa?$AAn?$AA?5?$AAe?$AAn?$AAt?$AAe?$AAr?$AA?5?$AAt?$AAh?$AAe?$AA?5?$AAa?$AAm?$AAo?$AAu?$AAn?$AAt?$AA?5?$AAo?$AA@ DB 00H
	DB	'B', 00H, 'e', 00H, 'l', 00H, 'o', 00H, 'w', 00H, ' ', 00H, 'y'
	DB	00H, 'o', 00H, 'u', 00H, ' ', 00H, 'c', 00H, 'a', 00H, 'n', 00H
	DB	' ', 00H, 'e', 00H, 'n', 00H, 't', 00H, 'e', 00H, 'r', 00H, ' '
	DB	00H, 't', 00H, 'h', 00H, 'e', 00H, ' ', 00H, 'a', 00H, 'm', 00H
	DB	'o', 00H, 'u', 00H, 'n', 00H, 't', 00H, ' ', 00H, 'o', 00H, 'f'
	DB	00H, ' ', 00H, 'c', 00H, 'a', 00H, 's', 00H, 'h', 00H, ' ', 00H
	DB	'y', 00H, 'o', 00H, 'u', 00H, ' ', 00H, 'w', 00H, 'a', 00H, 'n'
	DB	00H, 't', 00H, ' ', 00H, 't', 00H, 'o', 00H, ' ', 00H, 'd', 00H
	DB	'r', 00H, 'o', 00H, 'p', 00H, ' ', 00H, 'o', 00H, 'n', 00H, ' '
	DB	00H, 't', 00H, 'h', 00H, 'e', 00H, ' ', 00H, 'p', 00H, 'l', 00H
	DB	'a', 00H, 'y', 00H, 'e', 00H, 'r', 00H, ' ', 00H, 'o', 00H, 'f'
	DB	00H, ' ', 00H, 'y', 00H, 'o', 00H, 'u', 00H, 'r', 00H, ' ', 00H
	DB	'c', 00H, 'h', 00H, 'o', 00H, 'i', 00H, 'c', 00H, 'e', 00H, '.'
	DB	00H, 00H					; `string'
;	COMDAT ??_C@_0CA@DPBFPALC@Dropped?5?$HOg?$HO$750?0000?5?$HOw?$HOon?5?$HOb?$HO?$CFs?$AA@
.rdata	SEGMENT
??_C@_0CA@DPBFPALC@Dropped?5?$HOg?$HO$750?0000?5?$HOw?$HOon?5?$HOb?$HO?$CFs?$AA@ DB 'D'
	DB	'ropped ~g~$750,000 ~w~on ~b~%s', 00H	; `string'
;	COMDAT ??_C@_0CA@MLFBALIE@Dropped?5?$HOg?$HO$500?0000?5?$HOw?$HOon?5?$HOb?$HO?$CFs?$AA@
.rdata	SEGMENT
??_C@_0CA@MLFBALIE@Dropped?5?$HOg?$HO$500?0000?5?$HOw?$HOon?5?$HOb?$HO?$CFs?$AA@ DB 'D'
	DB	'ropped ~g~$500,000 ~w~on ~b~%s', 00H	; `string'
;	COMDAT ??_C@_0CA@BEJPCAKN@Dropped?5?$HOg?$HO$250?0000?5?$HOw?$HOon?5?$HOb?$HO?$CFs?$AA@
.rdata	SEGMENT
??_C@_0CA@BEJPCAKN@Dropped?5?$HOg?$HO$250?0000?5?$HOw?$HOon?5?$HOb?$HO?$CFs?$AA@ DB 'D'
	DB	'ropped ~g~$250,000 ~w~on ~b~%s', 00H	; `string'
;	COMDAT ??_C@_0CA@IFLMOANN@Dropped?5?$HOg?$HO$100?0000?5?$HOw?$HOon?5?$HOb?$HO?$CFs?$AA@
.rdata	SEGMENT
??_C@_0CA@IFLMOANN@Dropped?5?$HOg?$HO$100?0000?5?$HOw?$HOon?5?$HOb?$HO?$CFs?$AA@ DB 'D'
	DB	'ropped ~g~$100,000 ~w~on ~b~%s', 00H	; `string'
;	COMDAT ??_C@_0BP@CKNFPBPF@Dropped?5?$HOg?$HO$75?0000?5?$HOw?$HOon?5?$HOb?$HO?$CFs?$AA@
.rdata	SEGMENT
??_C@_0BP@CKNFPBPF@Dropped?5?$HOg?$HO$75?0000?5?$HOw?$HOon?5?$HOb?$HO?$CFs?$AA@ DB 'D'
	DB	'ropped ~g~$75,000 ~w~on ~b~%s', 00H		; `string'
;	COMDAT ??_C@_0BP@LKJLJGOD@Dropped?5?$HOg?$HO$50?0000?5?$HOw?$HOon?5?$HOb?$HO?$CFs?$AA@
.rdata	SEGMENT
??_C@_0BP@LKJLJGOD@Dropped?5?$HOg?$HO$50?0000?5?$HOw?$HOon?5?$HOb?$HO?$CFs?$AA@ DB 'D'
	DB	'ropped ~g~$50,000 ~w~on ~b~%s', 00H		; `string'
;	COMDAT ??_C@_0BP@BEFPHMEP@Dropped?5?$HOg?$HO$25?0000?5?$HOw?$HOon?5?$HOb?$HO?$CFs?$AA@
.rdata	SEGMENT
??_C@_0BP@BEFPHMEP@Dropped?5?$HOg?$HO$25?0000?5?$HOw?$HOon?5?$HOb?$HO?$CFs?$AA@ DB 'D'
	DB	'ropped ~g~$25,000 ~w~on ~b~%s', 00H		; `string'
;	COMDAT ??_C@_0BP@FDPDJLAB@Dropped?5?$HOg?$HO$10?0000?5?$HOw?$HOon?5?$HOb?$HO?$CFs?$AA@
.rdata	SEGMENT
??_C@_0BP@FDPDJLAB@Dropped?5?$HOg?$HO$10?0000?5?$HOw?$HOon?5?$HOb?$HO?$CFs?$AA@ DB 'D'
	DB	'ropped ~g~$10,000 ~w~on ~b~%s', 00H		; `string'
;	COMDAT ??_C@_0CB@HBIKNDOH@?$HOb?$HO?$CFs?5?$HOw?$HOis?5an?5?$HOr?$HOSCTV?5admin?$HOw?$HO?$CB@
.rdata	SEGMENT
??_C@_0CB@HBIKNDOH@?$HOb?$HO?$CFs?5?$HOw?$HOis?5an?5?$HOr?$HOSCTV?5admin?$HOw?$HO?$CB@ DB '~'
	DB	'b~%s ~w~is an ~r~SCTV admin~w~!', 00H	; `string'
;	COMDAT ??_C@_0M@OPFIKBEH@Whiplash?5?$CFs?$AA@
.rdata	SEGMENT
??_C@_0M@OPFIKBEH@Whiplash?5?$CFs?$AA@ DB 'Whiplash %s', 00H ; `string'
;	COMDAT ??_C@_0BC@JELAFBCF@Superman?5Punch?5?$CFs?$AA@
.rdata	SEGMENT
??_C@_0BC@JELAFBCF@Superman?5Punch?5?$CFs?$AA@ DB 'Superman Punch %s', 00H ; `string'
;	COMDAT ??_C@_0P@KKDOOBAA@Super?5Speed?5?$CFs?$AA@
.rdata	SEGMENT
??_C@_0P@KKDOOBAA@Super?5Speed?5?$CFs?$AA@ DB 'Super Speed %s', 00H ; `string'
;	COMDAT ??_C@_0O@HGGCBHID@Super?5Jump?5?$CFs?$AA@
.rdata	SEGMENT
??_C@_0O@HGGCBHID@Super?5Jump?5?$CFs?$AA@ DB 'Super Jump %s', 00H ; `string'
;	COMDAT ??_C@_0N@BKNAKEOK@Moses?5Mod?5?$CFs?$AA@
.rdata	SEGMENT
??_C@_0N@BKNAKEOK@Moses?5Mod?5?$CFs?$AA@ DB 'Moses Mod %s', 00H ; `string'
;	COMDAT ??_C@_0BA@OOOFFBPN@Invisibility?5?$CFs?$AA@
.rdata	SEGMENT
??_C@_0BA@OOOFFBPN@Invisibility?5?$CFs?$AA@ DB 'Invisibility %s', 00H ; `string'
;	COMDAT ??_C@_0BB@NHCBLJMC@Invincibility?5?$CFs?$AA@
.rdata	SEGMENT
??_C@_0BB@NHCBLJMC@Invincibility?5?$CFs?$AA@ DB 'Invincibility %s', 00H ; `string'
;	COMDAT ??_C@_11LOCGONAA@?$AA?$AA@
.rdata	SEGMENT
??_C@_11LOCGONAA@?$AA?$AA@ DB 00H, 00H			; `string'
;	COMDAT ??_C@_1BK@EGJNHPOE@M?$AAo?$AAd?$AAe?$AAl?$AA?5?$AAE?$AAd?$AAi?$AAt?$AAo?$AAr?$AA?$AA?$AA@
.rdata	SEGMENT
??_C@_1BK@EGJNHPOE@M?$AAo?$AAd?$AAe?$AAl?$AA?5?$AAE?$AAd?$AAi?$AAt?$AAo?$AAr?$AA?$AA?$AA@ DB 00H
	DB	'M', 00H, 'o', 00H, 'd', 00H, 'e', 00H, 'l', 00H, ' ', 00H, 'E'
	DB	00H, 'd', 00H, 'i', 00H, 't', 00H, 'o', 00H, 'r', 00H, 00H ; `string'
;	COMDAT ??_C@_1PE@OKCHFDE@E?$AAn?$AAt?$AAe?$AAr?$AA?5?$AAt?$AAh?$AAe?$AA?5?$AAn?$AAa?$AAm?$AAe?$AA?5?$AAo?$AAf?$AA?5?$AAt?$AAh?$AAe?$AA?5?$AAm?$AAo?$AAd?$AAe?$AAl?$AA?5?$AAy?$AAo?$AAu?$AA?8?$AA@
.rdata	SEGMENT
??_C@_1PE@OKCHFDE@E?$AAn?$AAt?$AAe?$AAr?$AA?5?$AAt?$AAh?$AAe?$AA?5?$AAn?$AAa?$AAm?$AAe?$AA?5?$AAo?$AAf?$AA?5?$AAt?$AAh?$AAe?$AA?5?$AAm?$AAo?$AAd?$AAe?$AAl?$AA?5?$AAy?$AAo?$AAu?$AA?8?$AA@ DB 00H
	DB	'E', 00H, 'n', 00H, 't', 00H, 'e', 00H, 'r', 00H, ' ', 00H, 't'
	DB	00H, 'h', 00H, 'e', 00H, ' ', 00H, 'n', 00H, 'a', 00H, 'm', 00H
	DB	'e', 00H, ' ', 00H, 'o', 00H, 'f', 00H, ' ', 00H, 't', 00H, 'h'
	DB	00H, 'e', 00H, ' ', 00H, 'm', 00H, 'o', 00H, 'd', 00H, 'e', 00H
	DB	'l', 00H, ' ', 00H, 'y', 00H, 'o', 00H, 'u', 00H, '''', 00H, 'd'
	DB	00H, ' ', 00H, 'l', 00H, 'i', 00H, 'k', 00H, 'e', 00H, ' ', 00H
	DB	'y', 00H, 'o', 00H, 'u', 00H, 'r', 00H, ' ', 00H, 'p', 00H, 'l'
	DB	00H, 'a', 00H, 'y', 00H, 'e', 00H, 'r', 00H, ' ', 00H, 'm', 00H
	DB	'o', 00H, 'd', 00H, 'e', 00H, 'l', 00H, ' ', 00H, 't', 00H, 'o'
	DB	00H, ' ', 00H, 'c', 00H, 'h', 00H, 'a', 00H, 'n', 00H, 'g', 00H
	DB	'e', 00H, ' ', 00H, 't', 00H, 'o', 00H, '.', 00H, 0aH, 00H, 'L'
	DB	00H, 'i', 00H, 's', 00H, 't', 00H, ' ', 00H, 'o', 00H, 'f', 00H
	DB	' ', 00H, 'v', 00H, 'a', 00H, 'l', 00H, 'i', 00H, 'd', 00H, ' '
	DB	00H, 'm', 00H, 'o', 00H, 'd', 00H, 'e', 00H, 'l', 00H, 's', 00H
	DB	' ', 00H, 'a', 00H, 'r', 00H, 'e', 00H, ' ', 00H, 'a', 00H, 'v'
	DB	00H, 'a', 00H, 'i', 00H, 'l', 00H, 'a', 00H, 'b', 00H, 'l', 00H
	DB	'e', 00H, ' ', 00H, 'o', 00H, 'n', 00H, ' ', 00H, '7', 00H, 'S'
	DB	00H, ' ', 00H, 'a', 00H, 'n', 00H, 'd', 00H, ' ', 00H, 'G', 00H
	DB	'T', 00H, 'A', 00H, 'F', 00H, '.', 00H, 00H	; `string'
;	COMDAT ??_C@_09EBCBNAHL@Noclip?5?$CFs?$AA@
.rdata	SEGMENT
??_C@_09EBCBNAHL@Noclip?5?$CFs?$AA@ DB 'Noclip %s', 00H	; `string'
;	COMDAT ??_C@_0N@IABFIML@No?5Wanted?5?$CFs?$AA@
.rdata	SEGMENT
??_C@_0N@IABFIML@No?5Wanted?5?$CFs?$AA@ DB 'No Wanted %s', 00H ; `string'
;	COMDAT ??_C@_0L@EFONFGGP@?$HOrDisabled?$AA@
.rdata	SEGMENT
??_C@_0L@EFONFGGP@?$HOrDisabled?$AA@ DB '~rDisabled', 00H ; `string'
;	COMDAT ??_C@_0P@COONEDD@FPS?5Counter?5?$CFs?$AA@
.rdata	SEGMENT
??_C@_0P@COONEDD@FPS?5Counter?5?$CFs?$AA@ DB 'FPS Counter %s', 00H ; `string'
;	COMDAT ??_C@_0BJ@KBKCGLDD@First?5Person?5?$HOr?$HODisabled?$AA@
.rdata	SEGMENT
??_C@_0BJ@KBKCGLDD@First?5Person?5?$HOr?$HODisabled?$AA@ DB 'First Person'
	DB	' ~r~Disabled', 00H				; `string'
;	COMDAT ??_C@_0BI@OAGDIOB@First?5Person?5?$HOg?$HOEnabled?$AA@
.rdata	SEGMENT
??_C@_0BI@OAGDIOB@First?5Person?5?$HOg?$HOEnabled?$AA@ DB 'First Person ~'
	DB	'g~Enabled', 00H				; `string'
;	COMDAT ??_C@_06FMAPMOMN@ESP?5?$CFs?$AA@
.rdata	SEGMENT
??_C@_06FMAPMOMN@ESP?5?$CFs?$AA@ DB 'ESP %s', 00H	; `string'
;	COMDAT ??_C@_0M@IIOCABEP@?$HOr?$HODisabled?$AA@
.rdata	SEGMENT
??_C@_0M@IIOCABEP@?$HOr?$HODisabled?$AA@ DB '~r~Disabled', 00H ; `string'
;	COMDAT ??_C@_0L@JHKFNMJI@?$HOg?$HOEnabled?$AA@
.rdata	SEGMENT
??_C@_0L@JHKFNMJI@?$HOg?$HOEnabled?$AA@ DB '~g~Enabled', 00H ; `string'
;	COMDAT ??_C@_0FO@JPNGCEHB@Zombies?5?$HOg?$HOActivated?$HOw?$HO?0?5you?5can@
.rdata	SEGMENT
??_C@_0FO@JPNGCEHB@Zombies?5?$HOg?$HOActivated?$HOw?$HO?0?5you?5can@ DB 'Z'
	DB	'ombies ~g~Activated~w~, you cannot use the menu until zombies'
	DB	' are deactivated (when you die)', 00H	; `string'
;	COMDAT ??_C@_07GIKBJEHN@Menu?5?$CFs?$AA@
.rdata	SEGMENT
??_C@_07GIKBJEHN@Menu?5?$CFs?$AA@ DB 'Menu %s', 00H	; `string'
;	COMDAT ??_C@_09LEMKKCBA@?$HOr?$HOClosed?$AA@
.rdata	SEGMENT
??_C@_09LEMKKCBA@?$HOr?$HOClosed?$AA@ DB '~r~Closed', 00H ; `string'
;	COMDAT ??_C@_09JOKJKFJ@?$HOg?$HOOpened?$AA@
.rdata	SEGMENT
??_C@_09JOKJKFJ@?$HOg?$HOOpened?$AA@ DB '~g~Opened', 00H ; `string'
;	COMDAT ??_C@_05OFOKCHBJ@Yacht?$AA@
.rdata	SEGMENT
??_C@_05OFOKCHBJ@Yacht?$AA@ DB 'Yacht', 00H		; `string'
;	COMDAT ??_C@_09GCBIJJBH@Weed?5Farm?$AA@
.rdata	SEGMENT
??_C@_09GCBIJJBH@Weed?5Farm?$AA@ DB 'Weed Farm', 00H	; `string'
;	COMDAT ??_C@_08DFAAPNDP@Waypoint?$AA@
.rdata	SEGMENT
??_C@_08DFAAPNDP@Waypoint?$AA@ DB 'Waypoint', 00H	; `string'
;	COMDAT ??_C@_0O@PBKBMKJE@Vinewood?5Sign?$AA@
.rdata	SEGMENT
??_C@_0O@PBKBMKJE@Vinewood?5Sign?$AA@ DB 'Vinewood Sign', 00H ; `string'
;	COMDAT ??_C@_0BE@JGGIJFFN@Underwater?5WW2?5Tank?$AA@
.rdata	SEGMENT
??_C@_0BE@JGGIJFFN@Underwater?5WW2?5Tank?$AA@ DB 'Underwater WW2 Tank', 00H ; `string'
;	COMDAT ??_C@_0P@NMJGBFCC@Underwater?5UFO?$AA@
.rdata	SEGMENT
??_C@_0P@NMJGBFCC@Underwater?5UFO?$AA@ DB 'Underwater UFO', 00H ; `string'
;	COMDAT ??_C@_0BB@MGFJHHHK@Underwater?5Hatch?$AA@
.rdata	SEGMENT
??_C@_0BB@MGFJHHHK@Underwater?5Hatch?$AA@ DB 'Underwater Hatch', 00H ; `string'
;	COMDAT ??_C@_0N@CLPENDJ@Torture?5Room?$AA@
.rdata	SEGMENT
??_C@_0N@CLPENDJ@Torture?5Room?$AA@ DB 'Torture Room', 00H ; `string'
;	COMDAT ??_C@_0BG@LEFKCOBJ@Strip?5Club?5?$CIdj?5booth?$CJ?$AA@
.rdata	SEGMENT
??_C@_0BG@LEFKCOBJ@Strip?5Club?5?$CIdj?5booth?$CJ?$AA@ DB 'Strip Club (dj'
	DB	' booth)', 00H				; `string'
;	COMDAT ??_C@_0P@GGBJNHLN@Slaughterhouse?$AA@
.rdata	SEGMENT
??_C@_0P@GGBJNHLN@Slaughterhouse?$AA@ DB 'Slaughterhouse', 00H ; `string'
;	COMDAT ??_C@_0BA@JCIDCCIH@Playboy?5Mansion?$AA@
.rdata	SEGMENT
??_C@_0BA@JCIDCCIH@Playboy?5Mansion?$AA@ DB 'Playboy Mansion', 00H ; `string'
;	COMDAT ??_C@_0BD@BNDPHCIO@North?5Yankton?5Bank?$AA@
.rdata	SEGMENT
??_C@_0BD@BNDPHCIO@North?5Yankton?5Bank?$AA@ DB 'North Yankton Bank', 00H ; `string'
;	COMDAT ??_C@_0O@KMLCKJCK@North?5Yankton?$AA@
.rdata	SEGMENT
??_C@_0O@KMLCKJCK@North?5Yankton?$AA@ DB 'North Yankton', 00H ; `string'
;	COMDAT ??_C@_0BD@NLJKEPFP@NOOSE?5Headquarters?$AA@
.rdata	SEGMENT
??_C@_0BD@NLJKEPFP@NOOSE?5Headquarters?$AA@ DB 'NOOSE Headquarters', 00H ; `string'
;	COMDAT ??_C@_0BC@PMGHBPLJ@Merryweather?5Dock?$AA@
.rdata	SEGMENT
??_C@_0BC@PMGHBPLJ@Merryweather?5Dock?$AA@ DB 'Merryweather Dock', 00H ; `string'
;	COMDAT ??_C@_0BC@NODEEBNB@LifeInvader?5Lobby?$AA@
.rdata	SEGMENT
??_C@_0BC@NODEEBNB@LifeInvader?5Lobby?$AA@ DB 'LifeInvader Lobby', 00H ; `string'
;	COMDAT ??_C@_0P@LNFGDLIG@Lester?8s?5House?$AA@
.rdata	SEGMENT
??_C@_0P@LNFGDLIG@Lester?8s?5House?$AA@ DB 'Lester''s House', 00H ; `string'
;	COMDAT ??_C@_0O@BMJJNEEL@Jewelry?5Store?$AA@
.rdata	SEGMENT
??_C@_0O@BMJJNEEL@Jewelry?5Store?$AA@ DB 'Jewelry Store', 00H ; `string'
;	COMDAT ??_C@_0BE@DCCLKEFK@IAA?5Building?5?$CIroof?$CJ?$AA@
.rdata	SEGMENT
??_C@_0BE@DCCLKEFK@IAA?5Building?5?$CIroof?$CJ?$AA@ DB 'IAA Building (roo'
	DB	'f)', 00H					; `string'
;	COMDAT ??_C@_0BG@LIGFGJEN@IAA?5Building?5?$CIoffice?$CJ?$AA@
.rdata	SEGMENT
??_C@_0BG@LIGFGJEN@IAA?5Building?5?$CIoffice?$CJ?$AA@ DB 'IAA Building (o'
	DB	'ffice)', 00H				; `string'
;	COMDAT ??_C@_0BD@BJFAOCJH@Humane?5Labs?5Tunnel?$AA@
.rdata	SEGMENT
??_C@_0BD@BJFAOCJH@Humane?5Labs?5Tunnel?$AA@ DB 'Humane Labs Tunnel', 00H ; `string'
;	COMDAT ??_C@_0O@LKAAPEJE@Heist?5Carrier?$AA@
.rdata	SEGMENT
??_C@_0O@LKAAPEJE@Heist?5Carrier?$AA@ DB 'Heist Carrier', 00H ; `string'
;	COMDAT ??_C@_0BN@COAAGPHC@Fort?5Zancudo?5ATC?5?$CItop?5floor?$CJ?$AA@
.rdata	SEGMENT
??_C@_0BN@COAAGPHC@Fort?5Zancudo?5ATC?5?$CItop?5floor?$CJ?$AA@ DB 'Fort Z'
	DB	'ancudo ATC (top floor)', 00H		; `string'
;	COMDAT ??_C@_0BM@GAAMLOMJ@Fort?5Zancudo?5ATC?5?$CIentrance?$CJ?$AA@
.rdata	SEGMENT
??_C@_0BM@GAAMLOMJ@Fort?5Zancudo?5ATC?5?$CIentrance?$CJ?$AA@ DB 'Fort Zan'
	DB	'cudo ATC (entrance)', 00H			; `string'
;	COMDAT ??_C@_0BJ@PNCOKMPA@FIB?5Building?5?$CItop?5floor?$CJ?$AA@
.rdata	SEGMENT
??_C@_0BJ@PNCOKMPA@FIB?5Building?5?$CItop?5floor?$CJ?$AA@ DB 'FIB Buildin'
	DB	'g (top floor)', 00H				; `string'
;	COMDAT ??_C@_0BE@KNJDBEJM@FIB?5Building?5?$CIroof?$CJ?$AA@
.rdata	SEGMENT
??_C@_0BE@KNJDBEJM@FIB?5Building?5?$CIroof?$CJ?$AA@ DB 'FIB Building (roo'
	DB	'f)', 00H					; `string'
;	COMDAT ??_C@_0BF@JBPNEJFF@FIB?5Building?5?$CIlobby?$CJ?$AA@
.rdata	SEGMENT
??_C@_0BF@JBPNEJFF@FIB?5Building?5?$CIlobby?$CJ?$AA@ DB 'FIB Building (lo'
	DB	'bby)', 00H					; `string'
;	COMDAT ??_C@_0BB@MBOBNKIB@Epsilon?5Building?$AA@
.rdata	SEGMENT
??_C@_0BB@MBOBNKIB@Epsilon?5Building?$AA@ DB 'Epsilon Building', 00H ; `string'
;	COMDAT ??_C@_0O@EFFEFDEI@Cluckin?8?5Bell?$AA@
.rdata	SEGMENT
??_C@_0O@EFFEFDEI@Cluckin?8?5Bell?$AA@ DB 'Cluckin'' Bell', 00H ; `string'
;	COMDAT ??_C@_06IMKICAEO@Casino?$AA@
.rdata	SEGMENT
??_C@_06IMKICAEO@Casino?$AA@ DB 'Casino', 00H		; `string'
;	COMDAT ??_C@_0L@HCMGMGNG@Cargo?5Ship?$AA@
.rdata	SEGMENT
??_C@_0L@HCMGMGNG@Cargo?5Ship?$AA@ DB 'Cargo Ship', 00H	; `string'
;	COMDAT ??_C@_0BE@JGHIEKL@Ammu?9Nation?5?$CIrange?$CJ?$AA@
.rdata	SEGMENT
??_C@_0BE@JGHIEKL@Ammu?9Nation?5?$CIrange?$CJ?$AA@ DB 'Ammu-Nation (range'
	DB	')', 00H					; `string'
;	COMDAT ??_C@_0BF@CINKIPAP@Ammu?9Nation?5?$CIoffice?$CJ?$AA@
.rdata	SEGMENT
??_C@_0BF@CINKIPAP@Ammu?9Nation?5?$CIoffice?$CJ?$AA@ DB 'Ammu-Nation (off'
	DB	'ice)', 00H					; `string'
;	COMDAT ??_C@_0BA@CFBLDFDE@Airport?5?$CIstrip?$CJ?$AA@
.rdata	SEGMENT
??_C@_0BA@CFBLDFDE@Airport?5?$CIstrip?$CJ?$AA@ DB 'Airport (strip)', 00H ; `string'
;	COMDAT ??_C@_0BD@LKEOCFGK@Airport?5?$CIentrance?$CJ?$AA@
.rdata	SEGMENT
??_C@_0BD@LKEOCFGK@Airport?5?$CIentrance?$CJ?$AA@ DB 'Airport (entrance)', 00H ; `string'
;	COMDAT ??_C@_0N@CBMEEMPC@10ft?5Infront?$AA@
.rdata	SEGMENT
??_C@_0N@CBMEEMPC@10ft?5Infront?$AA@ DB '10ft Infront', 00H ; `string'
;	COMDAT ??_C@_07GJFEPIJN@Thunder?$AA@
.rdata	SEGMENT
??_C@_07GJFEPIJN@Thunder?$AA@ DB 'Thunder', 00H		; `string'
;	COMDAT ??_C@_0L@BHCGBIGO@Snow?5Light?$AA@
.rdata	SEGMENT
??_C@_0L@BHCGBIGO@Snow?5Light?$AA@ DB 'Snow Light', 00H	; `string'
;	COMDAT ??_C@_04LOGCFOOF@Snow?$AA@
.rdata	SEGMENT
??_C@_04LOGCFOOF@Snow?$AA@ DB 'Snow', 00H		; `string'
;	COMDAT ??_C@_04OGBFODFK@Smog?$AA@
.rdata	SEGMENT
??_C@_04OGBFODFK@Smog?$AA@ DB 'Smog', 00H		; `string'
;	COMDAT ??_C@_04EEOMLCKJ@Rain?$AA@
.rdata	SEGMENT
??_C@_04EEOMLCKJ@Rain?$AA@ DB 'Rain', 00H		; `string'
;	COMDAT ??_C@_08KNGKIHBI@Overcast?$AA@
.rdata	SEGMENT
??_C@_08KNGKIHBI@Overcast?$AA@ DB 'Overcast', 00H	; `string'
;	COMDAT ??_C@_07GJJCKENN@Neutral?$AA@
.rdata	SEGMENT
??_C@_07GJJCKENN@Neutral?$AA@ DB 'Neutral', 00H		; `string'
;	COMDAT ??_C@_05JJMKIHBB@Foggy?$AA@
.rdata	SEGMENT
??_C@_05JJMKIHBB@Foggy?$AA@ DB 'Foggy', 00H		; `string'
;	COMDAT ??_C@_0M@EGGFKMIN@Extra?5Sunny?$AA@
.rdata	SEGMENT
??_C@_0M@EGGFKMIN@Extra?5Sunny?$AA@ DB 'Extra Sunny', 00H ; `string'
;	COMDAT ??_C@_05KLNNFPJP@Cloud?$AA@
.rdata	SEGMENT
??_C@_05KLNNFPJP@Cloud?$AA@ DB 'Cloud', 00H		; `string'
;	COMDAT ??_C@_08MOECMOLG@Clearing?$AA@
.rdata	SEGMENT
??_C@_08MOECMOLG@Clearing?$AA@ DB 'Clearing', 00H	; `string'
;	COMDAT ??_C@_05MDNHABIA@Clear?$AA@
.rdata	SEGMENT
??_C@_05MDNHABIA@Clear?$AA@ DB 'Clear', 00H		; `string'
;	COMDAT ??_C@_08LMFNCICA@Blizzard?$AA@
.rdata	SEGMENT
??_C@_08LMFNCICA@Blizzard?$AA@ DB 'Blizzard', 00H	; `string'
;	COMDAT ??_C@_0BC@BAIDEKEO@Straighten?5Object?$AA@
.rdata	SEGMENT
??_C@_0BC@BAIDEKEO@Straighten?5Object?$AA@ DB 'Straighten Object', 00H ; `string'
;	COMDAT ??_C@_0BD@OHMIJIAL@Snap?5to?5the?5Ground?$AA@
.rdata	SEGMENT
??_C@_0BD@OHMIJIAL@Snap?5to?5the?5Ground?$AA@ DB 'Snap to the Ground', 00H ; `string'
;	COMDAT ??_C@_0O@POOJIPCG@Move?5Backward?$AA@
.rdata	SEGMENT
??_C@_0O@POOJIPCG@Move?5Backward?$AA@ DB 'Move Backward', 00H ; `string'
;	COMDAT ??_C@_0N@LJCOILHO@Move?5Forward?$AA@
.rdata	SEGMENT
??_C@_0N@LJCOILHO@Move?5Forward?$AA@ DB 'Move Forward', 00H ; `string'
;	COMDAT ??_C@_0L@DEFDNAK@Move?5Right?$AA@
.rdata	SEGMENT
??_C@_0L@DEFDNAK@Move?5Right?$AA@ DB 'Move Right', 00H	; `string'
;	COMDAT ??_C@_09NGAEBCJG@Move?5Left?$AA@
.rdata	SEGMENT
??_C@_09NGAEBCJG@Move?5Left?$AA@ DB 'Move Left', 00H	; `string'
;	COMDAT ??_C@_09CEAAIKKP@Move?5Down?$AA@
.rdata	SEGMENT
??_C@_09CEAAIKKP@Move?5Down?$AA@ DB 'Move Down', 00H	; `string'
;	COMDAT ??_C@_07DMGIOHNE@Move?5Up?$AA@
.rdata	SEGMENT
??_C@_07DMGIOHNE@Move?5Up?$AA@ DB 'Move Up', 00H	; `string'
;	COMDAT ??_C@_0O@LFDHAFJA@Decrease?5Roll?$AA@
.rdata	SEGMENT
??_C@_0O@LFDHAFJA@Decrease?5Roll?$AA@ DB 'Decrease Roll', 00H ; `string'
;	COMDAT ??_C@_0O@OFAEMKGI@Increase?5Roll?$AA@
.rdata	SEGMENT
??_C@_0O@OFAEMKGI@Increase?5Roll?$AA@ DB 'Increase Roll', 00H ; `string'
;	COMDAT ??_C@_0P@BOHCJAI@Decrease?5Pitch?$AA@
.rdata	SEGMENT
??_C@_0P@BOHCJAI@Decrease?5Pitch?$AA@ DB 'Decrease Pitch', 00H ; `string'
;	COMDAT ??_C@_0P@LCNBGAOJ@Increase?5Pitch?$AA@
.rdata	SEGMENT
??_C@_0P@LCNBGAOJ@Increase?5Pitch?$AA@ DB 'Increase Pitch', 00H ; `string'
;	COMDAT ??_C@_0BB@NDOHGAHO@Decrease?5Heading?$AA@
.rdata	SEGMENT
??_C@_0BB@NDOHGAHO@Decrease?5Heading?$AA@ DB 'Decrease Heading', 00H ; `string'
;	COMDAT ??_C@_0BB@JLICOINB@Increase?5Heading?$AA@
.rdata	SEGMENT
??_C@_0BB@JLICOINB@Increase?5Heading?$AA@ DB 'Increase Heading', 00H ; `string'
;	COMDAT ??_C@_0BA@DKNMIDNC@Get?5Object?5Hash?$AA@
.rdata	SEGMENT
??_C@_0BA@DKNMIDNC@Get?5Object?5Hash?$AA@ DB 'Get Object Hash', 00H ; `string'
;	COMDAT ??_C@_0BH@CCADFLJD@Get?5Object?5Coordinates?$AA@
.rdata	SEGMENT
??_C@_0BH@CCADFLJD@Get?5Object?5Coordinates?$AA@ DB 'Get Object Coordinat'
	DB	'es', 00H					; `string'
;	COMDAT ??_C@_0O@FALBAFKE@Delete?5Object?$AA@
.rdata	SEGMENT
??_C@_0O@FALBAFKE@Delete?5Object?$AA@ DB 'Delete Object', 00H ; `string'
;	COMDAT ??_C@_0M@HKADKGLJ@Copy?5Object?$AA@
.rdata	SEGMENT
??_C@_0M@HKADKGLJ@Copy?5Object?$AA@ DB 'Copy Object', 00H ; `string'
;	COMDAT ??_C@_0BC@FCHNBDMK@Toggle?5Forge?5Mode?$AA@
.rdata	SEGMENT
??_C@_0BC@FCHNBDMK@Toggle?5Forge?5Mode?$AA@ DB 'Toggle Forge Mode', 00H ; `string'
;	COMDAT ??_C@_0P@NMKDKJMF@Object?5Spawner?$AA@
.rdata	SEGMENT
??_C@_0P@NMKDKJMF@Object?5Spawner?$AA@ DB 'Object Spawner', 00H ; `string'
;	COMDAT ??_C@_0O@HBGCPJMJ@Object?5Editor?$AA@
.rdata	SEGMENT
??_C@_0O@HBGCPJMJ@Object?5Editor?$AA@ DB 'Object Editor', 00H ; `string'
;	COMDAT ??_C@_07HOMNOOKI@Weather?$AA@
.rdata	SEGMENT
??_C@_07HOMNOOKI@Weather?$AA@ DB 'Weather', 00H		; `string'
;	COMDAT ??_C@_09EHNDBPFO@Timescale?$AA@
.rdata	SEGMENT
??_C@_09EHNDBPFO@Timescale?$AA@ DB 'Timescale', 00H	; `string'
;	COMDAT ??_C@_07JMGDFJEK@Gravity?$AA@
.rdata	SEGMENT
??_C@_07JMGDFJEK@Gravity?$AA@ DB 'Gravity', 00H		; `string'
;	COMDAT ??_C@_05BIHKHNOB@Forge?$AA@
.rdata	SEGMENT
??_C@_05BIHKHNOB@Forge?$AA@ DB 'Forge', 00H		; `string'
;	COMDAT ??_C@_05BDEBDABC@Youga?$AA@
.rdata	SEGMENT
??_C@_05BDEBDABC@Youga?$AA@ DB 'Youga', 00H		; `string'
;	COMDAT ??_C@_08PEDJCILN@Taco?5Van?$AA@
.rdata	SEGMENT
??_C@_08PEDJCILN@Taco?5Van?$AA@ DB 'Taco Van', 00H	; `string'
;	COMDAT ??_C@_06OFALEGBG@Surfer?$AA@
.rdata	SEGMENT
??_C@_06OFALEGBG@Surfer?$AA@ DB 'Surfer', 00H		; `string'
;	COMDAT ??_C@_06ILBNDFPC@Speedo?$AA@
.rdata	SEGMENT
??_C@_06ILBNDFPC@Speedo?$AA@ DB 'Speedo', 00H		; `string'
;	COMDAT ??_C@_05EBJBKIPJ@Rumpo?$AA@
.rdata	SEGMENT
??_C@_05EBJBKIPJ@Rumpo?$AA@ DB 'Rumpo', 00H		; `string'
;	COMDAT ??_C@_04NODPAEOJ@Pony?$AA@
.rdata	SEGMENT
??_C@_04NODPAEOJ@Pony?$AA@ DB 'Pony', 00H		; `string'
;	COMDAT ??_C@_0P@CMILAPKL@Paradise?5?$CIDLC?$CJ?$AA@
.rdata	SEGMENT
??_C@_0P@CMILAPKL@Paradise?5?$CIDLC?$CJ?$AA@ DB 'Paradise (DLC)', 00H ; `string'
;	COMDAT ??_C@_07GMIIJNPE@Minivan?$AA@
.rdata	SEGMENT
??_C@_07GMIIJNPE@Minivan?$AA@ DB 'Minivan', 00H		; `string'
;	COMDAT ??_C@_07OMJLKGCG@Journey?$AA@
.rdata	SEGMENT
??_C@_07OMJLKGCG@Journey?$AA@ DB 'Journey', 00H		; `string'
;	COMDAT ??_C@_0N@NHEJAEGJ@Gang?5Burrito?$AA@
.rdata	SEGMENT
??_C@_0N@NHEJAEGJ@Gang?5Burrito?$AA@ DB 'Gang Burrito', 00H ; `string'
;	COMDAT ??_C@_09FMJJPDEG@Clown?5Van?$AA@
.rdata	SEGMENT
??_C@_09FMJJPDEG@Clown?5Van?$AA@ DB 'Clown Van', 00H	; `string'
;	COMDAT ??_C@_06INFAJCEF@Camper?$AA@
.rdata	SEGMENT
??_C@_06INFAJCEF@Camper?$AA@ DB 'Camper', 00H		; `string'
;	COMDAT ??_C@_07HNHOAKIC@Burrito?$AA@
.rdata	SEGMENT
??_C@_07HNHOAKIC@Burrito?$AA@ DB 'Burrito', 00H		; `string'
;	COMDAT ??_C@_08FODAPCHG@Boxville?$AA@
.rdata	SEGMENT
??_C@_08FODAPCHG@Boxville?$AA@ DB 'Boxville', 00H	; `string'
;	COMDAT ??_C@_06IAICJIHL@Bobcat?$AA@
.rdata	SEGMENT
??_C@_06IAICJIHL@Bobcat?$AA@ DB 'Bobcat', 00H		; `string'
;	COMDAT ??_C@_05FJPACFEB@Bison?$AA@
.rdata	SEGMENT
??_C@_05FJPACFEB@Bison?$AA@ DB 'Bison', 00H		; `string'
;	COMDAT ??_C@_0BG@DCPFGBEF@Utility?5Truck?5?$CIsmall?$CJ?$AA@
.rdata	SEGMENT
??_C@_0BG@DCPFGBEF@Utility?5Truck?5?$CIsmall?$CJ?$AA@ DB 'Utility Truck ('
	DB	'small)', 00H				; `string'
;	COMDAT ??_C@_0O@GAPPAHAN@Utility?5Truck?$AA@
.rdata	SEGMENT
??_C@_0O@GAPPAHAN@Utility?5Truck?$AA@ DB 'Utility Truck', 00H ; `string'
;	COMDAT ??_C@_07JHKDGNGI@Tractor?$AA@
.rdata	SEGMENT
??_C@_07JHKDGNGI@Tractor?$AA@ DB 'Tractor', 00H		; `string'
;	COMDAT ??_C@_0BG@JKPGMJGH@Towtruck?5?$CIsmall?$CJ?5?$CISP?$CJ?$AA@
.rdata	SEGMENT
??_C@_0BG@JKPGMJGH@Towtruck?5?$CIsmall?$CJ?5?$CISP?$CJ?$AA@ DB 'Towtruck '
	DB	'(small) (SP)', 00H				; `string'
;	COMDAT ??_C@_0O@LPELJIED@Towtruck?5?$CISP?$CJ?$AA@
.rdata	SEGMENT
??_C@_0O@LPELJIED@Towtruck?5?$CISP?$CJ?$AA@ DB 'Towtruck (SP)', 00H ; `string'
;	COMDAT ??_C@_0M@FIMEEHOO@Scrap?5Truck?$AA@
.rdata	SEGMENT
??_C@_0M@FIMEEHOO@Scrap?5Truck?$AA@ DB 'Scrap Truck', 00H ; `string'
;	COMDAT ??_C@_06PNFBIENN@Sadler?$AA@
.rdata	SEGMENT
??_C@_06PNFBIENN@Sadler?$AA@ DB 'Sadler', 00H		; `string'
;	COMDAT ??_C@_06MBOBOFIN@Ripley?$AA@
.rdata	SEGMENT
??_C@_06MBOBOFIN@Ripley?$AA@ DB 'Ripley', 00H		; `string'
;	COMDAT ??_C@_0L@OFEIPMMI@Lawn?5Mower?$AA@
.rdata	SEGMENT
??_C@_0L@OFEIPMMI@Lawn?5Mower?$AA@ DB 'Lawn Mower', 00H	; `string'
;	COMDAT ??_C@_08LJJEDEPF@Forklift?$AA@
.rdata	SEGMENT
??_C@_08LJJEDEPF@Forklift?$AA@ DB 'Forklift', 00H	; `string'
;	COMDAT ??_C@_0M@IJCGNOEJ@Fieldmaster?$AA@
.rdata	SEGMENT
??_C@_0M@IJCGNOEJ@Fieldmaster?$AA@ DB 'Fieldmaster', 00H ; `string'
;	COMDAT ??_C@_07LGKNILDF@Docktug?$AA@
.rdata	SEGMENT
??_C@_07LGKNILDF@Docktug?$AA@ DB 'Docktug', 00H		; `string'
;	COMDAT ??_C@_05GGMELJHE@Caddy?$AA@
.rdata	SEGMENT
??_C@_05GGMELJHE@Caddy?$AA@ DB 'Caddy', 00H		; `string'
;	COMDAT ??_C@_06LANNNDGB@Airtug?$AA@
.rdata	SEGMENT
??_C@_06LANNNDGB@Airtug?$AA@ DB 'Airtug', 00H		; `string'
;	COMDAT ??_C@_07HOLEKJLA@Serrano?$AA@
.rdata	SEGMENT
??_C@_07HOLEKJLA@Serrano?$AA@ DB 'Serrano', 00H		; `string'
;	COMDAT ??_C@_08BDLIMIFF@Seminole?$AA@
.rdata	SEGMENT
??_C@_08BDLIMIFF@Seminole?$AA@ DB 'Seminole', 00H	; `string'
;	COMDAT ??_C@_06CDDBDILM@Rocoto?$AA@
.rdata	SEGMENT
??_C@_06CDDBDILM@Rocoto?$AA@ DB 'Rocoto', 00H		; `string'
;	COMDAT ??_C@_06GJMFONGK@Radius?$AA@
.rdata	SEGMENT
??_C@_06GJMFONGK@Radius?$AA@ DB 'Radius', 00H		; `string'
;	COMDAT ??_C@_07LPGNOABP@Patriot?$AA@
.rdata	SEGMENT
??_C@_07LPGNOABP@Patriot?$AA@ DB 'Patriot', 00H		; `string'
;	COMDAT ??_C@_04LPBHBPME@Mesa?$AA@
.rdata	SEGMENT
??_C@_04LPBHBPME@Mesa?$AA@ DB 'Mesa', 00H		; `string'
;	COMDAT ??_C@_0M@PEBICIDH@Landstalker?$AA@
.rdata	SEGMENT
??_C@_0M@PEBICIDH@Landstalker?$AA@ DB 'Landstalker', 00H ; `string'
;	COMDAT ??_C@_0BA@HHEPLNBN@Huntley?5S?5?$CIDLC?$CJ?$AA@
.rdata	SEGMENT
??_C@_0BA@HHEPLNBN@Huntley?5S?5?$CIDLC?$CJ?$AA@ DB 'Huntley S (DLC)', 00H ; `string'
;	COMDAT ??_C@_08CAJGGOBD@Habanero?$AA@
.rdata	SEGMENT
??_C@_08CAJGGOBD@Habanero?$AA@ DB 'Habanero', 00H	; `string'
;	COMDAT ??_C@_07OFCIKNFJ@Gresley?$AA@
.rdata	SEGMENT
??_C@_07OFCIKNFJ@Gresley?$AA@ DB 'Gresley', 00H		; `string'
;	COMDAT ??_C@_07NCDMOCLG@Granger?$AA@
.rdata	SEGMENT
??_C@_07NCDMOCLG@Granger?$AA@ DB 'Granger', 00H		; `string'
;	COMDAT ??_C@_04EIOCNPFN@FQ?52?$AA@
.rdata	SEGMENT
??_C@_04EIOCNPFN@FQ?52?$AA@ DB 'FQ 2', 00H		; `string'
;	COMDAT ??_C@_06DMFOFMKM@Dubsta?$AA@
.rdata	SEGMENT
??_C@_06DMFOFMKM@Dubsta?$AA@ DB 'Dubsta', 00H		; `string'
;	COMDAT ??_C@_09BAHEMPEP@Cavalcade?$AA@
.rdata	SEGMENT
??_C@_09BAHEMPEP@Cavalcade?$AA@ DB 'Cavalcade', 00H	; `string'
;	COMDAT ??_C@_09EBIFIOGJ@BeeJay?5XL?$AA@
.rdata	SEGMENT
??_C@_09EBIFIOGJ@BeeJay?5XL?$AA@ DB 'BeeJay XL', 00H	; `string'
;	COMDAT ??_C@_06MIIFIGG@Baller?$AA@
.rdata	SEGMENT
??_C@_06MIIFIGG@Baller?$AA@ DB 'Baller', 00H		; `string'
;	COMDAT ??_C@_0P@NIAODMNO@Zentorno?5?$CIDLC?$CJ?$AA@
.rdata	SEGMENT
??_C@_0P@NIAODMNO@Zentorno?5?$CIDLC?$CJ?$AA@ DB 'Zentorno (DLC)', 00H ; `string'
;	COMDAT ??_C@_06GKHNCEMP@Voltic?$AA@
.rdata	SEGMENT
??_C@_06GKHNCEMP@Voltic?$AA@ DB 'Voltic', 00H		; `string'
;	COMDAT ??_C@_05CPFMJMDJ@Vacca?$AA@
.rdata	SEGMENT
??_C@_05CPFMJMDJ@Vacca?$AA@ DB 'Vacca', 00H		; `string'
;	COMDAT ??_C@_0BA@KLHDFJFH@Turismo?5R?5?$CIDLC?$CJ?$AA@
.rdata	SEGMENT
??_C@_0BA@KLHDFJFH@Turismo?5R?5?$CIDLC?$CJ?$AA@ DB 'Turismo R (DLC)', 00H ; `string'
;	COMDAT ??_C@_09EHOJABCL@T20?5?$CIDLC?$CJ?$AA@
.rdata	SEGMENT
??_C@_09EHOJABCL@T20?5?$CIDLC?$CJ?$AA@ DB 'T20 (DLC)', 00H ; `string'
;	COMDAT ??_C@_0N@FMPBPJMK@Osiris?5?$CIDLC?$CJ?$AA@
.rdata	SEGMENT
??_C@_0N@FMPBPJMK@Osiris?5?$CIDLC?$CJ?$AA@ DB 'Osiris (DLC)', 00H ; `string'
;	COMDAT ??_C@_08BADKLIKD@Infernus?$AA@
.rdata	SEGMENT
??_C@_08BADKLIKD@Infernus?$AA@ DB 'Infernus', 00H	; `string'
;	COMDAT ??_C@_09MGLMGCNL@Entity?5XF?$AA@
.rdata	SEGMENT
??_C@_09MGLMGCNL@Entity?5XF?$AA@ DB 'Entity XF', 00H	; `string'
;	COMDAT ??_C@_07IMBBPGLN@Cheetah?$AA@
.rdata	SEGMENT
??_C@_07IMBBPGLN@Cheetah?$AA@ DB 'Cheetah', 00H		; `string'
;	COMDAT ??_C@_06MCJFLPGN@Bullet?$AA@
.rdata	SEGMENT
??_C@_06MCJFLPGN@Bullet?$AA@ DB 'Bullet', 00H		; `string'
;	COMDAT ??_C@_05BNKCEPD@Adder?$AA@
.rdata	SEGMENT
??_C@_05BNKCEPD@Adder?$AA@ DB 'Adder', 00H		; `string'
;	COMDAT ??_C@_06MJNLPBDP@Z?9Type?$AA@
.rdata	SEGMENT
??_C@_06MJNLPBDP@Z?9Type?$AA@ DB 'Z-Type', 00H		; `string'
;	COMDAT ??_C@_0O@OLOBKEBF@Zornado?5?$CIRET?$CJ?$AA@
.rdata	SEGMENT
??_C@_0O@OLOBKEBF@Zornado?5?$CIRET?$CJ?$AA@ DB 'Zornado (RET)', 00H ; `string'
;	COMDAT ??_C@_0BC@GGHJKJPE@Stirling?5GT?5?$CIDLC?$CJ?$AA@
.rdata	SEGMENT
??_C@_0BC@GGHJKJPE@Stirling?5GT?5?$CIDLC?$CJ?$AA@ DB 'Stirling GT (DLC)', 00H ; `string'
;	COMDAT ??_C@_0BA@FKIFKJGG@Stinger?5GT?5?$CION?$CJ?$AA@
.rdata	SEGMENT
??_C@_0BA@FKIFKJGG@Stinger?5GT?5?$CION?$CJ?$AA@ DB 'Stinger GT (ON)', 00H ; `string'
;	COMDAT ??_C@_07KFEOGKDA@Stinger?$AA@
.rdata	SEGMENT
??_C@_07KFEOGKDA@Stinger?$AA@ DB 'Stinger', 00H		; `string'
;	COMDAT ??_C@_0BA@PKPAFOLJ@Roosevelt?5?$CIDLC?$CJ?$AA@
.rdata	SEGMENT
??_C@_0BA@PKPAFOLJ@Roosevelt?5?$CIDLC?$CJ?$AA@ DB 'Roosevelt (DLC)', 00H ; `string'
;	COMDAT ??_C@_0O@MKFHGCEE@Pigalle?5?$CIDLC?$CJ?$AA@
.rdata	SEGMENT
??_C@_0O@MKFHGCEE@Pigalle?5?$CIDLC?$CJ?$AA@ DB 'Pigalle (DLC)', 00H ; `string'
;	COMDAT ??_C@_06MFIKGNFK@Peyote?$AA@
.rdata	SEGMENT
??_C@_06MFIKGNFK@Peyote?$AA@ DB 'Peyote', 00H		; `string'
;	COMDAT ??_C@_06CNIDLHD@Monroe?$AA@
.rdata	SEGMENT
??_C@_06CNIDLHD@Monroe?$AA@ DB 'Monroe', 00H		; `string'
;	COMDAT ??_C@_06BPNAANEB@Manana?$AA@
.rdata	SEGMENT
??_C@_06BPNAANEB@Manana?$AA@ DB 'Manana', 00H		; `string'
;	COMDAT ??_C@_06JHGIJNKO@JB?5700?$AA@
.rdata	SEGMENT
??_C@_06JHGIJNKO@JB?5700?$AA@ DB 'JB 700', 00H		; `string'
;	COMDAT ??_C@_0BH@NINGPDGK@Coquette?5Classic?5?$CIDLC?$CJ?$AA@
.rdata	SEGMENT
??_C@_0BH@NINGPDGK@Coquette?5Classic?5?$CIDLC?$CJ?$AA@ DB 'Coquette Class'
	DB	'ic (DLC)', 00H				; `string'
;	COMDAT ??_C@_0BB@EIMDMIPE@Casco?5?$CIDLC?5?1?5ON?$CJ?$AA@
.rdata	SEGMENT
??_C@_0BB@EIMDMIPE@Casco?5?$CIDLC?5?1?5ON?$CJ?$AA@ DB 'Casco (DLC / ON)', 00H ; `string'
;	COMDAT ??_C@_0N@BIILOLJP@Surano?5?$CIRET?$CJ?$AA@
.rdata	SEGMENT
??_C@_0N@BIILOLJP@Surano?5?$CIRET?$CJ?$AA@ DB 'Surano (RET)', 00H ; `string'
;	COMDAT ??_C@_06CBLFAFGA@Sultan?$AA@
.rdata	SEGMENT
??_C@_06CBLFAFGA@Sultan?$AA@ DB 'Sultan', 00H		; `string'
;	COMDAT ??_C@_0BJ@DBNOKADI@Sprunk?5Buffalo?5?$CIEV?5?1?5RP?$CJ?$AA@
.rdata	SEGMENT
??_C@_0BJ@DBNOKADI@Sprunk?5Buffalo?5?$CIEV?5?1?5RP?$CJ?$AA@ DB 'Sprunk Bu'
	DB	'ffalo (EV / RP)', 00H			; `string'
;	COMDAT ??_C@_0L@DODEAOKD@Schwartzer?$AA@
.rdata	SEGMENT
??_C@_0L@DODEAOKD@Schwartzer?$AA@ DB 'Schwartzer', 00H	; `string'
;	COMDAT ??_C@_0BN@FBJFMLJC@Rapid?5GT?5?$CIConvertible?$CJ?5?$CIRET?$CJ?$AA@
.rdata	SEGMENT
??_C@_0BN@FBJFMLJC@Rapid?5GT?5?$CIConvertible?$CJ?5?$CIRET?$CJ?$AA@ DB 'R'
	DB	'apid GT (Convertible) (RET)', 00H		; `string'
;	COMDAT ??_C@_08PNACNBJL@Rapid?5GT?$AA@
.rdata	SEGMENT
??_C@_08PNACNBJL@Rapid?5GT?$AA@ DB 'Rapid GT', 00H	; `string'
;	COMDAT ??_C@_08KINHMFJO@Penumbra?$AA@
.rdata	SEGMENT
??_C@_08KINHMFJO@Penumbra?$AA@ DB 'Penumbra', 00H	; `string'
;	COMDAT ??_C@_0BJ@JKOFGFDM@Massacro?5?$CIRacecar?$CJ?5?$CIDLC?$CJ?$AA@
.rdata	SEGMENT
??_C@_0BJ@JKOFGFDM@Massacro?5?$CIRacecar?$CJ?5?$CIDLC?$CJ?$AA@ DB 'Massac'
	DB	'ro (Racecar) (DLC)', 00H			; `string'
;	COMDAT ??_C@_0P@EJJMHMAO@Massacro?5?$CIDLC?$CJ?$AA@
.rdata	SEGMENT
??_C@_0P@EJJMHMAO@Massacro?5?$CIDLC?$CJ?$AA@ DB 'Massacro (DLC)', 00H ; `string'
;	COMDAT ??_C@_0BM@LDKFOJAC@Kuruma?5?$CIArmored?$CJ?5?$CIDLC?5?1?5ON?$CJ?$AA@
.rdata	SEGMENT
??_C@_0BM@LDKFOJAC@Kuruma?5?$CIArmored?$CJ?5?$CIDLC?5?1?5ON?$CJ?$AA@ DB 'K'
	DB	'uruma (Armored) (DLC / ON)', 00H		; `string'
;	COMDAT ??_C@_0BC@ODMDOOCL@Kuruma?5?$CIDLC?5?1?5ON?$CJ?$AA@
.rdata	SEGMENT
??_C@_0BC@ODMDOOCL@Kuruma?5?$CIDLC?5?1?5ON?$CJ?$AA@ DB 'Kuruma (DLC / ON)'
	DB	00H						; `string'
;	COMDAT ??_C@_0P@CFMNKENE@Khamelion?5?$CION?$CJ?$AA@
.rdata	SEGMENT
??_C@_0P@CFMNKENE@Khamelion?5?$CION?$CJ?$AA@ DB 'Khamelion (ON)', 00H ; `string'
;	COMDAT ??_C@_0BH@PIDIPCNG@Jester?5?$CIRacecar?$CJ?5?$CIDLC?$CJ?$AA@
.rdata	SEGMENT
??_C@_0BH@PIDIPCNG@Jester?5?$CIRacecar?$CJ?5?$CIDLC?$CJ?$AA@ DB 'Jester ('
	DB	'Racecar) (DLC)', 00H			; `string'
;	COMDAT ??_C@_0N@MJCCBNEH@Jester?5?$CIDLC?$CJ?$AA@
.rdata	SEGMENT
??_C@_0N@MJCCBNEH@Jester?5?$CIDLC?$CJ?$AA@ DB 'Jester (DLC)', 00H ; `string'
;	COMDAT ??_C@_0BO@KIAMHGAF@Go?5Go?5Monkey?5Blista?5?$CIEV?5?1?5RP?$CJ?$AA@
.rdata	SEGMENT
??_C@_0BO@KIAMHGAF@Go?5Go?5Monkey?5Blista?5?$CIEV?5?1?5RP?$CJ?$AA@ DB 'Go'
	DB	' Go Monkey Blista (EV / RP)', 00H		; `string'
;	COMDAT ??_C@_04DBCECEB@Futo?$AA@
.rdata	SEGMENT
??_C@_04DBCECEB@Futo?$AA@ DB 'Futo', 00H		; `string'
;	COMDAT ??_C@_08CKLJGMDI@Fusilade?$AA@
.rdata	SEGMENT
??_C@_08CKLJGMDI@Fusilade?$AA@ DB 'Fusilade', 00H	; `string'
;	COMDAT ??_C@_0BA@NKKLIJJK@Furore?5GT?5?$CIDLC?$CJ?$AA@
.rdata	SEGMENT
??_C@_0BA@NKKLIJJK@Furore?5GT?5?$CIDLC?$CJ?$AA@ DB 'Furore GT (DLC)', 00H ; `string'
;	COMDAT ??_C@_07IIFCFDNH@Feltzer?$AA@
.rdata	SEGMENT
??_C@_07IIFCFDNH@Feltzer?$AA@ DB 'Feltzer', 00H		; `string'
;	COMDAT ??_C@_0P@CJIJAFBM@Elegy?5RH8?5?$CIR?$CK?$CJ?$AA@
.rdata	SEGMENT
??_C@_0P@CJIJAFBM@Elegy?5RH8?5?$CIR?$CK?$CJ?$AA@ DB 'Elegy RH8 (R*)', 00H ; `string'
;	COMDAT ??_C@_08BICPLBPB@Coquette?$AA@
.rdata	SEGMENT
??_C@_08BICPLBPB@Coquette?$AA@ DB 'Coquette', 00H	; `string'
;	COMDAT ??_C@_05BAJAFMOF@Comet?$AA@
.rdata	SEGMENT
??_C@_05BAJAFMOF@Comet?$AA@ DB 'Comet', 00H		; `string'
;	COMDAT ??_C@_0BD@FKOMICFF@Carbonizzare?5?$CIRET?$CJ?$AA@
.rdata	SEGMENT
??_C@_0BD@FKOMICFF@Carbonizzare?5?$CIRET?$CJ?$AA@ DB 'Carbonizzare (RET)', 00H ; `string'
;	COMDAT ??_C@_09JHBIPPPM@Buffalo?5S?$AA@
.rdata	SEGMENT
??_C@_09JHBIPPPM@Buffalo?5S?$AA@ DB 'Buffalo S', 00H	; `string'
;	COMDAT ??_C@_07KHNIKBGK@Buffalo?$AA@
.rdata	SEGMENT
??_C@_07KHNIKBGK@Buffalo?$AA@ DB 'Buffalo', 00H		; `string'
;	COMDAT ??_C@_0BE@NNDKPGJN@Blista?5Compact?5?$CIEV?$CJ?$AA@
.rdata	SEGMENT
??_C@_0BE@NNDKPGJN@Blista?5Compact?5?$CIEV?$CJ?$AA@ DB 'Blista Compact (E'
	DB	'V)', 00H					; `string'
;	COMDAT ??_C@_07PICMBPKH@Banshee?$AA@
.rdata	SEGMENT
??_C@_07PICMBPKH@Banshee?$AA@ DB 'Banshee', 00H		; `string'
;	COMDAT ??_C@_0M@BGPIMLEI@Alpha?5?$CIDLC?$CJ?$AA@
.rdata	SEGMENT
??_C@_0M@BGPIMLEI@Alpha?5?$CIDLC?$CJ?$AA@ DB 'Alpha (DLC)', 00H ; `string'
;	COMDAT ??_C@_0BA@EPFFJJJC@9F?5Cabrio?5?$CIRET?$CJ?$AA@
.rdata	SEGMENT
??_C@_0BA@EPFFJJJC@9F?5Cabrio?5?$CIRET?$CJ?$AA@ DB '9F Cabrio (RET)', 00H ; `string'
;	COMDAT ??_C@_02INCHBAHB@9F?$AA@
.rdata	SEGMENT
??_C@_02INCHBAHB@9F?$AA@ DB '9F', 00H			; `string'
;	COMDAT ??_C@_0M@MJOPNGDA@Trashmaster?$AA@
.rdata	SEGMENT
??_C@_0M@MJOPNGDA@Trashmaster?$AA@ DB 'Trashmaster', 00H ; `string'
;	COMDAT ??_C@_07CJLFHBHN@Tourbus?$AA@
.rdata	SEGMENT
??_C@_07CJLFHBHN@Tourbus?$AA@ DB 'Tourbus', 00H		; `string'
;	COMDAT ??_C@_04JJAJBIIJ@Taxi?$AA@
.rdata	SEGMENT
??_C@_04JJAJBIIJ@Taxi?$AA@ DB 'Taxi', 00H		; `string'
;	COMDAT ??_C@_0BD@FNCBOOKC@Rental?5Shuttle?5Bus?$AA@
.rdata	SEGMENT
??_C@_0BD@FNCBOOKC@Rental?5Shuttle?5Bus?$AA@ DB 'Rental Shuttle Bus', 00H ; `string'
;	COMDAT ??_C@_08LLLFKGEF@Dashound?$AA@
.rdata	SEGMENT
??_C@_08LLLFKGEF@Dashound?$AA@ DB 'Dashound', 00H	; `string'
;	COMDAT ??_C@_03LJIODANL@Bus?$AA@
.rdata	SEGMENT
??_C@_03LJIODANL@Bus?$AA@ DB 'Bus', 00H			; `string'
;	COMDAT ??_C@_0M@ECBBPPDM@Airport?5Bus?$AA@
.rdata	SEGMENT
??_C@_0M@ECBBPPDM@Airport?5Bus?$AA@ DB 'Airport Bus', 00H ; `string'
;	COMDAT ??_C@_0L@GKJCJMFK@Washington?$AA@
.rdata	SEGMENT
??_C@_0L@GKJCJMFK@Washington?$AA@ DB 'Washington', 00H	; `string'
;	COMDAT ??_C@_0P@EGPKPIMN@Warrener?5?$CIDLC?$CJ?$AA@
.rdata	SEGMENT
??_C@_0P@EGPKPIMN@Warrener?5?$CIDLC?$CJ?$AA@ DB 'Warrener (DLC)', 00H ; `string'
;	COMDAT ??_C@_09GCMLPNDG@Tailgater?$AA@
.rdata	SEGMENT
??_C@_09GCMLPNDG@Tailgater?$AA@ DB 'Tailgater', 00H	; `string'
;	COMDAT ??_C@_05GBDBGBOK@Surge?$AA@
.rdata	SEGMENT
??_C@_05GBDBGBOK@Surge?$AA@ DB 'Surge', 00H		; `string'
;	COMDAT ??_C@_0O@JGBPMOJP@Super?5Diamond?$AA@
.rdata	SEGMENT
??_C@_0O@JGBPMOJP@Super?5Diamond?$AA@ DB 'Super Diamond', 00H ; `string'
;	COMDAT ??_C@_07ENIDNHGB@Stretch?$AA@
.rdata	SEGMENT
??_C@_07ENIDNHGB@Stretch?$AA@ DB 'Stretch', 00H		; `string'
;	COMDAT ??_C@_07NNNPFKCG@Stratum?$AA@
.rdata	SEGMENT
??_C@_07NNNPFKCG@Stratum?$AA@ DB 'Stratum', 00H		; `string'
;	COMDAT ??_C@_07KJMCJPGO@Stanier?$AA@
.rdata	SEGMENT
??_C@_07KJMCJPGO@Stanier?$AA@ DB 'Stanier', 00H		; `string'
;	COMDAT ??_C@_08NGIGEIFO@Schafter?$AA@
.rdata	SEGMENT
??_C@_08NGIGEIFO@Schafter?$AA@ DB 'Schafter', 00H	; `string'
;	COMDAT ??_C@_0N@JNIDMNDF@Romero?5House?$AA@
.rdata	SEGMENT
??_C@_0N@JNIDMNDF@Romero?5House?$AA@ DB 'Romero House', 00H ; `string'
;	COMDAT ??_C@_06NNHDOJOO@Regina?$AA@
.rdata	SEGMENT
??_C@_06NNHDOJOO@Regina?$AA@ DB 'Regina', 00H		; `string'
;	COMDAT ??_C@_05CFOFHCJG@Primo?$AA@
.rdata	SEGMENT
??_C@_05CFOFHCJG@Primo?$AA@ DB 'Primo', 00H		; `string'
;	COMDAT ??_C@_07JIKMJFHB@Premier?$AA@
.rdata	SEGMENT
??_C@_07JIKMJFHB@Premier?$AA@ DB 'Premier', 00H		; `string'
;	COMDAT ??_C@_08CGAIKJCC@Intruder?$AA@
.rdata	SEGMENT
??_C@_08CGAIKJCC@Intruder?$AA@ DB 'Intruder', 00H	; `string'
;	COMDAT ??_C@_05OOEBDDIB@Ingot?$AA@
.rdata	SEGMENT
??_C@_05OOEBDDIB@Ingot?$AA@ DB 'Ingot', 00H		; `string'
;	COMDAT ??_C@_0P@JPFMBNAC@Glendale?5?$CIDLC?$CJ?$AA@
.rdata	SEGMENT
??_C@_0P@JPFMBNAC@Glendale?5?$CIDLC?$CJ?$AA@ DB 'Glendale (DLC)', 00H ; `string'
;	COMDAT ??_C@_08DDKOFHFH@Fugitive?$AA@
.rdata	SEGMENT
??_C@_08DDKOFHFH@Fugitive?$AA@ DB 'Fugitive', 00H	; `string'
;	COMDAT ??_C@_07NEIFMLLI@Emperor?$AA@
.rdata	SEGMENT
??_C@_07NEIFMLLI@Emperor?$AA@ DB 'Emperor', 00H		; `string'
;	COMDAT ??_C@_08BOPCKDPP@Asterope?$AA@
.rdata	SEGMENT
??_C@_08BOPCKDPP@Asterope?$AA@ DB 'Asterope', 00H	; `string'
;	COMDAT ??_C@_04BHDOCFEE@Asea?$AA@
.rdata	SEGMENT
??_C@_04BHDOCFEE@Asea?$AA@ DB 'Asea', 00H		; `string'
;	COMDAT ??_C@_0BK@OOCJIKIA@Xero?5Blimp?5?$CIEV?5?1?5RP?5?1?5SP?$CJ?$AA@
.rdata	SEGMENT
??_C@_0BK@OOCJIKIA@Xero?5Blimp?5?$CIEV?5?1?5RP?5?1?5SP?$CJ?$AA@ DB 'Xero '
	DB	'Blimp (EV / RP / SP)', 00H			; `string'
;	COMDAT ??_C@_0N@NNAKBLBG@Vestra?5?$CIDLC?$CJ?$AA@
.rdata	SEGMENT
??_C@_0N@NNAKBLBG@Vestra?5?$CIDLC?$CJ?$AA@ DB 'Vestra (DLC)', 00H ; `string'
;	COMDAT ??_C@_05DGKBLKGB@Velum?$AA@
.rdata	SEGMENT
??_C@_05DGKBLKGB@Velum?$AA@ DB 'Velum', 00H		; `string'
;	COMDAT ??_C@_05BLDGNBHE@Titan?$AA@
.rdata	SEGMENT
??_C@_05BLDGNBHE@Titan?$AA@ DB 'Titan', 00H		; `string'
;	COMDAT ??_C@_06HJEKKKAD@Shamal?$AA@
.rdata	SEGMENT
??_C@_06HJEKKKAD@Shamal?$AA@ DB 'Shamal', 00H		; `string'
;	COMDAT ??_C@_0M@CIFHDJIE@P?9996?5LAZER?$AA@
.rdata	SEGMENT
??_C@_0M@CIFHDJIE@P?9996?5LAZER?$AA@ DB 'P-996 LAZER', 00H ; `string'
;	COMDAT ??_C@_0N@HDFNNOEP@Miljet?5?$CIDLC?$CJ?$AA@
.rdata	SEGMENT
??_C@_0N@HDFNNOEP@Miljet?5?$CIDLC?$CJ?$AA@ DB 'Miljet (DLC)', 00H ; `string'
;	COMDAT ??_C@_08GCEGHHDN@Mammatus?$AA@
.rdata	SEGMENT
??_C@_08GCEGHHDN@Mammatus?$AA@ DB 'Mammatus', 00H	; `string'
;	COMDAT ??_C@_07PDAOGHGN@Mallard?$AA@
.rdata	SEGMENT
??_C@_07PDAOGHGN@Mallard?$AA@ DB 'Mallard', 00H		; `string'
;	COMDAT ??_C@_0BD@MJGHCJGI@Luxor?5Deluxe?5?$CIDLC?$CJ?$AA@
.rdata	SEGMENT
??_C@_0BD@MJGHCJGI@Luxor?5Deluxe?5?$CIDLC?$CJ?$AA@ DB 'Luxor Deluxe (DLC)'
	DB	00H						; `string'
;	COMDAT ??_C@_05PHJMOEOO@Luxor?$AA@
.rdata	SEGMENT
??_C@_05PHJMOEOO@Luxor?$AA@ DB 'Luxor', 00H		; `string'
;	COMDAT ??_C@_08NFDJEIML@Jet?5?$CISP?$CJ?$AA@
.rdata	SEGMENT
??_C@_08NFDJEIML@Jet?5?$CISP?$CJ?$AA@ DB 'Jet (SP)', 00H ; `string'
;	COMDAT ??_C@_0BB@LGEFDMMA@Hydra?5?$CIDLC?5?1?5ON?$CJ?$AA@
.rdata	SEGMENT
??_C@_0BB@LGEFDMMA@Hydra?5?$CIDLC?5?1?5ON?$CJ?$AA@ DB 'Hydra (DLC / ON)', 00H ; `string'
;	COMDAT ??_C@_06IAACFCPC@Duster?$AA@
.rdata	SEGMENT
??_C@_06IAACFCPC@Duster?$AA@ DB 'Duster', 00H		; `string'
;	COMDAT ??_C@_0P@EKEMDNJL@Dodo?5?$CIEV?5?1?5RP?$CJ?$AA@
.rdata	SEGMENT
??_C@_0P@EKEMDNJL@Dodo?5?$CIEV?5?1?5RP?$CJ?$AA@ DB 'Dodo (EV / RP)', 00H ; `string'
;	COMDAT ??_C@_09FBEOAPCE@Cuban?5800?$AA@
.rdata	SEGMENT
??_C@_09FBEOAPCE@Cuban?5800?$AA@ DB 'Cuban 800', 00H	; `string'
;	COMDAT ??_C@_0BB@DKFALLHB@Cargo?5Plane?5?$CISP?$CJ?$AA@
.rdata	SEGMENT
??_C@_0BB@DKFALLHB@Cargo?5Plane?5?$CISP?$CJ?$AA@ DB 'Cargo Plane (SP)', 00H ; `string'
;	COMDAT ??_C@_0M@MIPCFENB@Besra?5?$CIDLC?$CJ?$AA@
.rdata	SEGMENT
??_C@_0M@MIPCFENB@Besra?5?$CIDLC?$CJ?$AA@ DB 'Besra (DLC)', 00H ; `string'
;	COMDAT ??_C@_0BH@DAJCIKHD@Atomic?5Blimp?5?$CICE?5?1?5SP?$CJ?$AA@
.rdata	SEGMENT
??_C@_0BH@DAJCIKHD@Atomic?5Blimp?5?$CICE?5?1?5SP?$CJ?$AA@ DB 'Atomic Blim'
	DB	'p (CE / SP)', 00H				; `string'
;	COMDAT ??_C@_0BE@ECHGGNML@The?5Liberator?5?$CIDLC?$CJ?$AA@
.rdata	SEGMENT
??_C@_0BE@ECHGGNML@The?5Liberator?5?$CIDLC?$CJ?$AA@ DB 'The Liberator (DL'
	DB	'C)', 00H					; `string'
;	COMDAT ??_C@_0BF@GNCMECE@Technical?5?$CIDLC?5?1?5ON?$CJ?$AA@
.rdata	SEGMENT
??_C@_0BF@GNCMECE@Technical?5?$CIDLC?5?1?5ON?$CJ?$AA@ DB 'Technical (DLC '
	DB	'/ ON)', 00H					; `string'
;	COMDAT ??_C@_0BC@NJOMHKE@Space?5Docker?5?$CISP?$CJ?$AA@
.rdata	SEGMENT
??_C@_0BC@NJOMHKE@Space?5Docker?5?$CISP?$CJ?$AA@ DB 'Space Docker (SP)', 00H ; `string'
;	COMDAT ??_C@_0M@IECGLMGM@Sandking?5XL?$AA@
.rdata	SEGMENT
??_C@_0M@IECGLMGM@Sandking?5XL?$AA@ DB 'Sandking XL', 00H ; `string'
;	COMDAT ??_C@_0N@EBLNONNI@Sandking?5SWB?$AA@
.rdata	SEGMENT
??_C@_0N@EBLNONNI@Sandking?5SWB?$AA@ DB 'Sandking SWB', 00H ; `string'
;	COMDAT ??_C@_05EINCBNHF@Rebel?$AA@
.rdata	SEGMENT
??_C@_05EINCBNHF@Rebel?$AA@ DB 'Rebel', 00H		; `string'
;	COMDAT ??_C@_0L@LNGJEHCN@Rancher?5XL?$AA@
.rdata	SEGMENT
??_C@_0L@LNGJEHCN@Rancher?5XL?$AA@ DB 'Rancher XL', 00H	; `string'
;	COMDAT ??_C@_0BE@CHJFCNIN@Mesa?5?$CIMerryweather?$CJ?$AA@
.rdata	SEGMENT
??_C@_0BE@CHJFCNIN@Mesa?5?$CIMerryweather?$CJ?$AA@ DB 'Mesa (Merryweather'
	DB	')', 00H					; `string'
;	COMDAT ??_C@_0BD@FIDNGPIN@Marshall?5?$CIEV?5?1?5RP?$CJ?$AA@
.rdata	SEGMENT
??_C@_0BD@FIDNGPIN@Marshall?5?$CIEV?5?1?5RP?$CJ?$AA@ DB 'Marshall (EV / R'
	DB	'P)', 00H					; `string'
;	COMDAT ??_C@_0P@KBOFEPEP@Kalahari?5?$CIDLC?$CJ?$AA@
.rdata	SEGMENT
??_C@_0P@KBOFEPEP@Kalahari?5?$CIDLC?$CJ?$AA@ DB 'Kalahari (DLC)', 00H ; `string'
;	COMDAT ??_C@_0BM@IKBFGEAF@Insurgen?5Pick?9Up?5?$CIDLC?5?1?5ON?$CJ?$AA@
.rdata	SEGMENT
??_C@_0BM@IKBFGEAF@Insurgen?5Pick?9Up?5?$CIDLC?5?1?5ON?$CJ?$AA@ DB 'Insur'
	DB	'gen Pick-Up (DLC / ON)', 00H		; `string'
;	COMDAT ??_C@_0BF@CBHOHJCO@Insurgent?5?$CIDLC?5?1?5ON?$CJ?$AA@
.rdata	SEGMENT
??_C@_0BF@CBHOHJCO@Insurgent?5?$CIDLC?5?1?5ON?$CJ?$AA@ DB 'Insurgent (DLC'
	DB	' / ON)', 00H				; `string'
;	COMDAT ??_C@_09ODHHHKC@Injection?$AA@
.rdata	SEGMENT
??_C@_09ODHHHKC@Injection?$AA@ DB 'Injection', 00H	; `string'
;	COMDAT ??_C@_0P@DCMLJDPK@Hot?5Rod?5Blazer?$AA@
.rdata	SEGMENT
??_C@_0P@DCMLJDPK@Hot?5Rod?5Blazer?$AA@ DB 'Hot Rod Blazer', 00H ; `string'
;	COMDAT ??_C@_0L@BIJECJED@Duneloader?$AA@
.rdata	SEGMENT
??_C@_0L@BIJECJED@Duneloader?$AA@ DB 'Duneloader', 00H	; `string'
;	COMDAT ??_C@_0L@EHKILDKP@Dune?5Buggy?$AA@
.rdata	SEGMENT
??_C@_0L@EHKILDKP@Dune?5Buggy?$AA@ DB 'Dune Buggy', 00H	; `string'
;	COMDAT ??_C@_0BB@INKMDLMJ@Dubsta?56x6?5?$CIDLC?$CJ?$AA@
.rdata	SEGMENT
??_C@_0BB@INKMDLMJ@Dubsta?56x6?5?$CIDLC?$CJ?$AA@ DB 'Dubsta 6x6 (DLC)', 00H ; `string'
;	COMDAT ??_C@_0O@GNOGKGPN@Brawler?5?$CIDLC?$CJ?$AA@
.rdata	SEGMENT
??_C@_0O@GNOGKGPN@Brawler?5?$CIDLC?$CJ?$AA@ DB 'Brawler (DLC)', 00H ; `string'
;	COMDAT ??_C@_05FBHADPIF@Bodhi?$AA@
.rdata	SEGMENT
??_C@_05FBHADPIF@Bodhi?$AA@ DB 'Bodhi', 00H		; `string'
;	COMDAT ??_C@_0BB@PFFEGDBD@Blazer?5Lifeguard?$AA@
.rdata	SEGMENT
??_C@_0BB@PFFEGDBD@Blazer?5Lifeguard?$AA@ DB 'Blazer Lifeguard', 00H ; `string'
;	COMDAT ??_C@_06DNPEIHEK@Blazer?$AA@
.rdata	SEGMENT
??_C@_06DNPEIHEK@Blazer?$AA@ DB 'Blazer', 00H		; `string'
;	COMDAT ??_C@_0M@HAHFPFDA@Bifta?5?$CIDLC?$CJ?$AA@
.rdata	SEGMENT
??_C@_0M@HAHFPFDA@Bifta?5?$CIDLC?$CJ?$AA@ DB 'Bifta (DLC)', 00H ; `string'
;	COMDAT ??_C@_06NFPMDKDO@Voodoo?$AA@
.rdata	SEGMENT
??_C@_06NFPMDKDO@Voodoo?$AA@ DB 'Voodoo', 00H		; `string'
;	COMDAT ??_C@_06JPJHMFKE@Vigero?$AA@
.rdata	SEGMENT
??_C@_06JPJHMFKE@Vigero?$AA@ DB 'Vigero', 00H		; `string'
;	COMDAT ??_C@_0M@NBOJGOKH@Virgo?5?$CIDLC?$CJ?$AA@
.rdata	SEGMENT
??_C@_0M@NBOJGOKH@Virgo?5?$CIDLC?$CJ?$AA@ DB 'Virgo (DLC)', 00H ; `string'
;	COMDAT ??_C@_0O@HJKDAIEP@Stallion?5?$CIEV?$CJ?$AA@
.rdata	SEGMENT
??_C@_0O@HJKDAIEP@Stallion?5?$CIEV?$CJ?$AA@ DB 'Stallion (EV)', 00H ; `string'
;	COMDAT ??_C@_0O@NCJHCJIL@Slamvan?5?$CIDLC?$CJ?$AA@
.rdata	SEGMENT
??_C@_0O@NCJHCJIL@Slamvan?5?$CIDLC?$CJ?$AA@ DB 'Slamvan (DLC)', 00H ; `string'
;	COMDAT ??_C@_0M@MMEJHFKG@Sabre?5Turbo?$AA@
.rdata	SEGMENT
??_C@_0M@MMEJHFKG@Sabre?5Turbo?$AA@ DB 'Sabre Turbo', 00H ; `string'
;	COMDAT ??_C@_06JBPIMDNO@Ruiner?$AA@
.rdata	SEGMENT
??_C@_06JBPIMDNO@Ruiner?$AA@ DB 'Ruiner', 00H		; `string'
;	COMDAT ??_C@_0BL@FEIPGBAM@Redwood?5Gauntlet?5?$CIEV?5?1?5RP?$CJ?$AA@
.rdata	SEGMENT
??_C@_0BL@FEIPGBAM@Redwood?5Gauntlet?5?$CIEV?5?1?5RP?$CJ?$AA@ DB 'Redwood'
	DB	' Gauntlet (EV / RP)', 00H			; `string'
;	COMDAT ??_C@_0BA@KPLMBONL@Rat?9Truck?5?$CIDLC?$CJ?$AA@
.rdata	SEGMENT
??_C@_0BA@KPLMBONL@Rat?9Truck?5?$CIDLC?$CJ?$AA@ DB 'Rat-Truck (DLC)', 00H ; `string'
;	COMDAT ??_C@_0L@HMLJCOHC@Rat?9Loader?$AA@
.rdata	SEGMENT
??_C@_0L@HMLJCOHC@Rat?9Loader?$AA@ DB 'Rat-Loader', 00H	; `string'
;	COMDAT ??_C@_0BP@OLKOCADN@Pisswasser?5Dominator?5?$CIEV?5?1?5RP?$CJ?$AA@
.rdata	SEGMENT
??_C@_0BP@OLKOCADN@Pisswasser?5Dominator?5?$CIEV?5?1?5RP?$CJ?$AA@ DB 'Pis'
	DB	'swasser Dominator (EV / RP)', 00H		; `string'
;	COMDAT ??_C@_07BBCBAOFC@Picador?$AA@
.rdata	SEGMENT
??_C@_07BBCBAOFC@Picador?$AA@ DB 'Picador', 00H		; `string'
;	COMDAT ??_C@_07KEMLBHAB@Phoenix?$AA@
.rdata	SEGMENT
??_C@_07KEMLBHAB@Phoenix?$AA@ DB 'Phoenix', 00H		; `string'
;	COMDAT ??_C@_0O@JMNBEEMB@Hotknife?5?$CICE?$CJ?$AA@
.rdata	SEGMENT
??_C@_0O@JMNBEEMB@Hotknife?5?$CICE?$CJ?$AA@ DB 'Hotknife (CE)', 00H ; `string'
;	COMDAT ??_C@_08ELAHAPJB@Gauntlet?$AA@
.rdata	SEGMENT
??_C@_08ELAHAPJB@Gauntlet?$AA@ DB 'Gauntlet', 00H	; `string'
;	COMDAT ??_C@_0L@PJEBFKH@Dukes?5?$CIEV?$CJ?$AA@
.rdata	SEGMENT
??_C@_0L@PJEBFKH@Dukes?5?$CIEV?$CJ?$AA@ DB 'Dukes (EV)', 00H ; `string'
;	COMDAT ??_C@_0BM@PFEPMMEO@Duke?5O?8Death?5?$CIEV?5?1?5RP?5?1?5SP?$CJ?$AA@
.rdata	SEGMENT
??_C@_0BM@PFEPMMEO@Duke?5O?8Death?5?$CIEV?5?1?5RP?5?1?5SP?$CJ?$AA@ DB 'Du'
	DB	'ke O''Death (EV / RP / SP)', 00H		; `string'
;	COMDAT ??_C@_09HBENFCAP@Dominator?$AA@
.rdata	SEGMENT
??_C@_09HBENFCAP@Dominator?$AA@ DB 'Dominator', 00H	; `string'
;	COMDAT ??_C@_0BI@HBJHEHCP@Coquette?5Blackfin?5?$CIDLC?$CJ?$AA@
.rdata	SEGMENT
??_C@_0BI@HBJHEHCP@Coquette?5Blackfin?5?$CIDLC?$CJ?$AA@ DB 'Coquette Blac'
	DB	'kfin (DLC)', 00H				; `string'
;	COMDAT ??_C@_0M@PHDBOHMP@Chino?5?$CIDLC?$CJ?$AA@
.rdata	SEGMENT
??_C@_0M@PHDBOHMP@Chino?5?$CIDLC?$CJ?$AA@ DB 'Chino (DLC)', 00H ; `string'
;	COMDAT ??_C@_09GCHDDHPD@Buccaneer?$AA@
.rdata	SEGMENT
??_C@_09GCHDDHPD@Buccaneer?$AA@ DB 'Buccaneer', 00H	; `string'
;	COMDAT ??_C@_0BP@GGBEMPPA@Burger?5Shot?5Stallion?5?$CIEV?5?1?5RP?$CJ?$AA@
.rdata	SEGMENT
??_C@_0BP@GGBEMPPA@Burger?5Shot?5Stallion?5?$CIEV?5?1?5RP?$CJ?$AA@ DB 'Bu'
	DB	'rger Shot Stallion (EV / RP)', 00H		; `string'
;	COMDAT ??_C@_0M@MLHEAOIA@Blade?5?$CIDLC?$CJ?$AA@
.rdata	SEGMENT
??_C@_0M@MLHEAOIA@Blade?5?$CIDLC?$CJ?$AA@ DB 'Blade (DLC)', 00H ; `string'
;	COMDAT ??_C@_0BB@LOKBEKEL@Vindicator?5?$CIDLC?$CJ?$AA@
.rdata	SEGMENT
??_C@_0BB@LOKBEKEL@Vindicator?5?$CIDLC?$CJ?$AA@ DB 'Vindicator (DLC)', 00H ; `string'
;	COMDAT ??_C@_05NHOJJJKA@Vader?$AA@
.rdata	SEGMENT
??_C@_05NHOJJJKA@Vader?$AA@ DB 'Vader', 00H		; `string'
;	COMDAT ??_C@_0N@COJFDAEB@Thrust?5?$CIDLC?$CJ?$AA@
.rdata	SEGMENT
??_C@_0N@COJFDAEB@Thrust?5?$CIDLC?$CJ?$AA@ DB 'Thrust (DLC)', 00H ; `string'
;	COMDAT ??_C@_0BA@LCBIIAAK@Sovereign?5?$CIDLC?$CJ?$AA@
.rdata	SEGMENT
??_C@_0BA@LCBIIAAK@Sovereign?5?$CIDLC?$CJ?$AA@ DB 'Sovereign (DLC)', 00H ; `string'
;	COMDAT ??_C@_07OFIHLHAO@Sanchez?$AA@
.rdata	SEGMENT
??_C@_07OFIHLHAO@Sanchez?$AA@ DB 'Sanchez', 00H		; `string'
;	COMDAT ??_C@_07PBEBKLM@Ruffian?$AA@
.rdata	SEGMENT
??_C@_07PBEBKLM@Ruffian?$AA@ DB 'Ruffian', 00H		; `string'
;	COMDAT ??_C@_07PLHHMOKE@PCJ?5600?$AA@
.rdata	SEGMENT
??_C@_07PLHHMOKE@PCJ?5600?$AA@ DB 'PCJ 600', 00H	; `string'
;	COMDAT ??_C@_07KAGCKCFK@Nemesis?$AA@
.rdata	SEGMENT
??_C@_07KAGCKCFK@Nemesis?$AA@ DB 'Nemesis', 00H		; `string'
;	COMDAT ??_C@_0BC@COMIINPP@Lectro?5?$CIDLC?5?1?5ON?$CJ?$AA@
.rdata	SEGMENT
??_C@_0BC@COMIINPP@Lectro?5?$CIDLC?5?1?5ON?$CJ?$AA@ DB 'Lectro (DLC / ON)'
	DB	00H						; `string'
;	COMDAT ??_C@_0BB@IEBKIILO@Innovation?5?$CIDLC?$CJ?$AA@
.rdata	SEGMENT
??_C@_0BB@IEBKIILO@Innovation?5?$CIDLC?$CJ?$AA@ DB 'Innovation (DLC)', 00H ; `string'
;	COMDAT ??_C@_05BHKLEKM@Hexer?$AA@
.rdata	SEGMENT
??_C@_05BHKLEKM@Hexer?$AA@ DB 'Hexer', 00H		; `string'
;	COMDAT ??_C@_0P@GLFKNICB@Hakuchou?5?$CIDLC?$CJ?$AA@
.rdata	SEGMENT
??_C@_0P@GLFKNICB@Hakuchou?5?$CIDLC?$CJ?$AA@ DB 'Hakuchou (DLC)', 00H ; `string'
;	COMDAT ??_C@_06KOGAFPBN@Faggio?$AA@
.rdata	SEGMENT
??_C@_06KOGAFPBN@Faggio?$AA@ DB 'Faggio', 00H		; `string'
;	COMDAT ??_C@_0N@NINANNEI@Enduro?5?$CIDLC?$CJ?$AA@
.rdata	SEGMENT
??_C@_0N@NINANNEI@Enduro?5?$CIDLC?$CJ?$AA@ DB 'Enduro (DLC)', 00H ; `string'
;	COMDAT ??_C@_08NOIPBJFN@Double?5T?$AA@
.rdata	SEGMENT
??_C@_08NOIPBJFN@Double?5T?$AA@ DB 'Double T', 00H	; `string'
;	COMDAT ??_C@_06DBBELAMD@Daemon?$AA@
.rdata	SEGMENT
??_C@_06DBBELAMD@Daemon?$AA@ DB 'Daemon', 00H		; `string'
;	COMDAT ??_C@_09FBIAFKDI@Carbon?5RS?$AA@
.rdata	SEGMENT
??_C@_09FBIAFKDI@Carbon?5RS?$AA@ DB 'Carbon RS', 00H	; `string'
;	COMDAT ??_C@_0L@GPAFPGCM@Bati?5801RR?$AA@
.rdata	SEGMENT
??_C@_0L@GPAFPGCM@Bati?5801RR?$AA@ DB 'Bati 801RR', 00H	; `string'
;	COMDAT ??_C@_08NEGHNHDH@Bati?5801?$AA@
.rdata	SEGMENT
??_C@_08NEGHNHDH@Bati?5801?$AA@ DB 'Bati 801', 00H	; `string'
;	COMDAT ??_C@_06KMFJOOHG@Bagger?$AA@
.rdata	SEGMENT
??_C@_06KMFJOOHG@Bagger?$AA@ DB 'Bagger', 00H		; `string'
;	COMDAT ??_C@_05ENDJDPC@Akuma?$AA@
.rdata	SEGMENT
??_C@_05ENDJDPC@Akuma?$AA@ DB 'Akuma', 00H		; `string'
;	COMDAT ??_C@_0L@LDCAHPBF@Rhino?5Tank?$AA@
.rdata	SEGMENT
??_C@_0L@LDCAHPBF@Rhino?5Tank?$AA@ DB 'Rhino Tank', 00H	; `string'
;	COMDAT ??_C@_08GAHJOOIL@Crusader?$AA@
.rdata	SEGMENT
??_C@_08GAHJOOIL@Crusader?$AA@ DB 'Crusader', 00H	; `string'
;	COMDAT ??_C@_0O@LINENJBD@Barracks?5Semi?$AA@
.rdata	SEGMENT
??_C@_0O@LINENJBD@Barracks?5Semi?$AA@ DB 'Barracks Semi', 00H ; `string'
;	COMDAT ??_C@_08FJPAFNJ@Barracks?$AA@
.rdata	SEGMENT
??_C@_08FJPAFNJ@Barracks?$AA@ DB 'Barracks', 00H	; `string'
;	COMDAT ??_C@_06FLAKOBFL@Tipper?$AA@
.rdata	SEGMENT
??_C@_06FLAKOBFL@Tipper?$AA@ DB 'Tipper', 00H		; `string'
;	COMDAT ??_C@_06KGKMPCGO@Rubble?$AA@
.rdata	SEGMENT
??_C@_06KGKMPCGO@Rubble?$AA@ DB 'Rubble', 00H		; `string'
;	COMDAT ??_C@_05JEEHMIBO@Mixer?$AA@
.rdata	SEGMENT
??_C@_05JEEHMIBO@Mixer?$AA@ DB 'Mixer', 00H		; `string'
;	COMDAT ??_C@_0BE@MPAALENP@Guardian?5?$CIDLC?5?1?5ON?$CJ?$AA@
.rdata	SEGMENT
??_C@_0BE@MPAALENP@Guardian?5?$CIDLC?5?1?5ON?$CJ?$AA@ DB 'Guardian (DLC /'
	DB	' ON)', 00H					; `string'
;	COMDAT ??_C@_07CIGBMPHN@Flatbed?$AA@
.rdata	SEGMENT
??_C@_07CIGBMPHN@Flatbed?$AA@ DB 'Flatbed', 00H		; `string'
;	COMDAT ??_C@_04KHHPIHEA@Dump?$AA@
.rdata	SEGMENT
??_C@_04KHHPIHEA@Dump?$AA@ DB 'Dump', 00H		; `string'
;	COMDAT ??_C@_05JGABKEPN@Dozer?$AA@
.rdata	SEGMENT
??_C@_05JGABKEPN@Dozer?$AA@ DB 'Dozer', 00H		; `string'
;	COMDAT ??_C@_0N@BOKJEHIO@Dock?5Handler?$AA@
.rdata	SEGMENT
??_C@_0N@BOKJEHIO@Dock?5Handler?$AA@ DB 'Dock Handler', 00H ; `string'
;	COMDAT ??_C@_0M@PKOMAKCD@Cutter?5?$CISP?$CJ?$AA@
.rdata	SEGMENT
??_C@_0M@PKOMAKCD@Cutter?5?$CISP?$CJ?$AA@ DB 'Cutter (SP)', 00H ; `string'
;	COMDAT ??_C@_0BE@JEKMCEPM@Valkyrie?5?$CIDLC?5?1?5ON?$CJ?$AA@
.rdata	SEGMENT
??_C@_0BE@JEKMCEPM@Valkyrie?5?$CIDLC?5?1?5ON?$CJ?$AA@ DB 'Valkyrie (DLC /'
	DB	' ON)', 00H					; `string'
;	COMDAT ??_C@_0BD@PDBIGHDN@Swift?5Deluxe?5?$CIDLC?$CJ?$AA@
.rdata	SEGMENT
??_C@_0BD@PDBIGHDN@Swift?5Deluxe?5?$CIDLC?$CJ?$AA@ DB 'Swift Deluxe (DLC)'
	DB	00H						; `string'
;	COMDAT ??_C@_0M@FMCOLFFL@Swift?5?$CIDLC?$CJ?$AA@
.rdata	SEGMENT
??_C@_0M@FMCOLFFL@Swift?5?$CIDLC?$CJ?$AA@ DB 'Swift (DLC)', 00H ; `string'
;	COMDAT ??_C@_0N@KKIDLIFD@Skylift?5?$CISP?$CJ?$AA@
.rdata	SEGMENT
??_C@_0N@KKIDLIFD@Skylift?5?$CISP?$CJ?$AA@ DB 'Skylift (SP)', 00H ; `string'
;	COMDAT ??_C@_0BC@LGMJKECL@Savage?5?$CIDLC?5?1?5ON?$CJ?$AA@
.rdata	SEGMENT
??_C@_0BC@LGMJKECL@Savage?5?$CIDLC?5?1?5ON?$CJ?$AA@ DB 'Savage (DLC / ON)'
	DB	00H						; `string'
;	COMDAT ??_C@_08PEEPBIOP@Maverick?$AA@
.rdata	SEGMENT
??_C@_08PEEPBIOP@Maverick?$AA@ DB 'Maverick', 00H	; `string'
;	COMDAT ??_C@_07CJIMOBCJ@Frogger?$AA@
.rdata	SEGMENT
??_C@_07CJIMOBCJ@Frogger?$AA@ DB 'Frogger', 00H		; `string'
;	COMDAT ??_C@_08BCKDNAHK@Cargobob?$AA@
.rdata	SEGMENT
??_C@_08BCKDNAHK@Cargobob?$AA@ DB 'Cargobob', 00H	; `string'
;	COMDAT ??_C@_0BH@NPCIHFHA@Buzzard?5Attack?5Chopper?$AA@
.rdata	SEGMENT
??_C@_0BH@NPCIHFHA@Buzzard?5Attack?5Chopper?$AA@ DB 'Buzzard Attack Chopp'
	DB	'er', 00H					; `string'
;	COMDAT ??_C@_07IDJAEOLI@Buzzard?$AA@
.rdata	SEGMENT
??_C@_07IDJAEOLI@Buzzard?$AA@ DB 'Buzzard', 00H		; `string'
;	COMDAT ??_C@_0BB@CJEODFEI@Annihilator?5?$CION?$CJ?$AA@
.rdata	SEGMENT
??_C@_0BB@CJEODFEI@Annihilator?5?$CION?$CJ?$AA@ DB 'Annihilator (ON)', 00H ; `string'
;	COMDAT ??_C@_0BG@OBOKDPCO@Unmarked?5Cruiser?5?$CISP?$CJ?$AA@
.rdata	SEGMENT
??_C@_0BG@OBOKDPCO@Unmarked?5Cruiser?5?$CISP?$CJ?$AA@ DB 'Unmarked Cruise'
	DB	'r (SP)', 00H				; `string'
;	COMDAT ??_C@_0M@KLMDFFLP@Sheriff?5SUV?$AA@
.rdata	SEGMENT
??_C@_0M@KLMDFFLP@Sheriff?5SUV?$AA@ DB 'Sheriff SUV', 00H ; `string'
;	COMDAT ??_C@_0BA@MHJBAFCK@Sheriff?5Cruiser?$AA@
.rdata	SEGMENT
??_C@_0BA@MHJBAFCK@Sheriff?5Cruiser?$AA@ DB 'Sheriff Cruiser', 00H ; `string'
;	COMDAT ??_C@_08NBLHOMJL@Predator?$AA@
.rdata	SEGMENT
??_C@_08NBLHOMJL@Predator?$AA@ DB 'Predator', 00H	; `string'
;	COMDAT ??_C@_0BC@FJDKCIIC@Police?5Prison?5Bus?$AA@
.rdata	SEGMENT
??_C@_0BC@FJDKCIIC@Police?5Prison?5Bus?$AA@ DB 'Police Prison Bus', 00H ; `string'
;	COMDAT ??_C@_0BD@LAHFGGJC@Police?5Transporter?$AA@
.rdata	SEGMENT
??_C@_0BD@LAHFGGJC@Police?5Transporter?$AA@ DB 'Police Transporter', 00H ; `string'
;	COMDAT ??_C@_0BI@DBAPAKMA@Police?5Roadcruiser?5?$CISP?$CJ?$AA@
.rdata	SEGMENT
??_C@_0BI@DBAPAKMA@Police?5Roadcruiser?5?$CISP?$CJ?$AA@ DB 'Police Roadcr'
	DB	'uiser (SP)', 00H				; `string'
;	COMDAT ??_C@_0M@MMAFAHIC@Police?5Riot?$AA@
.rdata	SEGMENT
??_C@_0M@MMAFAHIC@Police?5Riot?$AA@ DB 'Police Riot', 00H ; `string'
;	COMDAT ??_C@_0BE@KJHJCHGK@Police?5Rancher?5?$CISP?$CJ?$AA@
.rdata	SEGMENT
??_C@_0BE@KJHJCHGK@Police?5Rancher?5?$CISP?$CJ?$AA@ DB 'Police Rancher (S'
	DB	'P)', 00H					; `string'
;	COMDAT ??_C@_0BA@DOEOEAOO@Police?5Maverick?$AA@
.rdata	SEGMENT
??_C@_0BA@DOEOEAOO@Police?5Maverick?$AA@ DB 'Police Maverick', 00H ; `string'
;	COMDAT ??_C@_0P@BIPADLOI@Police?5Cruiser?$AA@
.rdata	SEGMENT
??_C@_0P@BIPADLOI@Police?5Cruiser?$AA@ DB 'Police Cruiser', 00H ; `string'
;	COMDAT ??_C@_0P@BMECCKJL@Police?5Buffalo?$AA@
.rdata	SEGMENT
??_C@_0P@BMECCKJL@Police?5Buffalo?$AA@ DB 'Police Buffalo', 00H ; `string'
;	COMDAT ??_C@_0M@PIDFBLMM@Police?5Bike?$AA@
.rdata	SEGMENT
??_C@_0M@PIDFBLMM@Police?5Bike?$AA@ DB 'Police Bike', 00H ; `string'
;	COMDAT ??_C@_0M@FIPDDCKG@Park?5Ranger?$AA@
.rdata	SEGMENT
??_C@_0M@FIPDDCKG@Park?5Ranger?$AA@ DB 'Park Ranger', 00H ; `string'
;	COMDAT ??_C@_0P@CPAKJGAM@Lifeguard?5?$CISP?$CJ?$AA@
.rdata	SEGMENT
??_C@_0P@CPAKJGAM@Lifeguard?5?$CISP?$CJ?$AA@ DB 'Lifeguard (SP)', 00H ; `string'
;	COMDAT ??_C@_0M@INALPGNH@Interceptor?$AA@
.rdata	SEGMENT
??_C@_0M@INALPGNH@Interceptor?$AA@ DB 'Interceptor', 00H ; `string'
;	COMDAT ??_C@_0L@IKOAKAOA@Fire?5Truck?$AA@
.rdata	SEGMENT
??_C@_0L@IKOAKAOA@Fire?5Truck?$AA@ DB 'Fire Truck', 00H	; `string'
;	COMDAT ??_C@_03NNMALMMK@FIB?$AA@
.rdata	SEGMENT
??_C@_03NNMALMMK@FIB?$AA@ DB 'FIB', 00H			; `string'
;	COMDAT ??_C@_0M@NDMKNICI@FIB?5Buffalo?$AA@
.rdata	SEGMENT
??_C@_0M@NDMKNICI@FIB?5Buffalo?$AA@ DB 'FIB Buffalo', 00H ; `string'
;	COMDAT ??_C@_09LODJDONJ@Ambulance?$AA@
.rdata	SEGMENT
??_C@_09LODJDONJ@Ambulance?$AA@ DB 'Ambulance', 00H	; `string'
;	COMDAT ??_C@_0O@JHDFHJOF@Air?5Ambulance?$AA@
.rdata	SEGMENT
??_C@_0O@JHDFHJOF@Air?5Ambulance?$AA@ DB 'Air Ambulance', 00H ; `string'
;	COMDAT ??_C@_0BC@IMLOLCKC@Whippet?5Race?5Bike?$AA@
.rdata	SEGMENT
??_C@_0BC@IMLOLCKC@Whippet?5Race?5Bike?$AA@ DB 'Whippet Race Bike', 00H ; `string'
;	COMDAT ??_C@_0BF@HMLNDBNG@Tri?9Cycles?5Race?5Bike?$AA@
.rdata	SEGMENT
??_C@_0BF@HMLNDBNG@Tri?9Cycles?5Race?5Bike?$AA@ DB 'Tri-Cycles Race Bike', 00H ; `string'
;	COMDAT ??_C@_08EEEMGBLC@Scorcher?$AA@
.rdata	SEGMENT
??_C@_08EEEMGBLC@Scorcher?$AA@ DB 'Scorcher', 00H	; `string'
;	COMDAT ??_C@_06BEFJLACK@Fixter?$AA@
.rdata	SEGMENT
??_C@_06BEFJLACK@Fixter?$AA@ DB 'Fixter', 00H		; `string'
;	COMDAT ??_C@_0BC@NOFEEHMP@Endurex?5Race?5Bike?$AA@
.rdata	SEGMENT
??_C@_0BC@NOFEEHMP@Endurex?5Race?5Bike?$AA@ DB 'Endurex Race Bike', 00H ; `string'
;	COMDAT ??_C@_07KDGKLABJ@Cruiser?$AA@
.rdata	SEGMENT
??_C@_07KDGKLABJ@Cruiser?$AA@ DB 'Cruiser', 00H		; `string'
;	COMDAT ??_C@_03OFIGHJJK@BMX?$AA@
.rdata	SEGMENT
??_C@_03OFIGHJJK@BMX?$AA@ DB 'BMX', 00H			; `string'
;	COMDAT ??_C@_0BB@LPHDICHL@Zion?5Cabri?5?$CIRET?$CJ?$AA@
.rdata	SEGMENT
??_C@_0BB@LPHDICHL@Zion?5Cabri?5?$CIRET?$CJ?$AA@ DB 'Zion Cabri (RET)', 00H ; `string'
;	COMDAT ??_C@_04LFKFKNDF@Zion?$AA@
.rdata	SEGMENT
??_C@_04LFKFKNDF@Zion?$AA@ DB 'Zion', 00H		; `string'
;	COMDAT ??_C@_0O@NKDCIAMF@Windsor?5?$CIDLC?$CJ?$AA@
.rdata	SEGMENT
??_C@_0O@NKDCIAMF@Windsor?5?$CIDLC?$CJ?$AA@ DB 'Windsor (DLC)', 00H ; `string'
;	COMDAT ??_C@_0M@MPPAHLCA@Sentinel?5XS?$AA@
.rdata	SEGMENT
??_C@_0M@MPPAHLCA@Sentinel?5XS?$AA@ DB 'Sentinel XS', 00H ; `string'
;	COMDAT ??_C@_0P@PMEAIBPH@Sentinel?5?$CIRET?$CJ?$AA@
.rdata	SEGMENT
??_C@_0P@PMEAIBPH@Sentinel?5?$CIRET?$CJ?$AA@ DB 'Sentinel (RET)', 00H ; `string'
;	COMDAT ??_C@_09HGGBDPBH@Oracle?5XS?$AA@
.rdata	SEGMENT
??_C@_09HGGBDPBH@Oracle?5XS?$AA@ DB 'Oracle XS', 00H	; `string'
;	COMDAT ??_C@_06ECLMCCGN@Oracle?$AA@
.rdata	SEGMENT
??_C@_06ECLMCCGN@Oracle?$AA@ DB 'Oracle', 00H		; `string'
;	COMDAT ??_C@_06PDKICOGK@Jackal?$AA@
.rdata	SEGMENT
??_C@_06PDKICOGK@Jackal?$AA@ DB 'Jackal', 00H		; `string'
;	COMDAT ??_C@_0P@MFBEJMPH@Felon?5GT?5?$CIRET?$CJ?$AA@
.rdata	SEGMENT
??_C@_0P@MFBEJMPH@Felon?5GT?5?$CIRET?$CJ?$AA@ DB 'Felon GT (RET)', 00H ; `string'
;	COMDAT ??_C@_05POLMNJP@Felon?$AA@
.rdata	SEGMENT
??_C@_05POLMNJP@Felon?$AA@ DB 'Felon', 00H		; `string'
;	COMDAT ??_C@_04MDIHAFHL@F620?$AA@
.rdata	SEGMENT
??_C@_04MDIHAFHL@F620?$AA@ DB 'F620', 00H		; `string'
;	COMDAT ??_C@_08EDJMEKON@Exemplar?$AA@
.rdata	SEGMENT
??_C@_08EDJMEKON@Exemplar?$AA@ DB 'Exemplar', 00H	; `string'
;	COMDAT ??_C@_0P@NNENIACO@Rhapsody?5?$CIDLC?$CJ?$AA@
.rdata	SEGMENT
??_C@_0P@NNENIACO@Rhapsody?5?$CIDLC?$CJ?$AA@ DB 'Rhapsody (DLC)', 00H ; `string'
;	COMDAT ??_C@_07HNDMNMML@Prairie?$AA@
.rdata	SEGMENT
??_C@_07HNDMNMML@Prairie?$AA@ DB 'Prairie', 00H		; `string'
;	COMDAT ??_C@_0M@CMMIDFNA@Panto?5?$CIDLC?$CJ?$AA@
.rdata	SEGMENT
??_C@_0M@CMMIDFNA@Panto?5?$CIDLC?$CJ?$AA@ DB 'Panto (DLC)', 00H ; `string'
;	COMDAT ??_C@_0L@MHCBIAIG@Issi?5?$CIRET?$CJ?$AA@
.rdata	SEGMENT
??_C@_0L@MHCBIAIG@Issi?5?$CIRET?$CJ?$AA@ DB 'Issi (RET)', 00H ; `string'
;	COMDAT ??_C@_0L@EBAKONOH@Dilettante?$AA@
.rdata	SEGMENT
??_C@_0L@EBAKONOH@Dilettante?$AA@ DB 'Dilettante', 00H	; `string'
;	COMDAT ??_C@_06MIHALNE@Blista?$AA@
.rdata	SEGMENT
??_C@_06MIHALNE@Blista?$AA@ DB 'Blista', 00H		; `string'
;	COMDAT ??_C@_08LDIBGCFE@Stockade?$AA@
.rdata	SEGMENT
??_C@_08LDIBGCFE@Stockade?$AA@ DB 'Stockade', 00H	; `string'
;	COMDAT ??_C@_07CILJMIOJ@Pounder?$AA@
.rdata	SEGMENT
??_C@_07CILJMIOJ@Pounder?$AA@ DB 'Pounder', 00H		; `string'
;	COMDAT ??_C@_07OFINGKDN@Phantom?$AA@
.rdata	SEGMENT
??_C@_07OFINGKDN@Phantom?$AA@ DB 'Phantom', 00H		; `string'
;	COMDAT ??_C@_06ODEOHKOJ@Packer?$AA@
.rdata	SEGMENT
??_C@_06ODEOHKOJ@Packer?$AA@ DB 'Packer', 00H		; `string'
;	COMDAT ??_C@_04JMBIGJBC@Mule?$AA@
.rdata	SEGMENT
??_C@_04JMBIGJBC@Mule?$AA@ DB 'Mule', 00H		; `string'
;	COMDAT ??_C@_06MFAIPCNL@Hauler?$AA@
.rdata	SEGMENT
??_C@_06MFAIPCNL@Hauler?$AA@ DB 'Hauler', 00H		; `string'
;	COMDAT ??_C@_04CCDNMAPB@Biff?$AA@
.rdata	SEGMENT
??_C@_04CCDNMAPB@Biff?$AA@ DB 'Biff', 00H		; `string'
;	COMDAT ??_C@_06OEDNGFC@Benson?$AA@
.rdata	SEGMENT
??_C@_06OEDNGFC@Benson?$AA@ DB 'Benson', 00H		; `string'
;	COMDAT ??_C@_06IKGIMJCE@Tropic?$AA@
.rdata	SEGMENT
??_C@_06IKGIMJCE@Tropic?$AA@ DB 'Tropic', 00H		; `string'
;	COMDAT ??_C@_0L@MFAEONLF@Toro?5?$CIDLC?$CJ?$AA@
.rdata	SEGMENT
??_C@_0L@MFAEONLF@Toro?5?$CIDLC?$CJ?$AA@ DB 'Toro (DLC)', 00H ; `string'
;	COMDAT ??_C@_07GGJELDOM@Suntrap?$AA@
.rdata	SEGMENT
??_C@_07GGJELDOM@Suntrap?$AA@ DB 'Suntrap', 00H		; `string'
;	COMDAT ??_C@_0M@KIEGKMD@Submersible?$AA@
.rdata	SEGMENT
??_C@_0M@KIEGKMD@Submersible?$AA@ DB 'Submersible', 00H	; `string'
;	COMDAT ??_C@_06KBNALHDK@Squalo?$AA@
.rdata	SEGMENT
??_C@_06KBNALHDK@Squalo?$AA@ DB 'Squalo', 00H		; `string'
;	COMDAT ??_C@_0O@BAEMMICN@Speeder?5?$CIDLC?$CJ?$AA@
.rdata	SEGMENT
??_C@_0O@BAEMMICN@Speeder?5?$CIDLC?$CJ?$AA@ DB 'Speeder (DLC)', 00H ; `string'
;	COMDAT ??_C@_08JBPBKCLL@Seashark?$AA@
.rdata	SEGMENT
??_C@_08JBPBKCLL@Seashark?$AA@ DB 'Seashark', 00H	; `string'
;	COMDAT ??_C@_07JICJFPHK@Marquis?$AA@
.rdata	SEGMENT
??_C@_07JICJFPHK@Marquis?$AA@ DB 'Marquis', 00H		; `string'
;	COMDAT ??_C@_0BB@KHLCLB@Kraken?5?$CIEV?5?1?5RP?$CJ?$AA@
.rdata	SEGMENT
??_C@_0BB@KHLCLB@Kraken?5?$CIEV?5?1?5RP?$CJ?$AA@ DB 'Kraken (EV / RP)', 00H ; `string'
;	COMDAT ??_C@_06LBDMKPGH@Jetmax?$AA@
.rdata	SEGMENT
??_C@_06LBDMKPGH@Jetmax?$AA@ DB 'Jetmax', 00H		; `string'
;	COMDAT ??_C@_06MFOGHBMI@Dinghy?$AA@
.rdata	SEGMENT
??_C@_06MFOGHBMI@Dinghy?$AA@ DB 'Dinghy', 00H		; `string'
;	COMDAT ??_C@_03ICLGJHKD@Van?$AA@
.rdata	SEGMENT
??_C@_03ICLGJHKD@Van?$AA@ DB 'Van', 00H			; `string'
;	COMDAT ??_C@_07HCOFHGI@Utility?$AA@
.rdata	SEGMENT
??_C@_07HCOFHGI@Utility?$AA@ DB 'Utility', 00H		; `string'
;	COMDAT ??_C@_03IBJFJGCG@SUV?$AA@
.rdata	SEGMENT
??_C@_03IBJFJGCG@SUV?$AA@ DB 'SUV', 00H			; `string'
;	COMDAT ??_C@_05MNDPPJJJ@Super?$AA@
.rdata	SEGMENT
??_C@_05MNDPPJJJ@Super?$AA@ DB 'Super', 00H		; `string'
;	COMDAT ??_C@_0O@KIIDMJDG@Sport?5Classic?$AA@
.rdata	SEGMENT
??_C@_0O@KIIDMJDG@Sport?5Classic?$AA@ DB 'Sport Classic', 00H ; `string'
;	COMDAT ??_C@_05ECJGCDFD@Sport?$AA@
.rdata	SEGMENT
??_C@_05ECJGCDFD@Sport?$AA@ DB 'Sport', 00H		; `string'
;	COMDAT ??_C@_07LMLHFMEG@Service?$AA@
.rdata	SEGMENT
??_C@_07LMLHFMEG@Service?$AA@ DB 'Service', 00H		; `string'
;	COMDAT ??_C@_05JDNKFLFC@Sedan?$AA@
.rdata	SEGMENT
??_C@_05JDNKFLFC@Sedan?$AA@ DB 'Sedan', 00H		; `string'
;	COMDAT ??_C@_05MHCICFEJ@Plane?$AA@
.rdata	SEGMENT
??_C@_05MHCICFEJ@Plane?$AA@ DB 'Plane', 00H		; `string'
;	COMDAT ??_C@_08DEBPJFMG@Off?9Road?$AA@
.rdata	SEGMENT
??_C@_08DEBPJFMG@Off?9Road?$AA@ DB 'Off-Road', 00H	; `string'
;	COMDAT ??_C@_06NCAGMHBO@Muscle?$AA@
.rdata	SEGMENT
??_C@_06NCAGMHBO@Muscle?$AA@ DB 'Muscle', 00H		; `string'
;	COMDAT ??_C@_0L@HMENKOML@Motorcycle?$AA@
.rdata	SEGMENT
??_C@_0L@HMENKOML@Motorcycle?$AA@ DB 'Motorcycle', 00H	; `string'
;	COMDAT ??_C@_08LMCCGEHK@Military?$AA@
.rdata	SEGMENT
??_C@_08LMCCGEHK@Military?$AA@ DB 'Military', 00H	; `string'
;	COMDAT ??_C@_0L@BLDOBJBN@Industrial?$AA@
.rdata	SEGMENT
??_C@_0L@BLDOBJBN@Industrial?$AA@ DB 'Industrial', 00H	; `string'
;	COMDAT ??_C@_0L@LHKIJOOB@Helicopter?$AA@
.rdata	SEGMENT
??_C@_0L@LHKIJOOB@Helicopter?$AA@ DB 'Helicopter', 00H	; `string'
;	COMDAT ??_C@_09BIAKCGK@Emergency?$AA@
.rdata	SEGMENT
??_C@_09BIAKCGK@Emergency?$AA@ DB 'Emergency', 00H	; `string'
;	COMDAT ??_C@_05EDOHFBGL@Cycle?$AA@
.rdata	SEGMENT
??_C@_05EDOHFBGL@Cycle?$AA@ DB 'Cycle', 00H		; `string'
;	COMDAT ??_C@_05MMAJGBBO@Coupe?$AA@
.rdata	SEGMENT
??_C@_05MMAJGBBO@Coupe?$AA@ DB 'Coupe', 00H		; `string'
;	COMDAT ??_C@_07IPNBHMDC@Compact?$AA@
.rdata	SEGMENT
??_C@_07IPNBHMDC@Compact?$AA@ DB 'Compact', 00H		; `string'
;	COMDAT ??_C@_0L@JKHJECLJ@Commercial?$AA@
.rdata	SEGMENT
??_C@_0L@JKHJECLJ@Commercial?$AA@ DB 'Commercial', 00H	; `string'
;	COMDAT ??_C@_04HKONPJHL@Boat?$AA@
.rdata	SEGMENT
??_C@_04HKONPJHL@Boat?$AA@ DB 'Boat', 00H		; `string'
;	COMDAT ??_C@_07LDLFNPGN@Windows?$AA@
.rdata	SEGMENT
??_C@_07LDLFNPGN@Windows?$AA@ DB 'Windows', 00H		; `string'
;	COMDAT ??_C@_06HILDJNPC@Wheels?$AA@
.rdata	SEGMENT
??_C@_06HILDJNPC@Wheels?$AA@ DB 'Wheels', 00H		; `string'
;	COMDAT ??_C@_05IABAHLDD@Turbo?$AA@
.rdata	SEGMENT
??_C@_05IABAHLDD@Turbo?$AA@ DB 'Turbo', 00H		; `string'
;	COMDAT ??_C@_0N@POEMFCEL@Transmission?$AA@
.rdata	SEGMENT
??_C@_0N@POEMFCEL@Transmission?$AA@ DB 'Transmission', 00H ; `string'
;	COMDAT ??_C@_0L@KLODDAKA@Suspension?$AA@
.rdata	SEGMENT
??_C@_0L@KLODDAKA@Suspension?$AA@ DB 'Suspension', 00H	; `string'
;	COMDAT ??_C@_07OCHJPGCP@Spoiler?$AA@
.rdata	SEGMENT
??_C@_07OCHJPGCP@Spoiler?$AA@ DB 'Spoiler', 00H		; `string'
;	COMDAT ??_C@_06BAGDLLKA@Skirts?$AA@
.rdata	SEGMENT
??_C@_06BAGDLLKA@Skirts?$AA@ DB 'Skirts', 00H		; `string'
;	COMDAT ??_C@_07FGOKCDHA@Respray?$AA@
.rdata	SEGMENT
??_C@_07FGOKCDHA@Respray?$AA@ DB 'Respray', 00H		; `string'
;	COMDAT ??_C@_05NGJJADOP@Plate?$AA@
.rdata	SEGMENT
??_C@_05NGJJADOP@Plate?$AA@ DB 'Plate', 00H		; `string'
;	COMDAT ??_C@_0BI@IDNIENGA@Loss?5?1?5Theft?5Protection?$AA@
.rdata	SEGMENT
??_C@_0BI@IDNIENGA@Loss?5?1?5Theft?5Protection?$AA@ DB 'Loss / Theft Prot'
	DB	'ection', 00H				; `string'
;	COMDAT ??_C@_06EMKJPPBG@Lights?$AA@
.rdata	SEGMENT
??_C@_06EMKJPPBG@Lights?$AA@ DB 'Lights', 00H		; `string'
;	COMDAT ??_C@_04JOBAAGCI@Horn?$AA@
.rdata	SEGMENT
??_C@_04JOBAAGCI@Horn?$AA@ DB 'Horn', 00H		; `string'
;	COMDAT ??_C@_0L@MBCOMCBC@Explosives?$AA@
.rdata	SEGMENT
??_C@_0L@MBCOMCBC@Explosives?$AA@ DB 'Explosives', 00H	; `string'
;	COMDAT ??_C@_07CFNHJLMM@Exhaust?$AA@
.rdata	SEGMENT
??_C@_07CFNHJLMM@Exhaust?$AA@ DB 'Exhaust', 00H		; `string'
;	COMDAT ??_C@_06HBKBHOGJ@Engine?$AA@
.rdata	SEGMENT
??_C@_06HBKBHOGJ@Engine?$AA@ DB 'Engine', 00H		; `string'
;	COMDAT ??_C@_07FNBCHHPL@Bumpers?$AA@
.rdata	SEGMENT
??_C@_07FNBCHHPL@Bumpers?$AA@ DB 'Bumpers', 00H		; `string'
;	COMDAT ??_C@_06PFJGOFBK@Brakes?$AA@
.rdata	SEGMENT
??_C@_06PFJGOFBK@Brakes?$AA@ DB 'Brakes', 00H		; `string'
;	COMDAT ??_C@_05JOOFIMIN@Armor?$AA@
.rdata	SEGMENT
??_C@_05JOOFIMIN@Armor?$AA@ DB 'Armor', 00H		; `string'
;	COMDAT ??_C@_0BD@EHDHBKDJ@Toggle?5Speedometer?$AA@
.rdata	SEGMENT
??_C@_0BD@EHDHBKDJ@Toggle?5Speedometer?$AA@ DB 'Toggle Speedometer', 00H ; `string'
;	COMDAT ??_C@_0BK@EICFFFAE@Toggle?5Rainbow?5Tire?5Smoke?$AA@
.rdata	SEGMENT
??_C@_0BK@EICFFFAE@Toggle?5Rainbow?5Tire?5Smoke?$AA@ DB 'Toggle Rainbow T'
	DB	'ire Smoke', 00H				; `string'
;	COMDAT ??_C@_0BF@DALKALMH@Toggle?5Rainbow?5Paint?$AA@
.rdata	SEGMENT
??_C@_0BF@DALKALMH@Toggle?5Rainbow?5Paint?$AA@ DB 'Toggle Rainbow Paint', 00H ; `string'
;	COMDAT ??_C@_0BH@EADOHPOP@Toggle?5Parachute?5Eject?$AA@
.rdata	SEGMENT
??_C@_0BH@EADOHPOP@Toggle?5Parachute?5Eject?$AA@ DB 'Toggle Parachute Eje'
	DB	'ct', 00H					; `string'
;	COMDAT ??_C@_0L@NKKKIGJP@Toggle?5NOS?$AA@
.rdata	SEGMENT
??_C@_0L@NKKKIGJP@Toggle?5NOS?$AA@ DB 'Toggle NOS', 00H	; `string'
;	COMDAT ??_C@_0BC@KJCLIKLK@Toggle?5Hydraulics?$AA@
.rdata	SEGMENT
??_C@_0BC@KJCLIKLK@Toggle?5Hydraulics?$AA@ DB 'Toggle Hydraulics', 00H ; `string'
;	COMDAT ??_C@_0BH@NJHDMOML@Toggle?5Handbrake?5Drift?$AA@
.rdata	SEGMENT
??_C@_0BH@NJHDMOML@Toggle?5Handbrake?5Drift?$AA@ DB 'Toggle Handbrake Dri'
	DB	'ft', 00H					; `string'
;	COMDAT ??_C@_0BE@FNMCLHPI@Toggle?5Flying?5Bikes?$AA@
.rdata	SEGMENT
??_C@_0BE@FNMCLHPI@Toggle?5Flying?5Bikes?$AA@ DB 'Toggle Flying Bikes', 00H ; `string'
;	COMDAT ??_C@_0BB@HIPIHAEA@Toggle?5Collision?$AA@
.rdata	SEGMENT
??_C@_0BB@HIPIHAEA@Toggle?5Collision?$AA@ DB 'Toggle Collision', 00H ; `string'
;	COMDAT ??_C@_0P@DEKNJFIK@Unlock?5Vehicle?$AA@
.rdata	SEGMENT
??_C@_0P@DEKNJFIK@Unlock?5Vehicle?$AA@ DB 'Unlock Vehicle', 00H ; `string'
;	COMDAT ??_C@_0N@KFCMBLAK@Lock?5Vehicle?$AA@
.rdata	SEGMENT
??_C@_0N@KFCMBLAK@Lock?5Vehicle?$AA@ DB 'Lock Vehicle', 00H ; `string'
;	COMDAT ??_C@_0BF@FIJMDMI@Fix?5and?5Wash?5Vehicle?$AA@
.rdata	SEGMENT
??_C@_0BF@FIJMDMI@Fix?5and?5Wash?5Vehicle?$AA@ DB 'Fix and Wash Vehicle', 00H ; `string'
;	COMDAT ??_C@_0BA@EIJNAONK@Vehicle?5Spawner?$AA@
.rdata	SEGMENT
??_C@_0BA@EIJNAONK@Vehicle?5Spawner?$AA@ DB 'Vehicle Spawner', 00H ; `string'
;	COMDAT ??_C@_0P@CLPOGCEA@Vehicle?5Editor?$AA@
.rdata	SEGMENT
??_C@_0P@CLPOGCEA@Vehicle?5Editor?$AA@ DB 'Vehicle Editor', 00H ; `string'
;	COMDAT ??_C@_0P@HDBAPAHP@Vehicle?5Cannon?$AA@
.rdata	SEGMENT
??_C@_0P@HDBAPAHP@Vehicle?5Cannon?$AA@ DB 'Vehicle Cannon', 00H ; `string'
;	COMDAT ??_C@_0BC@LIFEMNGH@Pedestrian?5Cannon?$AA@
.rdata	SEGMENT
??_C@_0BC@LIFEMNGH@Pedestrian?5Cannon?$AA@ DB 'Pedestrian Cannon', 00H ; `string'
;	COMDAT ??_C@_0O@CJIMGLPG@Object?5Cannon?$AA@
.rdata	SEGMENT
??_C@_0O@CJIMGLPG@Object?5Cannon?$AA@ DB 'Object Cannon', 00H ; `string'
;	COMDAT ??_C@_0O@KGBNIEGM@Animal?5Cannon?$AA@
.rdata	SEGMENT
??_C@_0O@KGBNIEGM@Animal?5Cannon?$AA@ DB 'Animal Cannon', 00H ; `string'
;	COMDAT ??_C@_0BF@OIFKEONH@Toggle?5Weapon?5Cannon?$AA@
.rdata	SEGMENT
??_C@_0BF@OIFKEONH@Toggle?5Weapon?5Cannon?$AA@ DB 'Toggle Weapon Cannon', 00H ; `string'
;	COMDAT ??_C@_0BG@ONLKAEJB@Toggle?5Unlimited?5Ammo?$AA@
.rdata	SEGMENT
??_C@_0BG@ONLKAEJB@Toggle?5Unlimited?5Ammo?$AA@ DB 'Toggle Unlimited Ammo'
	DB	00H						; `string'
;	COMDAT ??_C@_0BE@FMGOGNFF@Toggle?5Teleport?5Gun?$AA@
.rdata	SEGMENT
??_C@_0BE@FMGOGNFF@Toggle?5Teleport?5Gun?$AA@ DB 'Toggle Teleport Gun', 00H ; `string'
;	COMDAT ??_C@_0BD@JDEKPIFE@Toggle?5Laser?5Sight?$AA@
.rdata	SEGMENT
??_C@_0BD@JDEKPIFE@Toggle?5Laser?5Sight?$AA@ DB 'Toggle Laser Sight', 00H ; `string'
;	COMDAT ??_C@_0BB@HHCJGGHO@Toggle?5Fire?5Ammo?$AA@
.rdata	SEGMENT
??_C@_0BB@HHCJGGHO@Toggle?5Fire?5Ammo?$AA@ DB 'Toggle Fire Ammo', 00H ; `string'
;	COMDAT ??_C@_0BG@OAJKLEIP@Toggle?5Explosive?5Ammo?$AA@
.rdata	SEGMENT
??_C@_0BG@OAJKLEIP@Toggle?5Explosive?5Ammo?$AA@ DB 'Toggle Explosive Ammo'
	DB	00H						; `string'
;	COMDAT ??_C@_0O@NMOBFGO@Toggle?5Aimbot?$AA@
.rdata	SEGMENT
??_C@_0O@NMOBFGO@Toggle?5Aimbot?$AA@ DB 'Toggle Aimbot', 00H ; `string'
;	COMDAT ??_C@_0BJ@JHLFOFDF@Activate?5Poltergeist?5Gun?$AA@
.rdata	SEGMENT
??_C@_0BJ@JHLFOFDF@Activate?5Poltergeist?5Gun?$AA@ DB 'Activate Poltergei'
	DB	'st Gun', 00H				; `string'
;	COMDAT ??_C@_0BB@NMDKMGEK@Activate?5Ped?5War?$AA@
.rdata	SEGMENT
??_C@_0BB@NMDKMGEK@Activate?5Ped?5War?$AA@ DB 'Activate Ped War', 00H ; `string'
;	COMDAT ??_C@_0P@GEKHEPOO@Cannon?5Options?$AA@
.rdata	SEGMENT
??_C@_0P@GEKHEPOO@Cannon?5Options?$AA@ DB 'Cannon Options', 00H ; `string'
;	COMDAT ??_C@_0BE@NJIAIPLP@?$DMenter?5option?5here?$DO?$AA@
.rdata	SEGMENT
??_C@_0BE@NJIAIPLP@?$DMenter?5option?5here?$DO?$AA@ DB '<enter option her'
	DB	'e>', 00H					; `string'
;	COMDAT ??_C@_0BB@PENGAAGE@Toggle?5Tow?5Truck?$AA@
.rdata	SEGMENT
??_C@_0BB@PENGAAGE@Toggle?5Tow?5Truck?$AA@ DB 'Toggle Tow Truck', 00H ; `string'
;	COMDAT ??_C@_0BG@KKEPOFBM@Toggle?5Remote?5Control?$AA@
.rdata	SEGMENT
??_C@_0BG@KKEPOFBM@Toggle?5Remote?5Control?$AA@ DB 'Toggle Remote Control'
	DB	00H						; `string'
;	COMDAT ??_C@_0N@MHDEDIKD@Unlock?5Doors?$AA@
.rdata	SEGMENT
??_C@_0N@MHDEDIKD@Unlock?5Doors?$AA@ DB 'Unlock Doors', 00H ; `string'
;	COMDAT ??_C@_0L@PAJNHLGO@Lock?5Doors?$AA@
.rdata	SEGMENT
??_C@_0L@PAJNHLGO@Lock?5Doors?$AA@ DB 'Lock Doors', 00H	; `string'
;	COMDAT ??_C@_0P@BDCJPCAC@Launch?5Vehicle?$AA@
.rdata	SEGMENT
??_C@_0P@BDCJPCAC@Launch?5Vehicle?$AA@ DB 'Launch Vehicle', 00H ; `string'
;	COMDAT ??_C@_0P@PBPCEJIN@Knock?5Off?5Bike?$AA@
.rdata	SEGMENT
??_C@_0P@PBPCEJIN@Knock?5Off?5Bike?$AA@ DB 'Knock Off Bike', 00H ; `string'
;	COMDAT ??_C@_0BA@LNJHNABE@Destroy?5Vehicle?$AA@
.rdata	SEGMENT
??_C@_0BA@LNJHNABE@Destroy?5Vehicle?$AA@ DB 'Destroy Vehicle', 00H ; `string'
;	COMDAT ??_C@_0BE@HDADIEOO@Take?5Unlimited?5Ammo?$AA@
.rdata	SEGMENT
??_C@_0BE@HDADIEOO@Take?5Unlimited?5Ammo?$AA@ DB 'Take Unlimited Ammo', 00H ; `string'
;	COMDAT ??_C@_0BB@JOMHJHGE@Take?5All?5Weapons?$AA@
.rdata	SEGMENT
??_C@_0BB@JOMHJHGE@Take?5All?5Weapons?$AA@ DB 'Take All Weapons', 00H ; `string'
;	COMDAT ??_C@_0BE@OIMFOMHH@Give?5Unlimited?5Ammo?$AA@
.rdata	SEGMENT
??_C@_0BE@OIMFOMHH@Give?5Unlimited?5Ammo?$AA@ DB 'Give Unlimited Ammo', 00H ; `string'
;	COMDAT ??_C@_0BB@BBHDCHJB@Give?5All?5Weapons?$AA@
.rdata	SEGMENT
??_C@_0BB@BBHDCHJB@Give?5All?5Weapons?$AA@ DB 'Give All Weapons', 00H ; `string'
;	COMDAT ??_C@_0BA@BEBIJKFJ@Train?5Explosion?$AA@
.rdata	SEGMENT
??_C@_0BA@BEBIJKFJ@Train?5Explosion?$AA@ DB 'Train Explosion', 00H ; `string'
;	COMDAT ??_C@_0BK@PEJHCFE@Grenade?5Explosion?5?$CIsmoke?$CJ?$AA@
.rdata	SEGMENT
??_C@_0BK@PEJHCFE@Grenade?5Explosion?5?$CIsmoke?$CJ?$AA@ DB 'Grenade Expl'
	DB	'osion (smoke)', 00H				; `string'
;	COMDAT ??_C@_0BC@BMMKBMFI@Grenade?5Explosion?$AA@
.rdata	SEGMENT
??_C@_0BC@BMMKBMFI@Grenade?5Explosion?$AA@ DB 'Grenade Explosion', 00H ; `string'
;	COMDAT ??_C@_0O@GGLIELAE@Gas?5Explosion?$AA@
.rdata	SEGMENT
??_C@_0O@GGLIELAE@Gas?5Explosion?$AA@ DB 'Gas Explosion', 00H ; `string'
;	COMDAT ??_C@_05HJLJONL@Flare?$AA@
.rdata	SEGMENT
??_C@_05HJLJONL@Flare?$AA@ DB 'Flare', 00H		; `string'
;	COMDAT ??_C@_0BC@PHGBOEPB@Fire?5Extinguisher?$AA@
.rdata	SEGMENT
??_C@_0BC@PHGBOEPB@Fire?5Extinguisher?$AA@ DB 'Fire Extinguisher', 00H ; `string'
;	COMDAT ??_C@_09BJPEJKCC@Fire?5Bomb?$AA@
.rdata	SEGMENT
??_C@_09BJPEJKCC@Fire?5Bomb?$AA@ DB 'Fire Bomb', 00H	; `string'
;	COMDAT ??_C@_0O@OELBIIHA@Car?5Explosion?$AA@
.rdata	SEGMENT
??_C@_0O@OELBIIHA@Car?5Explosion?$AA@ DB 'Car Explosion', 00H ; `string'
;	COMDAT ??_C@_0P@IIAIHEKJ@Boat?5Explosion?$AA@
.rdata	SEGMENT
??_C@_0P@IIAIHEKJ@Boat?5Explosion?$AA@ DB 'Boat Explosion', 00H ; `string'
;	COMDAT ??_C@_0BA@BOHGAAFL@Blimp?5Explosion?$AA@
.rdata	SEGMENT
??_C@_0BA@BOHGAAFL@Blimp?5Explosion?$AA@ DB 'Blimp Explosion', 00H ; `string'
;	COMDAT ??_C@_09KHLPGPGB@Airstrike?$AA@
.rdata	SEGMENT
??_C@_09KHLPGPGB@Airstrike?$AA@ DB 'Airstrike', 00H	; `string'
;	COMDAT ??_C@_0BN@CFOAMOFE@Enter?5amount?5of?5cash?5to?5drop?$AA@
.rdata	SEGMENT
??_C@_0BN@CFOAMOFE@Enter?5amount?5of?5cash?5to?5drop?$AA@ DB 'Enter amoun'
	DB	't of cash to drop', 00H			; `string'
;	COMDAT ??_C@_0O@OGEDHIBD@Drop?5$750?0000?$AA@
.rdata	SEGMENT
??_C@_0O@OGEDHIBD@Drop?5$750?0000?$AA@ DB 'Drop $750,000', 00H ; `string'
;	COMDAT ??_C@_0O@PGFOFAMJ@Drop?5$500?0000?$AA@
.rdata	SEGMENT
??_C@_0O@PGFOFAMJ@Drop?5$500?0000?$AA@ DB 'Drop $500,000', 00H ; `string'
;	COMDAT ??_C@_0O@KOKDHGHH@Drop?5$250?0000?$AA@
.rdata	SEGMENT
??_C@_0O@KOKDHGHH@Drop?5$250?0000?$AA@ DB 'Drop $250,000', 00H ; `string'
;	COMDAT ??_C@_0O@HCBEFODD@Drop?5$100?0000?$AA@
.rdata	SEGMENT
??_C@_0O@HCBEFODD@Drop?5$100?0000?$AA@ DB 'Drop $100,000', 00H ; `string'
;	COMDAT ??_C@_0N@LJCCLAEH@Drop?5$75?0000?$AA@
.rdata	SEGMENT
??_C@_0N@LJCCLAEH@Drop?5$75?0000?$AA@ DB 'Drop $75,000', 00H ; `string'
;	COMDAT ??_C@_0N@HOHADANN@Drop?5$50?0000?$AA@
.rdata	SEGMENT
??_C@_0N@HOHADANN@Drop?5$50?0000?$AA@ DB 'Drop $50,000', 00H ; `string'
;	COMDAT ??_C@_0N@OLBKJPOA@Drop?5$25?0000?$AA@
.rdata	SEGMENT
??_C@_0N@OLBKJPOA@Drop?5$25?0000?$AA@ DB 'Drop $25,000', 00H ; `string'
;	COMDAT ??_C@_0N@IKDPBEMO@Drop?5$10?0000?$AA@
.rdata	SEGMENT
??_C@_0N@IKDPBEMO@Drop?5$10?0000?$AA@ DB 'Drop $10,000', 00H ; `string'
;	COMDAT ??_C@_0BB@EFNHDKJD@Teleport?5Options?$AA@
.rdata	SEGMENT
??_C@_0BB@EFNHDKJD@Teleport?5Options?$AA@ DB 'Teleport Options', 00H ; `string'
;	COMDAT ??_C@_0BA@ECLACJLA@Vehicle?5Options?$AA@
.rdata	SEGMENT
??_C@_0BA@ECLACJLA@Vehicle?5Options?$AA@ DB 'Vehicle Options', 00H ; `string'
;	COMDAT ??_C@_0P@HBEMNBAO@Weapon?5Options?$AA@
.rdata	SEGMENT
??_C@_0P@HBEMNBAO@Weapon?5Options?$AA@ DB 'Weapon Options', 00H ; `string'
;	COMDAT ??_C@_0BC@EHLPCHJP@Explosion?5Options?$AA@
.rdata	SEGMENT
??_C@_0BC@EHLPCHJP@Explosion?5Options?$AA@ DB 'Explosion Options', 00H ; `string'
;	COMDAT ??_C@_0BC@LFFKAHPC@Cash?5Drop?5Options?$AA@
.rdata	SEGMENT
??_C@_0BC@LFFKAHPC@Cash?5Drop?5Options?$AA@ DB 'Cash Drop Options', 00H ; `string'
;	COMDAT ??_C@_04EIJLDGJE@SCTV?$AA@
.rdata	SEGMENT
??_C@_04EIJLDGJE@SCTV?$AA@ DB 'SCTV', 00H		; `string'
;	COMDAT ??_C@_0O@FGICINFJ@Online?5Player?$AA@
.rdata	SEGMENT
??_C@_0O@FGICINFJ@Online?5Player?$AA@ DB 'Online Player', 00H ; `string'
;	COMDAT ??_C@_0BA@OEHGPJDB@Toggle?5Whiplash?$AA@
.rdata	SEGMENT
??_C@_0BA@OEHGPJDB@Toggle?5Whiplash?$AA@ DB 'Toggle Whiplash', 00H ; `string'
;	COMDAT ??_C@_0BG@PKAIFIJD@Toggle?5Superman?5Punch?$AA@
.rdata	SEGMENT
??_C@_0BG@PKAIFIJD@Toggle?5Superman?5Punch?$AA@ DB 'Toggle Superman Punch'
	DB	00H						; `string'
;	COMDAT ??_C@_0BD@JNDNDKOJ@Toggle?5Super?5Speed?$AA@
.rdata	SEGMENT
??_C@_0BD@JNDNDKOJ@Toggle?5Super?5Speed?$AA@ DB 'Toggle Super Speed', 00H ; `string'
;	COMDAT ??_C@_0BC@MGBKFBKJ@Toggle?5Super?5Jump?$AA@
.rdata	SEGMENT
??_C@_0BC@MGBKFBKJ@Toggle?5Super?5Jump?$AA@ DB 'Toggle Super Jump', 00H ; `string'
;	COMDAT ??_C@_0BB@FOHDGCKC@Toggle?5Moses?5Mod?$AA@
.rdata	SEGMENT
??_C@_0BB@FOHDGCKC@Toggle?5Moses?5Mod?$AA@ DB 'Toggle Moses Mod', 00H ; `string'
;	COMDAT ??_C@_0BE@HGGJEIBD@Toggle?5Invisibility?$AA@
.rdata	SEGMENT
??_C@_0BE@HGGJEIBD@Toggle?5Invisibility?$AA@ DB 'Toggle Invisibility', 00H ; `string'
;	COMDAT ??_C@_0BF@FAKACAJB@Toggle?5Invincibility?$AA@
.rdata	SEGMENT
??_C@_0BF@FAKACAJB@Toggle?5Invincibility?$AA@ DB 'Toggle Invincibility', 00H ; `string'
;	COMDAT ??_C@_0N@GPKFCDLF@Model?5Editor?$AA@
.rdata	SEGMENT
??_C@_0N@GPKFCDLF@Model?5Editor?$AA@ DB 'Model Editor', 00H ; `string'
;	COMDAT ??_C@_0P@BGPDEBOI@Online?5Players?$AA@
.rdata	SEGMENT
??_C@_0P@BGPDEBOI@Online?5Players?$AA@ DB 'Online Players', 00H ; `string'
;	COMDAT ??_C@_0BF@KOLJOFPM@Toggle?5Shark?9O?9Matic?$AA@
.rdata	SEGMENT
??_C@_0BF@KOLJOFPM@Toggle?5Shark?9O?9Matic?$AA@ DB 'Toggle Shark-O-Matic', 00H ; `string'
;	COMDAT ??_C@_0O@BCNBPGHO@Toggle?5Noclip?$AA@
.rdata	SEGMENT
??_C@_0O@BCNBPGHO@Toggle?5Noclip?$AA@ DB 'Toggle Noclip', 00H ; `string'
;	COMDAT ??_C@_0BB@HIHIOOLK@Toggle?5No?5Wanted?$AA@
.rdata	SEGMENT
??_C@_0BB@HIHIOOLK@Toggle?5No?5Wanted?$AA@ DB 'Toggle No Wanted', 00H ; `string'
;	COMDAT ??_C@_0BK@BFHALLNP@Toggle?5Grappling?5Hook?5Gun?$AA@
.rdata	SEGMENT
??_C@_0BK@BFHALLNP@Toggle?5Grappling?5Hook?5Gun?$AA@ DB 'Toggle Grappling'
	DB	' Hook Gun', 00H				; `string'
;	COMDAT ??_C@_0BD@MPBOGBJN@Toggle?5FPS?5Counter?$AA@
.rdata	SEGMENT
??_C@_0BD@MPBOGBJN@Toggle?5FPS?5Counter?$AA@ DB 'Toggle FPS Counter', 00H ; `string'
;	COMDAT ??_C@_0BE@EKNNIABK@Toggle?5First?5Person?$AA@
.rdata	SEGMENT
??_C@_0BE@EKNNIABK@Toggle?5First?5Person?$AA@ DB 'Toggle First Person', 00H ; `string'
;	COMDAT ??_C@_0L@DDLKAIEJ@Toggle?5ESP?$AA@
.rdata	SEGMENT
??_C@_0L@DDLKAIEJ@Toggle?5ESP?$AA@ DB 'Toggle ESP', 00H	; `string'
;	COMDAT ??_C@_0BB@OCFAMJCC@Activate?5Zombies?$AA@
.rdata	SEGMENT
??_C@_0BB@OCFAMJCC@Activate?5Zombies?$AA@ DB 'Activate Zombies', 00H ; `string'
;	COMDAT ??_C@_0BH@EPICEKHK@Zombies?5?$HOr?$HODeactivated?$AA@
.rdata	SEGMENT
??_C@_0BH@EPICEKHK@Zombies?5?$HOr?$HODeactivated?$AA@ DB 'Zombies ~r~Deac'
	DB	'tivated', 00H				; `string'
;	COMDAT ??_C@_0M@GFFLEONH@SCR_Torture?$AA@
.rdata	SEGMENT
??_C@_0M@GFFLEONH@SCR_Torture?$AA@ DB 'SCR_Torture', 00H ; `string'
;	COMDAT ??_C@_0N@OEEMGMJC@SCR_Dumpster?$AA@
.rdata	SEGMENT
??_C@_0N@OEEMGMJC@SCR_Dumpster?$AA@ DB 'SCR_Dumpster', 00H ; `string'
;	COMDAT ??_C@_0BA@PHJBHDCI@BigHitByVehicle?$AA@
.rdata	SEGMENT
??_C@_0BA@PHJBHDCI@BigHitByVehicle?$AA@ DB 'BigHitByVehicle', 00H ; `string'
;	COMDAT ??_C@_0BH@KFCLKLKM@move_m?$EAdrunk?$EAverydrunk?$AA@
.rdata	SEGMENT
??_C@_0BH@KFCLKLKM@move_m?$EAdrunk?$EAverydrunk?$AA@ DB 'move_m@drunk@ver'
	DB	'ydrunk', 00H				; `string'
;	COMDAT ??_C@_1FK@NLNNEAKK@T?$AAh?$AAe?$AA?5?$AAS?$AAa?$AAi?$AAy?$AAa?$AAn?$AA?5?$AAP?$AAr?$AAo?$AAj?$AAe?$AAc?$AAt?$AA?5?$AA?9?$AA?5?$AAC?$AAl?$AAe?$AAa?$AAr?$AAe?$AAd?$AA?5?$AAp?$AAl?$AAa?$AA@
.rdata	SEGMENT
??_C@_1FK@NLNNEAKK@T?$AAh?$AAe?$AA?5?$AAS?$AAa?$AAi?$AAy?$AAa?$AAn?$AA?5?$AAP?$AAr?$AAo?$AAj?$AAe?$AAc?$AAt?$AA?5?$AA?9?$AA?5?$AAC?$AAl?$AAe?$AAa?$AAr?$AAe?$AAd?$AA?5?$AAp?$AAl?$AAa?$AA@ DB 00H
	DB	'T', 00H, 'h', 00H, 'e', 00H, ' ', 00H, 'S', 00H, 'a', 00H, 'i'
	DB	00H, 'y', 00H, 'a', 00H, 'n', 00H, ' ', 00H, 'P', 00H, 'r', 00H
	DB	'o', 00H, 'j', 00H, 'e', 00H, 'c', 00H, 't', 00H, ' ', 00H, '-'
	DB	00H, ' ', 00H, 'C', 00H, 'l', 00H, 'e', 00H, 'a', 00H, 'r', 00H
	DB	'e', 00H, 'd', 00H, ' ', 00H, 'p', 00H, 'l', 00H, 'a', 00H, 'y'
	DB	00H, 'e', 00H, 'r', 00H, ' ', 00H, 'r', 00H, 'e', 00H, 'p', 00H
	DB	'o', 00H, 'r', 00H, 't', 00H, 's', 00H, '!', 00H, 00H ; `string'
?Menu_CanOpen@@3_NA DB 01H				; Menu_CanOpen
	ORG $+3
?Menu_Index@@3KA DD 0ffffffffH				; Menu_Index
?Check_Airstrike@@3KA DD 0ffffffffH			; Check_Airstrike
?Request_AnimDict@@3PADA DD ??_C@_00CNPNBAHC@?$AA@	; Request_AnimDict
?Request_ClipSet@@3PADA DD ??_C@_00CNPNBAHC@?$AA@	; Request_ClipSet
?XUIDSpoof_Gamertag@@3PADA DD ??_C@_00CNPNBAHC@?$AA@	; XUIDSpoof_Gamertag
;	COMDAT ??_C@_0O@DHBDOMFO@Teleport?5Menu?$AA@
.rdata	SEGMENT
??_C@_0O@DHBDOMFO@Teleport?5Menu?$AA@ DB 'Teleport Menu', 00H ; `string'
;	COMDAT ??_C@_0BH@HKCOKLOG@World?5Editor?5?$DO?5Weather?$AA@
.rdata	SEGMENT
??_C@_0BH@HKCOKLOG@World?5Editor?5?$DO?5Weather?$AA@ DB 'World Editor > W'
	DB	'eather', 00H				; `string'
;	COMDAT ??_C@_0CF@GKFCKHKF@World?5Editor?5?$DO?5Forge?5?$DO?5Object?5Ed@
.rdata	SEGMENT
??_C@_0CF@GKFCKHKF@World?5Editor?5?$DO?5Forge?5?$DO?5Object?5Ed@ DB 'Worl'
	DB	'd Editor > Forge > Object Editor', 00H	; `string'
;	COMDAT ??_C@_0BF@KDODDPED@World?5Editor?5?$DO?5Forge?$AA@
.rdata	SEGMENT
??_C@_0BF@KDODDPED@World?5Editor?5?$DO?5Forge?$AA@ DB 'World Editor > For'
	DB	'ge', 00H					; `string'
;	COMDAT ??_C@_0N@OAHDGEBD@World?5Editor?$AA@
.rdata	SEGMENT
??_C@_0N@OAHDGEBD@World?5Editor?$AA@ DB 'World Editor', 00H ; `string'
;	COMDAT ??_C@_0CF@IJPENAE@Vehicle?5Mods?5?$DO?5Vehicle?5Spawner?5?$DO@
.rdata	SEGMENT
??_C@_0CF@IJPENAE@Vehicle?5Mods?5?$DO?5Vehicle?5Spawner?5?$DO@ DB 'Vehicl'
	DB	'e Mods > Vehicle Spawner > Van', 00H	; `string'
;	COMDAT ??_C@_0CJ@BOKHDDOH@Vehicle?5Mods?5?$DO?5Vehicle?5Spawner?5?$DO@
.rdata	SEGMENT
??_C@_0CJ@BOKHDDOH@Vehicle?5Mods?5?$DO?5Vehicle?5Spawner?5?$DO@ DB 'Vehic'
	DB	'le Mods > Vehicle Spawner > Utility', 00H	; `string'
;	COMDAT ??_C@_0CF@LLMEMIB@Vehicle?5Mods?5?$DO?5Vehicle?5Spawner?5?$DO@
.rdata	SEGMENT
??_C@_0CF@LLMEMIB@Vehicle?5Mods?5?$DO?5Vehicle?5Spawner?5?$DO@ DB 'Vehicl'
	DB	'e Mods > Vehicle Spawner > SUV', 00H	; `string'
;	COMDAT ??_C@_0CH@EKHPGCFE@Vehicle?5Mods?5?$DO?5Vehicle?5Spawner?5?$DO@
.rdata	SEGMENT
??_C@_0CH@EKHPGCFE@Vehicle?5Mods?5?$DO?5Vehicle?5Spawner?5?$DO@ DB 'Vehic'
	DB	'le Mods > Vehicle Spawner > Super', 00H	; `string'
;	COMDAT ??_C@_0CP@KIHBNPPI@Vehicle?5Mods?5?$DO?5Vehicle?5Spawner?5?$DO@
.rdata	SEGMENT
??_C@_0CP@KIHBNPPI@Vehicle?5Mods?5?$DO?5Vehicle?5Spawner?5?$DO@ DB 'Vehic'
	DB	'le Mods > Vehicle Spawner > Sport Classic', 00H ; `string'
;	COMDAT ??_C@_0CH@MFNGLIJO@Vehicle?5Mods?5?$DO?5Vehicle?5Spawner?5?$DO@
.rdata	SEGMENT
??_C@_0CH@MFNGLIJO@Vehicle?5Mods?5?$DO?5Vehicle?5Spawner?5?$DO@ DB 'Vehic'
	DB	'le Mods > Vehicle Spawner > Sport', 00H	; `string'
;	COMDAT ??_C@_0CJ@KFDODIMJ@Vehicle?5Mods?5?$DO?5Vehicle?5Spawner?5?$DO@
.rdata	SEGMENT
??_C@_0CJ@KFDODIMJ@Vehicle?5Mods?5?$DO?5Vehicle?5Spawner?5?$DO@ DB 'Vehic'
	DB	'le Mods > Vehicle Spawner > Service', 00H	; `string'
;	COMDAT ??_C@_0CH@BEJKMAJP@Vehicle?5Mods?5?$DO?5Vehicle?5Spawner?5?$DO@
.rdata	SEGMENT
??_C@_0CH@BEJKMAJP@Vehicle?5Mods?5?$DO?5Vehicle?5Spawner?5?$DO@ DB 'Vehic'
	DB	'le Mods > Vehicle Spawner > Sedan', 00H	; `string'
;	COMDAT ??_C@_0CH@EAGILOIE@Vehicle?5Mods?5?$DO?5Vehicle?5Spawner?5?$DO@
.rdata	SEGMENT
??_C@_0CH@EAGILOIE@Vehicle?5Mods?5?$DO?5Vehicle?5Spawner?5?$DO@ DB 'Vehic'
	DB	'le Mods > Vehicle Spawner > Plane', 00H	; `string'
;	COMDAT ??_C@_0CK@EJABICBD@Vehicle?5Mods?5?$DO?5Vehicle?5Spawner?5?$DO@
.rdata	SEGMENT
??_C@_0CK@EJABICBD@Vehicle?5Mods?5?$DO?5Vehicle?5Spawner?5?$DO@ DB 'Vehic'
	DB	'le Mods > Vehicle Spawner > Off-Road', 00H	; `string'
;	COMDAT ??_C@_0CI@DHFEDJII@Vehicle?5Mods?5?$DO?5Vehicle?5Spawner?5?$DO@
.rdata	SEGMENT
??_C@_0CI@DHFEDJII@Vehicle?5Mods?5?$DO?5Vehicle?5Spawner?5?$DO@ DB 'Vehic'
	DB	'le Mods > Vehicle Spawner > Muscle', 00H	; `string'
;	COMDAT ??_C@_0CM@DNBGHEI@Vehicle?5Mods?5?$DO?5Vehicle?5Spawner?5?$DO@
.rdata	SEGMENT
??_C@_0CM@DNBGHEI@Vehicle?5Mods?5?$DO?5Vehicle?5Spawner?5?$DO@ DB 'Vehicl'
	DB	'e Mods > Vehicle Spawner > Motorcycle', 00H	; `string'
;	COMDAT ??_C@_0CK@MBDMHDKP@Vehicle?5Mods?5?$DO?5Vehicle?5Spawner?5?$DO@
.rdata	SEGMENT
??_C@_0CK@MBDMHDKP@Vehicle?5Mods?5?$DO?5Vehicle?5Spawner?5?$DO@ DB 'Vehic'
	DB	'le Mods > Vehicle Spawner > Military', 00H	; `string'
;	COMDAT ??_C@_0CM@GEKCNAJO@Vehicle?5Mods?5?$DO?5Vehicle?5Spawner?5?$DO@
.rdata	SEGMENT
??_C@_0CM@GEKCNAJO@Vehicle?5Mods?5?$DO?5Vehicle?5Spawner?5?$DO@ DB 'Vehic'
	DB	'le Mods > Vehicle Spawner > Industrial', 00H ; `string'
;	COMDAT ??_C@_0CM@MIDEFHGC@Vehicle?5Mods?5?$DO?5Vehicle?5Spawner?5?$DO@
.rdata	SEGMENT
??_C@_0CM@MIDEFHGC@Vehicle?5Mods?5?$DO?5Vehicle?5Spawner?5?$DO@ DB 'Vehic'
	DB	'le Mods > Vehicle Spawner > Helicopter', 00H ; `string'
;	COMDAT ??_C@_0CL@PHEEJKCG@Vehicle?5Mods?5?$DO?5Vehicle?5Spawner?5?$DO@
.rdata	SEGMENT
??_C@_0CL@PHEEJKCG@Vehicle?5Mods?5?$DO?5Vehicle?5Spawner?5?$DO@ DB 'Vehic'
	DB	'le Mods > Vehicle Spawner > Emergency', 00H	; `string'
;	COMDAT ??_C@_0CH@MEKHMKKG@Vehicle?5Mods?5?$DO?5Vehicle?5Spawner?5?$DO@
.rdata	SEGMENT
??_C@_0CH@MEKHMKKG@Vehicle?5Mods?5?$DO?5Vehicle?5Spawner?5?$DO@ DB 'Vehic'
	DB	'le Mods > Vehicle Spawner > Cycle', 00H	; `string'
;	COMDAT ??_C@_0CH@ELEJPKND@Vehicle?5Mods?5?$DO?5Vehicle?5Spawner?5?$DO@
.rdata	SEGMENT
??_C@_0CH@ELEJPKND@Vehicle?5Mods?5?$DO?5Vehicle?5Spawner?5?$DO@ DB 'Vehic'
	DB	'le Mods > Vehicle Spawner > Coupe', 00H	; `string'
;	COMDAT ??_C@_0CJ@JGFIBILN@Vehicle?5Mods?5?$DO?5Vehicle?5Spawner?5?$DO@
.rdata	SEGMENT
??_C@_0CJ@JGFIBILN@Vehicle?5Mods?5?$DO?5Vehicle?5Spawner?5?$DO@ DB 'Vehic'
	DB	'le Mods > Vehicle Spawner > Compact', 00H	; `string'
;	COMDAT ??_C@_0CM@OFOFILDK@Vehicle?5Mods?5?$DO?5Vehicle?5Spawner?5?$DO@
.rdata	SEGMENT
??_C@_0CM@OFOFILDK@Vehicle?5Mods?5?$DO?5Vehicle?5Spawner?5?$DO@ DB 'Vehic'
	DB	'le Mods > Vehicle Spawner > Commercial', 00H ; `string'
;	COMDAT ??_C@_0CG@DCNFOGOK@Vehicle?5Mods?5?$DO?5Vehicle?5Spawner?5?$DO@
.rdata	SEGMENT
??_C@_0CG@DCNFOGOK@Vehicle?5Mods?5?$DO?5Vehicle?5Spawner?5?$DO@ DB 'Vehic'
	DB	'le Mods > Vehicle Spawner > Boat', 00H	; `string'
;	COMDAT ??_C@_0BP@CGHIOEFJ@Vehicle?5Mods?5?$DO?5Vehicle?5Spawner?$AA@
.rdata	SEGMENT
??_C@_0BP@CGHIOEFJ@Vehicle?5Mods?5?$DO?5Vehicle?5Spawner?$AA@ DB 'Vehicle'
	DB	' Mods > Vehicle Spawner', 00H		; `string'
;	COMDAT ??_C@_0BO@KFBCAGNH@Vehicle?5Mods?5?$DO?5Vehicle?5Editor?$AA@
.rdata	SEGMENT
??_C@_0BO@KFBCAGNH@Vehicle?5Mods?5?$DO?5Vehicle?5Editor?$AA@ DB 'Vehicle '
	DB	'Mods > Vehicle Editor', 00H			; `string'
;	COMDAT ??_C@_0N@JKJCEOIL@Vehicle?5Mods?$AA@
.rdata	SEGMENT
??_C@_0N@JKJCEOIL@Vehicle?5Mods?$AA@ DB 'Vehicle Mods', 00H ; `string'
;	COMDAT ??_C@_0BN@LJOHNBNJ@Weapon?5Mods?5?$DO?5Cannon?5Options?$AA@
.rdata	SEGMENT
??_C@_0BN@LJOHNBNJ@Weapon?5Mods?5?$DO?5Cannon?5Options?$AA@ DB 'Weapon Mo'
	DB	'ds > Cannon Options', 00H			; `string'
;	COMDAT ??_C@_0M@HOMIKOAP@Weapon?5Mods?$AA@
.rdata	SEGMENT
??_C@_0M@HOMIKOAP@Weapon?5Mods?$AA@ DB 'Weapon Mods', 00H ; `string'
;	COMDAT ??_C@_0DF@JAHODGKL@Player?5Mods?5?$DO?5Online?5Players?5?$DO?5?$CF@
.rdata	SEGMENT
??_C@_0DF@JAHODGKL@Player?5Mods?5?$DO?5Online?5Players?5?$DO?5?$CF@ DB 'P'
	DB	'layer Mods > Online Players > %s > Teleport Options', 00H ; `string'
;	COMDAT ??_C@_0DE@ILPNPFJC@Player?5Mods?5?$DO?5Online?5Players?5?$DO?5?$CF@
.rdata	SEGMENT
??_C@_0DE@ILPNPFJC@Player?5Mods?5?$DO?5Online?5Players?5?$DO?5?$CF@ DB 'P'
	DB	'layer Mods > Online Players > %s > Vehicle Options', 00H ; `string'
;	COMDAT ??_C@_0DD@DALAHFHN@Player?5Mods?5?$DO?5Online?5Players?5?$DO?5?$CF@
.rdata	SEGMENT
??_C@_0DD@DALAHFHN@Player?5Mods?5?$DO?5Online?5Players?5?$DO?5?$CF@ DB 'P'
	DB	'layer Mods > Online Players > %s > Weapon Options', 00H ; `string'
;	COMDAT ??_C@_0DG@GPGIDGAN@Player?5Mods?5?$DO?5Online?5Players?5?$DO?5?$CF@
.rdata	SEGMENT
??_C@_0DG@GPGIDGAN@Player?5Mods?5?$DO?5Online?5Players?5?$DO?5?$CF@ DB 'P'
	DB	'layer Mods > Online Players > %s > Explosion Options', 00H ; `string'
;	COMDAT ??_C@_0DG@JNINBGGA@Player?5Mods?5?$DO?5Online?5Players?5?$DO?5?$CF@
.rdata	SEGMENT
??_C@_0DG@JNINBGGA@Player?5Mods?5?$DO?5Online?5Players?5?$DO?5?$CF@ DB 'P'
	DB	'layer Mods > Online Players > %s > Cash Drop Options', 00H ; `string'
;	COMDAT ??_C@_0CC@PKBCPHMM@Player?5Mods?5?$DO?5Online?5Players?5?$DO?5?$CF@
.rdata	SEGMENT
??_C@_0CC@PKBCPHMM@Player?5Mods?5?$DO?5Online?5Players?5?$DO?5?$CF@ DB 'P'
	DB	'layer Mods > Online Players > %s', 00H	; `string'
;	COMDAT ??_C@_0BN@PPPGCAIK@Player?5Mods?5?$DO?5Online?5Players?$AA@
.rdata	SEGMENT
??_C@_0BN@PPPGCAIK@Player?5Mods?5?$DO?5Online?5Players?$AA@ DB 'Player Mo'
	DB	'ds > Online Players', 00H			; `string'
;	COMDAT ??_C@_0M@OMAACFCM@Player?5Mods?$AA@
.rdata	SEGMENT
??_C@_0M@OMAACFCM@Player?5Mods?$AA@ DB 'Player Mods', 00H ; `string'
;	COMDAT ??_C@_09KHECDFAE@Main?5Mods?$AA@
.rdata	SEGMENT
??_C@_09KHECDFAE@Main?5Mods?$AA@ DB 'Main Mods', 00H	; `string'
;	COMDAT ??_C@_09JDDCPHDA@Main?5Menu?$AA@
.rdata	SEGMENT
??_C@_09JDDCPHDA@Main?5Menu?$AA@ DB 'Main Menu', 00H	; `string'
;	COMDAT ??_C@_00CNPNBAHC@?$AA@
.rdata	SEGMENT
??_C@_00CNPNBAHC@?$AA@ DB 00H				; `string'
;	COMDAT ?_Rank@?$_Arithmetic_traits@O@std@@2HB
.rdata	SEGMENT
?_Rank@?$_Arithmetic_traits@O@std@@2HB DD 09H		; std::_Arithmetic_traits<long double>::_Rank
;	COMDAT ?_Rank@?$_Arithmetic_traits@N@std@@2HB
.rdata	SEGMENT
?_Rank@?$_Arithmetic_traits@N@std@@2HB DD 08H		; std::_Arithmetic_traits<double>::_Rank
;	COMDAT ?_Rank@?$_Arithmetic_traits@M@std@@2HB
.rdata	SEGMENT
?_Rank@?$_Arithmetic_traits@M@std@@2HB DD 07H		; std::_Arithmetic_traits<float>::_Rank
;	COMDAT ?_Rank@?$_Arithmetic_traits@_K@std@@2HB
.rdata	SEGMENT
?_Rank@?$_Arithmetic_traits@_K@std@@2HB DD 06H		; std::_Arithmetic_traits<unsigned __int64>::_Rank
;	COMDAT ?_Rank@?$_Arithmetic_traits@_J@std@@2HB
.rdata	SEGMENT
?_Rank@?$_Arithmetic_traits@_J@std@@2HB DD 06H		; std::_Arithmetic_traits<__int64>::_Rank
;	COMDAT ?_Rank@?$_Arithmetic_traits@K@std@@2HB
.rdata	SEGMENT
?_Rank@?$_Arithmetic_traits@K@std@@2HB DD 05H		; std::_Arithmetic_traits<unsigned long>::_Rank
;	COMDAT ?_Rank@?$_Arithmetic_traits@J@std@@2HB
.rdata	SEGMENT
?_Rank@?$_Arithmetic_traits@J@std@@2HB DD 05H		; std::_Arithmetic_traits<long>::_Rank
;	COMDAT ?_Rank@?$_Arithmetic_traits@I@std@@2HB
.rdata	SEGMENT
?_Rank@?$_Arithmetic_traits@I@std@@2HB DD 04H		; std::_Arithmetic_traits<unsigned int>::_Rank
;	COMDAT ?_Rank@?$_Arithmetic_traits@H@std@@2HB
.rdata	SEGMENT
?_Rank@?$_Arithmetic_traits@H@std@@2HB DD 04H		; std::_Arithmetic_traits<int>::_Rank
;	COMDAT ?_Rank@?$_Arithmetic_traits@G@std@@2HB
.rdata	SEGMENT
?_Rank@?$_Arithmetic_traits@G@std@@2HB DD 03H		; std::_Arithmetic_traits<unsigned short>::_Rank
;	COMDAT ?_Rank@?$_Arithmetic_traits@F@std@@2HB
.rdata	SEGMENT
?_Rank@?$_Arithmetic_traits@F@std@@2HB DD 03H		; std::_Arithmetic_traits<short>::_Rank
;	COMDAT ?_Rank@?$_Arithmetic_traits@E@std@@2HB
.rdata	SEGMENT
?_Rank@?$_Arithmetic_traits@E@std@@2HB DD 02H		; std::_Arithmetic_traits<unsigned char>::_Rank
;	COMDAT ?_Rank@?$_Arithmetic_traits@C@std@@2HB
.rdata	SEGMENT
?_Rank@?$_Arithmetic_traits@C@std@@2HB DD 02H		; std::_Arithmetic_traits<signed char>::_Rank
;	COMDAT ?_Rank@?$_Arithmetic_traits@D@std@@2HB
.rdata	SEGMENT
?_Rank@?$_Arithmetic_traits@D@std@@2HB DD 02H		; std::_Arithmetic_traits<char>::_Rank
;	COMDAT ?_Rank@?$_Arithmetic_traits@_N@std@@2HB
.rdata	SEGMENT
?_Rank@?$_Arithmetic_traits@_N@std@@2HB DD 01H		; std::_Arithmetic_traits<bool>::_Rank
;	COMDAT ?value@?$integral_constant@I$0A@@tr1@std@@2IB
.rdata	SEGMENT
?value@?$integral_constant@I$0A@@tr1@std@@2IB DD 00H	; std::tr1::integral_constant<unsigned int,0>::value
;	COMDAT ?value@?$integral_constant@_N$00@tr1@std@@2_NB
.rdata	SEGMENT
?value@?$integral_constant@_N$00@tr1@std@@2_NB DB 01H	; std::tr1::integral_constant<bool,1>::value
;	COMDAT ?value@?$integral_constant@_N$0A@@tr1@std@@2_NB
.rdata	SEGMENT
?value@?$integral_constant@_N$0A@@tr1@std@@2_NB DB 00H	; std::tr1::integral_constant<bool,0>::value
;	COMDAT ?min_exponent10@?$numeric_limits@O@std@@2HB
.rdata	SEGMENT
?min_exponent10@?$numeric_limits@O@std@@2HB DD 0fffffecdH ; std::numeric_limits<long double>::min_exponent10
;	COMDAT ?min_exponent@?$numeric_limits@O@std@@2HB
.rdata	SEGMENT
?min_exponent@?$numeric_limits@O@std@@2HB DD 0fffffc03H	; std::numeric_limits<long double>::min_exponent
;	COMDAT ?max_exponent10@?$numeric_limits@O@std@@2HB
.rdata	SEGMENT
?max_exponent10@?$numeric_limits@O@std@@2HB DD 0134H	; std::numeric_limits<long double>::max_exponent10
;	COMDAT ?max_exponent@?$numeric_limits@O@std@@2HB
.rdata	SEGMENT
?max_exponent@?$numeric_limits@O@std@@2HB DD 0400H	; std::numeric_limits<long double>::max_exponent
;	COMDAT ?max_digits10@?$numeric_limits@O@std@@2HB
.rdata	SEGMENT
?max_digits10@?$numeric_limits@O@std@@2HB DD 011H	; std::numeric_limits<long double>::max_digits10
;	COMDAT ?digits10@?$numeric_limits@O@std@@2HB
.rdata	SEGMENT
?digits10@?$numeric_limits@O@std@@2HB DD 0fH		; std::numeric_limits<long double>::digits10
;	COMDAT ?digits@?$numeric_limits@O@std@@2HB
.rdata	SEGMENT
?digits@?$numeric_limits@O@std@@2HB DD 035H		; std::numeric_limits<long double>::digits
;	COMDAT ?min_exponent10@?$numeric_limits@N@std@@2HB
.rdata	SEGMENT
?min_exponent10@?$numeric_limits@N@std@@2HB DD 0fffffecdH ; std::numeric_limits<double>::min_exponent10
;	COMDAT ?min_exponent@?$numeric_limits@N@std@@2HB
.rdata	SEGMENT
?min_exponent@?$numeric_limits@N@std@@2HB DD 0fffffc03H	; std::numeric_limits<double>::min_exponent
;	COMDAT ?max_exponent10@?$numeric_limits@N@std@@2HB
.rdata	SEGMENT
?max_exponent10@?$numeric_limits@N@std@@2HB DD 0134H	; std::numeric_limits<double>::max_exponent10
;	COMDAT ?max_exponent@?$numeric_limits@N@std@@2HB
.rdata	SEGMENT
?max_exponent@?$numeric_limits@N@std@@2HB DD 0400H	; std::numeric_limits<double>::max_exponent
;	COMDAT ?max_digits10@?$numeric_limits@N@std@@2HB
.rdata	SEGMENT
?max_digits10@?$numeric_limits@N@std@@2HB DD 011H	; std::numeric_limits<double>::max_digits10
;	COMDAT ?digits10@?$numeric_limits@N@std@@2HB
.rdata	SEGMENT
?digits10@?$numeric_limits@N@std@@2HB DD 0fH		; std::numeric_limits<double>::digits10
;	COMDAT ?digits@?$numeric_limits@N@std@@2HB
.rdata	SEGMENT
?digits@?$numeric_limits@N@std@@2HB DD 035H		; std::numeric_limits<double>::digits
;	COMDAT ?min_exponent10@?$numeric_limits@M@std@@2HB
.rdata	SEGMENT
?min_exponent10@?$numeric_limits@M@std@@2HB DD 0ffffffdbH ; std::numeric_limits<float>::min_exponent10
;	COMDAT ?min_exponent@?$numeric_limits@M@std@@2HB
.rdata	SEGMENT
?min_exponent@?$numeric_limits@M@std@@2HB DD 0ffffff83H	; std::numeric_limits<float>::min_exponent
;	COMDAT ?max_exponent10@?$numeric_limits@M@std@@2HB
.rdata	SEGMENT
?max_exponent10@?$numeric_limits@M@std@@2HB DD 026H	; std::numeric_limits<float>::max_exponent10
;	COMDAT ?max_exponent@?$numeric_limits@M@std@@2HB
.rdata	SEGMENT
?max_exponent@?$numeric_limits@M@std@@2HB DD 080H	; std::numeric_limits<float>::max_exponent
;	COMDAT ?max_digits10@?$numeric_limits@M@std@@2HB
.rdata	SEGMENT
?max_digits10@?$numeric_limits@M@std@@2HB DD 08H	; std::numeric_limits<float>::max_digits10
;	COMDAT ?digits10@?$numeric_limits@M@std@@2HB
.rdata	SEGMENT
?digits10@?$numeric_limits@M@std@@2HB DD 06H		; std::numeric_limits<float>::digits10
;	COMDAT ?digits@?$numeric_limits@M@std@@2HB
.rdata	SEGMENT
?digits@?$numeric_limits@M@std@@2HB DD 018H		; std::numeric_limits<float>::digits
;	COMDAT ?max_digits10@?$numeric_limits@_K@std@@2HB
.rdata	SEGMENT
?max_digits10@?$numeric_limits@_K@std@@2HB DD 015H	; std::numeric_limits<unsigned __int64>::max_digits10
;	COMDAT ?digits10@?$numeric_limits@_K@std@@2HB
.rdata	SEGMENT
?digits10@?$numeric_limits@_K@std@@2HB DD 013H		; std::numeric_limits<unsigned __int64>::digits10
;	COMDAT ?digits@?$numeric_limits@_K@std@@2HB
.rdata	SEGMENT
?digits@?$numeric_limits@_K@std@@2HB DD 040H		; std::numeric_limits<unsigned __int64>::digits
;	COMDAT ?is_signed@?$numeric_limits@_K@std@@2_NB
.rdata	SEGMENT
?is_signed@?$numeric_limits@_K@std@@2_NB DB 00H		; std::numeric_limits<unsigned __int64>::is_signed
;	COMDAT ?max_digits10@?$numeric_limits@_J@std@@2HB
.rdata	SEGMENT
?max_digits10@?$numeric_limits@_J@std@@2HB DD 014H	; std::numeric_limits<__int64>::max_digits10
;	COMDAT ?digits10@?$numeric_limits@_J@std@@2HB
.rdata	SEGMENT
?digits10@?$numeric_limits@_J@std@@2HB DD 012H		; std::numeric_limits<__int64>::digits10
;	COMDAT ?digits@?$numeric_limits@_J@std@@2HB
.rdata	SEGMENT
?digits@?$numeric_limits@_J@std@@2HB DD 03fH		; std::numeric_limits<__int64>::digits
;	COMDAT ?is_signed@?$numeric_limits@_J@std@@2_NB
.rdata	SEGMENT
?is_signed@?$numeric_limits@_J@std@@2_NB DB 01H		; std::numeric_limits<__int64>::is_signed
;	COMDAT ?max_digits10@?$numeric_limits@K@std@@2HB
.rdata	SEGMENT
?max_digits10@?$numeric_limits@K@std@@2HB DD 0bH	; std::numeric_limits<unsigned long>::max_digits10
;	COMDAT ?digits10@?$numeric_limits@K@std@@2HB
.rdata	SEGMENT
?digits10@?$numeric_limits@K@std@@2HB DD 09H		; std::numeric_limits<unsigned long>::digits10
;	COMDAT ?digits@?$numeric_limits@K@std@@2HB
.rdata	SEGMENT
?digits@?$numeric_limits@K@std@@2HB DD 020H		; std::numeric_limits<unsigned long>::digits
;	COMDAT ?is_signed@?$numeric_limits@K@std@@2_NB
.rdata	SEGMENT
?is_signed@?$numeric_limits@K@std@@2_NB DB 00H		; std::numeric_limits<unsigned long>::is_signed
;	COMDAT ?max_digits10@?$numeric_limits@J@std@@2HB
.rdata	SEGMENT
?max_digits10@?$numeric_limits@J@std@@2HB DD 0bH	; std::numeric_limits<long>::max_digits10
;	COMDAT ?digits10@?$numeric_limits@J@std@@2HB
.rdata	SEGMENT
?digits10@?$numeric_limits@J@std@@2HB DD 09H		; std::numeric_limits<long>::digits10
;	COMDAT ?digits@?$numeric_limits@J@std@@2HB
.rdata	SEGMENT
?digits@?$numeric_limits@J@std@@2HB DD 01fH		; std::numeric_limits<long>::digits
;	COMDAT ?is_signed@?$numeric_limits@J@std@@2_NB
.rdata	SEGMENT
?is_signed@?$numeric_limits@J@std@@2_NB DB 01H		; std::numeric_limits<long>::is_signed
;	COMDAT ?max_digits10@?$numeric_limits@I@std@@2HB
.rdata	SEGMENT
?max_digits10@?$numeric_limits@I@std@@2HB DD 0bH	; std::numeric_limits<unsigned int>::max_digits10
;	COMDAT ?digits10@?$numeric_limits@I@std@@2HB
.rdata	SEGMENT
?digits10@?$numeric_limits@I@std@@2HB DD 09H		; std::numeric_limits<unsigned int>::digits10
;	COMDAT ?digits@?$numeric_limits@I@std@@2HB
.rdata	SEGMENT
?digits@?$numeric_limits@I@std@@2HB DD 020H		; std::numeric_limits<unsigned int>::digits
;	COMDAT ?is_signed@?$numeric_limits@I@std@@2_NB
.rdata	SEGMENT
?is_signed@?$numeric_limits@I@std@@2_NB DB 00H		; std::numeric_limits<unsigned int>::is_signed
;	COMDAT ?max_digits10@?$numeric_limits@H@std@@2HB
.rdata	SEGMENT
?max_digits10@?$numeric_limits@H@std@@2HB DD 0bH	; std::numeric_limits<int>::max_digits10
;	COMDAT ?digits10@?$numeric_limits@H@std@@2HB
.rdata	SEGMENT
?digits10@?$numeric_limits@H@std@@2HB DD 09H		; std::numeric_limits<int>::digits10
;	COMDAT ?digits@?$numeric_limits@H@std@@2HB
.rdata	SEGMENT
?digits@?$numeric_limits@H@std@@2HB DD 01fH		; std::numeric_limits<int>::digits
;	COMDAT ?is_signed@?$numeric_limits@H@std@@2_NB
.rdata	SEGMENT
?is_signed@?$numeric_limits@H@std@@2_NB DB 01H		; std::numeric_limits<int>::is_signed
;	COMDAT ?max_digits10@?$numeric_limits@G@std@@2HB
.rdata	SEGMENT
?max_digits10@?$numeric_limits@G@std@@2HB DD 06H	; std::numeric_limits<unsigned short>::max_digits10
;	COMDAT ?digits10@?$numeric_limits@G@std@@2HB
.rdata	SEGMENT
?digits10@?$numeric_limits@G@std@@2HB DD 04H		; std::numeric_limits<unsigned short>::digits10
;	COMDAT ?digits@?$numeric_limits@G@std@@2HB
.rdata	SEGMENT
?digits@?$numeric_limits@G@std@@2HB DD 010H		; std::numeric_limits<unsigned short>::digits
;	COMDAT ?is_signed@?$numeric_limits@G@std@@2_NB
.rdata	SEGMENT
?is_signed@?$numeric_limits@G@std@@2_NB DB 00H		; std::numeric_limits<unsigned short>::is_signed
;	COMDAT ?max_digits10@?$numeric_limits@F@std@@2HB
.rdata	SEGMENT
?max_digits10@?$numeric_limits@F@std@@2HB DD 06H	; std::numeric_limits<short>::max_digits10
;	COMDAT ?digits10@?$numeric_limits@F@std@@2HB
.rdata	SEGMENT
?digits10@?$numeric_limits@F@std@@2HB DD 04H		; std::numeric_limits<short>::digits10
;	COMDAT ?digits@?$numeric_limits@F@std@@2HB
.rdata	SEGMENT
?digits@?$numeric_limits@F@std@@2HB DD 0fH		; std::numeric_limits<short>::digits
;	COMDAT ?is_signed@?$numeric_limits@F@std@@2_NB
.rdata	SEGMENT
?is_signed@?$numeric_limits@F@std@@2_NB DB 01H		; std::numeric_limits<short>::is_signed
;	COMDAT ?max_digits10@?$numeric_limits@E@std@@2HB
.rdata	SEGMENT
?max_digits10@?$numeric_limits@E@std@@2HB DD 04H	; std::numeric_limits<unsigned char>::max_digits10
;	COMDAT ?digits10@?$numeric_limits@E@std@@2HB
.rdata	SEGMENT
?digits10@?$numeric_limits@E@std@@2HB DD 02H		; std::numeric_limits<unsigned char>::digits10
;	COMDAT ?digits@?$numeric_limits@E@std@@2HB
.rdata	SEGMENT
?digits@?$numeric_limits@E@std@@2HB DD 08H		; std::numeric_limits<unsigned char>::digits
;	COMDAT ?is_signed@?$numeric_limits@E@std@@2_NB
.rdata	SEGMENT
?is_signed@?$numeric_limits@E@std@@2_NB DB 00H		; std::numeric_limits<unsigned char>::is_signed
;	COMDAT ?max_digits10@?$numeric_limits@C@std@@2HB
.rdata	SEGMENT
?max_digits10@?$numeric_limits@C@std@@2HB DD 04H	; std::numeric_limits<signed char>::max_digits10
;	COMDAT ?digits10@?$numeric_limits@C@std@@2HB
.rdata	SEGMENT
?digits10@?$numeric_limits@C@std@@2HB DD 02H		; std::numeric_limits<signed char>::digits10
;	COMDAT ?digits@?$numeric_limits@C@std@@2HB
.rdata	SEGMENT
?digits@?$numeric_limits@C@std@@2HB DD 07H		; std::numeric_limits<signed char>::digits
;	COMDAT ?is_signed@?$numeric_limits@C@std@@2_NB
.rdata	SEGMENT
?is_signed@?$numeric_limits@C@std@@2_NB DB 01H		; std::numeric_limits<signed char>::is_signed
;	COMDAT ?max_digits10@?$numeric_limits@_N@std@@2HB
.rdata	SEGMENT
?max_digits10@?$numeric_limits@_N@std@@2HB DD 00H	; std::numeric_limits<bool>::max_digits10
;	COMDAT ?digits10@?$numeric_limits@_N@std@@2HB
.rdata	SEGMENT
?digits10@?$numeric_limits@_N@std@@2HB DD 00H		; std::numeric_limits<bool>::digits10
;	COMDAT ?digits@?$numeric_limits@_N@std@@2HB
.rdata	SEGMENT
?digits@?$numeric_limits@_N@std@@2HB DD 01H		; std::numeric_limits<bool>::digits
;	COMDAT ?is_signed@?$numeric_limits@_N@std@@2_NB
.rdata	SEGMENT
?is_signed@?$numeric_limits@_N@std@@2_NB DB 00H		; std::numeric_limits<bool>::is_signed
;	COMDAT ?is_modulo@?$numeric_limits@_N@std@@2_NB
.rdata	SEGMENT
?is_modulo@?$numeric_limits@_N@std@@2_NB DB 00H		; std::numeric_limits<bool>::is_modulo
;	COMDAT ?max_digits10@?$numeric_limits@_W@std@@2HB
.rdata	SEGMENT
?max_digits10@?$numeric_limits@_W@std@@2HB DD 06H	; std::numeric_limits<wchar_t>::max_digits10
;	COMDAT ?digits10@?$numeric_limits@_W@std@@2HB
.rdata	SEGMENT
?digits10@?$numeric_limits@_W@std@@2HB DD 04H		; std::numeric_limits<wchar_t>::digits10
;	COMDAT ?digits@?$numeric_limits@_W@std@@2HB
.rdata	SEGMENT
?digits@?$numeric_limits@_W@std@@2HB DD 010H		; std::numeric_limits<wchar_t>::digits
;	COMDAT ?is_signed@?$numeric_limits@_W@std@@2_NB
.rdata	SEGMENT
?is_signed@?$numeric_limits@_W@std@@2_NB DB 00H		; std::numeric_limits<wchar_t>::is_signed
;	COMDAT ?max_digits10@?$numeric_limits@D@std@@2HB
.rdata	SEGMENT
?max_digits10@?$numeric_limits@D@std@@2HB DD 04H	; std::numeric_limits<char>::max_digits10
;	COMDAT ?digits10@?$numeric_limits@D@std@@2HB
.rdata	SEGMENT
?digits10@?$numeric_limits@D@std@@2HB DD 02H		; std::numeric_limits<char>::digits10
;	COMDAT ?digits@?$numeric_limits@D@std@@2HB
.rdata	SEGMENT
?digits@?$numeric_limits@D@std@@2HB DD 07H		; std::numeric_limits<char>::digits
;	COMDAT ?is_signed@?$numeric_limits@D@std@@2_NB
.rdata	SEGMENT
?is_signed@?$numeric_limits@D@std@@2_NB DB 01H		; std::numeric_limits<char>::is_signed
;	COMDAT ?radix@_Num_float_base@std@@2HB
.rdata	SEGMENT
?radix@_Num_float_base@std@@2HB DD 02H			; std::_Num_float_base::radix
;	COMDAT ?round_style@_Num_float_base@std@@2W4float_round_style@2@B
.rdata	SEGMENT
?round_style@_Num_float_base@std@@2W4float_round_style@2@B DD 01H ; std::_Num_float_base::round_style
;	COMDAT ?traps@_Num_float_base@std@@2_NB
.rdata	SEGMENT
?traps@_Num_float_base@std@@2_NB DB 01H			; std::_Num_float_base::traps
;	COMDAT ?tinyness_before@_Num_float_base@std@@2_NB
.rdata	SEGMENT
?tinyness_before@_Num_float_base@std@@2_NB DB 01H	; std::_Num_float_base::tinyness_before
;	COMDAT ?is_specialized@_Num_float_base@std@@2_NB
.rdata	SEGMENT
?is_specialized@_Num_float_base@std@@2_NB DB 01H	; std::_Num_float_base::is_specialized
;	COMDAT ?is_signed@_Num_float_base@std@@2_NB
.rdata	SEGMENT
?is_signed@_Num_float_base@std@@2_NB DB 01H		; std::_Num_float_base::is_signed
;	COMDAT ?is_modulo@_Num_float_base@std@@2_NB
.rdata	SEGMENT
?is_modulo@_Num_float_base@std@@2_NB DB 00H		; std::_Num_float_base::is_modulo
;	COMDAT ?is_integer@_Num_float_base@std@@2_NB
.rdata	SEGMENT
?is_integer@_Num_float_base@std@@2_NB DB 00H		; std::_Num_float_base::is_integer
;	COMDAT ?is_iec559@_Num_float_base@std@@2_NB
.rdata	SEGMENT
?is_iec559@_Num_float_base@std@@2_NB DB 01H		; std::_Num_float_base::is_iec559
;	COMDAT ?is_exact@_Num_float_base@std@@2_NB
.rdata	SEGMENT
?is_exact@_Num_float_base@std@@2_NB DB 00H		; std::_Num_float_base::is_exact
;	COMDAT ?is_bounded@_Num_float_base@std@@2_NB
.rdata	SEGMENT
?is_bounded@_Num_float_base@std@@2_NB DB 01H		; std::_Num_float_base::is_bounded
;	COMDAT ?has_signaling_NaN@_Num_float_base@std@@2_NB
.rdata	SEGMENT
?has_signaling_NaN@_Num_float_base@std@@2_NB DB 01H	; std::_Num_float_base::has_signaling_NaN
;	COMDAT ?has_quiet_NaN@_Num_float_base@std@@2_NB
.rdata	SEGMENT
?has_quiet_NaN@_Num_float_base@std@@2_NB DB 01H		; std::_Num_float_base::has_quiet_NaN
;	COMDAT ?has_infinity@_Num_float_base@std@@2_NB
.rdata	SEGMENT
?has_infinity@_Num_float_base@std@@2_NB DB 01H		; std::_Num_float_base::has_infinity
;	COMDAT ?has_denorm_loss@_Num_float_base@std@@2_NB
.rdata	SEGMENT
?has_denorm_loss@_Num_float_base@std@@2_NB DB 01H	; std::_Num_float_base::has_denorm_loss
;	COMDAT ?has_denorm@_Num_float_base@std@@2W4float_denorm_style@2@B
.rdata	SEGMENT
?has_denorm@_Num_float_base@std@@2W4float_denorm_style@2@B DD 01H ; std::_Num_float_base::has_denorm
;	COMDAT ?radix@_Num_int_base@std@@2HB
.rdata	SEGMENT
?radix@_Num_int_base@std@@2HB DD 02H			; std::_Num_int_base::radix
;	COMDAT ?is_specialized@_Num_int_base@std@@2_NB
.rdata	SEGMENT
?is_specialized@_Num_int_base@std@@2_NB DB 01H		; std::_Num_int_base::is_specialized
;	COMDAT ?is_modulo@_Num_int_base@std@@2_NB
.rdata	SEGMENT
?is_modulo@_Num_int_base@std@@2_NB DB 01H		; std::_Num_int_base::is_modulo
;	COMDAT ?is_integer@_Num_int_base@std@@2_NB
.rdata	SEGMENT
?is_integer@_Num_int_base@std@@2_NB DB 01H		; std::_Num_int_base::is_integer
;	COMDAT ?is_exact@_Num_int_base@std@@2_NB
.rdata	SEGMENT
?is_exact@_Num_int_base@std@@2_NB DB 01H		; std::_Num_int_base::is_exact
;	COMDAT ?is_bounded@_Num_int_base@std@@2_NB
.rdata	SEGMENT
?is_bounded@_Num_int_base@std@@2_NB DB 01H		; std::_Num_int_base::is_bounded
;	COMDAT ?radix@_Num_base@std@@2HB
.rdata	SEGMENT
?radix@_Num_base@std@@2HB DD 00H			; std::_Num_base::radix
;	COMDAT ?min_exponent10@_Num_base@std@@2HB
.rdata	SEGMENT
?min_exponent10@_Num_base@std@@2HB DD 00H		; std::_Num_base::min_exponent10
;	COMDAT ?min_exponent@_Num_base@std@@2HB
.rdata	SEGMENT
?min_exponent@_Num_base@std@@2HB DD 00H			; std::_Num_base::min_exponent
;	COMDAT ?max_exponent10@_Num_base@std@@2HB
.rdata	SEGMENT
?max_exponent10@_Num_base@std@@2HB DD 00H		; std::_Num_base::max_exponent10
;	COMDAT ?max_exponent@_Num_base@std@@2HB
.rdata	SEGMENT
?max_exponent@_Num_base@std@@2HB DD 00H			; std::_Num_base::max_exponent
;	COMDAT ?max_digits10@_Num_base@std@@2HB
.rdata	SEGMENT
?max_digits10@_Num_base@std@@2HB DD 00H			; std::_Num_base::max_digits10
;	COMDAT ?digits10@_Num_base@std@@2HB
.rdata	SEGMENT
?digits10@_Num_base@std@@2HB DD 00H			; std::_Num_base::digits10
;	COMDAT ?digits@_Num_base@std@@2HB
.rdata	SEGMENT
?digits@_Num_base@std@@2HB DD 00H			; std::_Num_base::digits
;	COMDAT ?round_style@_Num_base@std@@2W4float_round_style@2@B
.rdata	SEGMENT
?round_style@_Num_base@std@@2W4float_round_style@2@B DD 00H ; std::_Num_base::round_style
;	COMDAT ?traps@_Num_base@std@@2_NB
.rdata	SEGMENT
?traps@_Num_base@std@@2_NB DB 00H			; std::_Num_base::traps
;	COMDAT ?tinyness_before@_Num_base@std@@2_NB
.rdata	SEGMENT
?tinyness_before@_Num_base@std@@2_NB DB 00H		; std::_Num_base::tinyness_before
;	COMDAT ?is_specialized@_Num_base@std@@2_NB
.rdata	SEGMENT
?is_specialized@_Num_base@std@@2_NB DB 00H		; std::_Num_base::is_specialized
;	COMDAT ?is_signed@_Num_base@std@@2_NB
.rdata	SEGMENT
?is_signed@_Num_base@std@@2_NB DB 00H			; std::_Num_base::is_signed
;	COMDAT ?is_modulo@_Num_base@std@@2_NB
.rdata	SEGMENT
?is_modulo@_Num_base@std@@2_NB DB 00H			; std::_Num_base::is_modulo
;	COMDAT ?is_integer@_Num_base@std@@2_NB
.rdata	SEGMENT
?is_integer@_Num_base@std@@2_NB DB 00H			; std::_Num_base::is_integer
;	COMDAT ?is_iec559@_Num_base@std@@2_NB
.rdata	SEGMENT
?is_iec559@_Num_base@std@@2_NB DB 00H			; std::_Num_base::is_iec559
;	COMDAT ?is_exact@_Num_base@std@@2_NB
.rdata	SEGMENT
?is_exact@_Num_base@std@@2_NB DB 00H			; std::_Num_base::is_exact
;	COMDAT ?is_bounded@_Num_base@std@@2_NB
.rdata	SEGMENT
?is_bounded@_Num_base@std@@2_NB DB 00H			; std::_Num_base::is_bounded
;	COMDAT ?has_signaling_NaN@_Num_base@std@@2_NB
.rdata	SEGMENT
?has_signaling_NaN@_Num_base@std@@2_NB DB 00H		; std::_Num_base::has_signaling_NaN
;	COMDAT ?has_quiet_NaN@_Num_base@std@@2_NB
.rdata	SEGMENT
?has_quiet_NaN@_Num_base@std@@2_NB DB 00H		; std::_Num_base::has_quiet_NaN
;	COMDAT ?has_infinity@_Num_base@std@@2_NB
.rdata	SEGMENT
?has_infinity@_Num_base@std@@2_NB DB 00H		; std::_Num_base::has_infinity
;	COMDAT ?has_denorm_loss@_Num_base@std@@2_NB
.rdata	SEGMENT
?has_denorm_loss@_Num_base@std@@2_NB DB 00H		; std::_Num_base::has_denorm_loss
;	COMDAT ?has_denorm@_Num_base@std@@2W4float_denorm_style@2@B
.rdata	SEGMENT
?has_denorm@_Num_base@std@@2W4float_denorm_style@2@B DD 00H ; std::_Num_base::has_denorm
;	COMDAT ??_C@_0BC@BDKFLDHL@unknown?5exception?$AA@
.rdata	SEGMENT
??_C@_0BC@BDKFLDHL@unknown?5exception?$AA@ DB 'unknown exception', 00H ; `string'
;	COMDAT ?g_XMUnsignedFix@@3UXMVECTORF32@@B
.rdata	SEGMENT
?g_XMUnsignedFix@@3UXMVECTORF32@@B DD 04f000000r ; 2.14748e+009 ; g_XMUnsignedFix
	DD	04f000000r			; 2.14748e+009
	DD	04f000000r			; 2.14748e+009
	DD	04f000000r			; 2.14748e+009
;	COMDAT ?g_XMMaxUInt@@3UXMVECTORF32@@B
.rdata	SEGMENT
?g_XMMaxUInt@@3UXMVECTORF32@@B DD 04f7fffffr	; 4.29497e+009 ; g_XMMaxUInt
	DD	04f7fffffr			; 4.29497e+009
	DD	04f7fffffr			; 4.29497e+009
	DD	04f7fffffr			; 4.29497e+009
;	COMDAT ?g_XMMaxInt@@3UXMVECTORF32@@B
.rdata	SEGMENT
?g_XMMaxInt@@3UXMVECTORF32@@B DD 04effffffr	; 2.14748e+009 ; g_XMMaxInt
	DD	04effffffr			; 2.14748e+009
	DD	04effffffr			; 2.14748e+009
	DD	04effffffr			; 2.14748e+009
;	COMDAT ?g_XMFixUnsigned@@3UXMVECTORF32@@B
.rdata	SEGMENT
?g_XMFixUnsigned@@3UXMVECTORF32@@B DD 04f000000r ; 2.14748e+009 ; g_XMFixUnsigned
	DD	04f000000r			; 2.14748e+009
	DD	04f000000r			; 2.14748e+009
	DD	04f000000r			; 2.14748e+009
;	COMDAT ?g_XMAddByte4@@3UXMVECTORF32@@B
.rdata	SEGMENT
?g_XMAddByte4@@3UXMVECTORF32@@B DD 0c3000000r	; -128	; g_XMAddByte4
	DD	0c7000000r			; -32768
	DD	0cb000000r			; -8.38861e+006
	DD	000000000r			; 0
;	COMDAT ?g_XMXorByte4@@3UXMVECTORI32@@B
.rdata	SEGMENT
?g_XMXorByte4@@3UXMVECTORI32@@B DD 080H			; g_XMXorByte4
	DD	08000H
	DD	0800000H
	DD	00H
;	COMDAT ?g_XMMaskByte4@@3UXMVECTORI32@@B
.rdata	SEGMENT
?g_XMMaskByte4@@3UXMVECTORI32@@B DD 0ffH		; g_XMMaskByte4
	DD	0ff00H
	DD	0ff0000H
	DD	0ff000000H
;	COMDAT ?g_XMMulDec4@@3UXMVECTORF32@@B
.rdata	SEGMENT
?g_XMMulDec4@@3UXMVECTORF32@@B DD 03f800000r	; 1	; g_XMMulDec4
	DD	03a800000r			; 0.000976563
	DD	035800000r			; 9.53674e-007
	DD	030800000r			; 9.31323e-010
;	COMDAT ?g_XMAddDec4@@3UXMVECTORF32@@B
.rdata	SEGMENT
?g_XMAddDec4@@3UXMVECTORF32@@B DD 0c4000000r	; -512	; g_XMAddDec4
	DD	0c9000000r			; -524288
	DD	0ce000000r			; -5.36871e+008
	DD	000000000r			; 0
;	COMDAT ?g_XMAddUDec4@@3UXMVECTORF32@@B
.rdata	SEGMENT
?g_XMAddUDec4@@3UXMVECTORF32@@B DD 000000000r	; 0	; g_XMAddUDec4
	DD	000000000r			; 0
	DD	000000000r			; 0
	DD	04f000000r			; 2.14748e+009
;	COMDAT ?g_XMXorDec4@@3UXMVECTORI32@@B
.rdata	SEGMENT
?g_XMXorDec4@@3UXMVECTORI32@@B DD 0200H			; g_XMXorDec4
	DD	080000H
	DD	020000000H
	DD	00H
;	COMDAT ?g_XMMaskDec4@@3UXMVECTORI32@@B
.rdata	SEGMENT
?g_XMMaskDec4@@3UXMVECTORI32@@B DD 03ffH		; g_XMMaskDec4
	DD	0ffc00H
	DD	03ff00000H
	DD	0c0000000H
;	COMDAT ?g_XMMulIco4@@3UXMVECTORF32@@B
.rdata	SEGMENT
?g_XMMulIco4@@3UXMVECTORF32@@B DD 03f800000r	; 1	; g_XMMulIco4
	DD	039800000r			; 0.000244141
	DD	03f800000r			; 1
	DD	031800000r			; 3.72529e-009
;	COMDAT ?g_XMAddIco4@@3UXMVECTORF32@@B
.rdata	SEGMENT
?g_XMAddIco4@@3UXMVECTORF32@@B DD 0c9000000r	; -524288 ; g_XMAddIco4
	DD	000000000r			; 0
	DD	0c9000000r			; -524288
	DD	000000000r			; 0
;	COMDAT ?g_XMAddUIco4@@3UXMVECTORF32@@B
.rdata	SEGMENT
?g_XMAddUIco4@@3UXMVECTORF32@@B DD 000000000r	; 0	; g_XMAddUIco4
	DD	04f000000r			; 2.14748e+009
	DD	000000000r			; 0
	DD	04f000000r			; 2.14748e+009
;	COMDAT ?g_XMAddXIco4@@3UXMVECTORF32@@B
.rdata	SEGMENT
?g_XMAddXIco4@@3UXMVECTORF32@@B DD 0c9000000r	; -524288 ; g_XMAddXIco4
	DD	000000000r			; 0
	DD	0c9000000r			; -524288
	DD	04f000000r			; 2.14748e+009
;	COMDAT ?g_XMXorIco4@@3UXMVECTORI32@@B
.rdata	SEGMENT
?g_XMXorIco4@@3UXMVECTORI32@@B DD 080000H		; g_XMXorIco4
	DD	00H
	DD	080000H
	DD	00H
;	COMDAT ?g_XMXorXIco4@@3UXMVECTORI32@@B
.rdata	SEGMENT
?g_XMXorXIco4@@3UXMVECTORI32@@B DD 080000H		; g_XMXorXIco4
	DD	00H
	DD	080000H
	DD	080000000H
;	COMDAT ?g_XMMaskIco4@@3UXMVECTORI32@@B
.rdata	SEGMENT
?g_XMMaskIco4@@3UXMVECTORI32@@B DD 0fffffH		; g_XMMaskIco4
	DD	0fffff000H
	DD	0fffffH
	DD	0f0000000H
;	COMDAT ?g_XMXorDHen3@@3UXMVECTORI32@@B
.rdata	SEGMENT
?g_XMXorDHen3@@3UXMVECTORI32@@B DD 0200H		; g_XMXorDHen3
	DD	0100000H
	DD	00H
	DD	00H
;	COMDAT ?g_XMXorHenD3@@3UXMVECTORI32@@B
.rdata	SEGMENT
?g_XMXorHenD3@@3UXMVECTORI32@@B DD 0400H		; g_XMXorHenD3
	DD	0200000H
	DD	00H
	DD	00H
;	COMDAT ?g_XMMulDHen3@@3UXMVECTORF32@@B
.rdata	SEGMENT
?g_XMMulDHen3@@3UXMVECTORF32@@B DD 03f800000r	; 1	; g_XMMulDHen3
	DD	03a800000r			; 0.000976563
	DD	035000000r			; 4.76837e-007
	DD	000000000r			; 0
;	COMDAT ?g_XMMulHenD3@@3UXMVECTORF32@@B
.rdata	SEGMENT
?g_XMMulHenD3@@3UXMVECTORF32@@B DD 03f800000r	; 1	; g_XMMulHenD3
	DD	03a000000r			; 0.000488281
	DD	034800000r			; 2.38419e-007
	DD	000000000r			; 0
;	COMDAT ?g_XMAddDHen3@@3UXMVECTORF32@@B
.rdata	SEGMENT
?g_XMAddDHen3@@3UXMVECTORF32@@B DD 0c4000000r	; -512	; g_XMAddDHen3
	DD	0c9800000r			; -1.04858e+006
	DD	000000000r			; 0
	DD	000000000r			; 0
;	COMDAT ?g_XMAddHenD3@@3UXMVECTORF32@@B
.rdata	SEGMENT
?g_XMAddHenD3@@3UXMVECTORF32@@B DD 0c4800000r	; -1024	; g_XMAddHenD3
	DD	0ca000000r			; -2.09715e+006
	DD	000000000r			; 0
	DD	000000000r			; 0
;	COMDAT ?g_XMAddUHenD3@@3UXMVECTORF32@@B
.rdata	SEGMENT
?g_XMAddUHenD3@@3UXMVECTORF32@@B DD 000000000r	; 0	; g_XMAddUHenD3
	DD	000000000r			; 0
	DD	04f000000r			; 2.14748e+009
	DD	000000000r			; 0
;	COMDAT ?g_XMMaskDHen3@@3UXMVECTORI32@@B
.rdata	SEGMENT
?g_XMMaskDHen3@@3UXMVECTORI32@@B DD 03ffH		; g_XMMaskDHen3
	DD	01ffc00H
	DD	0ffe00000H
	DD	00H
;	COMDAT ?g_XMMaskHenD3@@3UXMVECTORI32@@B
.rdata	SEGMENT
?g_XMMaskHenD3@@3UXMVECTORI32@@B DD 07ffH		; g_XMMaskHenD3
	DD	03ff800H
	DD	0ffc00000H
	DD	00H
;	COMDAT ?g_XMFlipYW@@3UXMVECTORI32@@B
.rdata	SEGMENT
?g_XMFlipYW@@3UXMVECTORI32@@B DD 00H			; g_XMFlipYW
	DD	080000000H
	DD	00H
	DD	080000000H
;	COMDAT ?g_XMFlipZW@@3UXMVECTORI32@@B
.rdata	SEGMENT
?g_XMFlipZW@@3UXMVECTORI32@@B DD 00H			; g_XMFlipZW
	DD	00H
	DD	080000000H
	DD	080000000H
;	COMDAT ?g_XMFlipYZ@@3UXMVECTORI32@@B
.rdata	SEGMENT
?g_XMFlipYZ@@3UXMVECTORI32@@B DD 00H			; g_XMFlipYZ
	DD	080000000H
	DD	080000000H
	DD	00H
;	COMDAT ?g_XMFlipW@@3UXMVECTORI32@@B
.rdata	SEGMENT
?g_XMFlipW@@3UXMVECTORI32@@B DD 00H			; g_XMFlipW
	DD	00H
	DD	00H
	DD	080000000H
;	COMDAT ?g_XMFlipZ@@3UXMVECTORI32@@B
.rdata	SEGMENT
?g_XMFlipZ@@3UXMVECTORI32@@B DD 00H			; g_XMFlipZ
	DD	00H
	DD	080000000H
	DD	00H
;	COMDAT ?g_XMFlipY@@3UXMVECTORI32@@B
.rdata	SEGMENT
?g_XMFlipY@@3UXMVECTORI32@@B DD 00H			; g_XMFlipY
	DD	080000000H
	DD	00H
	DD	00H
;	COMDAT ?g_XMFixupY16W16@@3UXMVECTORF32@@B
.rdata	SEGMENT
?g_XMFixupY16W16@@3UXMVECTORF32@@B DD 03f800000r ; 1	; g_XMFixupY16W16
	DD	03f800000r			; 1
	DD	037800000r			; 1.52588e-005
	DD	037800000r			; 1.52588e-005
;	COMDAT ?g_XMFixupY16@@3UXMVECTORF32@@B
.rdata	SEGMENT
?g_XMFixupY16@@3UXMVECTORF32@@B DD 03f800000r	; 1	; g_XMFixupY16
	DD	037800000r			; 1.52588e-005
	DD	000000000r			; 0
	DD	000000000r			; 0
;	COMDAT ?g_XMPermute0Z0W1Z1W@@3UXMVECTORI32@@B
.rdata	SEGMENT
?g_XMPermute0Z0W1Z1W@@3UXMVECTORI32@@B DD 08090a0bH	; g_XMPermute0Z0W1Z1W
	DD	0c0d0e0fH
	DD	018191a1bH
	DD	01c1d1e1fH
;	COMDAT ?g_XMPermute0X0Y1X1Y@@3UXMVECTORI32@@B
.rdata	SEGMENT
?g_XMPermute0X0Y1X1Y@@3UXMVECTORI32@@B DD 010203H	; g_XMPermute0X0Y1X1Y
	DD	04050607H
	DD	010111213H
	DD	014151617H
;	COMDAT ?g_XMSwizzleZXYW@@3UXMVECTORI32@@B
.rdata	SEGMENT
?g_XMSwizzleZXYW@@3UXMVECTORI32@@B DD 08090a0bH		; g_XMSwizzleZXYW
	DD	010203H
	DD	04050607H
	DD	0c0d0e0fH
;	COMDAT ?g_XMSwizzleYZXW@@3UXMVECTORI32@@B
.rdata	SEGMENT
?g_XMSwizzleYZXW@@3UXMVECTORI32@@B DD 04050607H		; g_XMSwizzleYZXW
	DD	08090a0bH
	DD	010203H
	DD	0c0d0e0fH
;	COMDAT ?g_XMSwizzleYXZW@@3UXMVECTORI32@@B
.rdata	SEGMENT
?g_XMSwizzleYXZW@@3UXMVECTORI32@@B DD 04050607H		; g_XMSwizzleYXZW
	DD	010203H
	DD	08090a0bH
	DD	0c0d0e0fH
;	COMDAT ?g_XMSwizzleXYZX@@3UXMVECTORI32@@B
.rdata	SEGMENT
?g_XMSwizzleXYZX@@3UXMVECTORI32@@B DD 010203H		; g_XMSwizzleXYZX
	DD	04050607H
	DD	08090a0bH
	DD	010203H
;	COMDAT ?g_XMSwizzleXYXY@@3UXMVECTORI32@@B
.rdata	SEGMENT
?g_XMSwizzleXYXY@@3UXMVECTORI32@@B DD 010203H		; g_XMSwizzleXYXY
	DD	04050607H
	DD	010203H
	DD	04050607H
;	COMDAT ?g_XMSelect1110@@3UXMVECTORI32@@B
.rdata	SEGMENT
?g_XMSelect1110@@3UXMVECTORI32@@B DD 0ffffffffH		; g_XMSelect1110
	DD	0ffffffffH
	DD	0ffffffffH
	DD	00H
;	COMDAT ?g_XMSelect1100@@3UXMVECTORI32@@B
.rdata	SEGMENT
?g_XMSelect1100@@3UXMVECTORI32@@B DD 0ffffffffH		; g_XMSelect1100
	DD	0ffffffffH
	DD	00H
	DD	00H
;	COMDAT ?g_XMSelect1000@@3UXMVECTORI32@@B
.rdata	SEGMENT
?g_XMSelect1000@@3UXMVECTORI32@@B DD 0ffffffffH		; g_XMSelect1000
	DD	00H
	DD	00H
	DD	00H
;	COMDAT ?g_XMOneHalfMinusEpsilon@@3UXMVECTORI32@@B
.rdata	SEGMENT
?g_XMOneHalfMinusEpsilon@@3UXMVECTORI32@@B DD 03efffffdH ; g_XMOneHalfMinusEpsilon
	DD	03efffffdH
	DD	03efffffdH
	DD	03efffffdH
;	COMDAT ?g_XMSelect1010@@3UXMVECTORI32@@B
.rdata	SEGMENT
?g_XMSelect1010@@3UXMVECTORI32@@B DD 0ffffffffH		; g_XMSelect1010
	DD	00H
	DD	0ffffffffH
	DD	00H
;	COMDAT ?g_XMSelect0101@@3UXMVECTORI32@@B
.rdata	SEGMENT
?g_XMSelect0101@@3UXMVECTORI32@@B DD 00H		; g_XMSelect0101
	DD	0ffffffffH
	DD	00H
	DD	0ffffffffH
;	COMDAT ?g_XMNegateW@@3UXMVECTORF32@@B
.rdata	SEGMENT
?g_XMNegateW@@3UXMVECTORF32@@B DD 03f800000r	; 1	; g_XMNegateW
	DD	03f800000r			; 1
	DD	03f800000r			; 1
	DD	0bf800000r			; -1
;	COMDAT ?g_XMNegateZ@@3UXMVECTORF32@@B
.rdata	SEGMENT
?g_XMNegateZ@@3UXMVECTORF32@@B DD 03f800000r	; 1	; g_XMNegateZ
	DD	03f800000r			; 1
	DD	0bf800000r			; -1
	DD	03f800000r			; 1
;	COMDAT ?g_XMNegateY@@3UXMVECTORF32@@B
.rdata	SEGMENT
?g_XMNegateY@@3UXMVECTORF32@@B DD 03f800000r	; 1	; g_XMNegateY
	DD	0bf800000r			; -1
	DD	03f800000r			; 1
	DD	03f800000r			; 1
;	COMDAT ?g_XMNegateX@@3UXMVECTORF32@@B
.rdata	SEGMENT
?g_XMNegateX@@3UXMVECTORF32@@B DD 0bf800000r	; -1	; g_XMNegateX
	DD	03f800000r			; 1
	DD	03f800000r			; 1
	DD	03f800000r			; 1
;	COMDAT ?g_XMMaskByte@@3UXMVECTORI32@@B
.rdata	SEGMENT
?g_XMMaskByte@@3UXMVECTORI32@@B DD 0ffH			; g_XMMaskByte
	DD	0ffH
	DD	0ffH
	DD	0ffH
;	COMDAT ?g_XMNoFraction@@3UXMVECTORF32@@B
.rdata	SEGMENT
?g_XMNoFraction@@3UXMVECTORF32@@B DD 04b000000r	; 8.38861e+006 ; g_XMNoFraction
	DD	04b000000r			; 8.38861e+006
	DD	04b000000r			; 8.38861e+006
	DD	04b000000r			; 8.38861e+006
;	COMDAT ?g_XMNormalizeX16Y16Z16W16@@3UXMVECTORF32@@B
.rdata	SEGMENT
?g_XMNormalizeX16Y16Z16W16@@3UXMVECTORF32@@B DD 038000100r ; 3.05185e-005 ; g_XMNormalizeX16Y16Z16W16
	DD	038000100r			; 3.05185e-005
	DD	030000100r			; 4.65675e-010
	DD	030000100r			; 4.65675e-010
;	COMDAT ?g_XMFixX16Y16Z16W16@@3UXMVECTORF32@@B
.rdata	SEGMENT
?g_XMFixX16Y16Z16W16@@3UXMVECTORF32@@B DD 0c7000000r ; -32768 ; g_XMFixX16Y16Z16W16
	DD	0c7000000r			; -32768
	DD	000000000r			; 0
	DD	000000000r			; 0
;	COMDAT ?g_XMFlipX16Y16Z16W16@@3UXMVECTORI32@@B
.rdata	SEGMENT
?g_XMFlipX16Y16Z16W16@@3UXMVECTORI32@@B DD 08000H	; g_XMFlipX16Y16Z16W16
	DD	08000H
	DD	00H
	DD	00H
;	COMDAT ?g_XMMaskX16Y16Z16W16@@3UXMVECTORI32@@B
.rdata	SEGMENT
?g_XMMaskX16Y16Z16W16@@3UXMVECTORI32@@B DD 0ffffH	; g_XMMaskX16Y16Z16W16
	DD	0ffffH
	DD	0ffff0000H
	DD	0ffff0000H
;	COMDAT ?g_XMNormalizeX16Y16@@3UXMVECTORF32@@B
.rdata	SEGMENT
?g_XMNormalizeX16Y16@@3UXMVECTORF32@@B DD 038000100r ; 3.05185e-005 ; g_XMNormalizeX16Y16
	DD	030000100r			; 4.65675e-010
	DD	000000000r			; 0
	DD	000000000r			; 0
;	COMDAT ?g_XMFixX16Y16@@3UXMVECTORF32@@B
.rdata	SEGMENT
?g_XMFixX16Y16@@3UXMVECTORF32@@B DD 0c7000000r	; -32768 ; g_XMFixX16Y16
	DD	000000000r			; 0
	DD	000000000r			; 0
	DD	000000000r			; 0
;	COMDAT ?g_XMFlipX16Y16@@3UXMVECTORI32@@B
.rdata	SEGMENT
?g_XMFlipX16Y16@@3UXMVECTORI32@@B DD 08000H		; g_XMFlipX16Y16
	DD	00H
	DD	00H
	DD	00H
;	COMDAT ?g_XMMaskX16Y16@@3UXMVECTORI32@@B
.rdata	SEGMENT
?g_XMMaskX16Y16@@3UXMVECTORI32@@B DD 0ffffH		; g_XMMaskX16Y16
	DD	0ffff0000H
	DD	00H
	DD	00H
;	COMDAT ?g_XMNormalizeA2B10G10R10@@3UXMVECTORF32@@B
.rdata	SEGMENT
?g_XMNormalizeA2B10G10R10@@3UXMVECTORF32@@B DD 03b004020r ; 0.00195695 ; g_XMNormalizeA2B10G10R10
	DD	036004020r			; 1.91108e-006
	DD	031004020r			; 1.86629e-009
	DD	02faaaaabr			; 3.10441e-010
;	COMDAT ?g_XMFixAA2B10G10R10@@3UXMVECTORF32@@B
.rdata	SEGMENT
?g_XMFixAA2B10G10R10@@3UXMVECTORF32@@B DD 0c4000000r ; -512 ; g_XMFixAA2B10G10R10
	DD	0c9000000r			; -524288
	DD	0ce000000r			; -5.36871e+008
	DD	04f000000r			; 2.14748e+009
;	COMDAT ?g_XMFlipA2B10G10R10@@3UXMVECTORI32@@B
.rdata	SEGMENT
?g_XMFlipA2B10G10R10@@3UXMVECTORI32@@B DD 0200H		; g_XMFlipA2B10G10R10
	DD	080000H
	DD	020000000H
	DD	080000000H
;	COMDAT ?g_XMMaskA2B10G10R10@@3UXMVECTORI32@@B
.rdata	SEGMENT
?g_XMMaskA2B10G10R10@@3UXMVECTORI32@@B DD 03ffH		; g_XMMaskA2B10G10R10
	DD	0ffc00H
	DD	03ff00000H
	DD	0c0000000H
;	COMDAT ?g_XMNormalizeA8R8G8B8@@3UXMVECTORF32@@B
.rdata	SEGMENT
?g_XMNormalizeA8R8G8B8@@3UXMVECTORF32@@B DD 033808081r ; 5.98384e-008 ; g_XMNormalizeA8R8G8B8
	DD	037808081r			; 1.53186e-005
	DD	03b808081r			; 0.00392157
	DD	02f808081r			; 2.33744e-010
;	COMDAT ?g_XMFixAA8R8G8B8@@3UXMVECTORF32@@B
.rdata	SEGMENT
?g_XMFixAA8R8G8B8@@3UXMVECTORF32@@B DD 000000000r ; 0	; g_XMFixAA8R8G8B8
	DD	000000000r			; 0
	DD	000000000r			; 0
	DD	04f000000r			; 2.14748e+009
;	COMDAT ?g_XMFlipA8R8G8B8@@3UXMVECTORI32@@B
.rdata	SEGMENT
?g_XMFlipA8R8G8B8@@3UXMVECTORI32@@B DD 00H		; g_XMFlipA8R8G8B8
	DD	00H
	DD	00H
	DD	080000000H
;	COMDAT ?g_XMMaskA8R8G8B8@@3UXMVECTORI32@@B
.rdata	SEGMENT
?g_XMMaskA8R8G8B8@@3UXMVECTORI32@@B DD 0ff0000H		; g_XMMaskA8R8G8B8
	DD	0ff00H
	DD	0ffH
	DD	0ff000000H
;	COMDAT ?g_XMNegOneMask@@3UXMVECTORI32@@B
.rdata	SEGMENT
?g_XMNegOneMask@@3UXMVECTORI32@@B DD 0ffffffffH		; g_XMNegOneMask
	DD	0ffffffffH
	DD	0ffffffffH
	DD	0ffffffffH
;	COMDAT ?g_XMFltMax@@3UXMVECTORI32@@B
.rdata	SEGMENT
?g_XMFltMax@@3UXMVECTORI32@@B DD 07f7fffffH		; g_XMFltMax
	DD	07f7fffffH
	DD	07f7fffffH
	DD	07f7fffffH
;	COMDAT ?g_XMFltMin@@3UXMVECTORI32@@B
.rdata	SEGMENT
?g_XMFltMin@@3UXMVECTORI32@@B DD 0800000H		; g_XMFltMin
	DD	0800000H
	DD	0800000H
	DD	0800000H
;	COMDAT ?g_XMAbsMask@@3UXMVECTORI32@@B
.rdata	SEGMENT
?g_XMAbsMask@@3UXMVECTORI32@@B DD 07fffffffH		; g_XMAbsMask
	DD	07fffffffH
	DD	07fffffffH
	DD	07fffffffH
;	COMDAT ?g_XMQNaNTest@@3UXMVECTORI32@@B
.rdata	SEGMENT
?g_XMQNaNTest@@3UXMVECTORI32@@B DD 07fffffH		; g_XMQNaNTest
	DD	07fffffH
	DD	07fffffH
	DD	07fffffH
;	COMDAT ?g_XMQNaN@@3UXMVECTORI32@@B
.rdata	SEGMENT
?g_XMQNaN@@3UXMVECTORI32@@B DD 07fc00000H		; g_XMQNaN
	DD	07fc00000H
	DD	07fc00000H
	DD	07fc00000H
;	COMDAT ?g_XMInfinity@@3UXMVECTORI32@@B
.rdata	SEGMENT
?g_XMInfinity@@3UXMVECTORI32@@B DD 07f800000H		; g_XMInfinity
	DD	07f800000H
	DD	07f800000H
	DD	07f800000H
;	COMDAT ?g_XMEpsilon@@3UXMVECTORF32@@B
.rdata	SEGMENT
?g_XMEpsilon@@3UXMVECTORF32@@B DD 034000000r	; 1.19209e-007 ; g_XMEpsilon
	DD	034000000r			; 1.19209e-007
	DD	034000000r			; 1.19209e-007
	DD	034000000r			; 1.19209e-007
;	COMDAT ?g_XMReciprocalTwoPi@@3UXMVECTORF32@@B
.rdata	SEGMENT
?g_XMReciprocalTwoPi@@3UXMVECTORF32@@B DD 03e22f983r ; 0.159155 ; g_XMReciprocalTwoPi
	DD	03e22f983r			; 0.159155
	DD	03e22f983r			; 0.159155
	DD	03e22f983r			; 0.159155
;	COMDAT ?g_XMTwoPi@@3UXMVECTORF32@@B
.rdata	SEGMENT
?g_XMTwoPi@@3UXMVECTORF32@@B DD 040c90fdbr	; 6.28319 ; g_XMTwoPi
	DD	040c90fdbr			; 6.28319
	DD	040c90fdbr			; 6.28319
	DD	040c90fdbr			; 6.28319
;	COMDAT ?g_XMReciprocalPi@@3UXMVECTORF32@@B
.rdata	SEGMENT
?g_XMReciprocalPi@@3UXMVECTORF32@@B DD 03ea2f983r ; 0.31831 ; g_XMReciprocalPi
	DD	03ea2f983r			; 0.31831
	DD	03ea2f983r			; 0.31831
	DD	03ea2f983r			; 0.31831
;	COMDAT ?g_XMPi@@3UXMVECTORF32@@B
.rdata	SEGMENT
?g_XMPi@@3UXMVECTORF32@@B DD 040490fdbr		; 3.14159 ; g_XMPi
	DD	040490fdbr			; 3.14159
	DD	040490fdbr			; 3.14159
	DD	040490fdbr			; 3.14159
;	COMDAT ?g_XMHalfPi@@3UXMVECTORF32@@B
.rdata	SEGMENT
?g_XMHalfPi@@3UXMVECTORF32@@B DD 03fc90fdbr	; 1.5708 ; g_XMHalfPi
	DD	03fc90fdbr			; 1.5708
	DD	03fc90fdbr			; 1.5708
	DD	03fc90fdbr			; 1.5708
;	COMDAT ?g_XMNegativePi@@3UXMVECTORF32@@B
.rdata	SEGMENT
?g_XMNegativePi@@3UXMVECTORF32@@B DD 0c0490fdbr	; -3.14159 ; g_XMNegativePi
	DD	0c0490fdbr			; -3.14159
	DD	0c0490fdbr			; -3.14159
	DD	0c0490fdbr			; -3.14159
;	COMDAT ?g_XMNegativeTwoPi@@3UXMVECTORF32@@B
.rdata	SEGMENT
?g_XMNegativeTwoPi@@3UXMVECTORF32@@B DD 0c0c90fdbr ; -6.28319 ; g_XMNegativeTwoPi
	DD	0c0c90fdbr			; -6.28319
	DD	0c0c90fdbr			; -6.28319
	DD	0c0c90fdbr			; -6.28319
;	COMDAT ?g_XMNegativeOneHalf@@3UXMVECTORF32@@B
.rdata	SEGMENT
?g_XMNegativeOneHalf@@3UXMVECTORF32@@B DD 0bf000000r ; -0.5 ; g_XMNegativeOneHalf
	DD	0bf000000r			; -0.5
	DD	0bf000000r			; -0.5
	DD	0bf000000r			; -0.5
;	COMDAT ?g_XMOneHalf@@3UXMVECTORF32@@B
.rdata	SEGMENT
?g_XMOneHalf@@3UXMVECTORF32@@B DD 03f000000r	; 0.5	; g_XMOneHalf
	DD	03f000000r			; 0.5
	DD	03f000000r			; 0.5
	DD	03f000000r			; 0.5
;	COMDAT ?g_XMNegativeOne@@3UXMVECTORF32@@B
.rdata	SEGMENT
?g_XMNegativeOne@@3UXMVECTORF32@@B DD 0bf800000r ; -1	; g_XMNegativeOne
	DD	0bf800000r			; -1
	DD	0bf800000r			; -1
	DD	0bf800000r			; -1
;	COMDAT ?g_XMZero@@3UXMVECTORF32@@B
.rdata	SEGMENT
?g_XMZero@@3UXMVECTORF32@@B DD 000000000r	; 0	; g_XMZero
	DD	000000000r			; 0
	DD	000000000r			; 0
	DD	000000000r			; 0
;	COMDAT ?g_XMOne3@@3UXMVECTORF32@@B
.rdata	SEGMENT
?g_XMOne3@@3UXMVECTORF32@@B DD 03f800000r	; 1	; g_XMOne3
	DD	03f800000r			; 1
	DD	03f800000r			; 1
	DD	000000000r			; 0
;	COMDAT ?g_XMOne@@3UXMVECTORF32@@B
.rdata	SEGMENT
?g_XMOne@@3UXMVECTORF32@@B DD 03f800000r	; 1	; g_XMOne
	DD	03f800000r			; 1
	DD	03f800000r			; 1
	DD	03f800000r			; 1
;	COMDAT ?g_XMMaskW@@3UXMVECTORI32@@B
.rdata	SEGMENT
?g_XMMaskW@@3UXMVECTORI32@@B DD 00H			; g_XMMaskW
	DD	00H
	DD	00H
	DD	0ffffffffH
;	COMDAT ?g_XMMaskZ@@3UXMVECTORI32@@B
.rdata	SEGMENT
?g_XMMaskZ@@3UXMVECTORI32@@B DD 00H			; g_XMMaskZ
	DD	00H
	DD	0ffffffffH
	DD	00H
;	COMDAT ?g_XMMaskY@@3UXMVECTORI32@@B
.rdata	SEGMENT
?g_XMMaskY@@3UXMVECTORI32@@B DD 00H			; g_XMMaskY
	DD	0ffffffffH
	DD	00H
	DD	00H
;	COMDAT ?g_XMMaskX@@3UXMVECTORI32@@B
.rdata	SEGMENT
?g_XMMaskX@@3UXMVECTORI32@@B DD 0ffffffffH		; g_XMMaskX
	DD	00H
	DD	00H
	DD	00H
;	COMDAT ?g_XMMask3@@3UXMVECTORI32@@B
.rdata	SEGMENT
?g_XMMask3@@3UXMVECTORI32@@B DD 0ffffffffH		; g_XMMask3
	DD	0ffffffffH
	DD	0ffffffffH
	DD	00H
;	COMDAT ?g_XMNegate3@@3UXMVECTORI32@@B
.rdata	SEGMENT
?g_XMNegate3@@3UXMVECTORI32@@B DD 080000000H		; g_XMNegate3
	DD	080000000H
	DD	080000000H
	DD	00H
;	COMDAT ?g_XMNegativeZero@@3UXMVECTORI32@@B
.rdata	SEGMENT
?g_XMNegativeZero@@3UXMVECTORI32@@B DD 080000000H	; g_XMNegativeZero
	DD	080000000H
	DD	080000000H
	DD	080000000H
;	COMDAT ?g_XMNegIdentityR3@@3UXMVECTORF32@@B
.rdata	SEGMENT
?g_XMNegIdentityR3@@3UXMVECTORF32@@B DD 000000000r ; 0	; g_XMNegIdentityR3
	DD	000000000r			; 0
	DD	000000000r			; 0
	DD	0bf800000r			; -1
;	COMDAT ?g_XMNegIdentityR2@@3UXMVECTORF32@@B
.rdata	SEGMENT
?g_XMNegIdentityR2@@3UXMVECTORF32@@B DD 000000000r ; 0	; g_XMNegIdentityR2
	DD	000000000r			; 0
	DD	0bf800000r			; -1
	DD	000000000r			; 0
;	COMDAT ?g_XMNegIdentityR1@@3UXMVECTORF32@@B
.rdata	SEGMENT
?g_XMNegIdentityR1@@3UXMVECTORF32@@B DD 000000000r ; 0	; g_XMNegIdentityR1
	DD	0bf800000r			; -1
	DD	000000000r			; 0
	DD	000000000r			; 0
;	COMDAT ?g_XMNegIdentityR0@@3UXMVECTORF32@@B
.rdata	SEGMENT
?g_XMNegIdentityR0@@3UXMVECTORF32@@B DD 0bf800000r ; -1	; g_XMNegIdentityR0
	DD	000000000r			; 0
	DD	000000000r			; 0
	DD	000000000r			; 0
;	COMDAT ?g_XMIdentityR3@@3UXMVECTORF32@@B
.rdata	SEGMENT
?g_XMIdentityR3@@3UXMVECTORF32@@B DD 000000000r	; 0	; g_XMIdentityR3
	DD	000000000r			; 0
	DD	000000000r			; 0
	DD	03f800000r			; 1
;	COMDAT ?g_XMIdentityR2@@3UXMVECTORF32@@B
.rdata	SEGMENT
?g_XMIdentityR2@@3UXMVECTORF32@@B DD 000000000r	; 0	; g_XMIdentityR2
	DD	000000000r			; 0
	DD	03f800000r			; 1
	DD	000000000r			; 0
;	COMDAT ?g_XMIdentityR1@@3UXMVECTORF32@@B
.rdata	SEGMENT
?g_XMIdentityR1@@3UXMVECTORF32@@B DD 000000000r	; 0	; g_XMIdentityR1
	DD	03f800000r			; 1
	DD	000000000r			; 0
	DD	000000000r			; 0
;	COMDAT ?g_XMIdentityR0@@3UXMVECTORF32@@B
.rdata	SEGMENT
?g_XMIdentityR0@@3UXMVECTORF32@@B DD 03f800000r	; 1	; g_XMIdentityR0
	DD	000000000r			; 0
	DD	000000000r			; 0
	DD	000000000r			; 0
;	COMDAT ?g_XMPiConstants0@@3UXMVECTORF32@@B
.rdata	SEGMENT
?g_XMPiConstants0@@3UXMVECTORF32@@B DD 040490fdbr ; 3.14159 ; g_XMPiConstants0
	DD	040c90fdbr			; 6.28319
	DD	03ea2f983r			; 0.31831
	DD	03e22f983r			; 0.159155
;	COMDAT ?g_XMASinEstConstants@@3UXMVECTORF32@@B
.rdata	SEGMENT
?g_XMASinEstConstants@@3UXMVECTORF32@@B DD 03f800001r ; 1 ; g_XMASinEstConstants
	DD	03fc90fdbr			; 1.5708
	DD	000000000r			; 0
	DD	000000000r			; 0
;	COMDAT ?g_XMASinEstCoefficients@@3UXMVECTORF32@@B
.rdata	SEGMENT
?g_XMASinEstCoefficients@@3UXMVECTORF32@@B DD 0bfae4ee5r ; -1.36178 ; g_XMASinEstCoefficients
	DD	0401849a5r			; 2.37949
	DD	0bf4ee811r			; -0.808229
	DD	03e8e8fb5r			; 0.27844
;	COMDAT ?g_XMATanEstCoefficients@@3UXMVECTORF32@@B
.rdata	SEGMENT
?g_XMATanEstCoefficients@@3UXMVECTORF32@@B DD 03f44dc79r ; 0.768989 ; g_XMATanEstCoefficients
	DD	03f8d6834r			; 1.10474
	DD	03f5dbe43r			; 0.866184
	DD	03fc90fdbr			; 1.5708
;	COMDAT ?g_XMTanEstCoefficients@@3UXMVECTORF32@@B
.rdata	SEGMENT
?g_XMTanEstCoefficients@@3UXMVECTORF32@@B DD 0401ef9dbr ; 2.484 ; g_XMTanEstCoefficients
	DD	0be482f23r			; -0.195492
	DD	0401de9e6r			; 2.4674
	DD	03ea2f983r			; 0.31831
;	COMDAT ?g_XMCosEstCoefficients@@3UXMVECTORF32@@B
.rdata	SEGMENT
?g_XMCosEstCoefficients@@3UXMVECTORF32@@B DD 03f800000r ; 1 ; g_XMCosEstCoefficients
	DD	0befd9e41r			; -0.495348
	DD	03d1eda81r			; 0.0387826
	DD	0ba72600cr			; -0.000924588
;	COMDAT ?g_XMSinEstCoefficients@@3UXMVECTORF32@@B
.rdata	SEGMENT
?g_XMSinEstCoefficients@@3UXMVECTORF32@@B DD 03f800000r ; 1 ; g_XMSinEstCoefficients
	DD	0be2a84b5r			; -0.166522
	DD	03c0658eer			; 0.00819991
	DD	0b92951der			; -0.000161476
;	COMDAT ?g_XMATanCoefficients2@@3UXMVECTORF32@@B
.rdata	SEGMENT
?g_XMATanCoefficients2@@3UXMVECTORF32@@B DD 03d70f0f1r ; 0.0588235 ; g_XMATanCoefficients2
	DD	03d579436r			; 0.0526316
	DD	03d430c31r			; 0.047619
	DD	03d321643r			; 0.0434783
;	COMDAT ?g_XMATanCoefficients1@@3UXMVECTORF32@@B
.rdata	SEGMENT
?g_XMATanCoefficients1@@3UXMVECTORF32@@B DD 03de38e39r ; 0.111111 ; g_XMATanCoefficients1
	DD	03dba2e8cr			; 0.0909091
	DD	03d9d89d9r			; 0.0769231
	DD	03d888889r			; 0.0666667
;	COMDAT ?g_XMATanCoefficients0@@3UXMVECTORF32@@B
.rdata	SEGMENT
?g_XMATanCoefficients0@@3UXMVECTORF32@@B DD 03f800000r ; 1 ; g_XMATanCoefficients0
	DD	03eaaaaabr			; 0.333333
	DD	03e4ccccdr			; 0.2
	DD	03e124925r			; 0.142857
;	COMDAT ?g_XMASinCoefficients2@@3UXMVECTORF32@@B
.rdata	SEGMENT
?g_XMASinCoefficients2@@3UXMVECTORF32@@B DD 0bfaf4418r ; -1.36927 ; g_XMASinCoefficients2
	DD	0c08f6ad9r			; -4.48179
	DD	03fb58485r			; 1.41811
	DD	040af6ad8r			; 5.48179
;	COMDAT ?g_XMASinCoefficients1@@3UXMVECTORF32@@B
.rdata	SEGMENT
?g_XMASinCoefficients1@@3UXMVECTORF32@@B DD 03f1dd7b6r ; 0.616573 ; g_XMASinCoefficients1
	DD	0408980bdr			; 4.29697
	DD	0bf983f2fr			; -1.18943
	DD	0c0d1360er			; -6.53785
;	COMDAT ?g_XMASinCoefficients0@@3UXMVECTORF32@@B
.rdata	SEGMENT
?g_XMASinCoefficients0@@3UXMVECTORF32@@B DD 0bd6dd42dr ; -0.0580637 ; g_XMASinCoefficients0
	DD	0bed65553r			; -0.41862
	DD	03e663246r			; 0.224801
	DD	0400b1889r			; 2.17337
;	COMDAT ?g_XMTanCoefficients2@@3UXMVECTORF32@@B
.rdata	SEGMENT
?g_XMTanCoefficients2@@3UXMVECTORF32@@B DD 03a1aac12r ; 0.000590027 ; g_XMTanCoefficients2
	DD	0397abeb9r			; 0.000239129
	DD	038cb3f0cr			; 9.69154e-005
	DD	03824bec9r			; 3.92783e-005
;	COMDAT ?g_XMTanCoefficients1@@3UXMVECTORF32@@B
.rdata	SEGMENT
?g_XMTanCoefficients1@@3UXMVECTORF32@@B DD 03cb327a4r ; 0.0218695 ; g_XMTanCoefficients1
	DD	03c11371br			; 0.00886324
	DD	03b6b69e9r			; 0.00359213
	DD	03abed1b3r			; 0.00145583
;	COMDAT ?g_XMTanCoefficients0@@3UXMVECTORF32@@B
.rdata	SEGMENT
?g_XMTanCoefficients0@@3UXMVECTORF32@@B DD 03f800000r ; 1 ; g_XMTanCoefficients0
	DD	03eaaaaabr			; 0.333333
	DD	03e088889r			; 0.133333
	DD	03d5d0dd1r			; 0.0539683
;	COMDAT ?g_XMCosCoefficients2@@3UXMVECTORF32@@B
.rdata	SEGMENT
?g_XMCosCoefficients2@@3UXMVECTORF32@@B DD 029573f9fr ; 4.77948e-014 ; g_XMCosCoefficients2
	DD	0a53413c3r			; -1.56192e-016
	DD	020f2a15dr			; 4.11032e-019
	DD	09c8671cbr			; -8.89679e-022
;	COMDAT ?g_XMCosCoefficients1@@3UXMVECTORF32@@B
.rdata	SEGMENT
?g_XMCosCoefficients1@@3UXMVECTORF32@@B DD 037d00d01r ; 2.48016e-005 ; g_XMCosCoefficients1
	DD	0b493f27er			; -2.75573e-007
	DD	0310f76c8r			; 2.08768e-009
	DD	0ad49cba5r			; -1.14707e-011
;	COMDAT ?g_XMCosCoefficients0@@3UXMVECTORF32@@B
.rdata	SEGMENT
?g_XMCosCoefficients0@@3UXMVECTORF32@@B DD 03f800000r ; 1 ; g_XMCosCoefficients0
	DD	0bf000000r			; -0.5
