; Listing generated by Microsoft (R) Optimizing Compiler Version 16.00.11886.00 

	TITLE	C:\Users\S7Clutch\Documents\Visual Studio 2010\Projects\The Saiyan Project\src\Natives.cpp
	.PPC
	.MODEL FLAT
PUBLIC	??Y_Vector3@@QAAXU0@@Z				; _Vector3::operator+=
PUBLIC	??D_Vector3@@QBA?AU0@M@Z			; _Vector3::operator*
PUBLIC	?WorldUp@_Vector3@@QAA?AU1@XZ			; _Vector3::WorldUp
PUBLIC	?Normalize@_Vector3@@QAA?AU1@U1@@Z		; _Vector3::Normalize
PUBLIC	?isNull@_Vector3@@QAA_NXZ			; _Vector3::isNull
PUBLIC	atan2f
PUBLIC	?atan2@@YAMMM@Z					; atan2
PUBLIC	?Normalize@_Vector3@@QAAXXZ			; _Vector3::Normalize
PUBLIC	??0?$allocator@K@std@@QAA@XZ			; std::allocator<unsigned long>::allocator<unsigned long>
PUBLIC	??0?$vector@KV?$allocator@K@std@@@std@@QAA@XZ	; std::vector<unsigned long,std::allocator<unsigned long> >::vector<unsigned long,std::allocator<unsigned long> >
PUBLIC	??0?$_Vector_val@KV?$allocator@K@std@@@std@@QAA@V?$allocator@K@1@@Z ; std::_Vector_val<unsigned long,std::allocator<unsigned long> >::_Vector_val<unsigned long,std::allocator<unsigned long> >
PUBLIC	??$addressof@K@std@@YAPAKAAK@Z			; std::addressof<unsigned long>
PUBLIC	?construct@?$allocator@K@std@@QAAXPAK$$QAK@Z	; std::allocator<unsigned long>::construct
PUBLIC	??$_Cons_val@V?$allocator@K@std@@KK@std@@YAXAAV?$allocator@K@0@PAK$$QAK@Z ; std::_Cons_val<std::allocator<unsigned long>,unsigned long,unsigned long>
PUBLIC	?push_back@?$vector@KV?$allocator@K@std@@@std@@QAAX$$QAK@Z ; std::vector<unsigned long,std::allocator<unsigned long> >::push_back
PUBLIC	??0?$allocator@K@std@@QAA@ABV01@@Z		; std::allocator<unsigned long>::allocator<unsigned long>
PUBLIC	?get_allocator@?$vector@KV?$allocator@K@std@@@std@@QBA?AV?$allocator@K@2@XZ ; std::vector<unsigned long,std::allocator<unsigned long> >::get_allocator
PUBLIC	??$?8KK@std@@YA_NABV?$allocator@K@0@0@Z		; std::operator==<unsigned long,unsigned long>
PUBLIC	??$?9KK@std@@YA_NABV?$allocator@K@0@0@Z		; std::operator!=<unsigned long,unsigned long>
PUBLIC	??D?$_Vector_const_iterator@V?$_Vector_val@KV?$allocator@K@std@@@std@@@std@@QBAABKXZ ; std::_Vector_const_iterator<std::_Vector_val<unsigned long,std::allocator<unsigned long> > >::operator*
PUBLIC	??D?$_Vector_iterator@V?$_Vector_val@KV?$allocator@K@std@@@std@@@std@@QBAAAKXZ ; std::_Vector_iterator<std::_Vector_val<unsigned long,std::allocator<unsigned long> > >::operator*
PUBLIC	??E?$_Vector_const_iterator@V?$_Vector_val@KV?$allocator@K@std@@@std@@@std@@QAAAAV01@XZ ; std::_Vector_const_iterator<std::_Vector_val<unsigned long,std::allocator<unsigned long> > >::operator++
PUBLIC	??E?$_Vector_iterator@V?$_Vector_val@KV?$allocator@K@std@@@std@@@std@@QAAAAV01@XZ ; std::_Vector_iterator<std::_Vector_val<unsigned long,std::allocator<unsigned long> > >::operator++
PUBLIC	??$forward@K@std@@YA$$QAKAAK@Z			; std::forward<unsigned long>
PUBLIC	?_Assign_rv@?$vector@KV?$allocator@K@std@@@std@@QAAX$$QAV12@@Z ; std::vector<unsigned long,std::allocator<unsigned long> >::_Assign_rv
PUBLIC	??$forward@V?$vector@KV?$allocator@K@std@@@std@@@std@@YA$$QAV?$vector@KV?$allocator@K@std@@@0@AAV10@@Z ; std::forward<std::vector<unsigned long,std::allocator<unsigned long> > >
PUBLIC	??0?$vector@KV?$allocator@K@std@@@std@@QAA@$$QAV01@@Z ; std::vector<unsigned long,std::allocator<unsigned long> >::vector<unsigned long,std::allocator<unsigned long> >
PUBLIC	?_Inside@?$vector@KV?$allocator@K@std@@@std@@IBA_NPBK@Z ; std::vector<unsigned long,std::allocator<unsigned long> >::_Inside
PUBLIC	??$_Allocate@K@std@@YAPAKIPAK@Z			; std::_Allocate<unsigned long>
PUBLIC	?allocate@?$allocator@K@std@@QAAPAKI@Z		; std::allocator<unsigned long>::allocate
PUBLIC	??$_Val_type@PAK@std@@YAPAKPAK@Z		; std::_Val_type<unsigned long *>
PUBLIC	??$_Uninit_move@KKK@std@@YAPAKPAK00AAV?$allocator@K@0@0U_Scalar_ptr_iterator_tag@0@@Z ; std::_Uninit_move<unsigned long,unsigned long,unsigned long>
PUBLIC	??$_Uninitialized_move@PAKPAKV?$allocator@K@std@@@std@@YAPAKPAK00AAV?$allocator@K@0@@Z ; std::_Uninitialized_move<unsigned long *,unsigned long *,std::allocator<unsigned long> >
PUBLIC	??$_Umove@PAK@?$vector@KV?$allocator@K@std@@@std@@IAAPAKPAK00@Z ; std::vector<unsigned long,std::allocator<unsigned long> >::_Umove<unsigned long *>
PUBLIC	?reserve@?$vector@KV?$allocator@K@std@@@std@@QAAXI@Z ; std::vector<unsigned long,std::allocator<unsigned long> >::reserve
PUBLIC	?capacity@?$vector@KV?$allocator@K@std@@@std@@QBAIXZ ; std::vector<unsigned long,std::allocator<unsigned long> >::capacity
PUBLIC	?max_size@?$allocator@K@std@@QBAIXZ		; std::allocator<unsigned long>::max_size
PUBLIC	?max_size@?$vector@KV?$allocator@K@std@@@std@@QBAIXZ ; std::vector<unsigned long,std::allocator<unsigned long> >::max_size
PUBLIC	?_Grow_to@?$vector@KV?$allocator@K@std@@@std@@IBAII@Z ; std::vector<unsigned long,std::allocator<unsigned long> >::_Grow_to
PUBLIC	?_Xlen@?$vector@KV?$allocator@K@std@@@std@@IBAXXZ ; std::vector<unsigned long,std::allocator<unsigned long> >::_Xlen
PUBLIC	?_Reserve@?$vector@KV?$allocator@K@std@@@std@@IAAXI@Z ; std::vector<unsigned long,std::allocator<unsigned long> >::_Reserve
PUBLIC	?_Orphan_range@?$vector@KV?$allocator@K@std@@@std@@IBAXPAK0@Z ; std::vector<unsigned long,std::allocator<unsigned long> >::_Orphan_range
PUBLIC	??$addressof@$$CBK@std@@YAPBKABK@Z		; std::addressof<unsigned long const >
PUBLIC	??$forward@AAK@std@@YAAAKAAK@Z			; std::forward<unsigned long &>
PUBLIC	??$construct@AAK@?$allocator@K@std@@QAAXPAKAAK@Z ; std::allocator<unsigned long>::construct<unsigned long &>
PUBLIC	??$_Cons_val@V?$allocator@K@std@@KAAK@std@@YAXAAV?$allocator@K@0@PAKAAK@Z ; std::_Cons_val<std::allocator<unsigned long>,unsigned long,unsigned long &>
PUBLIC	??$_Construct@KABK@std@@YAXPAKABK@Z		; std::_Construct<unsigned long,unsigned long const &>
PUBLIC	?construct@?$allocator@K@std@@QAAXPAKABK@Z	; std::allocator<unsigned long>::construct
PUBLIC	??$forward@ABK@std@@YAABKABK@Z			; std::forward<unsigned long const &>
PUBLIC	??$_Cons_val@V?$allocator@K@std@@KABK@std@@YAXAAV?$allocator@K@0@PAKABK@Z ; std::_Cons_val<std::allocator<unsigned long>,unsigned long,unsigned long const &>
PUBLIC	?push_back@?$vector@KV?$allocator@K@std@@@std@@QAAXABK@Z ; std::vector<unsigned long,std::allocator<unsigned long> >::push_back
PUBLIC	??$_CALL_NATIVE@PAD@@YAPADKKZZ			; _CALL_NATIVE<char *>
PUBLIC	??$_CALL_NATIVE@M@@YAMKKZZ			; _CALL_NATIVE<float>
PUBLIC	??$_CALL_NATIVE@U_Vector3@@@@YA?AU_Vector3@@KKZZ ; _CALL_NATIVE<_Vector3>
PUBLIC	??$_CALL_NATIVE@H@@YAHKKZZ			; _CALL_NATIVE<int>
PUBLIC	??$_CALL_NATIVE@K@@YAKKKZZ			; _CALL_NATIVE<unsigned long>
PUBLIC	??_C@_06IGECGLFO@STRING?$AA@			; `string'
EXTRN	atan2:PROC
EXTRN	??_V@YAXPAX@Z:PROC				; operator delete[]
EXTRN	??_U@YAPAXI@Z:PROC				; operator new[]
EXTRN	vsprintf:PROC
EXTRN	tolower:PROC
;	COMDAT ??_C@_06IGECGLFO@STRING?$AA@
.rdata	SEGMENT
??_C@_06IGECGLFO@STRING?$AA@ DB 'STRING', 00H		; `string'
;	COMDAT .pdata
; File c:\program files (x86)\microsoft xbox 360 sdk\include\xbox\memory
.pdata	SEGMENT
$T103040 DD	??$_Uninit_move@KKK@std@@YAPAKPAK00AAV?$allocator@K@0@0U_Scalar_ptr_iterator_tag@0@@Z
	DD	040001a03H
; Function compile flags: /Odtu

	.code
_Count$ = 80						; size = 4

??$_Uninit_move@KKK@std@@YAPAKPAK00AAV?$allocator@K@0@0U_Scalar_ptr_iterator_tag@0@@Z PROC NEAR ; std::_Uninit_move<unsigned long,unsigned long,unsigned long>, COMDAT

; Begin code for function: ??$_Uninit_move@KKK@std@@YAPAKPAK00AAV?$allocator@K@0@0U_Scalar_ptr_iterator_tag@0@@Z
; Line 456
	mflr         r12
	stw          r12,-8(r1)
	stwu         r1,-60h(r1)
.endprolog
$M103038:
	stw          r3,_First$(r1)		; 116 (74h)
	stw          r4,_Last$(r1)		; 124 (7Ch)
	stw          r5,_Dest$(r1)		; 132 (84h)
	stw          r6,__formal$(r1)		; 140 (8Ch)
	stw          r7,__formal$(r1)		; 148 (94h)
	stb          r8,__formal$(r1)		; 159 (9Fh)
; Line 459
	lwz          r11,_Last$(r1)		; 124 (7Ch)
	lwz          r10,_First$(r1)		; 116 (74h)
	subf         r9,r10,r11
	srawi        r8,r9,2
	stw          r8,_Count$(r1)		; 80 (50h)
; Line 461
	lwz          r7,_Count$(r1)		; 80 (50h)
	slwi         r5,r7,2
	lwz          r4,_First$(r1)		; 116 (74h)
	lwz          r3,_Dest$(r1)		; 132 (84h)
	bl           memmove
	lwz          r6,_Count$(r1)		; 80 (50h)
	slwi         r5,r6,2
	add          r3,r3,r5
; Line 462
	addi         r1,r1,96		; 60h
	lwz          r12,-8(r1)
	mtlr         r12
	blr
$M103039:
; End code for function: ??$_Uninit_move@KKK@std@@YAPAKPAK00AAV?$allocator@K@0@0U_Scalar_ptr_iterator_tag@0@@Z
??$_Uninit_move@KKK@std@@YAPAKPAK00AAV?$allocator@K@0@0U_Scalar_ptr_iterator_tag@0@@Z ENDP
							; std::_Uninit_move<unsigned long,unsigned long,unsigned long>
; Function compile flags: /Odtu

	.code

??$_Val_type@PAK@std@@YAPAKPAK@Z PROC NEAR		; std::_Val_type<unsigned long *>, COMDAT

; Begin code for function: ??$_Val_type@PAK@std@@YAPAKPAK@Z
; File c:\program files (x86)\microsoft xbox 360 sdk\include\xbox\xutility
; Line 789
	stw          r3,__formal$(r1)		; 20 (14h)
; Line 790
	li           r3,0
; Line 791
	blr
; End code for function: ??$_Val_type@PAK@std@@YAPAKPAK@Z
??$_Val_type@PAK@std@@YAPAKPAK@Z ENDP
							; std::_Val_type<unsigned long *>
; Function compile flags: /Odtu

	.code

??$?8KK@std@@YA_NABV?$allocator@K@0@0@Z	PROC NEAR	; std::operator==<unsigned long,unsigned long>, COMDAT

; Begin code for function: ??$?8KK@std@@YA_NABV?$allocator@K@0@0@Z
; File c:\program files (x86)\microsoft xbox 360 sdk\include\xbox\xmemory
; Line 262
	stw          r3,__formal$(r1)		; 20 (14h)
	stw          r4,__formal$(r1)		; 28 (1Ch)
; Line 263
	li           r3,1
; Line 264
	blr
; End code for function: ??$?8KK@std@@YA_NABV?$allocator@K@0@0@Z
??$?8KK@std@@YA_NABV?$allocator@K@0@0@Z ENDP
							; std::operator==<unsigned long,unsigned long>
; Function compile flags: /Odtu

	.code

??$forward@ABK@std@@YAABKABK@Z PROC NEAR			; std::forward<unsigned long const &>, COMDAT

; Begin code for function: ??$forward@ABK@std@@YAABKABK@Z
; File c:\program files (x86)\microsoft xbox 360 sdk\include\xbox\utility
; Line 78
	stw          r3,_Arg$(r1)		; 20 (14h)
; Line 79
	lwz          r3,_Arg$(r1)		; 20 (14h)
; Line 80
	blr
; End code for function: ??$forward@ABK@std@@YAABKABK@Z
??$forward@ABK@std@@YAABKABK@Z ENDP
							; std::forward<unsigned long const &>
; Function compile flags: /Odtu

	.code

??$forward@AAK@std@@YAAAKAAK@Z PROC NEAR			; std::forward<unsigned long &>, COMDAT

; Begin code for function: ??$forward@AAK@std@@YAAAKAAK@Z
; Line 78
	stw          r3,_Arg$(r1)		; 20 (14h)
; Line 79
	lwz          r3,_Arg$(r1)		; 20 (14h)
; Line 80
	blr
; End code for function: ??$forward@AAK@std@@YAAAKAAK@Z
??$forward@AAK@std@@YAAAKAAK@Z ENDP
							; std::forward<unsigned long &>
; Function compile flags: /Odtu

	.code

??$addressof@K@std@@YAPAKAAK@Z PROC NEAR			; std::addressof<unsigned long>, COMDAT

; Begin code for function: ??$addressof@K@std@@YAPAKAAK@Z
; File c:\program files (x86)\microsoft xbox 360 sdk\include\xbox\xmemory
; Line 110
	stw          r3,_Val$(r1)		; 20 (14h)
; Line 111
	lwz          r3,_Val$(r1)		; 20 (14h)
; Line 112
	blr
; End code for function: ??$addressof@K@std@@YAPAKAAK@Z
??$addressof@K@std@@YAPAKAAK@Z ENDP
							; std::addressof<unsigned long>
; Function compile flags: /Odtu

	.code

??$forward@K@std@@YA$$QAKAAK@Z PROC NEAR			; std::forward<unsigned long>, COMDAT

; Begin code for function: ??$forward@K@std@@YA$$QAKAAK@Z
; File c:\program files (x86)\microsoft xbox 360 sdk\include\xbox\utility
; Line 78
	stw          r3,_Arg$(r1)		; 20 (14h)
; Line 79
	lwz          r3,_Arg$(r1)		; 20 (14h)
; Line 80
	blr
; End code for function: ??$forward@K@std@@YA$$QAKAAK@Z
??$forward@K@std@@YA$$QAKAAK@Z ENDP
							; std::forward<unsigned long>
;	COMDAT .pdata
; File c:\program files (x86)\microsoft xbox 360 sdk\include\xbox\xmemory
.pdata	SEGMENT
$T103058 DD	??$?9KK@std@@YA_NABV?$allocator@K@0@0@Z
	DD	040001003H
; Function compile flags: /Odtu

	.code

??$?9KK@std@@YA_NABV?$allocator@K@0@0@Z	PROC NEAR	; std::operator!=<unsigned long,unsigned long>, COMDAT

; Begin code for function: ??$?9KK@std@@YA_NABV?$allocator@K@0@0@Z
; Line 270
	mflr         r12
	stw          r12,-8(r1)
	stwu         r1,-60h(r1)
.endprolog
$M103056:
	stw          r3,_Left$(r1)		; 116 (74h)
	stw          r4,_Right$(r1)		; 124 (7Ch)
; Line 271
	lwz          r4,_Right$(r1)		; 124 (7Ch)
	lwz          r3,_Left$(r1)		; 116 (74h)
	bl           ??$?8KK@std@@YA_NABV?$allocator@K@0@0@Z
	clrlwi       r11,r3,24
	cntlzw       r10,r11
	rlwinm       r9,r10,27,31,31
	clrlwi       r3,r9,24
; Line 272
	addi         r1,r1,96		; 60h
	lwz          r12,-8(r1)
	mtlr         r12
	blr
$M103057:
; End code for function: ??$?9KK@std@@YA_NABV?$allocator@K@0@0@Z
??$?9KK@std@@YA_NABV?$allocator@K@0@0@Z ENDP
							; std::operator!=<unsigned long,unsigned long>
; Function compile flags: /Odtu

	.code

??$addressof@$$CBK@std@@YAPBKABK@Z PROC NEAR		; std::addressof<unsigned long const >, COMDAT

; Begin code for function: ??$addressof@$$CBK@std@@YAPBKABK@Z
; Line 110
	stw          r3,_Val$(r1)		; 20 (14h)
; Line 111
	lwz          r3,_Val$(r1)		; 20 (14h)
; Line 112
	blr
; End code for function: ??$addressof@$$CBK@std@@YAPBKABK@Z
??$addressof@$$CBK@std@@YAPBKABK@Z ENDP
							; std::addressof<unsigned long const >
; Function compile flags: /Odtu

	.code

??$forward@V?$vector@KV?$allocator@K@std@@@std@@@std@@YA$$QAV?$vector@KV?$allocator@K@std@@@0@AAV10@@Z PROC NEAR ; std::forward<std::vector<unsigned long,std::allocator<unsigned long> > >, COMDAT

; Begin code for function: ??$forward@V?$vector@KV?$allocator@K@std@@@std@@@std@@YA$$QAV?$vector@KV?$allocator@K@std@@@0@AAV10@@Z
; File c:\program files (x86)\microsoft xbox 360 sdk\include\xbox\utility
; Line 78
	stw          r3,_Arg$(r1)		; 20 (14h)
; Line 79
	lwz          r3,_Arg$(r1)		; 20 (14h)
; Line 80
	blr
; End code for function: ??$forward@V?$vector@KV?$allocator@K@std@@@std@@@std@@YA$$QAV?$vector@KV?$allocator@K@std@@@0@AAV10@@Z
??$forward@V?$vector@KV?$allocator@K@std@@@std@@@std@@YA$$QAV?$vector@KV?$allocator@K@std@@@0@AAV10@@Z ENDP
							; std::forward<std::vector<unsigned long,std::allocator<unsigned long> > >
; Function compile flags: /Odtu

	.code

??E?$_Vector_const_iterator@V?$_Vector_val@KV?$allocator@K@std@@@std@@@std@@QAAAAV01@XZ	PROC NEAR ; std::_Vector_const_iterator<std::_Vector_val<unsigned long,std::allocator<unsigned long> > >::operator++, COMDAT

; Begin code for function: ??E?$_Vector_const_iterator@V?$_Vector_val@KV?$allocator@K@std@@@std@@@std@@QAAAAV01@XZ
; File c:\program files (x86)\microsoft xbox 360 sdk\include\xbox\vector
; Line 93
	stw          r3,this$(r1)		; 20 (14h)
; Line 110
	lwz          r11,this$(r1)		; 20 (14h)
	lwz          r10,0(r11)
	addi         r9,r10,4
	lwz          r8,this$(r1)		; 20 (14h)
	stw          r9,0(r8)
; Line 111
	lwz          r3,this$(r1)		; 20 (14h)
; Line 112
	blr
; End code for function: ??E?$_Vector_const_iterator@V?$_Vector_val@KV?$allocator@K@std@@@std@@@std@@QAAAAV01@XZ
??E?$_Vector_const_iterator@V?$_Vector_val@KV?$allocator@K@std@@@std@@@std@@QAAAAV01@XZ ENDP
							; std::_Vector_const_iterator<std::_Vector_val<unsigned long,std::allocator<unsigned long> > >::operator++
; Function compile flags: /Odtu

	.code

??D?$_Vector_const_iterator@V?$_Vector_val@KV?$allocator@K@std@@@std@@@std@@QBAABKXZ PROC NEAR ; std::_Vector_const_iterator<std::_Vector_val<unsigned long,std::allocator<unsigned long> > >::operator*, COMDAT

; Begin code for function: ??D?$_Vector_const_iterator@V?$_Vector_val@KV?$allocator@K@std@@@std@@@std@@QBAABKXZ
; Line 63
	stw          r3,this$(r1)		; 20 (14h)
; Line 84
	lwz          r11,this$(r1)		; 20 (14h)
	lwz          r3,0(r11)
; Line 85
	blr
; End code for function: ??D?$_Vector_const_iterator@V?$_Vector_val@KV?$allocator@K@std@@@std@@@std@@QBAABKXZ
??D?$_Vector_const_iterator@V?$_Vector_val@KV?$allocator@K@std@@@std@@@std@@QBAABKXZ ENDP
							; std::_Vector_const_iterator<std::_Vector_val<unsigned long,std::allocator<unsigned long> > >::operator*
; Function compile flags: /Odtu

	.code
_Count$ = -16						; size = 4
tv65 = -12						; size = 4

?max_size@?$allocator@K@std@@QBAIXZ PROC NEAR		; std::allocator<unsigned long>::max_size, COMDAT

; Begin code for function: ?max_size@?$allocator@K@std@@QBAIXZ
; File c:\program files (x86)\microsoft xbox 360 sdk\include\xbox\xmemory
; Line 217
	stw          r3,this$(r1)		; 20 (14h)
; Line 218
	lis          r11,16383		; 3FFFh
	ori          r10,r11,65535		; 0FFFFh
	stw          r10,_Count$(r1)		; 4294967280 (0FFFFFFF0h)
; Line 219
	lwz          r9,_Count$(r1)		; 4294967280 (0FFFFFFF0h)
	cmplwi       cr6,r9,0
	ble          cr6,$LN3@max_size
	lwz          r8,_Count$(r1)		; 4294967280 (0FFFFFFF0h)
	stw          r8,-0Ch(r1)
	b            $LN4@max_size
$LN3@max_size:
	li           r7,1
	stw          r7,-0Ch(r1)
$LN4@max_size:
	lwz          r3,-0Ch(r1)
; Line 220
	blr
; End code for function: ?max_size@?$allocator@K@std@@QBAIXZ
?max_size@?$allocator@K@std@@QBAIXZ ENDP
							; std::allocator<unsigned long>::max_size
;	COMDAT .pdata
; File c:\program files (x86)\microsoft xbox 360 sdk\include\xbox\vector
.pdata	SEGMENT
$T103076 DD	??E?$_Vector_iterator@V?$_Vector_val@KV?$allocator@K@std@@@std@@@std@@QAAAAV01@XZ
	DD	040000b03H
; Function compile flags: /Odtu

	.code

??E?$_Vector_iterator@V?$_Vector_val@KV?$allocator@K@std@@@std@@@std@@QAAAAV01@XZ PROC NEAR ; std::_Vector_iterator<std::_Vector_val<unsigned long,std::allocator<unsigned long> > >::operator++, COMDAT

; Begin code for function: ??E?$_Vector_iterator@V?$_Vector_val@KV?$allocator@K@std@@@std@@@std@@QAAAAV01@XZ
; Line 331
	mflr         r12
	stw          r12,-8(r1)
	stwu         r1,-60h(r1)
.endprolog
$M103074:
	stw          r3,this$(r1)		; 116 (74h)
; Line 332
	lwz          r3,this$(r1)		; 116 (74h)
	bl           ??E?$_Vector_const_iterator@V?$_Vector_val@KV?$allocator@K@std@@@std@@@std@@QAAAAV01@XZ
; Line 333
	lwz          r3,this$(r1)		; 116 (74h)
; Line 334
	addi         r1,r1,96		; 60h
	lwz          r12,-8(r1)
	mtlr         r12
	blr
$M103075:
; End code for function: ??E?$_Vector_iterator@V?$_Vector_val@KV?$allocator@K@std@@@std@@@std@@QAAAAV01@XZ
??E?$_Vector_iterator@V?$_Vector_val@KV?$allocator@K@std@@@std@@@std@@QAAAAV01@XZ ENDP
							; std::_Vector_iterator<std::_Vector_val<unsigned long,std::allocator<unsigned long> > >::operator++
;	COMDAT .pdata
.pdata	SEGMENT
$T103082 DD	??D?$_Vector_iterator@V?$_Vector_val@KV?$allocator@K@std@@@std@@@std@@QBAAAKXZ
	DD	040000a03H
; Function compile flags: /Odtu

	.code

??D?$_Vector_iterator@V?$_Vector_val@KV?$allocator@K@std@@@std@@@std@@QBAAAKXZ PROC NEAR ; std::_Vector_iterator<std::_Vector_val<unsigned long,std::allocator<unsigned long> > >::operator*, COMDAT

; Begin code for function: ??D?$_Vector_iterator@V?$_Vector_val@KV?$allocator@K@std@@@std@@@std@@QBAAAKXZ
; Line 321
	mflr         r12
	stw          r12,-8(r1)
	stwu         r1,-60h(r1)
.endprolog
$M103080:
	stw          r3,this$(r1)		; 116 (74h)
; Line 322
	lwz          r3,this$(r1)		; 116 (74h)
	bl           ??D?$_Vector_const_iterator@V?$_Vector_val@KV?$allocator@K@std@@@std@@@std@@QBAABKXZ
; Line 323
	addi         r1,r1,96		; 60h
	lwz          r12,-8(r1)
	mtlr         r12
	blr
$M103081:
; End code for function: ??D?$_Vector_iterator@V?$_Vector_val@KV?$allocator@K@std@@@std@@@std@@QBAAAKXZ
??D?$_Vector_iterator@V?$_Vector_val@KV?$allocator@K@std@@@std@@@std@@QBAAAKXZ ENDP
							; std::_Vector_iterator<std::_Vector_val<unsigned long,std::allocator<unsigned long> > >::operator*
;	COMDAT .pdata
.pdata	SEGMENT
$T103088 DD	?_Xlen@?$vector@KV?$allocator@K@std@@@std@@IBAXXZ
	DD	040000b03H
; Function compile flags: /Odtu

	.code

?_Xlen@?$vector@KV?$allocator@K@std@@@std@@IBAXXZ PROC NEAR ; std::vector<unsigned long,std::allocator<unsigned long> >::_Xlen, COMDAT

; Begin code for function: ?_Xlen@?$vector@KV?$allocator@K@std@@@std@@IBAXXZ
; Line 1426
	mflr         r12
	stw          r12,-8(r1)
	stwu         r1,-60h(r1)
.endprolog
$M103086:
	stw          r3,this$(r1)		; 116 (74h)
; Line 1427
	lis          r11,??_C@_0BD@OLBABOEK@vector?$DMT?$DO?5too?5long?$AA@
	addi         r3,r11,??_C@_0BD@OLBABOEK@vector?$DMT?$DO?5too?5long?$AA@
	bl           ?_Xlength_error@std@@YAXPBD@Z
$LN2@Xlen:
; Line 1428
	addi         r1,r1,96		; 60h
	lwz          r12,-8(r1)
	mtlr         r12
	blr
$M103087:
; End code for function: ?_Xlen@?$vector@KV?$allocator@K@std@@@std@@IBAXXZ
?_Xlen@?$vector@KV?$allocator@K@std@@@std@@IBAXXZ ENDP
							; std::vector<unsigned long,std::allocator<unsigned long> >::_Xlen
;	COMDAT .pdata
.pdata	SEGMENT
$T103094 DD	?max_size@?$vector@KV?$allocator@K@std@@@std@@QBAIXZ
	DD	040000b03H
; Function compile flags: /Odtu

	.code

?max_size@?$vector@KV?$allocator@K@std@@@std@@QBAIXZ PROC NEAR ; std::vector<unsigned long,std::allocator<unsigned long> >::max_size, COMDAT

; Begin code for function: ?max_size@?$vector@KV?$allocator@K@std@@@std@@QBAIXZ
; Line 883
	mflr         r12
	stw          r12,-8(r1)
	stwu         r1,-60h(r1)
.endprolog
$M103092:
	stw          r3,this$(r1)		; 116 (74h)
; Line 884
	lwz          r11,this$(r1)		; 116 (74h)
	addi         r3,r11,12		; 0Ch
	bl           ?max_size@?$allocator@K@std@@QBAIXZ
; Line 885
	addi         r1,r1,96		; 60h
	lwz          r12,-8(r1)
	mtlr         r12
	blr
$M103093:
; End code for function: ?max_size@?$vector@KV?$allocator@K@std@@@std@@QBAIXZ
?max_size@?$vector@KV?$allocator@K@std@@@std@@QBAIXZ ENDP
							; std::vector<unsigned long,std::allocator<unsigned long> >::max_size
; Function compile flags: /Odtu

	.code

?capacity@?$vector@KV?$allocator@K@std@@@std@@QBAIXZ PROC NEAR ; std::vector<unsigned long,std::allocator<unsigned long> >::capacity, COMDAT

; Begin code for function: ?capacity@?$vector@KV?$allocator@K@std@@@std@@QBAIXZ
; Line 776
	stw          r3,this$(r1)		; 20 (14h)
; Line 777
	lwz          r11,this$(r1)		; 20 (14h)
	lwz          r10,8(r11)
	lwz          r9,this$(r1)		; 20 (14h)
	lwz          r8,0(r9)
	subf         r7,r8,r10
	srawi        r3,r7,2
; Line 778
	blr
; End code for function: ?capacity@?$vector@KV?$allocator@K@std@@@std@@QBAIXZ
?capacity@?$vector@KV?$allocator@K@std@@@std@@QBAIXZ ENDP
							; std::vector<unsigned long,std::allocator<unsigned long> >::capacity
; Function compile flags: /Odtu

	.code

??0?$allocator@K@std@@QAA@ABV01@@Z PROC NEAR		; std::allocator<unsigned long>::allocator<unsigned long>, COMDAT

; Begin code for function: ??0?$allocator@K@std@@QAA@ABV01@@Z
; File c:\program files (x86)\microsoft xbox 360 sdk\include\xbox\xmemory
; Line 165
	stw          r3,this$(r1)		; 20 (14h)
	stw          r4,__formal$(r1)		; 28 (1Ch)
; Line 167
	lwz          r3,this$(r1)		; 20 (14h)
	blr
; End code for function: ??0?$allocator@K@std@@QAA@ABV01@@Z
??0?$allocator@K@std@@QAA@ABV01@@Z ENDP
							; std::allocator<unsigned long>::allocator<unsigned long>
; Function compile flags: /Odtu

	.code

??0?$allocator@K@std@@QAA@XZ PROC NEAR			; std::allocator<unsigned long>::allocator<unsigned long>, COMDAT

; Begin code for function: ??0?$allocator@K@std@@QAA@XZ
; Line 161
	stw          r3,this$(r1)		; 20 (14h)
; Line 163
	lwz          r3,this$(r1)		; 20 (14h)
	blr
; End code for function: ??0?$allocator@K@std@@QAA@XZ
??0?$allocator@K@std@@QAA@XZ ENDP
							; std::allocator<unsigned long>::allocator<unsigned long>
;	COMDAT .pdata
; File c:\program files (x86)\microsoft xbox 360 sdk\include\xbox\vector
.pdata	SEGMENT
$T103106 DD	??0?$_Vector_val@KV?$allocator@K@std@@@std@@QAA@V?$allocator@K@1@@Z
	DD	040001703H
; Function compile flags: /Odtu

	.code

??0?$_Vector_val@KV?$allocator@K@std@@@std@@QAA@V?$allocator@K@1@@Z PROC NEAR ; std::_Vector_val<unsigned long,std::allocator<unsigned long> >::_Vector_val<unsigned long,std::allocator<unsigned long> >, COMDAT

; Begin code for function: ??0?$_Vector_val@KV?$allocator@K@std@@@std@@QAA@V?$allocator@K@1@@Z
; Line 426
	mflr         r12
	stw          r12,-8(r1)
	stwu         r1,-60h(r1)
.endprolog
$M103104:
	stw          r3,this$(r1)		; 116 (74h)
	stw          r4,_Al$(r1)		; 124 (7Ch)
	lwz          r4,_Al$(r1)		; 124 (7Ch)
	lwz          r11,this$(r1)		; 116 (74h)
	addi         r3,r11,12		; 0Ch
	bl           ??0?$allocator@K@std@@QAA@ABV01@@Z
; Line 427
	lwz          r10,this$(r1)		; 116 (74h)
	li           r9,0
	stw          r9,0(r10)
; Line 428
	lwz          r8,this$(r1)		; 116 (74h)
	li           r7,0
	stw          r7,4(r8)
; Line 429
	lwz          r6,this$(r1)		; 116 (74h)
	li           r5,0
	stw          r5,8(r6)
; Line 430
	lwz          r3,this$(r1)		; 116 (74h)
	addi         r1,r1,96		; 60h
	lwz          r12,-8(r1)
	mtlr         r12
	blr
$M103105:
; End code for function: ??0?$_Vector_val@KV?$allocator@K@std@@@std@@QAA@V?$allocator@K@1@@Z
??0?$_Vector_val@KV?$allocator@K@std@@@std@@QAA@V?$allocator@K@1@@Z ENDP
							; std::_Vector_val<unsigned long,std::allocator<unsigned long> >::_Vector_val<unsigned long,std::allocator<unsigned long> >
; Function compile flags: /Odtu

	.code

?_Orphan_range@?$vector@KV?$allocator@K@std@@@std@@IBAXPAK0@Z PROC NEAR ; std::vector<unsigned long,std::allocator<unsigned long> >::_Orphan_range, COMDAT

; Begin code for function: ?_Orphan_range@?$vector@KV?$allocator@K@std@@@std@@IBAXPAK0@Z
; Line 1453
	stw          r3,this$(r1)		; 20 (14h)
	stw          r4,__formal$(r1)		; 28 (1Ch)
	stw          r5,__formal$(r1)		; 36 (24h)
; Line 1454
	blr
; End code for function: ?_Orphan_range@?$vector@KV?$allocator@K@std@@@std@@IBAXPAK0@Z
?_Orphan_range@?$vector@KV?$allocator@K@std@@@std@@IBAXPAK0@Z ENDP
							; std::vector<unsigned long,std::allocator<unsigned long> >::_Orphan_range
; Function compile flags: /Odtu

	.code
tv76 = -16						; size = 4

?_Inside@?$vector@KV?$allocator@K@std@@@std@@IBA_NPBK@Z	PROC NEAR ; std::vector<unsigned long,std::allocator<unsigned long> >::_Inside, COMDAT

; Begin code for function: ?_Inside@?$vector@KV?$allocator@K@std@@@std@@IBA_NPBK@Z
; Line 1285
	stw          r3,this$(r1)		; 20 (14h)
	stw          r4,_Ptr$(r1)		; 28 (1Ch)
; Line 1286
	lwz          r11,this$(r1)		; 20 (14h)
	lwz          r10,_Ptr$(r1)		; 28 (1Ch)
	lwz          r9,4(r11)
	cmplw        cr6,r10,r9
	bge          cr6,$LN3@Inside
	lwz          r8,this$(r1)		; 20 (14h)
	lwz          r7,0(r8)
	lwz          r6,_Ptr$(r1)		; 28 (1Ch)
	cmplw        cr6,r7,r6
	bgt          cr6,$LN3@Inside
	li           r5,1
	stw          r5,-10h(r1)
	b            $LN4@Inside
$LN3@Inside:
	li           r4,0
	stw          r4,-10h(r1)
$LN4@Inside:
	lwz          r3,-10h(r1)
	clrlwi       r3,r3,24
; Line 1287
	blr
; End code for function: ?_Inside@?$vector@KV?$allocator@K@std@@@std@@IBA_NPBK@Z
?_Inside@?$vector@KV?$allocator@K@std@@@std@@IBA_NPBK@Z ENDP
							; std::vector<unsigned long,std::allocator<unsigned long> >::_Inside
PUBLIC	?GET_HASH_KEY@@YAKPAD@Z				; GET_HASH_KEY
;	COMDAT .pdata
; File c:\users\s7clutch\documents\visual studio 2010\projects\the saiyan project\src\natives.cpp
.pdata	SEGMENT
$T103118 DD	?GET_HASH_KEY@@YAKPAD@Z
	DD	040003a03H
; Function compile flags: /Odtu

	.code
i$ = 80							; size = 4
len$ = 84						; size = 4
hash$ = 88						; size = 4

?GET_HASH_KEY@@YAKPAD@Z	PROC NEAR			; GET_HASH_KEY, COMDAT

; Begin code for function: ?GET_HASH_KEY@@YAKPAD@Z
; Line 1038
	mflr         r12
	stw          r12,-8(r1)
	stwu         r1,-70h(r1)
.endprolog
$M103116:
	stw          r3,key$(r1)		; 132 (84h)
; Line 1039
	lwz          r3,key$(r1)		; 132 (84h)
	bl           strlen
	stw          r3,len$(r1)		; 84 (54h)
; Line 1041
	li           r11,0
	stw          r11,i$(r1)		; 80 (50h)
	lwz          r10,i$(r1)		; 80 (50h)
	stw          r10,hash$(r1)		; 88 (58h)
	b            $LN3@GET_HASH_K
$LN2@GET_HASH_K:
	lwz          r9,i$(r1)		; 80 (50h)
	addi         r8,r9,1
	stw          r8,i$(r1)		; 80 (50h)
$LN3@GET_HASH_K:
	lwz          r7,i$(r1)		; 80 (50h)
	lwz          r6,len$(r1)		; 84 (54h)
	cmplw        cr6,r7,r6
	bge          cr6,$LN1@GET_HASH_K
; Line 1043
	lwz          r5,key$(r1)		; 132 (84h)
	lwz          r4,i$(r1)		; 80 (50h)
	lbzx         r3,r5,r4
	extsb        r3,r3
	bl           tolower
	lwz          r11,hash$(r1)		; 88 (58h)
	add          r10,r11,r3
	stw          r10,hash$(r1)		; 88 (58h)
; Line 1044
	lwz          r9,hash$(r1)		; 88 (58h)
	slwi         r8,r9,10
	lwz          r7,hash$(r1)		; 88 (58h)
	add          r6,r7,r8
	stw          r6,hash$(r1)		; 88 (58h)
; Line 1045
	lwz          r5,hash$(r1)		; 88 (58h)
	srwi         r4,r5,6
	lwz          r3,hash$(r1)		; 88 (58h)
	xor          r11,r3,r4
	stw          r11,hash$(r1)		; 88 (58h)
; Line 1046
	b            $LN2@GET_HASH_K
$LN1@GET_HASH_K:
; Line 1047
	lwz          r10,hash$(r1)		; 88 (58h)
	slwi         r9,r10,3
	lwz          r8,hash$(r1)		; 88 (58h)
	add          r7,r8,r9
	stw          r7,hash$(r1)		; 88 (58h)
; Line 1048
	lwz          r6,hash$(r1)		; 88 (58h)
	srwi         r5,r6,11
	lwz          r4,hash$(r1)		; 88 (58h)
	xor          r3,r4,r5
	stw          r3,hash$(r1)		; 88 (58h)
; Line 1049
	lwz          r11,hash$(r1)		; 88 (58h)
	slwi         r10,r11,15
	lwz          r9,hash$(r1)		; 88 (58h)
	add          r8,r9,r10
	stw          r8,hash$(r1)		; 88 (58h)
; Line 1050
	lwz          r3,hash$(r1)		; 88 (58h)
; Line 1051
	addi         r1,r1,112		; 70h
	lwz          r12,-8(r1)
	mtlr         r12
	blr
$M103117:
; End code for function: ?GET_HASH_KEY@@YAKPAD@Z
?GET_HASH_KEY@@YAKPAD@Z ENDP
							; GET_HASH_KEY
;	COMDAT .pdata
; File c:\program files (x86)\microsoft xbox 360 sdk\include\xbox\xmemory
.pdata	SEGMENT
$T103581 DD	??$_Construct@KABK@std@@YAXPAKABK@Z
	DD	040001c03H
; Function compile flags: /Odtu

	.code
_Vptr$ = 80						; size = 4
$T103576 = 84						; size = 4
tv70 = 88						; size = 4

??$_Construct@KABK@std@@YAXPAKABK@Z PROC NEAR		; std::_Construct<unsigned long,unsigned long const &>, COMDAT

; Begin code for function: ??$_Construct@KABK@std@@YAXPAKABK@Z
; Line 46
	mflr         r12
	stw          r12,-8(r1)
	stwu         r1,-70h(r1)
.endprolog
$M103579:
	stw          r3,_Ptr$(r1)		; 132 (84h)
	stw          r4,_Val$(r1)		; 140 (8Ch)
; Line 47
	lwz          r11,_Ptr$(r1)		; 132 (84h)
	stw          r11,_Vptr$(r1)		; 80 (50h)
; Line 48
	lwz          r4,_Vptr$(r1)		; 80 (50h)
	li           r3,4
	bl           ??2@YAPAXIPAX@Z
	stw          r3,$T103576(r1)		; 84 (54h)
	lwz          r10,$T103576(r1)		; 84 (54h)
	cmplwi       cr6,r10,0
	beq          cr6,$LN3@Construct
	lwz          r3,_Val$(r1)		; 140 (8Ch)
	bl           ??$forward@ABK@std@@YAABKABK@Z
	lwz          r9,0(r3)
	lwz          r8,$T103576(r1)		; 84 (54h)
	stw          r9,0(r8)
	lwz          r7,$T103576(r1)		; 84 (54h)
	stw          r7,58h(r1)
	b            $LN1@Construct
$LN3@Construct:
	li           r6,0
	stw          r6,58h(r1)
$LN1@Construct:
; Line 49
	addi         r1,r1,112		; 70h
	lwz          r12,-8(r1)
	mtlr         r12
	blr
$M103580:
; End code for function: ??$_Construct@KABK@std@@YAXPAKABK@Z
??$_Construct@KABK@std@@YAXPAKABK@Z ENDP
							; std::_Construct<unsigned long,unsigned long const &>
;	COMDAT .pdata
; File c:\program files (x86)\microsoft xbox 360 sdk\include\xbox\memory
.pdata	SEGMENT
$T103588 DD	??$_Uninitialized_move@PAKPAKV?$allocator@K@std@@@std@@YAPAKPAK00AAV?$allocator@K@0@@Z
	DD	040001b04H
; Function compile flags: /Odtu

	.code
$T103585 = 80						; size = 1

??$_Uninitialized_move@PAKPAKV?$allocator@K@std@@@std@@YAPAKPAK00AAV?$allocator@K@0@@Z PROC NEAR ; std::_Uninitialized_move<unsigned long *,unsigned long *,std::allocator<unsigned long> >, COMDAT

; Begin code for function: ??$_Uninitialized_move@PAKPAKV?$allocator@K@std@@@std@@YAPAKPAK00AAV?$allocator@K@0@@Z
; Line 469
	mflr         r12
	stw          r12,-8(r1)
	std          r31,-10h(r1)
	stwu         r1,-70h(r1)
.endprolog
$M103586:
	stw          r3,_First$(r1)		; 132 (84h)
	stw          r4,_Last$(r1)		; 140 (8Ch)
	stw          r5,_Dest$(r1)		; 148 (94h)
	stw          r6,_Al$(r1)		; 156 (9Ch)
; Line 471
	lwz          r4,_Dest$(r1)		; 148 (94h)
	lwz          r3,_First$(r1)		; 132 (84h)
	bl           ??$_Ptr_cat@KK@std@@YA?AU_Scalar_ptr_iterator_tag@0@PAK0@Z
	stb          r3,$T103585(r1)		; 80 (50h)
	lbz          r31,$T103585(r1)		; 80 (50h)
	lwz          r3,_First$(r1)		; 132 (84h)
	bl           ??$_Val_type@PAK@std@@YAPAKPAK@Z
	mr           r7,r3
	lwz          r6,_Al$(r1)		; 156 (9Ch)
	lwz          r5,_Dest$(r1)		; 148 (94h)
	lwz          r4,_Last$(r1)		; 140 (8Ch)
	lwz          r3,_First$(r1)		; 132 (84h)
	mr           r8,r31
	bl           ??$_Uninit_move@KKK@std@@YAPAKPAK00AAV?$allocator@K@0@0U_Scalar_ptr_iterator_tag@0@@Z
; Line 472
	addi         r1,r1,112		; 70h
	lwz          r12,-8(r1)
	mtlr         r12
	ld           r31,-10h(r1)
	blr
$M103587:
; End code for function: ??$_Uninitialized_move@PAKPAKV?$allocator@K@std@@@std@@YAPAKPAK00AAV?$allocator@K@0@@Z
??$_Uninitialized_move@PAKPAKV?$allocator@K@std@@@std@@YAPAKPAK00AAV?$allocator@K@0@@Z ENDP
							; std::_Uninitialized_move<unsigned long *,unsigned long *,std::allocator<unsigned long> >
;	COMDAT .pdata
; File c:\program files (x86)\microsoft xbox 360 sdk\include\xbox\xmemory
.pdata	SEGMENT
$T103597 DD	??$construct@AAK@?$allocator@K@std@@QAAXPAKAAK@Z
	DD	040001b03H
; Function compile flags: /Odtu

	.code
$T103592 = 80						; size = 4
tv70 = 84						; size = 4

??$construct@AAK@?$allocator@K@std@@QAAXPAKAAK@Z PROC NEAR ; std::allocator<unsigned long>::construct<unsigned long &>, COMDAT

; Begin code for function: ??$construct@AAK@?$allocator@K@std@@QAAXPAKAAK@Z
; Line 206
	mflr         r12
	stw          r12,-8(r1)
	stwu         r1,-60h(r1)
.endprolog
$M103595:
	stw          r3,this$(r1)		; 116 (74h)
	stw          r4,_Ptr$(r1)		; 124 (7Ch)
	stw          r5,_Val$(r1)		; 132 (84h)
; Line 208
	lwz          r4,_Ptr$(r1)		; 124 (7Ch)
	li           r3,4
	bl           ??2@YAPAXIPAX@Z
	stw          r3,$T103592(r1)		; 80 (50h)
	lwz          r11,$T103592(r1)		; 80 (50h)
	cmplwi       cr6,r11,0
	beq          cr6,$LN3@construct
	lwz          r3,_Val$(r1)		; 132 (84h)
	bl           ??$forward@AAK@std@@YAAAKAAK@Z
	lwz          r10,0(r3)
	lwz          r9,$T103592(r1)		; 80 (50h)
	stw          r10,0(r9)
	lwz          r8,$T103592(r1)		; 80 (50h)
	stw          r8,54h(r1)
	b            $LN1@construct
$LN3@construct:
	li           r7,0
	stw          r7,54h(r1)
$LN1@construct:
; Line 209
	addi         r1,r1,96		; 60h
	lwz          r12,-8(r1)
	mtlr         r12
	blr
$M103596:
; End code for function: ??$construct@AAK@?$allocator@K@std@@QAAXPAKAAK@Z
??$construct@AAK@?$allocator@K@std@@QAAXPAKAAK@Z ENDP
							; std::allocator<unsigned long>::construct<unsigned long &>
;	COMDAT .pdata
.pdata	SEGMENT
$T103606 DD	?construct@?$allocator@K@std@@QAAXPAK$$QAK@Z
	DD	040001b03H
; Function compile flags: /Odtu

	.code
$T103601 = 80						; size = 4
tv70 = 84						; size = 4

?construct@?$allocator@K@std@@QAAXPAK$$QAK@Z PROC NEAR	; std::allocator<unsigned long>::construct, COMDAT

; Begin code for function: ?construct@?$allocator@K@std@@QAAXPAK$$QAK@Z
; Line 201
	mflr         r12
	stw          r12,-8(r1)
	stwu         r1,-60h(r1)
.endprolog
$M103604:
	stw          r3,this$(r1)		; 116 (74h)
	stw          r4,_Ptr$(r1)		; 124 (7Ch)
	stw          r5,_Val$(r1)		; 132 (84h)
; Line 202
	lwz          r4,_Ptr$(r1)		; 124 (7Ch)
	li           r3,4
	bl           ??2@YAPAXIPAX@Z
	stw          r3,$T103601(r1)		; 80 (50h)
	lwz          r11,$T103601(r1)		; 80 (50h)
	cmplwi       cr6,r11,0
	beq          cr6,$LN3@construct@2
	lwz          r3,_Val$(r1)		; 132 (84h)
	bl           ??$forward@K@std@@YA$$QAKAAK@Z
	lwz          r10,0(r3)
	lwz          r9,$T103601(r1)		; 80 (50h)
	stw          r10,0(r9)
	lwz          r8,$T103601(r1)		; 80 (50h)
	stw          r8,54h(r1)
	b            $LN1@construct@2
$LN3@construct@2:
	li           r7,0
	stw          r7,54h(r1)
$LN1@construct@2:
; Line 203
	addi         r1,r1,96		; 60h
	lwz          r12,-8(r1)
	mtlr         r12
	blr
$M103605:
; End code for function: ?construct@?$allocator@K@std@@QAAXPAK$$QAK@Z
?construct@?$allocator@K@std@@QAAXPAK$$QAK@Z ENDP
							; std::allocator<unsigned long>::construct
;	COMDAT .pdata
.pdata	SEGMENT
$T103612 DD	?construct@?$allocator@K@std@@QAAXPAKABK@Z
	DD	040000d03H
; Function compile flags: /Odtu

	.code

?construct@?$allocator@K@std@@QAAXPAKABK@Z PROC NEAR	; std::allocator<unsigned long>::construct, COMDAT

; Begin code for function: ?construct@?$allocator@K@std@@QAAXPAKABK@Z
; Line 196
	mflr         r12
	stw          r12,-8(r1)
	stwu         r1,-60h(r1)
.endprolog
$M103610:
	stw          r3,this$(r1)		; 116 (74h)
	stw          r4,_Ptr$(r1)		; 124 (7Ch)
	stw          r5,_Val$(r1)		; 132 (84h)
; Line 197
	lwz          r4,_Val$(r1)		; 132 (84h)
	lwz          r3,_Ptr$(r1)		; 124 (7Ch)
	bl           ??$_Construct@KABK@std@@YAXPAKABK@Z
; Line 198
	addi         r1,r1,96		; 60h
	lwz          r12,-8(r1)
	mtlr         r12
	blr
$M103611:
; End code for function: ?construct@?$allocator@K@std@@QAAXPAKABK@Z
?construct@?$allocator@K@std@@QAAXPAKABK@Z ENDP
							; std::allocator<unsigned long>::construct
;	COMDAT .pdata
; File c:\program files (x86)\microsoft xbox 360 sdk\include\xbox\vector
.pdata	SEGMENT
$T103618 DD	??$_Umove@PAK@?$vector@KV?$allocator@K@std@@@std@@IAAPAKPAK00@Z
	DD	040001103H
; Function compile flags: /Odtu

	.code

??$_Umove@PAK@?$vector@KV?$allocator@K@std@@@std@@IAAPAKPAK00@Z	PROC NEAR ; std::vector<unsigned long,std::allocator<unsigned long> >::_Umove<unsigned long *>, COMDAT

; Begin code for function: ??$_Umove@PAK@?$vector@KV?$allocator@K@std@@@std@@IAAPAKPAK00@Z
; Line 1322
	mflr         r12
	stw          r12,-8(r1)
	stwu         r1,-60h(r1)
.endprolog
$M103616:
	stw          r3,this$(r1)		; 116 (74h)
	stw          r4,_First$(r1)		; 124 (7Ch)
	stw          r5,_Last$(r1)		; 132 (84h)
	stw          r6,_Ptr$(r1)		; 140 (8Ch)
; Line 1325
	lwz          r11,this$(r1)		; 116 (74h)
	addi         r6,r11,12		; 0Ch
	lwz          r5,_Ptr$(r1)		; 140 (8Ch)
	lwz          r4,_Last$(r1)		; 132 (84h)
	lwz          r3,_First$(r1)		; 124 (7Ch)
	bl           ??$_Uninitialized_move@PAKPAKV?$allocator@K@std@@@std@@YAPAKPAK00AAV?$allocator@K@0@@Z
; Line 1326
	addi         r1,r1,96		; 60h
	lwz          r12,-8(r1)
	mtlr         r12
	blr
$M103617:
; End code for function: ??$_Umove@PAK@?$vector@KV?$allocator@K@std@@@std@@IAAPAKPAK00@Z
??$_Umove@PAK@?$vector@KV?$allocator@K@std@@@std@@IAAPAKPAK00@Z ENDP
							; std::vector<unsigned long,std::allocator<unsigned long> >::_Umove<unsigned long *>
;	COMDAT .pdata
; File c:\program files (x86)\microsoft xbox 360 sdk\include\xbox\xmemory
.pdata	SEGMENT
$T103624 DD	??$_Cons_val@V?$allocator@K@std@@KK@std@@YAXAAV?$allocator@K@0@PAK$$QAK@Z
	DD	040001003H
; Function compile flags: /Odtu

	.code

??$_Cons_val@V?$allocator@K@std@@KK@std@@YAXAAV?$allocator@K@0@PAK$$QAK@Z PROC NEAR ; std::_Cons_val<std::allocator<unsigned long>,unsigned long,unsigned long>, COMDAT

; Begin code for function: ??$_Cons_val@V?$allocator@K@std@@KK@std@@YAXAAV?$allocator@K@0@PAK$$QAK@Z
; Line 279
	mflr         r12
	stw          r12,-8(r1)
	stwu         r1,-60h(r1)
.endprolog
$M103622:
	stw          r3,_Alval$(r1)		; 116 (74h)
	stw          r4,_Pdest$(r1)		; 124 (7Ch)
	stw          r5,_Src$(r1)		; 132 (84h)
; Line 280
	lwz          r3,_Src$(r1)		; 132 (84h)
	bl           ??$forward@K@std@@YA$$QAKAAK@Z
	mr           r5,r3
	lwz          r4,_Pdest$(r1)		; 124 (7Ch)
	lwz          r3,_Alval$(r1)		; 116 (74h)
	bl           ?construct@?$allocator@K@std@@QAAXPAK$$QAK@Z
; Line 281
	addi         r1,r1,96		; 60h
	lwz          r12,-8(r1)
	mtlr         r12
	blr
$M103623:
; End code for function: ??$_Cons_val@V?$allocator@K@std@@KK@std@@YAXAAV?$allocator@K@0@PAK$$QAK@Z
??$_Cons_val@V?$allocator@K@std@@KK@std@@YAXAAV?$allocator@K@0@PAK$$QAK@Z ENDP
							; std::_Cons_val<std::allocator<unsigned long>,unsigned long,unsigned long>
;	COMDAT .pdata
.pdata	SEGMENT
$T103630 DD	??$_Cons_val@V?$allocator@K@std@@KABK@std@@YAXAAV?$allocator@K@0@PAKABK@Z
	DD	040001003H
; Function compile flags: /Odtu

	.code

??$_Cons_val@V?$allocator@K@std@@KABK@std@@YAXAAV?$allocator@K@0@PAKABK@Z PROC NEAR ; std::_Cons_val<std::allocator<unsigned long>,unsigned long,unsigned long const &>, COMDAT

; Begin code for function: ??$_Cons_val@V?$allocator@K@std@@KABK@std@@YAXAAV?$allocator@K@0@PAKABK@Z
; Line 279
	mflr         r12
	stw          r12,-8(r1)
	stwu         r1,-60h(r1)
.endprolog
$M103628:
	stw          r3,_Alval$(r1)		; 116 (74h)
	stw          r4,_Pdest$(r1)		; 124 (7Ch)
	stw          r5,_Src$(r1)		; 132 (84h)
; Line 280
	lwz          r3,_Src$(r1)		; 132 (84h)
	bl           ??$forward@ABK@std@@YAABKABK@Z
	mr           r5,r3
	lwz          r4,_Pdest$(r1)		; 124 (7Ch)
	lwz          r3,_Alval$(r1)		; 116 (74h)
	bl           ?construct@?$allocator@K@std@@QAAXPAKABK@Z
; Line 281
	addi         r1,r1,96		; 60h
	lwz          r12,-8(r1)
	mtlr         r12
	blr
$M103629:
; End code for function: ??$_Cons_val@V?$allocator@K@std@@KABK@std@@YAXAAV?$allocator@K@0@PAKABK@Z
??$_Cons_val@V?$allocator@K@std@@KABK@std@@YAXAAV?$allocator@K@0@PAKABK@Z ENDP
							; std::_Cons_val<std::allocator<unsigned long>,unsigned long,unsigned long const &>
;	COMDAT .pdata
.pdata	SEGMENT
$T103636 DD	??$_Cons_val@V?$allocator@K@std@@KAAK@std@@YAXAAV?$allocator@K@0@PAKAAK@Z
	DD	040001003H
; Function compile flags: /Odtu

	.code

??$_Cons_val@V?$allocator@K@std@@KAAK@std@@YAXAAV?$allocator@K@0@PAKAAK@Z PROC NEAR ; std::_Cons_val<std::allocator<unsigned long>,unsigned long,unsigned long &>, COMDAT

; Begin code for function: ??$_Cons_val@V?$allocator@K@std@@KAAK@std@@YAXAAV?$allocator@K@0@PAKAAK@Z
; Line 279
	mflr         r12
	stw          r12,-8(r1)
	stwu         r1,-60h(r1)
.endprolog
$M103634:
	stw          r3,_Alval$(r1)		; 116 (74h)
	stw          r4,_Pdest$(r1)		; 124 (7Ch)
	stw          r5,_Src$(r1)		; 132 (84h)
; Line 280
	lwz          r3,_Src$(r1)		; 132 (84h)
	bl           ??$forward@AAK@std@@YAAAKAAK@Z
	mr           r5,r3
	lwz          r4,_Pdest$(r1)		; 124 (7Ch)
	lwz          r3,_Alval$(r1)		; 116 (74h)
	bl           ??$construct@AAK@?$allocator@K@std@@QAAXPAKAAK@Z
; Line 281
	addi         r1,r1,96		; 60h
	lwz          r12,-8(r1)
	mtlr         r12
	blr
$M103635:
; End code for function: ??$_Cons_val@V?$allocator@K@std@@KAAK@std@@YAXAAV?$allocator@K@0@PAKAAK@Z
??$_Cons_val@V?$allocator@K@std@@KAAK@std@@YAXAAV?$allocator@K@0@PAKAAK@Z ENDP
							; std::_Cons_val<std::allocator<unsigned long>,unsigned long,unsigned long &>
;	COMDAT .pdata
; File c:\program files (x86)\microsoft xbox 360 sdk\include\xbox\vector
.pdata	SEGMENT
$T103644 DD	?_Grow_to@?$vector@KV?$allocator@K@std@@@std@@IBAII@Z
	DD	040002703H
; Function compile flags: /Odtu

	.code
_Capacity$ = 80						; size = 4
tv73 = 84						; size = 4

?_Grow_to@?$vector@KV?$allocator@K@std@@@std@@IBAII@Z PROC NEAR ; std::vector<unsigned long,std::allocator<unsigned long> >::_Grow_to, COMDAT

; Begin code for function: ?_Grow_to@?$vector@KV?$allocator@K@std@@@std@@IBAII@Z
; Line 1274
	mflr         r12
	stw          r12,-8(r1)
	stwu         r1,-60h(r1)
.endprolog
$M103642:
	stw          r3,this$(r1)		; 116 (74h)
	stw          r4,_Count$(r1)		; 124 (7Ch)
; Line 1275
	lwz          r3,this$(r1)		; 116 (74h)
	bl           ?capacity@?$vector@KV?$allocator@K@std@@@std@@QBAIXZ
	stw          r3,_Capacity$(r1)		; 80 (50h)
; Line 1278
	lwz          r3,this$(r1)		; 116 (74h)
	bl           ?max_size@?$vector@KV?$allocator@K@std@@@std@@QBAIXZ
	lwz          r11,_Capacity$(r1)		; 80 (50h)
	li           r10,2
	divwu        r9,r11,r10
	subf         r8,r9,r3
	lwz          r7,_Capacity$(r1)		; 80 (50h)
	cmplw        cr6,r8,r7
	bge          cr6,$LN4@Grow_to
	li           r6,0
	stw          r6,54h(r1)
	b            $LN5@Grow_to
$LN4@Grow_to:
	lwz          r5,_Capacity$(r1)		; 80 (50h)
	li           r4,2
	divwu        r3,r5,r4
	lwz          r11,_Capacity$(r1)		; 80 (50h)
	add          r10,r11,r3
	stw          r10,54h(r1)
$LN5@Grow_to:
	lwz          r9,54h(r1)
	stw          r9,_Capacity$(r1)		; 80 (50h)
; Line 1279
	lwz          r8,_Capacity$(r1)		; 80 (50h)
	lwz          r7,_Count$(r1)		; 124 (7Ch)
	cmplw        cr6,r8,r7
	bge          cr6,$LN1@Grow_to
; Line 1280
	lwz          r6,_Count$(r1)		; 124 (7Ch)
	stw          r6,_Capacity$(r1)		; 80 (50h)
$LN1@Grow_to:
; Line 1281
	lwz          r3,_Capacity$(r1)		; 80 (50h)
; Line 1282
	addi         r1,r1,96		; 60h
	lwz          r12,-8(r1)
	mtlr         r12
	blr
$M103643:
; End code for function: ?_Grow_to@?$vector@KV?$allocator@K@std@@@std@@IBAII@Z
?_Grow_to@?$vector@KV?$allocator@K@std@@@std@@IBAII@Z ENDP
							; std::vector<unsigned long,std::allocator<unsigned long> >::_Grow_to
;	COMDAT .pdata
.pdata	SEGMENT
$T103650 DD	?get_allocator@?$vector@KV?$allocator@K@std@@@std@@QBA?AV?$allocator@K@2@XZ
	DD	040000e03H
; Function compile flags: /Odtu

	.code

?get_allocator@?$vector@KV?$allocator@K@std@@@std@@QBA?AV?$allocator@K@2@XZ PROC NEAR ; std::vector<unsigned long,std::allocator<unsigned long> >::get_allocator, COMDAT

; Begin code for function: ?get_allocator@?$vector@KV?$allocator@K@std@@@std@@QBA?AV?$allocator@K@2@XZ
; Line 893
	mflr         r12
	stw          r12,-8(r1)
	stwu         r1,-60h(r1)
.endprolog
$M103648:
	stw          r3,__$ReturnUdt$(r1)		; 116 (74h)
	stw          r4,this$(r1)		; 124 (7Ch)
; Line 894
	lwz          r11,this$(r1)		; 124 (7Ch)
	addi         r4,r11,12		; 0Ch
	lwz          r3,__$ReturnUdt$(r1)		; 116 (74h)
	bl           ??0?$allocator@K@std@@QAA@ABV01@@Z
	lwz          r3,__$ReturnUdt$(r1)		; 116 (74h)
; Line 895
	addi         r1,r1,96		; 60h
	lwz          r12,-8(r1)
	mtlr         r12
	blr
$M103649:
; End code for function: ?get_allocator@?$vector@KV?$allocator@K@std@@@std@@QBA?AV?$allocator@K@2@XZ
?get_allocator@?$vector@KV?$allocator@K@std@@@std@@QBA?AV?$allocator@K@2@XZ ENDP
							; std::vector<unsigned long,std::allocator<unsigned long> >::get_allocator
;	COMDAT .pdata
.pdata	SEGMENT
$T103658 DD	??0?$vector@KV?$allocator@K@std@@@std@@QAA@XZ
	DD	040001003H
; Function compile flags: /Odtu

	.code
$T103654 = 80						; size = 1
$T103655 = 84						; size = 4

??0?$vector@KV?$allocator@K@std@@@std@@QAA@XZ PROC NEAR	; std::vector<unsigned long,std::allocator<unsigned long> >::vector<unsigned long,std::allocator<unsigned long> >, COMDAT

; Begin code for function: ??0?$vector@KV?$allocator@K@std@@@std@@QAA@XZ
; Line 507
	mflr         r12
	stw          r12,-8(r1)
	stwu         r1,-60h(r1)
.endprolog
$M103656:
	stw          r3,this$(r1)		; 116 (74h)
	addi         r11,r1,$T103654
	stw          r11,$T103655(r1)		; 84 (54h)
	lwz          r3,$T103655(r1)		; 84 (54h)
	bl           ??0?$allocator@K@std@@QAA@XZ
	mr           r4,r3
	lwz          r3,this$(r1)		; 116 (74h)
	bl           ??0?$_Vector_val@KV?$allocator@K@std@@@std@@QAA@V?$allocator@K@1@@Z
; Line 508
	lwz          r3,this$(r1)		; 116 (74h)
	addi         r1,r1,96		; 60h
	lwz          r12,-8(r1)
	mtlr         r12
	blr
$M103657:
; End code for function: ??0?$vector@KV?$allocator@K@std@@@std@@QAA@XZ
??0?$vector@KV?$allocator@K@std@@@std@@QAA@XZ ENDP
							; std::vector<unsigned long,std::allocator<unsigned long> >::vector<unsigned long,std::allocator<unsigned long> >
PUBLIC	?_GET_ADDRESS@@YAKK@Z				; _GET_ADDRESS
;	COMDAT .pdata
; File c:\users\s7clutch\documents\visual studio 2010\projects\the saiyan project\src\natives.cpp
.pdata	SEGMENT
$T103664 DD	?_GET_ADDRESS@@YAKK@Z
	DD	040001b03H
; Function compile flags: /Odtu

	.code
n$ = 80							; size = 4

?_GET_ADDRESS@@YAKK@Z PROC NEAR				; _GET_ADDRESS, COMDAT

; Begin code for function: ?_GET_ADDRESS@@YAKK@Z
; Line 325
	mflr         r12
	stw          r12,-8(r1)
	stwu         r1,-60h(r1)
.endprolog
$M103662:
	stw          r3,native$(r1)		; 116 (74h)
; Line 326
	lis          r11,?NativePoolHead@@3PAU_Node@@A
	lwz          r10,?NativePoolHead@@3PAU_Node@@A(r11)
	stw          r10,n$(r1)		; 80 (50h)
$LN3@GET_ADDRES:
; Line 327
	lwz          r9,n$(r1)		; 80 (50h)
	cmplwi       cr6,r9,0
	beq          cr6,$LN2@GET_ADDRES
; Line 329
	lwz          r8,n$(r1)		; 80 (50h)
	lwz          r7,0(r8)
	lwz          r6,native$(r1)		; 116 (74h)
	cmplw        cr6,r7,r6
	bne          cr6,$LN1@GET_ADDRES
; Line 330
	lwz          r5,n$(r1)		; 80 (50h)
	lwz          r3,4(r5)
	b            $LN4@GET_ADDRES
$LN1@GET_ADDRES:
; Line 331
	lwz          r3,n$(r1)		; 80 (50h)
	bl           ?getNext@_Node@@QAAPAU1@XZ
	stw          r3,n$(r1)		; 80 (50h)
; Line 332
	b            $LN3@GET_ADDRES
$LN2@GET_ADDRES:
; Line 333
	li           r3,0
$LN4@GET_ADDRES:
; Line 334
	addi         r1,r1,96		; 60h
	lwz          r12,-8(r1)
	mtlr         r12
	blr
$M103663:
; End code for function: ?_GET_ADDRESS@@YAKK@Z
?_GET_ADDRESS@@YAKK@Z ENDP
							; _GET_ADDRESS
;	COMDAT .pdata
; File c:\program files (x86)\microsoft xbox 360 sdk\include\xbox\xmemory
.pdata	SEGMENT
$T103965 DD	??$_Allocate@K@std@@YAPAKIPAK@Z
	DD	040002403H
; Function compile flags: /Odtu

	.code
$T88912 = 80						; size = 8
_Ptr$ = 88						; size = 4

??$_Allocate@K@std@@YAPAKIPAK@Z	PROC NEAR		; std::_Allocate<unsigned long>, COMDAT

; Begin code for function: ??$_Allocate@K@std@@YAPAKIPAK@Z
; Line 30
	mflr         r12
	stw          r12,-8(r1)
	stwu         r1,-70h(r1)
.endprolog
$M103963:
	stw          r3,_Count$(r1)		; 132 (84h)
	stw          r4,__formal$(r1)		; 140 (8Ch)
; Line 31
	li           r11,0
	stw          r11,_Ptr$(r1)		; 88 (58h)
; Line 33
	lwz          r10,_Count$(r1)		; 132 (84h)
	cmplwi       cr6,r10,0
	bgt          cr6,$LN4@Allocate
; Line 34
	li           r9,0
	stw          r9,_Count$(r1)		; 132 (84h)
; Line 35
	b            $LN3@Allocate
$LN4@Allocate:
; Line 36
	lwz          r8,_Count$(r1)		; 132 (84h)
	lis          r7,16383		; 3FFFh
	ori          r6,r7,65535		; 0FFFFh
	cmplw        cr6,r8,r6
	bgt          cr6,$LN1@Allocate
	lwz          r5,_Count$(r1)		; 132 (84h)
	slwi         r3,r5,2
	bl           ??2@YAPAXI@Z
	stw          r3,_Ptr$(r1)		; 88 (58h)
	lwz          r4,_Ptr$(r1)		; 88 (58h)
	cmplwi       cr6,r4,0
	bne          cr6,$LN3@Allocate
$LN1@Allocate:
; Line 37
	li           r4,0
	addi         r3,r1,$T88912
	bl           ??0bad_alloc@stdext@@QAA@PBD@Z
	bl           ?_Raise@exception@stdext@@QBAXXZ
	addi         r3,r1,$T88912
	bl           ??1bad_alloc@stdext@@UAA@XZ
$LN3@Allocate:
; Line 39
	lwz          r3,_Ptr$(r1)		; 88 (58h)
; Line 40
	addi         r1,r1,112		; 70h
	lwz          r12,-8(r1)
	mtlr         r12
	blr
$M103964:
; End code for function: ??$_Allocate@K@std@@YAPAKIPAK@Z
??$_Allocate@K@std@@YAPAKIPAK@Z ENDP
							; std::_Allocate<unsigned long>
;	COMDAT .pdata
; File c:\users\s7clutch\documents\visual studio 2010\projects\the saiyan project\src\natives.cpp
.pdata	SEGMENT
$T103973 DD	??$_CALL_NATIVE@M@@YAMKKZZ
	DD	040004b0aH
; Function compile flags: /Odtu

	.code
NativeCall_Arguments$ = 80				; size = 64
NativeCall_Struct$ = 144				; size = 12
va$ = 156						; size = 4
NativeCall_Return$ = 160				; size = 12
i$88574 = 172						; size = 4
tv78 = 176						; size = 4

??$_CALL_NATIVE@M@@YAMKKZZ PROC NEAR			; _CALL_NATIVE<float>, COMDAT

; Begin code for function: ??$_CALL_NATIVE@M@@YAMKKZZ
; Line 158
	mflr         r12
	stw          r12,-8(r1)
	std          r31,-10h(r1)
	std          r5,20h(r1)
	std          r6,28h(r1)
	std          r7,30h(r1)
	std          r8,38h(r1)
	std          r9,40h(r1)
	std          r10,48h(r1)
	stwu         r1,-0D0h(r1)
.endprolog
$M103971:
	stw          r3,dwNativeNameHash$(r1)		; 228 (0E4h)
	stw          r4,dwParamCount$(r1)		; 236 (0ECh)
; Line 163
	lwz          r11,dwParamCount$(r1)		; 236 (0ECh)
	stw          r11,NativeCall_Struct$+4(r1)		; 148 (94h)
; Line 164
	addi         r10,r1,NativeCall_Arguments$
	stw          r10,NativeCall_Struct$+8(r1)		; 152 (98h)
; Line 165
	addi         r9,r1,NativeCall_Return$
	stw          r9,NativeCall_Struct$(r1)		; 144 (90h)
; Line 168
	addi         r8,r1,va$
	addi         r7,r1,dwParamCount$+4
	stw          r7,0(r8)
; Line 169
	li           r6,0
	stw          r6,i$88574(r1)		; 172 (0ACh)
	b            $LN5@CALL_NATIV
$LN4@CALL_NATIV:
	lwz          r5,i$88574(r1)		; 172 (0ACh)
	addi         r4,r5,1
	stw          r4,i$88574(r1)		; 172 (0ACh)
$LN5@CALL_NATIV:
	lwz          r3,i$88574(r1)		; 172 (0ACh)
	cmpwi        cr6,r3,16		; 10h
	bge          cr6,$LN3@CALL_NATIV
; Line 171
	lwz          r11,i$88574(r1)		; 172 (0ACh)
	lwz          r10,dwParamCount$(r1)		; 236 (0ECh)
	cmplw        cr6,r11,r10
	bge          cr6,$LN2@CALL_NATIV
; Line 172
	lwz          r9,va$(r1)		; 156 (9Ch)
	addi         r8,r9,8
	addi         r7,r8,-1		; 0FFFFh
	clrrwi       r6,r7,3
	addi         r5,r6,8
	stw          r5,va$(r1)		; 156 (9Ch)
	b            $LN8@CALL_NATIV
	lwz          r4,va$(r1)		; 156 (9Ch)
	lwz          r3,-8(r4)
	stw          r3,0B0h(r1)
	b            $LN9@CALL_NATIV
$LN8@CALL_NATIV:
	lwz          r11,va$(r1)		; 156 (9Ch)
	lwz          r10,-4(r11)
	stw          r10,0B0h(r1)
$LN9@CALL_NATIV:
	lwz          r9,i$88574(r1)		; 172 (0ACh)
	slwi         r8,r9,2
	addi         r7,r1,NativeCall_Arguments$
	lwz          r6,0B0h(r1)
	stwx         r6,r7,r8
; Line 173
	b            $LN1@CALL_NATIV
$LN2@CALL_NATIV:
; Line 174
	lwz          r5,i$88574(r1)		; 172 (0ACh)
	slwi         r4,r5,2
	addi         r3,r1,NativeCall_Arguments$
	li           r11,0
	stwx         r11,r3,r4
$LN1@CALL_NATIV:
; Line 175
	b            $LN4@CALL_NATIV
$LN3@CALL_NATIV:
; Line 176
	li           r10,0
	stw          r10,va$(r1)		; 156 (9Ch)
; Line 178
	addi         r31,r1,NativeCall_Struct$
	lwz          r3,dwNativeNameHash$(r1)		; 228 (0E4h)
	bl           ?_GET_ADDRESS@@YAKK@Z
	mr           r9,r3
	mr           r3,r31
	mtctr        r9
	bctrl
; Line 179
	lfs          fr1,NativeCall_Return$(r1)		; 160 (0A0h)
; Line 180
	addi         r1,r1,208		; 0D0h
	lwz          r12,-8(r1)
	mtlr         r12
	ld           r31,-10h(r1)
	blr
$M103972:
; End code for function: ??$_CALL_NATIVE@M@@YAMKKZZ
??$_CALL_NATIVE@M@@YAMKKZZ ENDP
							; _CALL_NATIVE<float>
;	COMDAT .pdata
.pdata	SEGMENT
$T103981 DD	??$_CALL_NATIVE@U_Vector3@@@@YA?AU_Vector3@@KKZZ
	DD	040005209H
; Function compile flags: /Odtu

	.code
NativeCall_Arguments$ = 80				; size = 64
NativeCall_Struct$ = 144				; size = 12
va$ = 156						; size = 4
NativeCall_Return$ = 160				; size = 12
i$88548 = 172						; size = 4
tv78 = 176						; size = 4

??$_CALL_NATIVE@U_Vector3@@@@YA?AU_Vector3@@KKZZ PROC NEAR ; _CALL_NATIVE<_Vector3>, COMDAT

; Begin code for function: ??$_CALL_NATIVE@U_Vector3@@@@YA?AU_Vector3@@KKZZ
; Line 158
	mflr         r12
	stw          r12,-8(r1)
	std          r31,-10h(r1)
	std          r6,28h(r1)
	std          r7,30h(r1)
	std          r8,38h(r1)
	std          r9,40h(r1)
	std          r10,48h(r1)
	stwu         r1,-0D0h(r1)
.endprolog
$M103979:
	stw          r3,__$ReturnUdt$(r1)		; 228 (0E4h)
	stw          r4,dwNativeNameHash$(r1)		; 236 (0ECh)
	stw          r5,dwParamCount$(r1)		; 244 (0F4h)
; Line 163
	lwz          r11,dwParamCount$(r1)		; 244 (0F4h)
	stw          r11,NativeCall_Struct$+4(r1)		; 148 (94h)
; Line 164
	addi         r10,r1,NativeCall_Arguments$
	stw          r10,NativeCall_Struct$+8(r1)		; 152 (98h)
; Line 165
	addi         r9,r1,NativeCall_Return$
	stw          r9,NativeCall_Struct$(r1)		; 144 (90h)
; Line 168
	addi         r8,r1,va$
	addi         r7,r1,dwParamCount$+4
	stw          r7,0(r8)
; Line 169
	li           r6,0
	stw          r6,i$88548(r1)		; 172 (0ACh)
	b            $LN5@CALL_NATIV@2
$LN4@CALL_NATIV@2:
	lwz          r5,i$88548(r1)		; 172 (0ACh)
	addi         r4,r5,1
	stw          r4,i$88548(r1)		; 172 (0ACh)
$LN5@CALL_NATIV@2:
	lwz          r3,i$88548(r1)		; 172 (0ACh)
	cmpwi        cr6,r3,16		; 10h
	bge          cr6,$LN3@CALL_NATIV@2
; Line 171
	lwz          r11,i$88548(r1)		; 172 (0ACh)
	lwz          r10,dwParamCount$(r1)		; 244 (0F4h)
	cmplw        cr6,r11,r10
	bge          cr6,$LN2@CALL_NATIV@2
; Line 172
	lwz          r9,va$(r1)		; 156 (9Ch)
	addi         r8,r9,8
	addi         r7,r8,-1		; 0FFFFh
	clrrwi       r6,r7,3
	addi         r5,r6,8
	stw          r5,va$(r1)		; 156 (9Ch)
	b            $LN8@CALL_NATIV@2
	lwz          r4,va$(r1)		; 156 (9Ch)
	lwz          r3,-8(r4)
	stw          r3,0B0h(r1)
	b            $LN9@CALL_NATIV@2
$LN8@CALL_NATIV@2:
	lwz          r11,va$(r1)		; 156 (9Ch)
	lwz          r10,-4(r11)
	stw          r10,0B0h(r1)
$LN9@CALL_NATIV@2:
	lwz          r9,i$88548(r1)		; 172 (0ACh)
	slwi         r8,r9,2
	addi         r7,r1,NativeCall_Arguments$
	lwz          r6,0B0h(r1)
	stwx         r6,r7,r8
; Line 173
	b            $LN1@CALL_NATIV@2
$LN2@CALL_NATIV@2:
; Line 174
	lwz          r5,i$88548(r1)		; 172 (0ACh)
	slwi         r4,r5,2
	addi         r3,r1,NativeCall_Arguments$
	li           r11,0
	stwx         r11,r3,r4
$LN1@CALL_NATIV@2:
; Line 175
	b            $LN4@CALL_NATIV@2
$LN3@CALL_NATIV@2:
; Line 176
	li           r10,0
	stw          r10,va$(r1)		; 156 (9Ch)
; Line 178
	addi         r31,r1,NativeCall_Struct$
	lwz          r3,dwNativeNameHash$(r1)		; 236 (0ECh)
	bl           ?_GET_ADDRESS@@YAKK@Z
	mr           r9,r3
	mr           r3,r31
	mtctr        r9
	bctrl
; Line 179
	lwz          r8,__$ReturnUdt$(r1)		; 228 (0E4h)
	lwz          r7,NativeCall_Return$(r1)		; 160 (0A0h)
	stw          r7,0(r8)
	lwz          r6,NativeCall_Return$+4(r1)		; 164 (0A4h)
	stw          r6,4(r8)
	lwz          r5,NativeCall_Return$+8(r1)		; 168 (0A8h)
	stw          r5,8(r8)
	lwz          r3,__$ReturnUdt$(r1)		; 228 (0E4h)
; Line 180
	addi         r1,r1,208		; 0D0h
	lwz          r12,-8(r1)
	mtlr         r12
	ld           r31,-10h(r1)
	blr
$M103980:
; End code for function: ??$_CALL_NATIVE@U_Vector3@@@@YA?AU_Vector3@@KKZZ
??$_CALL_NATIVE@U_Vector3@@@@YA?AU_Vector3@@KKZZ ENDP
							; _CALL_NATIVE<_Vector3>
;	COMDAT .pdata
.pdata	SEGMENT
$T103989 DD	??$_CALL_NATIVE@H@@YAHKKZZ
	DD	040004b0aH
; Function compile flags: /Odtu

	.code
NativeCall_Arguments$ = 80				; size = 64
NativeCall_Struct$ = 144				; size = 12
va$ = 156						; size = 4
NativeCall_Return$ = 160				; size = 12
i$88521 = 172						; size = 4
tv78 = 176						; size = 4

??$_CALL_NATIVE@H@@YAHKKZZ PROC NEAR			; _CALL_NATIVE<int>, COMDAT

; Begin code for function: ??$_CALL_NATIVE@H@@YAHKKZZ
; Line 158
	mflr         r12
	stw          r12,-8(r1)
	std          r31,-10h(r1)
	std          r5,20h(r1)
	std          r6,28h(r1)
	std          r7,30h(r1)
	std          r8,38h(r1)
	std          r9,40h(r1)
	std          r10,48h(r1)
	stwu         r1,-0D0h(r1)
.endprolog
$M103987:
	stw          r3,dwNativeNameHash$(r1)		; 228 (0E4h)
	stw          r4,dwParamCount$(r1)		; 236 (0ECh)
; Line 163
	lwz          r11,dwParamCount$(r1)		; 236 (0ECh)
	stw          r11,NativeCall_Struct$+4(r1)		; 148 (94h)
; Line 164
	addi         r10,r1,NativeCall_Arguments$
	stw          r10,NativeCall_Struct$+8(r1)		; 152 (98h)
; Line 165
	addi         r9,r1,NativeCall_Return$
	stw          r9,NativeCall_Struct$(r1)		; 144 (90h)
; Line 168
	addi         r8,r1,va$
	addi         r7,r1,dwParamCount$+4
	stw          r7,0(r8)
; Line 169
	li           r6,0
	stw          r6,i$88521(r1)		; 172 (0ACh)
	b            $LN5@CALL_NATIV@3
$LN4@CALL_NATIV@3:
	lwz          r5,i$88521(r1)		; 172 (0ACh)
	addi         r4,r5,1
	stw          r4,i$88521(r1)		; 172 (0ACh)
$LN5@CALL_NATIV@3:
	lwz          r3,i$88521(r1)		; 172 (0ACh)
	cmpwi        cr6,r3,16		; 10h
	bge          cr6,$LN3@CALL_NATIV@3
; Line 171
	lwz          r11,i$88521(r1)		; 172 (0ACh)
	lwz          r10,dwParamCount$(r1)		; 236 (0ECh)
	cmplw        cr6,r11,r10
	bge          cr6,$LN2@CALL_NATIV@3
; Line 172
	lwz          r9,va$(r1)		; 156 (9Ch)
	addi         r8,r9,8
	addi         r7,r8,-1		; 0FFFFh
	clrrwi       r6,r7,3
	addi         r5,r6,8
	stw          r5,va$(r1)		; 156 (9Ch)
	b            $LN8@CALL_NATIV@3
	lwz          r4,va$(r1)		; 156 (9Ch)
	lwz          r3,-8(r4)
	stw          r3,0B0h(r1)
	b            $LN9@CALL_NATIV@3
$LN8@CALL_NATIV@3:
	lwz          r11,va$(r1)		; 156 (9Ch)
	lwz          r10,-4(r11)
	stw          r10,0B0h(r1)
$LN9@CALL_NATIV@3:
	lwz          r9,i$88521(r1)		; 172 (0ACh)
	slwi         r8,r9,2
	addi         r7,r1,NativeCall_Arguments$
	lwz          r6,0B0h(r1)
	stwx         r6,r7,r8
; Line 173
	b            $LN1@CALL_NATIV@3
$LN2@CALL_NATIV@3:
; Line 174
	lwz          r5,i$88521(r1)		; 172 (0ACh)
	slwi         r4,r5,2
	addi         r3,r1,NativeCall_Arguments$
	li           r11,0
	stwx         r11,r3,r4
$LN1@CALL_NATIV@3:
; Line 175
	b            $LN4@CALL_NATIV@3
$LN3@CALL_NATIV@3:
; Line 176
	li           r10,0
	stw          r10,va$(r1)		; 156 (9Ch)
; Line 178
	addi         r31,r1,NativeCall_Struct$
	lwz          r3,dwNativeNameHash$(r1)		; 228 (0E4h)
	bl           ?_GET_ADDRESS@@YAKK@Z
	mr           r9,r3
	mr           r3,r31
	mtctr        r9
	bctrl
; Line 179
	lwz          r3,NativeCall_Return$(r1)		; 160 (0A0h)
; Line 180
	addi         r1,r1,208		; 0D0h
	lwz          r12,-8(r1)
	mtlr         r12
	ld           r31,-10h(r1)
	blr
$M103988:
; End code for function: ??$_CALL_NATIVE@H@@YAHKKZZ
??$_CALL_NATIVE@H@@YAHKKZZ ENDP
							; _CALL_NATIVE<int>
;	COMDAT .pdata
.pdata	SEGMENT
$T103997 DD	??$_CALL_NATIVE@PAD@@YAPADKKZZ
	DD	040004b0aH
; Function compile flags: /Odtu

	.code
NativeCall_Arguments$ = 80				; size = 64
NativeCall_Struct$ = 144				; size = 12
va$ = 156						; size = 4
NativeCall_Return$ = 160				; size = 12
i$88495 = 172						; size = 4
tv78 = 176						; size = 4

??$_CALL_NATIVE@PAD@@YAPADKKZZ PROC NEAR			; _CALL_NATIVE<char *>, COMDAT

; Begin code for function: ??$_CALL_NATIVE@PAD@@YAPADKKZZ
; Line 158
	mflr         r12
	stw          r12,-8(r1)
	std          r31,-10h(r1)
	std          r5,20h(r1)
	std          r6,28h(r1)
	std          r7,30h(r1)
	std          r8,38h(r1)
	std          r9,40h(r1)
	std          r10,48h(r1)
	stwu         r1,-0D0h(r1)
.endprolog
$M103995:
	stw          r3,dwNativeNameHash$(r1)		; 228 (0E4h)
	stw          r4,dwParamCount$(r1)		; 236 (0ECh)
; Line 163
	lwz          r11,dwParamCount$(r1)		; 236 (0ECh)
	stw          r11,NativeCall_Struct$+4(r1)		; 148 (94h)
; Line 164
	addi         r10,r1,NativeCall_Arguments$
	stw          r10,NativeCall_Struct$+8(r1)		; 152 (98h)
; Line 165
	addi         r9,r1,NativeCall_Return$
	stw          r9,NativeCall_Struct$(r1)		; 144 (90h)
; Line 168
	addi         r8,r1,va$
	addi         r7,r1,dwParamCount$+4
	stw          r7,0(r8)
; Line 169
	li           r6,0
	stw          r6,i$88495(r1)		; 172 (0ACh)
	b            $LN5@CALL_NATIV@4
$LN4@CALL_NATIV@4:
	lwz          r5,i$88495(r1)		; 172 (0ACh)
	addi         r4,r5,1
	stw          r4,i$88495(r1)		; 172 (0ACh)
$LN5@CALL_NATIV@4:
	lwz          r3,i$88495(r1)		; 172 (0ACh)
	cmpwi        cr6,r3,16		; 10h
	bge          cr6,$LN3@CALL_NATIV@4
; Line 171
	lwz          r11,i$88495(r1)		; 172 (0ACh)
	lwz          r10,dwParamCount$(r1)		; 236 (0ECh)
	cmplw        cr6,r11,r10
	bge          cr6,$LN2@CALL_NATIV@4
; Line 172
	lwz          r9,va$(r1)		; 156 (9Ch)
	addi         r8,r9,8
	addi         r7,r8,-1		; 0FFFFh
	clrrwi       r6,r7,3
	addi         r5,r6,8
	stw          r5,va$(r1)		; 156 (9Ch)
	b            $LN8@CALL_NATIV@4
	lwz          r4,va$(r1)		; 156 (9Ch)
	lwz          r3,-8(r4)
	stw          r3,0B0h(r1)
	b            $LN9@CALL_NATIV@4
$LN8@CALL_NATIV@4:
	lwz          r11,va$(r1)		; 156 (9Ch)
	lwz          r10,-4(r11)
	stw          r10,0B0h(r1)
$LN9@CALL_NATIV@4:
	lwz          r9,i$88495(r1)		; 172 (0ACh)
	slwi         r8,r9,2
	addi         r7,r1,NativeCall_Arguments$
	lwz          r6,0B0h(r1)
	stwx         r6,r7,r8
; Line 173
	b            $LN1@CALL_NATIV@4
$LN2@CALL_NATIV@4:
; Line 174
	lwz          r5,i$88495(r1)		; 172 (0ACh)
	slwi         r4,r5,2
	addi         r3,r1,NativeCall_Arguments$
	li           r11,0
	stwx         r11,r3,r4
$LN1@CALL_NATIV@4:
; Line 175
	b            $LN4@CALL_NATIV@4
$LN3@CALL_NATIV@4:
; Line 176
	li           r10,0
	stw          r10,va$(r1)		; 156 (9Ch)
; Line 178
	addi         r31,r1,NativeCall_Struct$
	lwz          r3,dwNativeNameHash$(r1)		; 228 (0E4h)
	bl           ?_GET_ADDRESS@@YAKK@Z
	mr           r9,r3
	mr           r3,r31
	mtctr        r9
	bctrl
; Line 179
	lwz          r3,NativeCall_Return$(r1)		; 160 (0A0h)
; Line 180
	addi         r1,r1,208		; 0D0h
	lwz          r12,-8(r1)
	mtlr         r12
	ld           r31,-10h(r1)
	blr
$M103996:
; End code for function: ??$_CALL_NATIVE@PAD@@YAPADKKZZ
??$_CALL_NATIVE@PAD@@YAPADKKZZ ENDP
							; _CALL_NATIVE<char *>
;	COMDAT .pdata
.pdata	SEGMENT
$T104005 DD	??$_CALL_NATIVE@K@@YAKKKZZ
	DD	040004b0aH
; Function compile flags: /Odtu

	.code
NativeCall_Arguments$ = 80				; size = 64
NativeCall_Struct$ = 144				; size = 12
va$ = 156						; size = 4
NativeCall_Return$ = 160				; size = 12
i$88469 = 172						; size = 4
tv78 = 176						; size = 4

??$_CALL_NATIVE@K@@YAKKKZZ PROC NEAR			; _CALL_NATIVE<unsigned long>, COMDAT

; Begin code for function: ??$_CALL_NATIVE@K@@YAKKKZZ
; Line 158
	mflr         r12
	stw          r12,-8(r1)
	std          r31,-10h(r1)
	std          r5,20h(r1)
	std          r6,28h(r1)
	std          r7,30h(r1)
	std          r8,38h(r1)
	std          r9,40h(r1)
	std          r10,48h(r1)
	stwu         r1,-0D0h(r1)
.endprolog
$M104003:
	stw          r3,dwNativeNameHash$(r1)		; 228 (0E4h)
	stw          r4,dwParamCount$(r1)		; 236 (0ECh)
; Line 163
	lwz          r11,dwParamCount$(r1)		; 236 (0ECh)
	stw          r11,NativeCall_Struct$+4(r1)		; 148 (94h)
; Line 164
	addi         r10,r1,NativeCall_Arguments$
	stw          r10,NativeCall_Struct$+8(r1)		; 152 (98h)
; Line 165
	addi         r9,r1,NativeCall_Return$
	stw          r9,NativeCall_Struct$(r1)		; 144 (90h)
; Line 168
	addi         r8,r1,va$
	addi         r7,r1,dwParamCount$+4
	stw          r7,0(r8)
; Line 169
	li           r6,0
	stw          r6,i$88469(r1)		; 172 (0ACh)
	b            $LN5@CALL_NATIV@5
$LN4@CALL_NATIV@5:
	lwz          r5,i$88469(r1)		; 172 (0ACh)
	addi         r4,r5,1
	stw          r4,i$88469(r1)		; 172 (0ACh)
$LN5@CALL_NATIV@5:
	lwz          r3,i$88469(r1)		; 172 (0ACh)
	cmpwi        cr6,r3,16		; 10h
	bge          cr6,$LN3@CALL_NATIV@5
; Line 171
	lwz          r11,i$88469(r1)		; 172 (0ACh)
	lwz          r10,dwParamCount$(r1)		; 236 (0ECh)
	cmplw        cr6,r11,r10
	bge          cr6,$LN2@CALL_NATIV@5
; Line 172
	lwz          r9,va$(r1)		; 156 (9Ch)
	addi         r8,r9,8
	addi         r7,r8,-1		; 0FFFFh
	clrrwi       r6,r7,3
	addi         r5,r6,8
	stw          r5,va$(r1)		; 156 (9Ch)
	b            $LN8@CALL_NATIV@5
	lwz          r4,va$(r1)		; 156 (9Ch)
	lwz          r3,-8(r4)
	stw          r3,0B0h(r1)
	b            $LN9@CALL_NATIV@5
$LN8@CALL_NATIV@5:
	lwz          r11,va$(r1)		; 156 (9Ch)
	lwz          r10,-4(r11)
	stw          r10,0B0h(r1)
$LN9@CALL_NATIV@5:
	lwz          r9,i$88469(r1)		; 172 (0ACh)
	slwi         r8,r9,2
	addi         r7,r1,NativeCall_Arguments$
	lwz          r6,0B0h(r1)
	stwx         r6,r7,r8
; Line 173
	b            $LN1@CALL_NATIV@5
$LN2@CALL_NATIV@5:
; Line 174
	lwz          r5,i$88469(r1)		; 172 (0ACh)
	slwi         r4,r5,2
	addi         r3,r1,NativeCall_Arguments$
	li           r11,0
	stwx         r11,r3,r4
$LN1@CALL_NATIV@5:
; Line 175
	b            $LN4@CALL_NATIV@5
$LN3@CALL_NATIV@5:
; Line 176
	li           r10,0
	stw          r10,va$(r1)		; 156 (9Ch)
; Line 178
	addi         r31,r1,NativeCall_Struct$
	lwz          r3,dwNativeNameHash$(r1)		; 228 (0E4h)
	bl           ?_GET_ADDRESS@@YAKK@Z
	mr           r9,r3
	mr           r3,r31
	mtctr        r9
	bctrl
; Line 179
	lwz          r3,NativeCall_Return$(r1)		; 160 (0A0h)
; Line 180
	addi         r1,r1,208		; 0D0h
	lwz          r12,-8(r1)
	mtlr         r12
	ld           r31,-10h(r1)
	blr
$M104004:
; End code for function: ??$_CALL_NATIVE@K@@YAKKKZZ
??$_CALL_NATIVE@K@@YAKKKZZ ENDP
							; _CALL_NATIVE<unsigned long>
;	COMDAT .pdata
; File c:\program files (x86)\microsoft xbox 360 sdk\include\xbox\xmemory
.pdata	SEGMENT
$T104011 DD	?allocate@?$allocator@K@std@@QAAPAKI@Z
	DD	040000c03H
; Function compile flags: /Odtu

	.code

?allocate@?$allocator@K@std@@QAAPAKI@Z PROC NEAR		; std::allocator<unsigned long>::allocate, COMDAT

; Begin code for function: ?allocate@?$allocator@K@std@@QAAPAKI@Z
; Line 186
	mflr         r12
	stw          r12,-8(r1)
	stwu         r1,-60h(r1)
.endprolog
$M104009:
	stw          r3,this$(r1)		; 116 (74h)
	stw          r4,_Count$(r1)		; 124 (7Ch)
; Line 187
	li           r4,0
	lwz          r3,_Count$(r1)		; 124 (7Ch)
	bl           ??$_Allocate@K@std@@YAPAKIPAK@Z
; Line 188
	addi         r1,r1,96		; 60h
	lwz          r12,-8(r1)
	mtlr         r12
	blr
$M104010:
; End code for function: ?allocate@?$allocator@K@std@@QAAPAKI@Z
?allocate@?$allocator@K@std@@QAAPAKI@Z ENDP
							; std::allocator<unsigned long>::allocate
;	COMDAT .pdata
; File c:\program files (x86)\microsoft xbox 360 sdk\include\xbox\vector
.pdata	SEGMENT
$T104017 DD	?reserve@?$vector@KV?$allocator@K@std@@@std@@QAAXI@Z
	DD	040005103H
; Function compile flags: /Odtu

	.code
_Ptr$88322 = 80						; size = 4
_Size$88329 = 84					; size = 4

?reserve@?$vector@KV?$allocator@K@std@@@std@@QAAXI@Z PROC NEAR ; std::vector<unsigned long,std::allocator<unsigned long> >::reserve, COMDAT

; Begin code for function: ?reserve@?$vector@KV?$allocator@K@std@@@std@@QAAXI@Z
; Line 746
	mflr         r12
	stw          r12,-8(r1)
	stwu         r1,-60h(r1)
.endprolog
$M104015:
	stw          r3,this$(r1)		; 116 (74h)
	stw          r4,_Count$(r1)		; 124 (7Ch)
; Line 747
	lwz          r3,this$(r1)		; 116 (74h)
	bl           ?max_size@?$vector@KV?$allocator@K@std@@@std@@QBAIXZ
	lwz          r11,_Count$(r1)		; 124 (7Ch)
	cmplw        cr6,r3,r11
	bge          cr6,$LN5@reserve
; Line 748
	lwz          r3,this$(r1)		; 116 (74h)
	bl           ?_Xlen@?$vector@KV?$allocator@K@std@@@std@@IBAXXZ
	b            $LN7@reserve
$LN5@reserve:
; Line 749
	lwz          r3,this$(r1)		; 116 (74h)
	bl           ?capacity@?$vector@KV?$allocator@K@std@@@std@@QBAIXZ
	lwz          r10,_Count$(r1)		; 124 (7Ch)
	cmplw        cr6,r3,r10
	bge          cr6,$LN7@reserve
; Line 751
	lwz          r4,_Count$(r1)		; 124 (7Ch)
	lwz          r9,this$(r1)		; 116 (74h)
	addi         r3,r9,12		; 0Ch
	bl           ?allocate@?$allocator@K@std@@QAAPAKI@Z
	stw          r3,_Ptr$88322(r1)		; 80 (50h)
; Line 754
	lwz          r6,_Ptr$88322(r1)		; 80 (50h)
	lwz          r8,this$(r1)		; 116 (74h)
	lwz          r5,4(r8)
	lwz          r7,this$(r1)		; 116 (74h)
	lwz          r4,0(r7)
	lwz          r3,this$(r1)		; 116 (74h)
	bl           ??$_Umove@PAK@?$vector@KV?$allocator@K@std@@@std@@IAAPAKPAK00@Z
; Line 755
	b            $LN2@reserve
; Line 756
	lwz          r5,_Count$(r1)		; 124 (7Ch)
	lwz          r4,_Ptr$88322(r1)		; 80 (50h)
	lwz          r6,this$(r1)		; 116 (74h)
	addi         r3,r6,12		; 0Ch
	bl           ?deallocate@?$allocator@K@std@@QAAXPAKI@Z
$LN2@reserve:
; Line 760
	lwz          r3,this$(r1)		; 116 (74h)
	bl           ?size@?$vector@KV?$allocator@K@std@@@std@@QBAIXZ
	stw          r3,_Size$88329(r1)		; 84 (54h)
; Line 761
	lwz          r5,this$(r1)		; 116 (74h)
	lwz          r4,0(r5)
	cmplwi       cr6,r4,0
	beq          cr6,$LN1@reserve
; Line 763
	lwz          r3,this$(r1)		; 116 (74h)
	lwz          r5,4(r3)
	lwz          r11,this$(r1)		; 116 (74h)
	lwz          r4,0(r11)
	lwz          r3,this$(r1)		; 116 (74h)
	bl           ?_Destroy@?$vector@KV?$allocator@K@std@@@std@@IAAXPAK0@Z
; Line 765
	lwz          r10,this$(r1)		; 116 (74h)
	lwz          r9,8(r10)
	lwz          r8,this$(r1)		; 116 (74h)
	lwz          r7,0(r8)
	subf         r6,r7,r9
	srawi        r5,r6,2
	lwz          r4,this$(r1)		; 116 (74h)
	lwz          r4,0(r4)
	lwz          r3,this$(r1)		; 116 (74h)
	addi         r3,r3,12		; 0Ch
	bl           ?deallocate@?$allocator@K@std@@QAAXPAKI@Z
$LN1@reserve:
; Line 768
	lwz          r3,this$(r1)		; 116 (74h)
	bl           ?_Orphan_all@_Container_base0@std@@QAAXXZ
; Line 769
	lwz          r11,_Count$(r1)		; 124 (7Ch)
	slwi         r10,r11,2
	lwz          r9,_Ptr$88322(r1)		; 80 (50h)
	add          r8,r9,r10
	lwz          r7,this$(r1)		; 116 (74h)
	stw          r8,8(r7)
; Line 770
	lwz          r6,_Size$88329(r1)		; 84 (54h)
	slwi         r5,r6,2
	lwz          r4,_Ptr$88322(r1)		; 80 (50h)
	add          r3,r4,r5
	lwz          r11,this$(r1)		; 116 (74h)
	stw          r3,4(r11)
; Line 771
	lwz          r10,_Ptr$88322(r1)		; 80 (50h)
	lwz          r9,this$(r1)		; 116 (74h)
	stw          r10,0(r9)
$LN7@reserve:
; Line 773
	addi         r1,r1,96		; 60h
	lwz          r12,-8(r1)
	mtlr         r12
	blr
$M104016:
; End code for function: ?reserve@?$vector@KV?$allocator@K@std@@@std@@QAAXI@Z
?reserve@?$vector@KV?$allocator@K@std@@@std@@QAAXI@Z ENDP
							; std::vector<unsigned long,std::allocator<unsigned long> >::reserve
;	COMDAT .pdata
.pdata	SEGMENT
$T104023 DD	?_Reserve@?$vector@KV?$allocator@K@std@@@std@@IAAXI@Z
	DD	040002603H
; Function compile flags: /Odtu

	.code
_Size$ = 80						; size = 4

?_Reserve@?$vector@KV?$allocator@K@std@@@std@@IAAXI@Z PROC NEAR ; std::vector<unsigned long,std::allocator<unsigned long> >::_Reserve, COMDAT

; Begin code for function: ?_Reserve@?$vector@KV?$allocator@K@std@@@std@@IAAXI@Z
; Line 1290
	mflr         r12
	stw          r12,-8(r1)
	stwu         r1,-60h(r1)
.endprolog
$M104021:
	stw          r3,this$(r1)		; 116 (74h)
	stw          r4,_Count$(r1)		; 124 (7Ch)
; Line 1291
	lwz          r3,this$(r1)		; 116 (74h)
	bl           ?size@?$vector@KV?$allocator@K@std@@@std@@QBAIXZ
	stw          r3,_Size$(r1)		; 80 (50h)
; Line 1292
	lwz          r3,this$(r1)		; 116 (74h)
	bl           ?max_size@?$vector@KV?$allocator@K@std@@@std@@QBAIXZ
	lwz          r11,_Count$(r1)		; 124 (7Ch)
	subf         r10,r11,r3
	lwz          r9,_Size$(r1)		; 80 (50h)
	cmplw        cr6,r10,r9
	bge          cr6,$LN4@Reserve
; Line 1293
	lwz          r3,this$(r1)		; 116 (74h)
	bl           ?_Xlen@?$vector@KV?$allocator@K@std@@@std@@IBAXXZ
	b            $LN6@Reserve
$LN4@Reserve:
; Line 1294
	lwz          r8,_Size$(r1)		; 80 (50h)
	lwz          r7,_Count$(r1)		; 124 (7Ch)
	add          r6,r8,r7
	stw          r6,_Size$(r1)		; 80 (50h)
	lwz          r3,this$(r1)		; 116 (74h)
	bl           ?capacity@?$vector@KV?$allocator@K@std@@@std@@QBAIXZ
	lwz          r5,_Size$(r1)		; 80 (50h)
	cmplw        cr6,r5,r3
	bgt          cr6,$LN2@Reserve
; Line 1296
	b            $LN6@Reserve
$LN2@Reserve:
; Line 1297
	lwz          r4,_Size$(r1)		; 80 (50h)
	lwz          r3,this$(r1)		; 116 (74h)
	bl           ?_Grow_to@?$vector@KV?$allocator@K@std@@@std@@IBAII@Z
	mr           r4,r3
	lwz          r3,this$(r1)		; 116 (74h)
	bl           ?reserve@?$vector@KV?$allocator@K@std@@@std@@QAAXI@Z
$LN6@Reserve:
; Line 1298
	addi         r1,r1,96		; 60h
	lwz          r12,-8(r1)
	mtlr         r12
	blr
$M104022:
; End code for function: ?_Reserve@?$vector@KV?$allocator@K@std@@@std@@IAAXI@Z
?_Reserve@?$vector@KV?$allocator@K@std@@@std@@IAAXI@Z ENDP
							; std::vector<unsigned long,std::allocator<unsigned long> >::_Reserve
;	COMDAT .pdata
.pdata	SEGMENT
$T104029 DD	?push_back@?$vector@KV?$allocator@K@std@@@std@@QAAXABK@Z
	DD	040005103H
; Function compile flags: /Odtu

	.code
_Idx$88084 = 80						; size = 4

?push_back@?$vector@KV?$allocator@K@std@@@std@@QAAXABK@Z PROC NEAR ; std::vector<unsigned long,std::allocator<unsigned long> >::push_back, COMDAT

; Begin code for function: ?push_back@?$vector@KV?$allocator@K@std@@@std@@QAAXABK@Z
; Line 976
	mflr         r12
	stw          r12,-8(r1)
	stwu         r1,-60h(r1)
.endprolog
$M104027:
	stw          r3,this$(r1)		; 116 (74h)
	stw          r4,_Val$(r1)		; 124 (7Ch)
; Line 977
	lwz          r3,_Val$(r1)		; 124 (7Ch)
	bl           ??$addressof@$$CBK@std@@YAPBKABK@Z
	mr           r4,r3
	lwz          r3,this$(r1)		; 116 (74h)
	bl           ?_Inside@?$vector@KV?$allocator@K@std@@@std@@IBA_NPBK@Z
	clrlwi       r11,r3,24
	cmpwi        cr6,r11,0
	beq          cr6,$LN4@push_back
; Line 979
	lwz          r3,_Val$(r1)		; 124 (7Ch)
	bl           ??$addressof@$$CBK@std@@YAPBKABK@Z
	lwz          r10,this$(r1)		; 116 (74h)
	lwz          r9,0(r10)
	subf         r8,r9,r3
	srawi        r7,r8,2
	stw          r7,_Idx$88084(r1)		; 80 (50h)
; Line 980
	lwz          r6,this$(r1)		; 116 (74h)
	lwz          r5,this$(r1)		; 116 (74h)
	lwz          r4,4(r6)
	lwz          r3,8(r5)
	cmplw        cr6,r4,r3
	bne          cr6,$LN3@push_back
; Line 981
	li           r4,1
	lwz          r3,this$(r1)		; 116 (74h)
	bl           ?_Reserve@?$vector@KV?$allocator@K@std@@@std@@IAAXI@Z
$LN3@push_back:
; Line 982
	lwz          r11,this$(r1)		; 116 (74h)
	lwz          r5,4(r11)
	lwz          r10,this$(r1)		; 116 (74h)
	lwz          r4,4(r10)
	lwz          r3,this$(r1)		; 116 (74h)
	bl           ?_Orphan_range@?$vector@KV?$allocator@K@std@@@std@@IBAXPAK0@Z
; Line 985
	lwz          r9,_Idx$88084(r1)		; 80 (50h)
	slwi         r8,r9,2
	lwz          r7,this$(r1)		; 116 (74h)
	lwz          r6,0(r7)
	add          r5,r6,r8
	lwz          r4,this$(r1)		; 116 (74h)
	lwz          r4,4(r4)
	lwz          r3,this$(r1)		; 116 (74h)
	addi         r3,r3,12		; 0Ch
	bl           ??$_Cons_val@V?$allocator@K@std@@KAAK@std@@YAXAAV?$allocator@K@0@PAKAAK@Z
; Line 986
	lwz          r11,this$(r1)		; 116 (74h)
	lwz          r10,4(r11)
	addi         r9,r10,4
	lwz          r8,this$(r1)		; 116 (74h)
	stw          r9,4(r8)
; Line 988
	b            $LN5@push_back
$LN4@push_back:
; Line 990
	lwz          r7,this$(r1)		; 116 (74h)
	lwz          r6,this$(r1)		; 116 (74h)
	lwz          r5,4(r7)
	lwz          r4,8(r6)
	cmplw        cr6,r5,r4
	bne          cr6,$LN1@push_back
; Line 991
	li           r4,1
	lwz          r3,this$(r1)		; 116 (74h)
	bl           ?_Reserve@?$vector@KV?$allocator@K@std@@@std@@IAAXI@Z
$LN1@push_back:
; Line 992
	lwz          r3,this$(r1)		; 116 (74h)
	lwz          r5,4(r3)
	lwz          r11,this$(r1)		; 116 (74h)
	lwz          r4,4(r11)
	lwz          r3,this$(r1)		; 116 (74h)
	bl           ?_Orphan_range@?$vector@KV?$allocator@K@std@@@std@@IBAXPAK0@Z
; Line 995
	lwz          r5,_Val$(r1)		; 124 (7Ch)
	lwz          r10,this$(r1)		; 116 (74h)
	lwz          r4,4(r10)
	lwz          r9,this$(r1)		; 116 (74h)
	addi         r3,r9,12		; 0Ch
	bl           ??$_Cons_val@V?$allocator@K@std@@KABK@std@@YAXAAV?$allocator@K@0@PAKABK@Z
; Line 996
	lwz          r8,this$(r1)		; 116 (74h)
	lwz          r7,4(r8)
	addi         r6,r7,4
	lwz          r5,this$(r1)		; 116 (74h)
	stw          r6,4(r5)
$LN5@push_back:
; Line 998
	addi         r1,r1,96		; 60h
	lwz          r12,-8(r1)
	mtlr         r12
	blr
$M104028:
; End code for function: ?push_back@?$vector@KV?$allocator@K@std@@@std@@QAAXABK@Z
?push_back@?$vector@KV?$allocator@K@std@@@std@@QAAXABK@Z ENDP
							; std::vector<unsigned long,std::allocator<unsigned long> >::push_back
PUBLIC	?NETWORK_REQUEST_CONTROL_OF_ENTITY@@YA_NK@Z	; NETWORK_REQUEST_CONTROL_OF_ENTITY
;	COMDAT .pdata
; File c:\users\s7clutch\documents\visual studio 2010\projects\the saiyan project\src\natives.cpp
.pdata	SEGMENT
$T104035 DD	?NETWORK_REQUEST_CONTROL_OF_ENTITY@@YA_NK@Z
	DD	040001003H
; Function compile flags: /Odtu

	.code

?NETWORK_REQUEST_CONTROL_OF_ENTITY@@YA_NK@Z PROC NEAR	; NETWORK_REQUEST_CONTROL_OF_ENTITY, COMDAT

; Begin code for function: ?NETWORK_REQUEST_CONTROL_OF_ENTITY@@YA_NK@Z
; Line 1446
	mflr         r12
	stw          r12,-8(r1)
	stwu         r1,-60h(r1)
.endprolog
$M104033:
	stw          r3,entity$(r1)		; 116 (74h)
; Line 1447
	lwz          r5,entity$(r1)		; 116 (74h)
	li           r4,1
	lis          r11,-24481		; 0A05Fh
	ori          r3,r11,60375		; 0EBD7h
	bl           ??$_CALL_NATIVE@H@@YAHKKZZ
	cntlzw       r10,r3
	rlwinm       r9,r10,27,31,31
	xori         r3,r9,1
; Line 1448
	addi         r1,r1,96		; 60h
	lwz          r12,-8(r1)
	mtlr         r12
	blr
$M104034:
; End code for function: ?NETWORK_REQUEST_CONTROL_OF_ENTITY@@YA_NK@Z
?NETWORK_REQUEST_CONTROL_OF_ENTITY@@YA_NK@Z ENDP
							; NETWORK_REQUEST_CONTROL_OF_ENTITY
PUBLIC	?MODIFY_WATER@@YAXMMMM@Z			; MODIFY_WATER
;	COMDAT .pdata
.pdata	SEGMENT
$T104041 DD	?MODIFY_WATER@@YAXMMMM@Z
	DD	040001303H
; Function compile flags: /Odtu

	.code

?MODIFY_WATER@@YAXMMMM@Z PROC NEAR			; MODIFY_WATER, COMDAT

; Begin code for function: ?MODIFY_WATER@@YAXMMMM@Z
; Line 1425
	mflr         r12
	stw          r12,-8(r1)
	stwu         r1,-60h(r1)
.endprolog
$M104039:
	stfs         fr1,x$(r1)		; 116 (74h)
	stfs         fr2,y$(r1)		; 124 (7Ch)
	stfs         fr3,z$(r1)		; 132 (84h)
	stfs         fr4,height$(r1)		; 140 (8Ch)
; Line 1426
	lwz          r8,height$(r1)		; 140 (8Ch)
	lwz          r7,z$(r1)		; 132 (84h)
	lwz          r6,y$(r1)		; 124 (7Ch)
	lwz          r5,x$(r1)		; 116 (74h)
	li           r4,4
	lis          r11,-15202		; 0C49Eh
	ori          r3,r11,90		; 5Ah
	bl           ??$_CALL_NATIVE@K@@YAKKKZZ
; Line 1427
	addi         r1,r1,96		; 60h
	lwz          r12,-8(r1)
	mtlr         r12
	blr
$M104040:
; End code for function: ?MODIFY_WATER@@YAXMMMM@Z
?MODIFY_WATER@@YAXMMMM@Z ENDP
							; MODIFY_WATER
PUBLIC	?DISABLE_CONTROL_ACTION@@YAXKK_N@Z		; DISABLE_CONTROL_ACTION
;	COMDAT .pdata
.pdata	SEGMENT
$T104047 DD	?DISABLE_CONTROL_ACTION@@YAXKK_N@Z
	DD	040001103H
; Function compile flags: /Odtu

	.code

?DISABLE_CONTROL_ACTION@@YAXKK_N@Z PROC NEAR		; DISABLE_CONTROL_ACTION, COMDAT

; Begin code for function: ?DISABLE_CONTROL_ACTION@@YAXKK_N@Z
; Line 1361
	mflr         r12
	stw          r12,-8(r1)
	stwu         r1,-60h(r1)
.endprolog
$M104045:
	stw          r3,index$(r1)		; 116 (74h)
	stw          r4,control$(r1)		; 124 (7Ch)
	stb          r5,disable$(r1)		; 135 (87h)
; Line 1362
	lbz          r7,disable$(r1)		; 135 (87h)
	lwz          r6,control$(r1)		; 124 (7Ch)
	lwz          r5,index$(r1)		; 116 (74h)
	li           r4,3
	lis          r11,14336		; 3800h
	ori          r3,r11,49372		; 0C0DCh
	bl           ??$_CALL_NATIVE@K@@YAKKKZZ
; Line 1363
	addi         r1,r1,96		; 60h
	lwz          r12,-8(r1)
	mtlr         r12
	blr
$M104046:
; End code for function: ?DISABLE_CONTROL_ACTION@@YAXKK_N@Z
?DISABLE_CONTROL_ACTION@@YAXKK_N@Z ENDP
							; DISABLE_CONTROL_ACTION
PUBLIC	?SET_INPUT_EXCLUSIVE@@YAXKK@Z			; SET_INPUT_EXCLUSIVE
;	COMDAT .pdata
.pdata	SEGMENT
$T104053 DD	?SET_INPUT_EXCLUSIVE@@YAXKK@Z
	DD	040000f03H
; Function compile flags: /Odtu

	.code

?SET_INPUT_EXCLUSIVE@@YAXKK@Z PROC NEAR			; SET_INPUT_EXCLUSIVE, COMDAT

; Begin code for function: ?SET_INPUT_EXCLUSIVE@@YAXKK@Z
; Line 1357
	mflr         r12
	stw          r12,-8(r1)
	stwu         r1,-60h(r1)
.endprolog
$M104051:
	stw          r3,index$(r1)		; 116 (74h)
	stw          r4,control$(r1)		; 124 (7Ch)
; Line 1358
	lwz          r6,control$(r1)		; 124 (7Ch)
	lwz          r5,index$(r1)		; 116 (74h)
	li           r4,2
	lis          r11,20110		; 4E8Eh
	ori          r3,r11,10726		; 29E6h
	bl           ??$_CALL_NATIVE@K@@YAKKKZZ
; Line 1359
	addi         r1,r1,96		; 60h
	lwz          r12,-8(r1)
	mtlr         r12
	blr
$M104052:
; End code for function: ?SET_INPUT_EXCLUSIVE@@YAXKK@Z
?SET_INPUT_EXCLUSIVE@@YAXKK@Z ENDP
							; SET_INPUT_EXCLUSIVE
PUBLIC	?STAT_GET_BOOL@@YA_NKK@Z			; STAT_GET_BOOL
;	COMDAT .pdata
.pdata	SEGMENT
$T104059 DD	?STAT_GET_BOOL@@YA_NKK@Z
	DD	040001503H
; Function compile flags: /Odtu

	.code
ret$ = 80						; size = 4

?STAT_GET_BOOL@@YA_NKK@Z PROC NEAR			; STAT_GET_BOOL, COMDAT

; Begin code for function: ?STAT_GET_BOOL@@YA_NKK@Z
; Line 1329
	mflr         r12
	stw          r12,-8(r1)
	stwu         r1,-60h(r1)
.endprolog
$M104057:
	stw          r3,stat$(r1)		; 116 (74h)
	stw          r4,unk1$(r1)		; 124 (7Ch)
; Line 1331
	lwz          r7,unk1$(r1)		; 124 (7Ch)
	addi         r6,r1,ret$
	lwz          r5,stat$(r1)		; 116 (74h)
	li           r4,3
	lis          r11,10403		; 28A3h
	ori          r3,r11,56619		; 0DD2Bh
	bl           ??$_CALL_NATIVE@K@@YAKKKZZ
; Line 1332
	lwz          r10,ret$(r1)		; 80 (50h)
	cntlzw       r9,r10
	rlwinm       r8,r9,27,31,31
	xori         r7,r8,1
	clrlwi       r3,r7,24
; Line 1333
	addi         r1,r1,96		; 60h
	lwz          r12,-8(r1)
	mtlr         r12
	blr
$M104058:
; End code for function: ?STAT_GET_BOOL@@YA_NKK@Z
?STAT_GET_BOOL@@YA_NKK@Z ENDP
							; STAT_GET_BOOL
PUBLIC	?STAT_GET_INT@@YAKKK@Z				; STAT_GET_INT
;	COMDAT .pdata
.pdata	SEGMENT
$T104065 DD	?STAT_GET_INT@@YAKKK@Z
	DD	040001103H
; Function compile flags: /Odtu

	.code
ret$ = 80						; size = 4

?STAT_GET_INT@@YAKKK@Z PROC NEAR				; STAT_GET_INT, COMDAT

; Begin code for function: ?STAT_GET_INT@@YAKKK@Z
; Line 1323
	mflr         r12
	stw          r12,-8(r1)
	stwu         r1,-60h(r1)
.endprolog
$M104063:
	stw          r3,stat$(r1)		; 116 (74h)
	stw          r4,unk1$(r1)		; 124 (7Ch)
; Line 1325
	lwz          r7,unk1$(r1)		; 124 (7Ch)
	addi         r6,r1,ret$
	lwz          r5,stat$(r1)		; 116 (74h)
	li           r4,3
	lis          r11,7279		; 1C6Fh
	ori          r3,r11,58430		; 0E43Eh
	bl           ??$_CALL_NATIVE@K@@YAKKKZZ
; Line 1326
	lwz          r3,ret$(r1)		; 80 (50h)
; Line 1327
	addi         r1,r1,96		; 60h
	lwz          r12,-8(r1)
	mtlr         r12
	blr
$M104064:
; End code for function: ?STAT_GET_INT@@YAKKK@Z
?STAT_GET_INT@@YAKKK@Z ENDP
							; STAT_GET_INT
PUBLIC	?STAT_SET_BOOL@@YAXK_N0@Z			; STAT_SET_BOOL
;	COMDAT .pdata
.pdata	SEGMENT
$T104071 DD	?STAT_SET_BOOL@@YAXK_N0@Z
	DD	040001103H
; Function compile flags: /Odtu

	.code

?STAT_SET_BOOL@@YAXK_N0@Z PROC NEAR			; STAT_SET_BOOL, COMDAT

; Begin code for function: ?STAT_SET_BOOL@@YAXK_N0@Z
; Line 1319
	mflr         r12
	stw          r12,-8(r1)
	stwu         r1,-60h(r1)
.endprolog
$M104069:
	stw          r3,stat$(r1)		; 116 (74h)
	stb          r4,value$(r1)		; 127 (7Fh)
	stb          r5,save$(r1)		; 135 (87h)
; Line 1320
	lbz          r7,save$(r1)		; 135 (87h)
	lbz          r6,value$(r1)		; 127 (7Fh)
	lwz          r5,stat$(r1)		; 116 (74h)
	li           r4,3
	lis          r11,21975		; 55D7h
	ori          r3,r11,40443		; 9DFBh
	bl           ??$_CALL_NATIVE@K@@YAKKKZZ
; Line 1321
	addi         r1,r1,96		; 60h
	lwz          r12,-8(r1)
	mtlr         r12
	blr
$M104070:
; End code for function: ?STAT_SET_BOOL@@YAXK_N0@Z
?STAT_SET_BOOL@@YAXK_N0@Z ENDP
							; STAT_SET_BOOL
PUBLIC	?STAT_SET_INT@@YAXKK_N@Z			; STAT_SET_INT
;	COMDAT .pdata
.pdata	SEGMENT
$T104077 DD	?STAT_SET_INT@@YAXKK_N@Z
	DD	040001103H
; Function compile flags: /Odtu

	.code

?STAT_SET_INT@@YAXKK_N@Z PROC NEAR			; STAT_SET_INT, COMDAT

; Begin code for function: ?STAT_SET_INT@@YAXKK_N@Z
; Line 1315
	mflr         r12
	stw          r12,-8(r1)
	stwu         r1,-60h(r1)
.endprolog
$M104075:
	stw          r3,stat$(r1)		; 116 (74h)
	stw          r4,value$(r1)		; 124 (7Ch)
	stb          r5,save$(r1)		; 135 (87h)
; Line 1316
	lbz          r7,save$(r1)		; 135 (87h)
	lwz          r6,value$(r1)		; 124 (7Ch)
	lwz          r5,stat$(r1)		; 116 (74h)
	li           r4,3
	lis          r11,-13876		; 0C9CCh
	ori          r3,r11,7260		; 1C5Ch
	bl           ??$_CALL_NATIVE@K@@YAKKKZZ
; Line 1317
	addi         r1,r1,96		; 60h
	lwz          r12,-8(r1)
	mtlr         r12
	blr
$M104076:
; End code for function: ?STAT_SET_INT@@YAXKK_N@Z
?STAT_SET_INT@@YAXKK_N@Z ENDP
							; STAT_SET_INT
PUBLIC	?SET_BLACKOUT@@YAX_N@Z				; SET_BLACKOUT
;	COMDAT .pdata
.pdata	SEGMENT
$T104083 DD	?SET_BLACKOUT@@YAX_N@Z
	DD	040000d03H
; Function compile flags: /Odtu

	.code

?SET_BLACKOUT@@YAX_N@Z PROC NEAR				; SET_BLACKOUT, COMDAT

; Begin code for function: ?SET_BLACKOUT@@YAX_N@Z
; Line 1310
	mflr         r12
	stw          r12,-8(r1)
	stwu         r1,-60h(r1)
.endprolog
$M104081:
	stb          r3,blackout$(r1)		; 119 (77h)
; Line 1311
	lbz          r5,blackout$(r1)		; 119 (77h)
	li           r4,1
	lis          r11,-21974		; 0AA2Ah
	ori          r3,r11,3759		; 0EAFh
	bl           ??$_CALL_NATIVE@K@@YAKKKZZ
; Line 1312
	addi         r1,r1,96		; 60h
	lwz          r12,-8(r1)
	mtlr         r12
	blr
$M104082:
; End code for function: ?SET_BLACKOUT@@YAX_N@Z
?SET_BLACKOUT@@YAX_N@Z ENDP
							; SET_BLACKOUT
PUBLIC	?DRAW_LINE@@YAXMMMMMMEEEE@Z			; DRAW_LINE
;	COMDAT .pdata
.pdata	SEGMENT
$T104089 DD	?DRAW_LINE@@YAXMMMMMMEEEE@Z
	DD	040002103H
; Function compile flags: /Odtu

	.code

?DRAW_LINE@@YAXMMMMMMEEEE@Z PROC NEAR			; DRAW_LINE, COMDAT

; Begin code for function: ?DRAW_LINE@@YAXMMMMMMEEEE@Z
; Line 1302
	mflr         r12
	stw          r12,-8(r1)
	stwu         r1,-80h(r1)
.endprolog
$M104087:
	stfs         fr1,x1$(r1)		; 148 (94h)
	stfs         fr2,y1$(r1)		; 156 (9Ch)
	stfs         fr3,z1$(r1)		; 164 (0A4h)
	stfs         fr4,x2$(r1)		; 172 (0ACh)
	stfs         fr5,y2$(r1)		; 180 (0B4h)
	stfs         fr6,z2$(r1)		; 188 (0BCh)
	stb          r9,R$(r1)		; 199 (0C7h)
	stb          r10,G$(r1)		; 207 (0CFh)
; Line 1303
	lbz          r11,A$(r1)		; 223 (0DFh)
	stw          r11,6Ch(r1)
	lbz          r10,B$(r1)		; 215 (0D7h)
	stw          r10,64h(r1)
	lbz          r9,G$(r1)		; 207 (0CFh)
	stw          r9,5Ch(r1)
	lbz          r8,R$(r1)		; 199 (0C7h)
	stw          r8,54h(r1)
	lwz          r10,z2$(r1)		; 188 (0BCh)
	lwz          r9,y2$(r1)		; 180 (0B4h)
	lwz          r8,x2$(r1)		; 172 (0ACh)
	lwz          r7,z1$(r1)		; 164 (0A4h)
	lwz          r6,y1$(r1)		; 156 (9Ch)
	lwz          r5,x1$(r1)		; 148 (94h)
	li           r4,10		; 0Ah
	lis          r3,-19646		; 0B342h
	ori          r3,r3,27596		; 6BCCh
	bl           ??$_CALL_NATIVE@K@@YAKKKZZ
; Line 1304
	addi         r1,r1,128		; 80h
	lwz          r12,-8(r1)
	mtlr         r12
	blr
$M104088:
; End code for function: ?DRAW_LINE@@YAXMMMMMMEEEE@Z
?DRAW_LINE@@YAXMMMMMMEEEE@Z ENDP
							; DRAW_LINE
PUBLIC	?HIDE_HUD_COMPONENT_THIS_FRAME@@YAXK@Z		; HIDE_HUD_COMPONENT_THIS_FRAME
;	COMDAT .pdata
.pdata	SEGMENT
$T104095 DD	?HIDE_HUD_COMPONENT_THIS_FRAME@@YAXK@Z
	DD	040000d03H
; Function compile flags: /Odtu

	.code

?HIDE_HUD_COMPONENT_THIS_FRAME@@YAXK@Z PROC NEAR		; HIDE_HUD_COMPONENT_THIS_FRAME, COMDAT

; Begin code for function: ?HIDE_HUD_COMPONENT_THIS_FRAME@@YAXK@Z
; Line 1297
	mflr         r12
	stw          r12,-8(r1)
	stwu         r1,-60h(r1)
.endprolog
$M104093:
	stw          r3,component$(r1)		; 116 (74h)
; Line 1298
	lwz          r5,component$(r1)		; 116 (74h)
	li           r4,1
	lis          r11,-9427		; 0DB2Dh
	ori          r3,r11,1890		; 762h
	bl           ??$_CALL_NATIVE@K@@YAKKKZZ
; Line 1299
	addi         r1,r1,96		; 60h
	lwz          r12,-8(r1)
	mtlr         r12
	blr
$M104094:
; End code for function: ?HIDE_HUD_COMPONENT_THIS_FRAME@@YAXK@Z
?HIDE_HUD_COMPONENT_THIS_FRAME@@YAXK@Z ENDP
							; HIDE_HUD_COMPONENT_THIS_FRAME
PUBLIC	?SET_TEXT_EDGE@@YAXKKKKK@Z			; SET_TEXT_EDGE
;	COMDAT .pdata
.pdata	SEGMENT
$T104101 DD	?SET_TEXT_EDGE@@YAXKKKKK@Z
	DD	040001503H
; Function compile flags: /Odtu

	.code

?SET_TEXT_EDGE@@YAXKKKKK@Z PROC NEAR			; SET_TEXT_EDGE, COMDAT

; Begin code for function: ?SET_TEXT_EDGE@@YAXKKKKK@Z
; Line 1277
	mflr         r12
	stw          r12,-8(r1)
	stwu         r1,-60h(r1)
.endprolog
$M104099:
	stw          r3,unk1$(r1)		; 116 (74h)
	stw          r4,unk2$(r1)		; 124 (7Ch)
	stw          r5,unk3$(r1)		; 132 (84h)
	stw          r6,unk4$(r1)		; 140 (8Ch)
	stw          r7,unk5$(r1)		; 148 (94h)
; Line 1278
	lwz          r9,unk5$(r1)		; 148 (94h)
	lwz          r8,unk4$(r1)		; 140 (8Ch)
	lwz          r7,unk3$(r1)		; 132 (84h)
	lwz          r6,unk2$(r1)		; 124 (7Ch)
	lwz          r5,unk1$(r1)		; 116 (74h)
	li           r4,5
	lis          r11,16154		; 3F1Ah
	ori          r3,r11,23979		; 5DABh
	bl           ??$_CALL_NATIVE@K@@YAKKKZZ
; Line 1279
	addi         r1,r1,96		; 60h
	lwz          r12,-8(r1)
	mtlr         r12
	blr
$M104100:
; End code for function: ?SET_TEXT_EDGE@@YAXKKKKK@Z
?SET_TEXT_EDGE@@YAXKKKKK@Z ENDP
							; SET_TEXT_EDGE
PUBLIC	?SET_TEXT_OUTLINE@@YAXXZ			; SET_TEXT_OUTLINE
;	COMDAT .pdata
.pdata	SEGMENT
$T104107 DD	?SET_TEXT_OUTLINE@@YAXXZ
	DD	040000b03H
; Function compile flags: /Odtu

	.code

?SET_TEXT_OUTLINE@@YAXXZ PROC NEAR			; SET_TEXT_OUTLINE, COMDAT

; Begin code for function: ?SET_TEXT_OUTLINE@@YAXXZ
; Line 1273
	mflr         r12
	stw          r12,-8(r1)
	stwu         r1,-60h(r1)
.endprolog
$M104105:
; Line 1274
	li           r4,0
	lis          r11,-14509		; 0C753h
	ori          r3,r11,16687		; 412Fh
	bl           ??$_CALL_NATIVE@K@@YAKKKZZ
; Line 1275
	addi         r1,r1,96		; 60h
	lwz          r12,-8(r1)
	mtlr         r12
	blr
$M104106:
; End code for function: ?SET_TEXT_OUTLINE@@YAXXZ
?SET_TEXT_OUTLINE@@YAXXZ ENDP
							; SET_TEXT_OUTLINE
PUBLIC	?SET_TEXT_DROPSHADOW@@YAXKKKKK@Z		; SET_TEXT_DROPSHADOW
;	COMDAT .pdata
.pdata	SEGMENT
$T104113 DD	?SET_TEXT_DROPSHADOW@@YAXKKKKK@Z
	DD	040001503H
; Function compile flags: /Odtu

	.code

?SET_TEXT_DROPSHADOW@@YAXKKKKK@Z PROC NEAR		; SET_TEXT_DROPSHADOW, COMDAT

; Begin code for function: ?SET_TEXT_DROPSHADOW@@YAXKKKKK@Z
; Line 1269
	mflr         r12
	stw          r12,-8(r1)
	stwu         r1,-60h(r1)
.endprolog
$M104111:
	stw          r3,unk1$(r1)		; 116 (74h)
	stw          r4,unk2$(r1)		; 124 (7Ch)
	stw          r5,unk3$(r1)		; 132 (84h)
	stw          r6,unk4$(r1)		; 140 (8Ch)
	stw          r7,unk5$(r1)		; 148 (94h)
; Line 1270
	lwz          r9,unk5$(r1)		; 148 (94h)
	lwz          r8,unk4$(r1)		; 140 (8Ch)
	lwz          r7,unk3$(r1)		; 132 (84h)
	lwz          r6,unk2$(r1)		; 124 (7Ch)
	lwz          r5,unk1$(r1)		; 116 (74h)
	li           r4,5
	lis          r11,-6568		; 0E658h
	ori          r3,r11,29975		; 7517h
	bl           ??$_CALL_NATIVE@K@@YAKKKZZ
; Line 1271
	addi         r1,r1,96		; 60h
	lwz          r12,-8(r1)
	mtlr         r12
	blr
$M104112:
; End code for function: ?SET_TEXT_DROPSHADOW@@YAXKKKKK@Z
?SET_TEXT_DROPSHADOW@@YAXKKKKK@Z ENDP
							; SET_TEXT_DROPSHADOW
PUBLIC	?SET_TEXT_FONT@@YAXK@Z				; SET_TEXT_FONT
;	COMDAT .pdata
.pdata	SEGMENT
$T104119 DD	?SET_TEXT_FONT@@YAXK@Z
	DD	040000d03H
; Function compile flags: /Odtu

	.code

?SET_TEXT_FONT@@YAXK@Z PROC NEAR				; SET_TEXT_FONT, COMDAT

; Begin code for function: ?SET_TEXT_FONT@@YAXK@Z
; Line 1265
	mflr         r12
	stw          r12,-8(r1)
	stwu         r1,-60h(r1)
.endprolog
$M104117:
	stw          r3,font$(r1)		; 116 (74h)
; Line 1266
	lwz          r5,font$(r1)		; 116 (74h)
	li           r4,1
	lis          r11,-32580		; 80BCh
	ori          r3,r11,21261		; 530Dh
	bl           ??$_CALL_NATIVE@K@@YAKKKZZ
; Line 1267
	addi         r1,r1,96		; 60h
	lwz          r12,-8(r1)
	mtlr         r12
	blr
$M104118:
; End code for function: ?SET_TEXT_FONT@@YAXK@Z
?SET_TEXT_FONT@@YAXK@Z ENDP
							; SET_TEXT_FONT
PUBLIC	?SET_TEXT_WRAP@@YAXMM@Z				; SET_TEXT_WRAP
;	COMDAT .pdata
.pdata	SEGMENT
$T104125 DD	?SET_TEXT_WRAP@@YAXMM@Z
	DD	040000f03H
; Function compile flags: /Odtu

	.code

?SET_TEXT_WRAP@@YAXMM@Z	PROC NEAR			; SET_TEXT_WRAP, COMDAT

; Begin code for function: ?SET_TEXT_WRAP@@YAXMM@Z
; Line 1261
	mflr         r12
	stw          r12,-8(r1)
	stwu         r1,-60h(r1)
.endprolog
$M104123:
	stfs         fr1,x$(r1)		; 116 (74h)
	stfs         fr2,y$(r1)		; 124 (7Ch)
; Line 1262
	lwz          r6,y$(r1)		; 124 (7Ch)
	lwz          r5,x$(r1)		; 116 (74h)
	li           r4,2
	lis          r11,28512		; 6F60h
	ori          r3,r11,43860		; 0AB54h
	bl           ??$_CALL_NATIVE@K@@YAKKKZZ
; Line 1263
	addi         r1,r1,96		; 60h
	lwz          r12,-8(r1)
	mtlr         r12
	blr
$M104124:
; End code for function: ?SET_TEXT_WRAP@@YAXMM@Z
?SET_TEXT_WRAP@@YAXMM@Z ENDP
							; SET_TEXT_WRAP
PUBLIC	?SET_TEXT_CENTRE@@YAX_N@Z			; SET_TEXT_CENTRE
;	COMDAT .pdata
.pdata	SEGMENT
$T104131 DD	?SET_TEXT_CENTRE@@YAX_N@Z
	DD	040000d03H
; Function compile flags: /Odtu

	.code

?SET_TEXT_CENTRE@@YAX_N@Z PROC NEAR			; SET_TEXT_CENTRE, COMDAT

; Begin code for function: ?SET_TEXT_CENTRE@@YAX_N@Z
; Line 1257
	mflr         r12
	stw          r12,-8(r1)
	stwu         r1,-60h(r1)
.endprolog
$M104129:
	stb          r3,center$(r1)		; 119 (77h)
; Line 1258
	lbz          r5,center$(r1)		; 119 (77h)
	li           r4,1
	lis          r11,-7571		; 0E26Dh
	ori          r3,r11,14753		; 39A1h
	bl           ??$_CALL_NATIVE@K@@YAKKKZZ
; Line 1259
	addi         r1,r1,96		; 60h
	lwz          r12,-8(r1)
	mtlr         r12
	blr
$M104130:
; End code for function: ?SET_TEXT_CENTRE@@YAX_N@Z
?SET_TEXT_CENTRE@@YAX_N@Z ENDP
							; SET_TEXT_CENTRE
PUBLIC	?SET_TEXT_COLOUR@@YAXEEEE@Z			; SET_TEXT_COLOUR
;	COMDAT .pdata
.pdata	SEGMENT
$T104137 DD	?SET_TEXT_COLOUR@@YAXEEEE@Z
	DD	040001303H
; Function compile flags: /Odtu

	.code

?SET_TEXT_COLOUR@@YAXEEEE@Z PROC NEAR			; SET_TEXT_COLOUR, COMDAT

; Begin code for function: ?SET_TEXT_COLOUR@@YAXEEEE@Z
; Line 1253
	mflr         r12
	stw          r12,-8(r1)
	stwu         r1,-60h(r1)
.endprolog
$M104135:
	stb          r3,R$(r1)		; 119 (77h)
	stb          r4,G$(r1)		; 127 (7Fh)
	stb          r5,B$(r1)		; 135 (87h)
	stb          r6,A$(r1)		; 143 (8Fh)
; Line 1254
	lbz          r8,A$(r1)		; 143 (8Fh)
	lbz          r7,B$(r1)		; 135 (87h)
	lbz          r6,G$(r1)		; 127 (7Fh)
	lbz          r5,R$(r1)		; 119 (77h)
	li           r4,4
	lis          r11,-6835		; 0E54Dh
	ori          r3,r11,53960		; 0D2C8h
	bl           ??$_CALL_NATIVE@K@@YAKKKZZ
; Line 1255
	addi         r1,r1,96		; 60h
	lwz          r12,-8(r1)
	mtlr         r12
	blr
$M104136:
; End code for function: ?SET_TEXT_COLOUR@@YAXEEEE@Z
?SET_TEXT_COLOUR@@YAXEEEE@Z ENDP
							; SET_TEXT_COLOUR
PUBLIC	?SET_TEXT_SCALE@@YAXMM@Z			; SET_TEXT_SCALE
;	COMDAT .pdata
.pdata	SEGMENT
$T104143 DD	?SET_TEXT_SCALE@@YAXMM@Z
	DD	040000f03H
; Function compile flags: /Odtu

	.code

?SET_TEXT_SCALE@@YAXMM@Z PROC NEAR			; SET_TEXT_SCALE, COMDAT

; Begin code for function: ?SET_TEXT_SCALE@@YAXMM@Z
; Line 1249
	mflr         r12
	stw          r12,-8(r1)
	stwu         r1,-60h(r1)
.endprolog
$M104141:
	stfs         fr1,x$(r1)		; 116 (74h)
	stfs         fr2,y$(r1)		; 124 (7Ch)
; Line 1250
	lwz          r6,y$(r1)		; 124 (7Ch)
	lwz          r5,x$(r1)		; 116 (74h)
	li           r4,2
	lis          r11,-18719		; 0B6E1h
	ori          r3,r11,23331		; 5B23h
	bl           ??$_CALL_NATIVE@K@@YAKKKZZ
; Line 1251
	addi         r1,r1,96		; 60h
	lwz          r12,-8(r1)
	mtlr         r12
	blr
$M104142:
; End code for function: ?SET_TEXT_SCALE@@YAXMM@Z
?SET_TEXT_SCALE@@YAXMM@Z ENDP
							; SET_TEXT_SCALE
PUBLIC	?CLEAR_PRINTS@@YAXXZ				; CLEAR_PRINTS
;	COMDAT .pdata
.pdata	SEGMENT
$T104149 DD	?CLEAR_PRINTS@@YAXXZ
	DD	040000b03H
; Function compile flags: /Odtu

	.code

?CLEAR_PRINTS@@YAXXZ PROC NEAR				; CLEAR_PRINTS, COMDAT

; Begin code for function: ?CLEAR_PRINTS@@YAXXZ
; Line 1245
	mflr         r12
	stw          r12,-8(r1)
	stwu         r1,-60h(r1)
.endprolog
$M104147:
; Line 1246
	li           r4,0
	lis          r11,8556		; 216Ch
	ori          r3,r11,45509		; 0B1C5h
	bl           ??$_CALL_NATIVE@K@@YAKKKZZ
; Line 1247
	addi         r1,r1,96		; 60h
	lwz          r12,-8(r1)
	mtlr         r12
	blr
$M104148:
; End code for function: ?CLEAR_PRINTS@@YAXXZ
?CLEAR_PRINTS@@YAXXZ ENDP
							; CLEAR_PRINTS
PUBLIC	?_0x27A244D8@@YAXPAD@Z				; _0x27A244D8
;	COMDAT .pdata
.pdata	SEGMENT
$T104155 DD	?_0x27A244D8@@YAXPAD@Z
	DD	040000d03H
; Function compile flags: /Odtu

	.code

?_0x27A244D8@@YAXPAD@Z PROC NEAR				; _0x27A244D8, COMDAT

; Begin code for function: ?_0x27A244D8@@YAXPAD@Z
; Line 1241
	mflr         r12
	stw          r12,-8(r1)
	stwu         r1,-60h(r1)
.endprolog
$M104153:
	stw          r3,text$(r1)		; 116 (74h)
; Line 1242
	lwz          r5,text$(r1)		; 116 (74h)
	li           r4,1
	lis          r11,10146		; 27A2h
	ori          r3,r11,17624		; 44D8h
	bl           ??$_CALL_NATIVE@K@@YAKKKZZ
; Line 1243
	addi         r1,r1,96		; 60h
	lwz          r12,-8(r1)
	mtlr         r12
	blr
$M104154:
; End code for function: ?_0x27A244D8@@YAXPAD@Z
?_0x27A244D8@@YAXPAD@Z ENDP
							; _0x27A244D8
PUBLIC	?DISPLAY_HELP_TEXT_FROM_STRING_LABEL@@YAXK_N0K@Z ; DISPLAY_HELP_TEXT_FROM_STRING_LABEL
;	COMDAT .pdata
.pdata	SEGMENT
$T104161 DD	?DISPLAY_HELP_TEXT_FROM_STRING_LABEL@@YAXK_N0K@Z
	DD	040001303H
; Function compile flags: /Odtu

	.code

?DISPLAY_HELP_TEXT_FROM_STRING_LABEL@@YAXK_N0K@Z PROC NEAR ; DISPLAY_HELP_TEXT_FROM_STRING_LABEL, COMDAT

; Begin code for function: ?DISPLAY_HELP_TEXT_FROM_STRING_LABEL@@YAXK_N0K@Z
; Line 1237
	mflr         r12
	stw          r12,-8(r1)
	stwu         r1,-60h(r1)
.endprolog
$M104159:
	stw          r3,unk1$(r1)		; 116 (74h)
	stb          r4,loop$(r1)		; 127 (7Fh)
	stb          r5,beep$(r1)		; 135 (87h)
	stw          r6,shape$(r1)		; 140 (8Ch)
; Line 1238
	lwz          r8,shape$(r1)		; 140 (8Ch)
	lbz          r7,beep$(r1)		; 135 (87h)
	lbz          r6,loop$(r1)		; 127 (7Fh)
	lwz          r5,unk1$(r1)		; 116 (74h)
	li           r4,4
	lis          r11,-19045		; 0B59Bh
	ori          r3,r11,21261		; 530Dh
	bl           ??$_CALL_NATIVE@K@@YAKKKZZ
; Line 1239
	addi         r1,r1,96		; 60h
	lwz          r12,-8(r1)
	mtlr         r12
	blr
$M104160:
; End code for function: ?DISPLAY_HELP_TEXT_FROM_STRING_LABEL@@YAXK_N0K@Z
?DISPLAY_HELP_TEXT_FROM_STRING_LABEL@@YAXK_N0K@Z ENDP
							; DISPLAY_HELP_TEXT_FROM_STRING_LABEL
PUBLIC	?SET_TEXT_COMPONENT_FORMAT@@YAXPAD@Z		; SET_TEXT_COMPONENT_FORMAT
;	COMDAT .pdata
.pdata	SEGMENT
$T104167 DD	?SET_TEXT_COMPONENT_FORMAT@@YAXPAD@Z
	DD	040000d03H
; Function compile flags: /Odtu

	.code

?SET_TEXT_COMPONENT_FORMAT@@YAXPAD@Z PROC NEAR		; SET_TEXT_COMPONENT_FORMAT, COMDAT

; Begin code for function: ?SET_TEXT_COMPONENT_FORMAT@@YAXPAD@Z
; Line 1233
	mflr         r12
	stw          r12,-8(r1)
	stwu         r1,-60h(r1)
.endprolog
$M104165:
	stw          r3,type$(r1)		; 116 (74h)
; Line 1234
	lwz          r5,type$(r1)		; 116 (74h)
	li           r4,1
	lis          r11,-19899		; 0B245h
	ori          r3,r11,64528		; 0FC10h
	bl           ??$_CALL_NATIVE@K@@YAKKKZZ
; Line 1235
	addi         r1,r1,96		; 60h
	lwz          r12,-8(r1)
	mtlr         r12
	blr
$M104166:
; End code for function: ?SET_TEXT_COMPONENT_FORMAT@@YAXPAD@Z
?SET_TEXT_COMPONENT_FORMAT@@YAXPAD@Z ENDP
							; SET_TEXT_COMPONENT_FORMAT
PUBLIC	?_0x6F8350CE@@YAXMM@Z				; _0x6F8350CE
;	COMDAT .pdata
.pdata	SEGMENT
$T104173 DD	?_0x6F8350CE@@YAXMM@Z
	DD	040000f03H
; Function compile flags: /Odtu

	.code

?_0x6F8350CE@@YAXMM@Z PROC NEAR				; _0x6F8350CE, COMDAT

; Begin code for function: ?_0x6F8350CE@@YAXMM@Z
; Line 1221
	mflr         r12
	stw          r12,-8(r1)
	stwu         r1,-60h(r1)
.endprolog
$M104171:
	stfs         fr1,x$(r1)		; 116 (74h)
	stfs         fr2,y$(r1)		; 124 (7Ch)
; Line 1222
	lwz          r6,y$(r1)		; 124 (7Ch)
	lwz          r5,x$(r1)		; 116 (74h)
	li           r4,2
	lis          r11,28547		; 6F83h
	ori          r3,r11,20686		; 50CEh
	bl           ??$_CALL_NATIVE@K@@YAKKKZZ
; Line 1223
	addi         r1,r1,96		; 60h
	lwz          r12,-8(r1)
	mtlr         r12
	blr
$M104172:
; End code for function: ?_0x6F8350CE@@YAXMM@Z
?_0x6F8350CE@@YAXMM@Z ENDP
							; _0x6F8350CE
PUBLIC	?_0x3E35563E@@YAXPAD@Z				; _0x3E35563E
;	COMDAT .pdata
.pdata	SEGMENT
$T104179 DD	?_0x3E35563E@@YAXPAD@Z
	DD	040000d03H
; Function compile flags: /Odtu

	.code

?_0x3E35563E@@YAXPAD@Z PROC NEAR				; _0x3E35563E, COMDAT

; Begin code for function: ?_0x3E35563E@@YAXPAD@Z
; Line 1217
	mflr         r12
	stw          r12,-8(r1)
	stwu         r1,-60h(r1)
.endprolog
$M104177:
	stw          r3,text$(r1)		; 116 (74h)
; Line 1218
	lwz          r5,text$(r1)		; 116 (74h)
	li           r4,1
	lis          r11,15925		; 3E35h
	ori          r3,r11,22078		; 563Eh
	bl           ??$_CALL_NATIVE@K@@YAKKKZZ
; Line 1219
	addi         r1,r1,96		; 60h
	lwz          r12,-8(r1)
	mtlr         r12
	blr
$M104178:
; End code for function: ?_0x3E35563E@@YAXPAD@Z
?_0x3E35563E@@YAXPAD@Z ENDP
							; _0x3E35563E
PUBLIC	?_0x38F82261@@YAXKK@Z				; _0x38F82261
;	COMDAT .pdata
.pdata	SEGMENT
$T104185 DD	?_0x38F82261@@YAXKK@Z
	DD	040000f03H
; Function compile flags: /Odtu

	.code

?_0x38F82261@@YAXKK@Z PROC NEAR				; _0x38F82261, COMDAT

; Begin code for function: ?_0x38F82261@@YAXKK@Z
; Line 1213
	mflr         r12
	stw          r12,-8(r1)
	stwu         r1,-60h(r1)
.endprolog
$M104183:
	stw          r3,milliseconds$(r1)		; 116 (74h)
	stw          r4,unk1$(r1)		; 124 (7Ch)
; Line 1214
	lwz          r6,unk1$(r1)		; 124 (7Ch)
	lwz          r5,milliseconds$(r1)		; 116 (74h)
	li           r4,2
	lis          r11,14584		; 38F8h
	ori          r3,r11,8801		; 2261h
	bl           ??$_CALL_NATIVE@K@@YAKKKZZ
; Line 1215
	addi         r1,r1,96		; 60h
	lwz          r12,-8(r1)
	mtlr         r12
	blr
$M104184:
; End code for function: ?_0x38F82261@@YAXKK@Z
?_0x38F82261@@YAXKK@Z ENDP
							; _0x38F82261
PUBLIC	?_0xF42C43C7@@YAXPAD@Z				; _0xF42C43C7
;	COMDAT .pdata
.pdata	SEGMENT
$T104191 DD	?_0xF42C43C7@@YAXPAD@Z
	DD	040000d03H
; Function compile flags: /Odtu

	.code

?_0xF42C43C7@@YAXPAD@Z PROC NEAR				; _0xF42C43C7, COMDAT

; Begin code for function: ?_0xF42C43C7@@YAXPAD@Z
; Line 1209
	mflr         r12
	stw          r12,-8(r1)
	stwu         r1,-60h(r1)
.endprolog
$M104189:
	stw          r3,type$(r1)		; 116 (74h)
; Line 1210
	lwz          r5,type$(r1)		; 116 (74h)
	li           r4,1
	lis          r11,-3028		; 0F42Ch
	ori          r3,r11,17351		; 43C7h
	bl           ??$_CALL_NATIVE@K@@YAKKKZZ
; Line 1211
	addi         r1,r1,96		; 60h
	lwz          r12,-8(r1)
	mtlr         r12
	blr
$M104190:
; End code for function: ?_0xF42C43C7@@YAXPAD@Z
?_0xF42C43C7@@YAXPAD@Z ENDP
							; _0xF42C43C7
PUBLIC	?HAS_CLIP_SET_LOADED@@YA_NPAD@Z			; HAS_CLIP_SET_LOADED
;	COMDAT .pdata
.pdata	SEGMENT
$T104197 DD	?HAS_CLIP_SET_LOADED@@YA_NPAD@Z
	DD	040001003H
; Function compile flags: /Odtu

	.code

?HAS_CLIP_SET_LOADED@@YA_NPAD@Z	PROC NEAR		; HAS_CLIP_SET_LOADED, COMDAT

; Begin code for function: ?HAS_CLIP_SET_LOADED@@YA_NPAD@Z
; Line 1204
	mflr         r12
	stw          r12,-8(r1)
	stwu         r1,-60h(r1)
.endprolog
$M104195:
	stw          r3,clipSet$(r1)		; 116 (74h)
; Line 1205
	lwz          r5,clipSet$(r1)		; 116 (74h)
	li           r4,1
	lis          r11,8973		; 230Dh
	ori          r3,r11,21589		; 5455h
	bl           ??$_CALL_NATIVE@H@@YAHKKZZ
	cntlzw       r10,r3
	rlwinm       r9,r10,27,31,31
	xori         r3,r9,1
; Line 1206
	addi         r1,r1,96		; 60h
	lwz          r12,-8(r1)
	mtlr         r12
	blr
$M104196:
; End code for function: ?HAS_CLIP_SET_LOADED@@YA_NPAD@Z
?HAS_CLIP_SET_LOADED@@YA_NPAD@Z ENDP
							; HAS_CLIP_SET_LOADED
PUBLIC	?REQUEST_CLIP_SET@@YAXPAD@Z			; REQUEST_CLIP_SET
;	COMDAT .pdata
.pdata	SEGMENT
$T104203 DD	?REQUEST_CLIP_SET@@YAXPAD@Z
	DD	040000d03H
; Function compile flags: /Odtu

	.code

?REQUEST_CLIP_SET@@YAXPAD@Z PROC NEAR			; REQUEST_CLIP_SET, COMDAT

; Begin code for function: ?REQUEST_CLIP_SET@@YAXPAD@Z
; Line 1200
	mflr         r12
	stw          r12,-8(r1)
	stwu         r1,-60h(r1)
.endprolog
$M104201:
	stw          r3,clipSet$(r1)		; 116 (74h)
; Line 1201
	lwz          r5,clipSet$(r1)		; 116 (74h)
	li           r4,1
	lis          r11,21612		; 546Ch
	ori          r3,r11,25210		; 627Ah
	bl           ??$_CALL_NATIVE@K@@YAKKKZZ
; Line 1202
	addi         r1,r1,96		; 60h
	lwz          r12,-8(r1)
	mtlr         r12
	blr
$M104202:
; End code for function: ?REQUEST_CLIP_SET@@YAXPAD@Z
?REQUEST_CLIP_SET@@YAXPAD@Z ENDP
							; REQUEST_CLIP_SET
PUBLIC	?HAS_ANIM_DICT_LOADED@@YA_NPAD@Z		; HAS_ANIM_DICT_LOADED
;	COMDAT .pdata
.pdata	SEGMENT
$T104209 DD	?HAS_ANIM_DICT_LOADED@@YA_NPAD@Z
	DD	040001003H
; Function compile flags: /Odtu

	.code

?HAS_ANIM_DICT_LOADED@@YA_NPAD@Z PROC NEAR		; HAS_ANIM_DICT_LOADED, COMDAT

; Begin code for function: ?HAS_ANIM_DICT_LOADED@@YA_NPAD@Z
; Line 1196
	mflr         r12
	stw          r12,-8(r1)
	stwu         r1,-60h(r1)
.endprolog
$M104207:
	stw          r3,anim$(r1)		; 116 (74h)
; Line 1197
	lwz          r5,anim$(r1)		; 116 (74h)
	li           r4,1
	lis          r11,1510		; 5E6h
	ori          r3,r11,30268		; 763Ch
	bl           ??$_CALL_NATIVE@H@@YAHKKZZ
	cntlzw       r10,r3
	rlwinm       r9,r10,27,31,31
	xori         r3,r9,1
; Line 1198
	addi         r1,r1,96		; 60h
	lwz          r12,-8(r1)
	mtlr         r12
	blr
$M104208:
; End code for function: ?HAS_ANIM_DICT_LOADED@@YA_NPAD@Z
?HAS_ANIM_DICT_LOADED@@YA_NPAD@Z ENDP
							; HAS_ANIM_DICT_LOADED
PUBLIC	?REQUEST_ANIM_DICT@@YAXPAD@Z			; REQUEST_ANIM_DICT
;	COMDAT .pdata
.pdata	SEGMENT
$T104215 DD	?REQUEST_ANIM_DICT@@YAXPAD@Z
	DD	040000d03H
; Function compile flags: /Odtu

	.code

?REQUEST_ANIM_DICT@@YAXPAD@Z PROC NEAR			; REQUEST_ANIM_DICT, COMDAT

; Begin code for function: ?REQUEST_ANIM_DICT@@YAXPAD@Z
; Line 1192
	mflr         r12
	stw          r12,-8(r1)
	stwu         r1,-60h(r1)
.endprolog
$M104213:
	stw          r3,anim$(r1)		; 116 (74h)
; Line 1193
	lwz          r5,anim$(r1)		; 116 (74h)
	li           r4,1
	lis          r11,-9047		; 0DCA9h
	ori          r3,r11,26960		; 6950h
	bl           ??$_CALL_NATIVE@K@@YAKKKZZ
; Line 1194
	addi         r1,r1,96		; 60h
	lwz          r12,-8(r1)
	mtlr         r12
	blr
$M104214:
; End code for function: ?REQUEST_ANIM_DICT@@YAXPAD@Z
?REQUEST_ANIM_DICT@@YAXPAD@Z ENDP
							; REQUEST_ANIM_DICT
PUBLIC	?IS_MODEL_IN_CDIMAGE@@YA_NK@Z			; IS_MODEL_IN_CDIMAGE
;	COMDAT .pdata
.pdata	SEGMENT
$T104221 DD	?IS_MODEL_IN_CDIMAGE@@YA_NK@Z
	DD	040001003H
; Function compile flags: /Odtu

	.code

?IS_MODEL_IN_CDIMAGE@@YA_NK@Z PROC NEAR			; IS_MODEL_IN_CDIMAGE, COMDAT

; Begin code for function: ?IS_MODEL_IN_CDIMAGE@@YA_NK@Z
; Line 1188
	mflr         r12
	stw          r12,-8(r1)
	stwu         r1,-60h(r1)
.endprolog
$M104219:
	stw          r3,modelHash$(r1)		; 116 (74h)
; Line 1189
	lwz          r5,modelHash$(r1)		; 116 (74h)
	li           r4,1
	lis          r11,4244		; 1094h
	ori          r3,r11,30767		; 782Fh
	bl           ??$_CALL_NATIVE@H@@YAHKKZZ
	cntlzw       r10,r3
	rlwinm       r9,r10,27,31,31
	xori         r3,r9,1
; Line 1190
	addi         r1,r1,96		; 60h
	lwz          r12,-8(r1)
	mtlr         r12
	blr
$M104220:
; End code for function: ?IS_MODEL_IN_CDIMAGE@@YA_NK@Z
?IS_MODEL_IN_CDIMAGE@@YA_NK@Z ENDP
							; IS_MODEL_IN_CDIMAGE
PUBLIC	?SET_MODEL_AS_NO_LONGER_NEEDED@@YAXK@Z		; SET_MODEL_AS_NO_LONGER_NEEDED
;	COMDAT .pdata
.pdata	SEGMENT
$T104227 DD	?SET_MODEL_AS_NO_LONGER_NEEDED@@YAXK@Z
	DD	040000d03H
; Function compile flags: /Odtu

	.code

?SET_MODEL_AS_NO_LONGER_NEEDED@@YAXK@Z PROC NEAR		; SET_MODEL_AS_NO_LONGER_NEEDED, COMDAT

; Begin code for function: ?SET_MODEL_AS_NO_LONGER_NEEDED@@YAXK@Z
; Line 1184
	mflr         r12
	stw          r12,-8(r1)
	stwu         r1,-60h(r1)
.endprolog
$M104225:
	stw          r3,modelHash$(r1)		; 116 (74h)
; Line 1185
	lwz          r5,modelHash$(r1)		; 116 (74h)
	li           r4,1
	lis          r11,-20977		; 0AE0Fh
	ori          r3,r11,1694		; 69Eh
	bl           ??$_CALL_NATIVE@K@@YAKKKZZ
; Line 1186
	addi         r1,r1,96		; 60h
	lwz          r12,-8(r1)
	mtlr         r12
	blr
$M104226:
; End code for function: ?SET_MODEL_AS_NO_LONGER_NEEDED@@YAXK@Z
?SET_MODEL_AS_NO_LONGER_NEEDED@@YAXK@Z ENDP
							; SET_MODEL_AS_NO_LONGER_NEEDED
PUBLIC	?HAS_MODEL_LOADED@@YA_NK@Z			; HAS_MODEL_LOADED
;	COMDAT .pdata
.pdata	SEGMENT
$T104233 DD	?HAS_MODEL_LOADED@@YA_NK@Z
	DD	040001003H
; Function compile flags: /Odtu

	.code

?HAS_MODEL_LOADED@@YA_NK@Z PROC NEAR			; HAS_MODEL_LOADED, COMDAT

; Begin code for function: ?HAS_MODEL_LOADED@@YA_NK@Z
; Line 1180
	mflr         r12
	stw          r12,-8(r1)
	stwu         r1,-60h(r1)
.endprolog
$M104231:
	stw          r3,modelHash$(r1)		; 116 (74h)
; Line 1181
	lwz          r5,modelHash$(r1)		; 116 (74h)
	li           r4,1
	lis          r11,25279		; 62BFh
	ori          r3,r11,56119		; 0DB37h
	bl           ??$_CALL_NATIVE@H@@YAHKKZZ
	cntlzw       r10,r3
	rlwinm       r9,r10,27,31,31
	xori         r3,r9,1
; Line 1182
	addi         r1,r1,96		; 60h
	lwz          r12,-8(r1)
	mtlr         r12
	blr
$M104232:
; End code for function: ?HAS_MODEL_LOADED@@YA_NK@Z
?HAS_MODEL_LOADED@@YA_NK@Z ENDP
							; HAS_MODEL_LOADED
PUBLIC	?REQUEST_MODEL@@YAXK@Z				; REQUEST_MODEL
;	COMDAT .pdata
.pdata	SEGMENT
$T104239 DD	?REQUEST_MODEL@@YAXK@Z
	DD	040000d03H
; Function compile flags: /Odtu

	.code

?REQUEST_MODEL@@YAXK@Z PROC NEAR				; REQUEST_MODEL, COMDAT

; Begin code for function: ?REQUEST_MODEL@@YAXK@Z
; Line 1176
	mflr         r12
	stw          r12,-8(r1)
	stwu         r1,-60h(r1)
.endprolog
$M104237:
	stw          r3,modelHash$(r1)		; 116 (74h)
; Line 1177
	lwz          r5,modelHash$(r1)		; 116 (74h)
	li           r4,1
	lis          r11,-15		; 0FFF1h
	ori          r3,r11,46336		; 0B500h
	bl           ??$_CALL_NATIVE@K@@YAKKKZZ
; Line 1178
	addi         r1,r1,96		; 60h
	lwz          r12,-8(r1)
	mtlr         r12
	blr
$M104238:
; End code for function: ?REQUEST_MODEL@@YAXK@Z
?REQUEST_MODEL@@YAXK@Z ENDP
							; REQUEST_MODEL
PUBLIC	?LOAD_ALL_OBJECTS_NOW@@YAXXZ			; LOAD_ALL_OBJECTS_NOW
;	COMDAT .pdata
.pdata	SEGMENT
$T104245 DD	?LOAD_ALL_OBJECTS_NOW@@YAXXZ
	DD	040000b03H
; Function compile flags: /Odtu

	.code

?LOAD_ALL_OBJECTS_NOW@@YAXXZ PROC NEAR			; LOAD_ALL_OBJECTS_NOW, COMDAT

; Begin code for function: ?LOAD_ALL_OBJECTS_NOW@@YAXXZ
; Line 1172
	mflr         r12
	stw          r12,-8(r1)
	stwu         r1,-60h(r1)
.endprolog
$M104243:
; Line 1173
	li           r4,0
	lis          r11,-13861		; 0C9DBh
	ori          r3,r11,55952		; 0DA90h
	bl           ??$_CALL_NATIVE@K@@YAKKKZZ
; Line 1174
	addi         r1,r1,96		; 60h
	lwz          r12,-8(r1)
	mtlr         r12
	blr
$M104244:
; End code for function: ?LOAD_ALL_OBJECTS_NOW@@YAXXZ
?LOAD_ALL_OBJECTS_NOW@@YAXXZ ENDP
							; LOAD_ALL_OBJECTS_NOW
PUBLIC	?HAS_WEAPON_ASSET_LOADED@@YA_NK@Z		; HAS_WEAPON_ASSET_LOADED
;	COMDAT .pdata
.pdata	SEGMENT
$T104251 DD	?HAS_WEAPON_ASSET_LOADED@@YA_NK@Z
	DD	040001003H
; Function compile flags: /Odtu

	.code

?HAS_WEAPON_ASSET_LOADED@@YA_NK@Z PROC NEAR		; HAS_WEAPON_ASSET_LOADED, COMDAT

; Begin code for function: ?HAS_WEAPON_ASSET_LOADED@@YA_NK@Z
; Line 1167
	mflr         r12
	stw          r12,-8(r1)
	stwu         r1,-60h(r1)
.endprolog
$M104249:
	stw          r3,weapon$(r1)		; 116 (74h)
; Line 1168
	lwz          r5,weapon$(r1)		; 116 (74h)
	li           r4,1
	lis          r11,6289		; 1891h
	ori          r3,r11,54715		; 0D5BBh
	bl           ??$_CALL_NATIVE@H@@YAHKKZZ
	cntlzw       r10,r3
	rlwinm       r9,r10,27,31,31
	xori         r3,r9,1
; Line 1169
	addi         r1,r1,96		; 60h
	lwz          r12,-8(r1)
	mtlr         r12
	blr
$M104250:
; End code for function: ?HAS_WEAPON_ASSET_LOADED@@YA_NK@Z
?HAS_WEAPON_ASSET_LOADED@@YA_NK@Z ENDP
							; HAS_WEAPON_ASSET_LOADED
PUBLIC	?REQUEST_WEAPON_ASSET@@YAXKK_N@Z		; REQUEST_WEAPON_ASSET
;	COMDAT .pdata
.pdata	SEGMENT
$T104257 DD	?REQUEST_WEAPON_ASSET@@YAXKK_N@Z
	DD	040001103H
; Function compile flags: /Odtu

	.code

?REQUEST_WEAPON_ASSET@@YAXKK_N@Z PROC NEAR		; REQUEST_WEAPON_ASSET, COMDAT

; Begin code for function: ?REQUEST_WEAPON_ASSET@@YAXKK_N@Z
; Line 1163
	mflr         r12
	stw          r12,-8(r1)
	stwu         r1,-60h(r1)
.endprolog
$M104255:
	stw          r3,weapon$(r1)		; 116 (74h)
	stw          r4,unk1$(r1)		; 124 (7Ch)
	stb          r5,unk2$(r1)		; 135 (87h)
; Line 1164
	lbz          r7,unk2$(r1)		; 135 (87h)
	lwz          r6,unk1$(r1)		; 124 (7Ch)
	lwz          r5,weapon$(r1)		; 116 (74h)
	li           r4,3
	lis          r11,26065		; 65D1h
	ori          r3,r11,14757		; 39A5h
	bl           ??$_CALL_NATIVE@K@@YAKKKZZ
; Line 1165
	addi         r1,r1,96		; 60h
	lwz          r12,-8(r1)
	mtlr         r12
	blr
$M104256:
; End code for function: ?REQUEST_WEAPON_ASSET@@YAXKK_N@Z
?REQUEST_WEAPON_ASSET@@YAXKK_N@Z ENDP
							; REQUEST_WEAPON_ASSET
PUBLIC	?GET_PED_LAST_WEAPON_IMPACT_COORD@@YA?AU_Vector3@@K@Z ; GET_PED_LAST_WEAPON_IMPACT_COORD
;	COMDAT .pdata
.pdata	SEGMENT
$T104263 DD	?GET_PED_LAST_WEAPON_IMPACT_COORD@@YA?AU_Vector3@@K@Z
	DD	040002603H
; Function compile flags: /Odtu

	.code
buffer$ = 80						; size = 12

?GET_PED_LAST_WEAPON_IMPACT_COORD@@YA?AU_Vector3@@K@Z PROC NEAR ; GET_PED_LAST_WEAPON_IMPACT_COORD, COMDAT

; Begin code for function: ?GET_PED_LAST_WEAPON_IMPACT_COORD@@YA?AU_Vector3@@K@Z
; Line 1156
	mflr         r12
	stw          r12,-8(r1)
	stwu         r1,-70h(r1)
.endprolog
$M104261:
	stw          r3,__$ReturnUdt$(r1)		; 132 (84h)
	stw          r4,ped$(r1)		; 140 (8Ch)
; Line 1157
	addi         r3,r1,buffer$
	bl           ??0_Vector3@@QAA@XZ
; Line 1158
	addi         r6,r1,buffer$
	lwz          r5,ped$(r1)		; 140 (8Ch)
	li           r4,2
	lis          r11,-25818		; 9B26h
	ori          r3,r11,24697		; 6079h
	bl           ??$_CALL_NATIVE@H@@YAHKKZZ
	cmpwi        cr6,r3,0
	bne          cr6,$LN1@GET_PED_LA
; Line 1159
	lwz          r10,__$ReturnUdt$(r1)		; 132 (84h)
	lis          r9,?_Position@@3U_Vector3@@A
	addi         r8,r9,?_Position@@3U_Vector3@@A
	lwz          r7,0(r8)
	stw          r7,0(r10)
	lwz          r6,4(r8)
	stw          r6,4(r10)
	lwz          r5,8(r8)
	stw          r5,8(r10)
	lwz          r3,__$ReturnUdt$(r1)		; 132 (84h)
	b            $LN2@GET_PED_LA
$LN1@GET_PED_LA:
; Line 1160
	lwz          r4,__$ReturnUdt$(r1)		; 132 (84h)
	lwz          r3,buffer$(r1)		; 80 (50h)
	stw          r3,0(r4)
	lwz          r11,buffer$+4(r1)		; 84 (54h)
	stw          r11,4(r4)
	lwz          r10,buffer$+8(r1)		; 88 (58h)
	stw          r10,8(r4)
	lwz          r3,__$ReturnUdt$(r1)		; 132 (84h)
$LN2@GET_PED_LA:
; Line 1161
	addi         r1,r1,112		; 70h
	lwz          r12,-8(r1)
	mtlr         r12
	blr
$M104262:
; End code for function: ?GET_PED_LAST_WEAPON_IMPACT_COORD@@YA?AU_Vector3@@K@Z
?GET_PED_LAST_WEAPON_IMPACT_COORD@@YA?AU_Vector3@@K@Z ENDP
							; GET_PED_LAST_WEAPON_IMPACT_COORD
PUBLIC	?REMOVE_ALL_PED_WEAPONS@@YAXK@Z			; REMOVE_ALL_PED_WEAPONS
;	COMDAT .pdata
.pdata	SEGMENT
$T104269 DD	?REMOVE_ALL_PED_WEAPONS@@YAXK@Z
	DD	040000d03H
; Function compile flags: /Odtu

	.code

?REMOVE_ALL_PED_WEAPONS@@YAXK@Z	PROC NEAR		; REMOVE_ALL_PED_WEAPONS, COMDAT

; Begin code for function: ?REMOVE_ALL_PED_WEAPONS@@YAXK@Z
; Line 1152
	mflr         r12
	stw          r12,-8(r1)
	stwu         r1,-60h(r1)
.endprolog
$M104267:
	stw          r3,ped$(r1)		; 116 (74h)
; Line 1153
	lwz          r5,ped$(r1)		; 116 (74h)
	li           r4,1
	lis          r11,-23476		; 0A44Ch
	ori          r3,r11,59415		; 0E817h
	bl           ??$_CALL_NATIVE@K@@YAKKKZZ
; Line 1154
	addi         r1,r1,96		; 60h
	lwz          r12,-8(r1)
	mtlr         r12
	blr
$M104268:
; End code for function: ?REMOVE_ALL_PED_WEAPONS@@YAXK@Z
?REMOVE_ALL_PED_WEAPONS@@YAXK@Z ENDP
							; REMOVE_ALL_PED_WEAPONS
PUBLIC	?GIVE_DELAYED_WEAPON_TO_PED@@YAXKKK_N@Z		; GIVE_DELAYED_WEAPON_TO_PED
;	COMDAT .pdata
.pdata	SEGMENT
$T104275 DD	?GIVE_DELAYED_WEAPON_TO_PED@@YAXKKK_N@Z
	DD	040001303H
; Function compile flags: /Odtu

	.code

?GIVE_DELAYED_WEAPON_TO_PED@@YAXKKK_N@Z	PROC NEAR	; GIVE_DELAYED_WEAPON_TO_PED, COMDAT

; Begin code for function: ?GIVE_DELAYED_WEAPON_TO_PED@@YAXKKK_N@Z
; Line 1148
	mflr         r12
	stw          r12,-8(r1)
	stwu         r1,-60h(r1)
.endprolog
$M104273:
	stw          r3,ped$(r1)		; 116 (74h)
	stw          r4,weapon$(r1)		; 124 (7Ch)
	stw          r5,time$(r1)		; 132 (84h)
	stb          r6,equipNow$(r1)		; 143 (8Fh)
; Line 1149
	lbz          r8,equipNow$(r1)		; 143 (8Fh)
	lwz          r7,time$(r1)		; 132 (84h)
	lwz          r6,weapon$(r1)		; 124 (7Ch)
	lwz          r5,ped$(r1)		; 116 (74h)
	li           r4,4
	lis          r11,22632		; 5868h
	ori          r3,r11,53773		; 0D20Dh
	bl           ??$_CALL_NATIVE@K@@YAKKKZZ
; Line 1150
	addi         r1,r1,96		; 60h
	lwz          r12,-8(r1)
	mtlr         r12
	blr
$M104274:
; End code for function: ?GIVE_DELAYED_WEAPON_TO_PED@@YAXKKK_N@Z
?GIVE_DELAYED_WEAPON_TO_PED@@YAXKKK_N@Z ENDP
							; GIVE_DELAYED_WEAPON_TO_PED
PUBLIC	?GIVE_WEAPON_TO_PED@@YAXKKK_N0@Z		; GIVE_WEAPON_TO_PED
;	COMDAT .pdata
.pdata	SEGMENT
$T104281 DD	?GIVE_WEAPON_TO_PED@@YAXKKK_N0@Z
	DD	040001503H
; Function compile flags: /Odtu

	.code

?GIVE_WEAPON_TO_PED@@YAXKKK_N0@Z PROC NEAR		; GIVE_WEAPON_TO_PED, COMDAT

; Begin code for function: ?GIVE_WEAPON_TO_PED@@YAXKKK_N0@Z
; Line 1144
	mflr         r12
	stw          r12,-8(r1)
	stwu         r1,-60h(r1)
.endprolog
$M104279:
	stw          r3,ped$(r1)		; 116 (74h)
	stw          r4,weapon$(r1)		; 124 (7Ch)
	stw          r5,ammo$(r1)		; 132 (84h)
	stb          r6,unk1$(r1)		; 143 (8Fh)
	stb          r7,equipNow$(r1)		; 151 (97h)
; Line 1145
	lbz          r9,equipNow$(r1)		; 151 (97h)
	lbz          r8,unk1$(r1)		; 143 (8Fh)
	lwz          r7,ammo$(r1)		; 132 (84h)
	lwz          r6,weapon$(r1)		; 124 (7Ch)
	lwz          r5,ped$(r1)		; 116 (74h)
	li           r4,5
	lis          r11,-15144		; 0C4D8h
	ori          r3,r11,35461		; 8A85h
	bl           ??$_CALL_NATIVE@K@@YAKKKZZ
; Line 1146
	addi         r1,r1,96		; 60h
	lwz          r12,-8(r1)
	mtlr         r12
	blr
$M104280:
; End code for function: ?GIVE_WEAPON_TO_PED@@YAXKKK_N0@Z
?GIVE_WEAPON_TO_PED@@YAXKKK_N0@Z ENDP
							; GIVE_WEAPON_TO_PED
PUBLIC	?SET_PED_INFINITE_AMMO_CLIP@@YAXK_N@Z		; SET_PED_INFINITE_AMMO_CLIP
;	COMDAT .pdata
.pdata	SEGMENT
$T104287 DD	?SET_PED_INFINITE_AMMO_CLIP@@YAXK_N@Z
	DD	040000f03H
; Function compile flags: /Odtu

	.code

?SET_PED_INFINITE_AMMO_CLIP@@YAXK_N@Z PROC NEAR		; SET_PED_INFINITE_AMMO_CLIP, COMDAT

; Begin code for function: ?SET_PED_INFINITE_AMMO_CLIP@@YAXK_N@Z
; Line 1140
	mflr         r12
	stw          r12,-8(r1)
	stwu         r1,-60h(r1)
.endprolog
$M104285:
	stw          r3,ped$(r1)		; 116 (74h)
	stb          r4,infiniteAmmoClip$(r1)		; 127 (7Fh)
; Line 1141
	lbz          r6,infiniteAmmoClip$(r1)		; 127 (7Fh)
	lwz          r5,ped$(r1)		; 116 (74h)
	li           r4,2
	lis          r11,23134		; 5A5Eh
	ori          r3,r11,15207		; 3B67h
	bl           ??$_CALL_NATIVE@K@@YAKKKZZ
; Line 1142
	addi         r1,r1,96		; 60h
	lwz          r12,-8(r1)
	mtlr         r12
	blr
$M104286:
; End code for function: ?SET_PED_INFINITE_AMMO_CLIP@@YAXK_N@Z
?SET_PED_INFINITE_AMMO_CLIP@@YAXK_N@Z ENDP
							; SET_PED_INFINITE_AMMO_CLIP
PUBLIC	?SET_CINEMATIC_BUTTON_ACTIVE@@YAX_N@Z		; SET_CINEMATIC_BUTTON_ACTIVE
;	COMDAT .pdata
.pdata	SEGMENT
$T104293 DD	?SET_CINEMATIC_BUTTON_ACTIVE@@YAX_N@Z
	DD	040000d03H
; Function compile flags: /Odtu

	.code

?SET_CINEMATIC_BUTTON_ACTIVE@@YAX_N@Z PROC NEAR		; SET_CINEMATIC_BUTTON_ACTIVE, COMDAT

; Begin code for function: ?SET_CINEMATIC_BUTTON_ACTIVE@@YAX_N@Z
; Line 1135
	mflr         r12
	stw          r12,-8(r1)
	stwu         r1,-60h(r1)
.endprolog
$M104291:
	stb          r3,cinematicButtonActive$(r1)		; 119 (77h)
; Line 1136
	lbz          r5,cinematicButtonActive$(r1)		; 119 (77h)
	li           r4,1
	lis          r11,16316		; 3FBCh
	ori          r3,r11,23808		; 5D00h
	bl           ??$_CALL_NATIVE@K@@YAKKKZZ
; Line 1137
	addi         r1,r1,96		; 60h
	lwz          r12,-8(r1)
	mtlr         r12
	blr
$M104292:
; End code for function: ?SET_CINEMATIC_BUTTON_ACTIVE@@YAX_N@Z
?SET_CINEMATIC_BUTTON_ACTIVE@@YAX_N@Z ENDP
							; SET_CINEMATIC_BUTTON_ACTIVE
PUBLIC	?GET_GAMEPLAY_CAM_ROT@@YA?AU_Vector3@@K@Z	; GET_GAMEPLAY_CAM_ROT
;	COMDAT .pdata
.pdata	SEGMENT
$T104299 DD	?GET_GAMEPLAY_CAM_ROT@@YA?AU_Vector3@@K@Z
	DD	040001003H
; Function compile flags: /Odtu

	.code

?GET_GAMEPLAY_CAM_ROT@@YA?AU_Vector3@@K@Z PROC NEAR	; GET_GAMEPLAY_CAM_ROT, COMDAT

; Begin code for function: ?GET_GAMEPLAY_CAM_ROT@@YA?AU_Vector3@@K@Z
; Line 1131
	mflr         r12
	stw          r12,-8(r1)
	stwu         r1,-60h(r1)
.endprolog
$M104297:
	stw          r3,__$ReturnUdt$(r1)		; 116 (74h)
	stw          r4,unk1$(r1)		; 124 (7Ch)
; Line 1132
	lwz          r6,unk1$(r1)		; 124 (7Ch)
	li           r5,1
	lis          r11,5024		; 13A0h
	ori          r4,r11,4277		; 10B5h
	lwz          r3,__$ReturnUdt$(r1)		; 116 (74h)
	bl           ??$_CALL_NATIVE@U_Vector3@@@@YA?AU_Vector3@@KKZZ
	lwz          r3,__$ReturnUdt$(r1)		; 116 (74h)
; Line 1133
	addi         r1,r1,96		; 60h
	lwz          r12,-8(r1)
	mtlr         r12
	blr
$M104298:
; End code for function: ?GET_GAMEPLAY_CAM_ROT@@YA?AU_Vector3@@K@Z
?GET_GAMEPLAY_CAM_ROT@@YA?AU_Vector3@@K@Z ENDP
							; GET_GAMEPLAY_CAM_ROT
PUBLIC	?ATTACH_CAM_TO_PED_BONE@@YAXKKKMMM_N@Z		; ATTACH_CAM_TO_PED_BONE
;	COMDAT .pdata
.pdata	SEGMENT
$T104305 DD	?ATTACH_CAM_TO_PED_BONE@@YAXKKKMMM_N@Z
	DD	040001a03H
; Function compile flags: /Odtu

	.code

?ATTACH_CAM_TO_PED_BONE@@YAXKKKMMM_N@Z PROC NEAR		; ATTACH_CAM_TO_PED_BONE, COMDAT

; Begin code for function: ?ATTACH_CAM_TO_PED_BONE@@YAXKKKMMM_N@Z
; Line 1111
	mflr         r12
	stw          r12,-8(r1)
	stwu         r1,-60h(r1)
.endprolog
$M104303:
	stw          r3,camera$(r1)		; 116 (74h)
	stw          r4,ped$(r1)		; 124 (7Ch)
	stw          r5,bone$(r1)		; 132 (84h)
	stfs         fr1,x$(r1)		; 140 (8Ch)
	stfs         fr2,y$(r1)		; 148 (94h)
	stfs         fr3,z$(r1)		; 156 (9Ch)
	stb          r9,unk1$(r1)		; 167 (0A7h)
; Line 1112
	lbz          r11,unk1$(r1)		; 167 (0A7h)
	stw          r11,54h(r1)
	lwz          r10,z$(r1)		; 156 (9Ch)
	lwz          r9,y$(r1)		; 148 (94h)
	lwz          r8,x$(r1)		; 140 (8Ch)
	lwz          r7,bone$(r1)		; 132 (84h)
	lwz          r6,ped$(r1)		; 124 (7Ch)
	lwz          r5,camera$(r1)		; 116 (74h)
	li           r4,7
	lis          r3,20587		; 506Bh
	ori          r3,r3,45916		; 0B35Ch
	bl           ??$_CALL_NATIVE@K@@YAKKKZZ
; Line 1113
	addi         r1,r1,96		; 60h
	lwz          r12,-8(r1)
	mtlr         r12
	blr
$M104304:
; End code for function: ?ATTACH_CAM_TO_PED_BONE@@YAXKKKMMM_N@Z
?ATTACH_CAM_TO_PED_BONE@@YAXKKKMMM_N@Z ENDP
							; ATTACH_CAM_TO_PED_BONE
PUBLIC	?SET_CAM_ROT@@YAXKMMMK@Z			; SET_CAM_ROT
;	COMDAT .pdata
.pdata	SEGMENT
$T104311 DD	?SET_CAM_ROT@@YAXKMMMK@Z
	DD	040001503H
; Function compile flags: /Odtu

	.code

?SET_CAM_ROT@@YAXKMMMK@Z PROC NEAR			; SET_CAM_ROT, COMDAT

; Begin code for function: ?SET_CAM_ROT@@YAXKMMMK@Z
; Line 1107
	mflr         r12
	stw          r12,-8(r1)
	stwu         r1,-60h(r1)
.endprolog
$M104309:
	stw          r3,camera$(r1)		; 116 (74h)
	stfs         fr1,x$(r1)		; 124 (7Ch)
	stfs         fr2,y$(r1)		; 132 (84h)
	stfs         fr3,z$(r1)		; 140 (8Ch)
	stw          r7,unk1$(r1)		; 148 (94h)
; Line 1108
	lwz          r9,unk1$(r1)		; 148 (94h)
	lwz          r8,z$(r1)		; 140 (8Ch)
	lwz          r7,y$(r1)		; 132 (84h)
	lwz          r6,x$(r1)		; 124 (7Ch)
	lwz          r5,camera$(r1)		; 116 (74h)
	li           r4,5
	lis          r11,-4552		; 0EE38h
	ori          r3,r11,46017		; 0B3C1h
	bl           ??$_CALL_NATIVE@K@@YAKKKZZ
; Line 1109
	addi         r1,r1,96		; 60h
	lwz          r12,-8(r1)
	mtlr         r12
	blr
$M104310:
; End code for function: ?SET_CAM_ROT@@YAXKMMMK@Z
?SET_CAM_ROT@@YAXKMMMK@Z ENDP
							; SET_CAM_ROT
PUBLIC	?SET_CAM_ACTIVE@@YAXK_N@Z			; SET_CAM_ACTIVE
;	COMDAT .pdata
.pdata	SEGMENT
$T104317 DD	?SET_CAM_ACTIVE@@YAXK_N@Z
	DD	040000f03H
; Function compile flags: /Odtu

	.code

?SET_CAM_ACTIVE@@YAXK_N@Z PROC NEAR			; SET_CAM_ACTIVE, COMDAT

; Begin code for function: ?SET_CAM_ACTIVE@@YAXK_N@Z
; Line 1103
	mflr         r12
	stw          r12,-8(r1)
	stwu         r1,-60h(r1)
.endprolog
$M104315:
	stw          r3,camera$(r1)		; 116 (74h)
	stb          r4,active$(r1)		; 127 (7Fh)
; Line 1104
	lbz          r6,active$(r1)		; 127 (7Fh)
	lwz          r5,camera$(r1)		; 116 (74h)
	li           r4,2
	lis          r11,1606		; 646h
	ori          r3,r11,22978		; 59C2h
	bl           ??$_CALL_NATIVE@K@@YAKKKZZ
; Line 1105
	addi         r1,r1,96		; 60h
	lwz          r12,-8(r1)
	mtlr         r12
	blr
$M104316:
; End code for function: ?SET_CAM_ACTIVE@@YAXK_N@Z
?SET_CAM_ACTIVE@@YAXK_N@Z ENDP
							; SET_CAM_ACTIVE
PUBLIC	?DESTROY_CAM@@YAXK_N@Z				; DESTROY_CAM
;	COMDAT .pdata
.pdata	SEGMENT
$T104323 DD	?DESTROY_CAM@@YAXK_N@Z
	DD	040000f03H
; Function compile flags: /Odtu

	.code

?DESTROY_CAM@@YAXK_N@Z PROC NEAR				; DESTROY_CAM, COMDAT

; Begin code for function: ?DESTROY_CAM@@YAXK_N@Z
; Line 1099
	mflr         r12
	stw          r12,-8(r1)
	stwu         r1,-60h(r1)
.endprolog
$M104321:
	stw          r3,camera$(r1)		; 116 (74h)
	stb          r4,destroy$(r1)		; 127 (7Fh)
; Line 1100
	lbz          r6,destroy$(r1)		; 127 (7Fh)
	lwz          r5,camera$(r1)		; 116 (74h)
	li           r4,2
	lis          r11,-15469		; 0C393h
	ori          r3,r11,701		; 2BDh
	bl           ??$_CALL_NATIVE@K@@YAKKKZZ
; Line 1101
	addi         r1,r1,96		; 60h
	lwz          r12,-8(r1)
	mtlr         r12
	blr
$M104322:
; End code for function: ?DESTROY_CAM@@YAXK_N@Z
?DESTROY_CAM@@YAXK_N@Z ENDP
							; DESTROY_CAM
PUBLIC	?CREATE_CAM@@YAKPAD_N@Z				; CREATE_CAM
;	COMDAT .pdata
.pdata	SEGMENT
$T104329 DD	?CREATE_CAM@@YAKPAD_N@Z
	DD	040000f03H
; Function compile flags: /Odtu

	.code

?CREATE_CAM@@YAKPAD_N@Z	PROC NEAR			; CREATE_CAM, COMDAT

; Begin code for function: ?CREATE_CAM@@YAKPAD_N@Z
; Line 1095
	mflr         r12
	stw          r12,-8(r1)
	stwu         r1,-60h(r1)
.endprolog
$M104327:
	stw          r3,cameraName$(r1)		; 116 (74h)
	stb          r4,unk1$(r1)		; 127 (7Fh)
; Line 1096
	lbz          r6,unk1$(r1)		; 127 (7Fh)
	lwz          r5,cameraName$(r1)		; 116 (74h)
	li           r4,2
	lis          r11,-5697		; 0E9BFh
	ori          r3,r11,10877		; 2A7Dh
	bl           ??$_CALL_NATIVE@K@@YAKKKZZ
; Line 1097
	addi         r1,r1,96		; 60h
	lwz          r12,-8(r1)
	mtlr         r12
	blr
$M104328:
; End code for function: ?CREATE_CAM@@YAKPAD_N@Z
?CREATE_CAM@@YAKPAD_N@Z ENDP
							; CREATE_CAM
PUBLIC	?RENDER_SCRIPT_CAMS@@YAX_N0K00@Z		; RENDER_SCRIPT_CAMS
;	COMDAT .pdata
.pdata	SEGMENT
$T104335 DD	?RENDER_SCRIPT_CAMS@@YAX_N0K00@Z
	DD	040001503H
; Function compile flags: /Odtu

	.code

?RENDER_SCRIPT_CAMS@@YAX_N0K00@Z PROC NEAR		; RENDER_SCRIPT_CAMS, COMDAT

; Begin code for function: ?RENDER_SCRIPT_CAMS@@YAX_N0K00@Z
; Line 1091
	mflr         r12
	stw          r12,-8(r1)
	stwu         r1,-60h(r1)
.endprolog
$M104333:
	stb          r3,render$(r1)		; 119 (77h)
	stb          r4,unk1$(r1)		; 127 (7Fh)
	stw          r5,unk2$(r1)		; 132 (84h)
	stb          r6,unk3$(r1)		; 143 (8Fh)
	stb          r7,unk4$(r1)		; 151 (97h)
; Line 1092
	lbz          r9,unk4$(r1)		; 151 (97h)
	lbz          r8,unk3$(r1)		; 143 (8Fh)
	lwz          r7,unk2$(r1)		; 132 (84h)
	lbz          r6,unk1$(r1)		; 127 (7Fh)
	lbz          r5,render$(r1)		; 119 (77h)
	li           r4,5
	lis          r11,29747		; 7433h
	ori          r3,r11,31081		; 7969h
	bl           ??$_CALL_NATIVE@K@@YAKKKZZ
; Line 1093
	addi         r1,r1,96		; 60h
	lwz          r12,-8(r1)
	mtlr         r12
	blr
$M104334:
; End code for function: ?RENDER_SCRIPT_CAMS@@YAX_N0K00@Z
?RENDER_SCRIPT_CAMS@@YAX_N0K00@Z ENDP
							; RENDER_SCRIPT_CAMS
PUBLIC	?DISABLE_PED_PAIN_AUDIO@@YAXK_N@Z		; DISABLE_PED_PAIN_AUDIO
;	COMDAT .pdata
.pdata	SEGMENT
$T104341 DD	?DISABLE_PED_PAIN_AUDIO@@YAXK_N@Z
	DD	040000f03H
; Function compile flags: /Odtu

	.code

?DISABLE_PED_PAIN_AUDIO@@YAXK_N@Z PROC NEAR		; DISABLE_PED_PAIN_AUDIO, COMDAT

; Begin code for function: ?DISABLE_PED_PAIN_AUDIO@@YAXK_N@Z
; Line 1086
	mflr         r12
	stw          r12,-8(r1)
	stwu         r1,-60h(r1)
.endprolog
$M104339:
	stw          r3,ped$(r1)		; 116 (74h)
	stb          r4,disable$(r1)		; 127 (7Fh)
; Line 1087
	lbz          r6,disable$(r1)		; 127 (7Fh)
	lwz          r5,ped$(r1)		; 116 (74h)
	li           r4,2
	lis          r11,15246		; 3B8Eh
	ori          r3,r11,11615		; 2D5Fh
	bl           ??$_CALL_NATIVE@K@@YAKKKZZ
; Line 1088
	addi         r1,r1,96		; 60h
	lwz          r12,-8(r1)
	mtlr         r12
	blr
$M104340:
; End code for function: ?DISABLE_PED_PAIN_AUDIO@@YAXK_N@Z
?DISABLE_PED_PAIN_AUDIO@@YAXK_N@Z ENDP
							; DISABLE_PED_PAIN_AUDIO
PUBLIC	?STOP_PED_SPEAKING@@YAXK_N@Z			; STOP_PED_SPEAKING
;	COMDAT .pdata
.pdata	SEGMENT
$T104347 DD	?STOP_PED_SPEAKING@@YAXK_N@Z
	DD	040000f03H
; Function compile flags: /Odtu

	.code

?STOP_PED_SPEAKING@@YAXK_N@Z PROC NEAR			; STOP_PED_SPEAKING, COMDAT

; Begin code for function: ?STOP_PED_SPEAKING@@YAXK_N@Z
; Line 1082
	mflr         r12
	stw          r12,-8(r1)
	stwu         r1,-60h(r1)
.endprolog
$M104345:
	stw          r3,ped$(r1)		; 116 (74h)
	stb          r4,speaking$(r1)		; 127 (7Fh)
; Line 1083
	lbz          r6,speaking$(r1)		; 127 (7Fh)
	lwz          r5,ped$(r1)		; 116 (74h)
	li           r4,2
	lis          r11,-110		; 0FF92h
	ori          r3,r11,46237		; 0B49Dh
	bl           ??$_CALL_NATIVE@K@@YAKKKZZ
; Line 1084
	addi         r1,r1,96		; 60h
	lwz          r12,-8(r1)
	mtlr         r12
	blr
$M104346:
; End code for function: ?STOP_PED_SPEAKING@@YAXK_N@Z
?STOP_PED_SPEAKING@@YAXK_N@Z ENDP
							; STOP_PED_SPEAKING
PUBLIC	?SET_SUPER_JUMP_THIS_FRAME@@YAXK@Z		; SET_SUPER_JUMP_THIS_FRAME
;	COMDAT .pdata
.pdata	SEGMENT
$T104353 DD	?SET_SUPER_JUMP_THIS_FRAME@@YAXK@Z
	DD	040000d03H
; Function compile flags: /Odtu

	.code

?SET_SUPER_JUMP_THIS_FRAME@@YAXK@Z PROC NEAR		; SET_SUPER_JUMP_THIS_FRAME, COMDAT

; Begin code for function: ?SET_SUPER_JUMP_THIS_FRAME@@YAXK@Z
; Line 1077
	mflr         r12
	stw          r12,-8(r1)
	stwu         r1,-60h(r1)
.endprolog
$M104351:
	stw          r3,player$(r1)		; 116 (74h)
; Line 1078
	lwz          r5,player$(r1)		; 116 (74h)
	li           r4,1
	lis          r11,-31116		; 8674h
	ori          r3,r11,24307		; 5EF3h
	bl           ??$_CALL_NATIVE@K@@YAKKKZZ
; Line 1079
	addi         r1,r1,96		; 60h
	lwz          r12,-8(r1)
	mtlr         r12
	blr
$M104352:
; End code for function: ?SET_SUPER_JUMP_THIS_FRAME@@YAXK@Z
?SET_SUPER_JUMP_THIS_FRAME@@YAXK@Z ENDP
							; SET_SUPER_JUMP_THIS_FRAME
PUBLIC	?SET_EXPLOSIVE_MELEE_THIS_FRAME@@YAXK@Z		; SET_EXPLOSIVE_MELEE_THIS_FRAME
;	COMDAT .pdata
.pdata	SEGMENT
$T104359 DD	?SET_EXPLOSIVE_MELEE_THIS_FRAME@@YAXK@Z
	DD	040000d03H
; Function compile flags: /Odtu

	.code

?SET_EXPLOSIVE_MELEE_THIS_FRAME@@YAXK@Z	PROC NEAR	; SET_EXPLOSIVE_MELEE_THIS_FRAME, COMDAT

; Begin code for function: ?SET_EXPLOSIVE_MELEE_THIS_FRAME@@YAXK@Z
; Line 1073
	mflr         r12
	stw          r12,-8(r1)
	stwu         r1,-60h(r1)
.endprolog
$M104357:
	stw          r3,player$(r1)		; 116 (74h)
; Line 1074
	lwz          r5,player$(r1)		; 116 (74h)
	li           r4,1
	lis          r11,-27034		; 9666h
	ori          r3,r11,15702		; 3D56h
	bl           ??$_CALL_NATIVE@K@@YAKKKZZ
; Line 1075
	addi         r1,r1,96		; 60h
	lwz          r12,-8(r1)
	mtlr         r12
	blr
$M104358:
; End code for function: ?SET_EXPLOSIVE_MELEE_THIS_FRAME@@YAXK@Z
?SET_EXPLOSIVE_MELEE_THIS_FRAME@@YAXK@Z ENDP
							; SET_EXPLOSIVE_MELEE_THIS_FRAME
PUBLIC	?SET_FIRE_AMMO_THIS_FRAME@@YAXK@Z		; SET_FIRE_AMMO_THIS_FRAME
;	COMDAT .pdata
.pdata	SEGMENT
$T104365 DD	?SET_FIRE_AMMO_THIS_FRAME@@YAXK@Z
	DD	040000d03H
; Function compile flags: /Odtu

	.code

?SET_FIRE_AMMO_THIS_FRAME@@YAXK@Z PROC NEAR		; SET_FIRE_AMMO_THIS_FRAME, COMDAT

; Begin code for function: ?SET_FIRE_AMMO_THIS_FRAME@@YAXK@Z
; Line 1069
	mflr         r12
	stw          r12,-8(r1)
	stwu         r1,-60h(r1)
.endprolog
$M104363:
	stw          r3,player$(r1)		; 116 (74h)
; Line 1070
	lwz          r5,player$(r1)		; 116 (74h)
	li           r4,1
	lis          r11,31768		; 7C18h
	ori          r3,r11,64650		; 0FC8Ah
	bl           ??$_CALL_NATIVE@K@@YAKKKZZ
; Line 1071
	addi         r1,r1,96		; 60h
	lwz          r12,-8(r1)
	mtlr         r12
	blr
$M104364:
; End code for function: ?SET_FIRE_AMMO_THIS_FRAME@@YAXK@Z
?SET_FIRE_AMMO_THIS_FRAME@@YAXK@Z ENDP
							; SET_FIRE_AMMO_THIS_FRAME
PUBLIC	?SET_EXPLOSIVE_AMMO_THIS_FRAME@@YAXK@Z		; SET_EXPLOSIVE_AMMO_THIS_FRAME
;	COMDAT .pdata
.pdata	SEGMENT
$T104371 DD	?SET_EXPLOSIVE_AMMO_THIS_FRAME@@YAXK@Z
	DD	040000d03H
; Function compile flags: /Odtu

	.code

?SET_EXPLOSIVE_AMMO_THIS_FRAME@@YAXK@Z PROC NEAR		; SET_EXPLOSIVE_AMMO_THIS_FRAME, COMDAT

; Begin code for function: ?SET_EXPLOSIVE_AMMO_THIS_FRAME@@YAXK@Z
; Line 1065
	mflr         r12
	stw          r12,-8(r1)
	stwu         r1,-60h(r1)
.endprolog
$M104369:
	stw          r3,player$(r1)		; 116 (74h)
; Line 1066
	lwz          r5,player$(r1)		; 116 (74h)
	li           r4,1
	lis          r11,11951		; 2EAFh
	ori          r3,r11,41425		; 0A1D1h
	bl           ??$_CALL_NATIVE@K@@YAKKKZZ
; Line 1067
	addi         r1,r1,96		; 60h
	lwz          r12,-8(r1)
	mtlr         r12
	blr
$M104370:
; End code for function: ?SET_EXPLOSIVE_AMMO_THIS_FRAME@@YAXK@Z
?SET_EXPLOSIVE_AMMO_THIS_FRAME@@YAXK@Z ENDP
							; SET_EXPLOSIVE_AMMO_THIS_FRAME
PUBLIC	?SET_GRAVITY_LEVEL@@YAXM@Z			; SET_GRAVITY_LEVEL
;	COMDAT .pdata
.pdata	SEGMENT
$T104377 DD	?SET_GRAVITY_LEVEL@@YAXM@Z
	DD	040000d03H
; Function compile flags: /Odtu

	.code

?SET_GRAVITY_LEVEL@@YAXM@Z PROC NEAR			; SET_GRAVITY_LEVEL, COMDAT

; Begin code for function: ?SET_GRAVITY_LEVEL@@YAXM@Z
; Line 1061
	mflr         r12
	stw          r12,-8(r1)
	stwu         r1,-60h(r1)
.endprolog
$M104375:
	stfs         fr1,gravityLevel$(r1)		; 116 (74h)
; Line 1062
	lwz          r5,gravityLevel$(r1)		; 116 (74h)
	li           r4,1
	lis          r11,11651		; 2D83h
	ori          r3,r11,16202		; 3F4Ah
	bl           ??$_CALL_NATIVE@K@@YAKKKZZ
; Line 1063
	addi         r1,r1,96		; 60h
	lwz          r12,-8(r1)
	mtlr         r12
	blr
$M104376:
; End code for function: ?SET_GRAVITY_LEVEL@@YAXM@Z
?SET_GRAVITY_LEVEL@@YAXM@Z ENDP
							; SET_GRAVITY_LEVEL
PUBLIC	?SHOOT_SINGLE_BULLET_BETWEEN_COORDS@@YAXMMMMMMK_NKK00M@Z ; SHOOT_SINGLE_BULLET_BETWEEN_COORDS
;	COMDAT .pdata
.pdata	SEGMENT
$T104383 DD	?SHOOT_SINGLE_BULLET_BETWEEN_COORDS@@YAXMMMMMMK_NKK00M@Z
	DD	040002803H
; Function compile flags: /Odtu

	.code

?SHOOT_SINGLE_BULLET_BETWEEN_COORDS@@YAXMMMMMMK_NKK00M@Z PROC NEAR ; SHOOT_SINGLE_BULLET_BETWEEN_COORDS, COMDAT

; Begin code for function: ?SHOOT_SINGLE_BULLET_BETWEEN_COORDS@@YAXMMMMMMK_NKK00M@Z
; Line 1057
	mflr         r12
	stw          r12,-8(r1)
	stwu         r1,-90h(r1)
.endprolog
$M104381:
	stfs         fr1,x1$(r1)		; 164 (0A4h)
	stfs         fr2,y1$(r1)		; 172 (0ACh)
	stfs         fr3,z1$(r1)		; 180 (0B4h)
	stfs         fr4,x2$(r1)		; 188 (0BCh)
	stfs         fr5,y2$(r1)		; 196 (0C4h)
	stfs         fr6,z2$(r1)		; 204 (0CCh)
	stw          r9,damage$(r1)		; 212 (0D4h)
	stb          r10,unk1$(r1)		; 223 (0DFh)
	stfs         fr7,speed$(r1)		; 260 (104h)
; Line 1058
	lwz          r11,speed$(r1)		; 260 (104h)
	stw          r11,84h(r1)
	lbz          r10,unk2$(r1)		; 255 (0FFh)
	stw          r10,7Ch(r1)
	lbz          r9,audible$(r1)		; 247 (0F7h)
	stw          r9,74h(r1)
	lwz          r8,ped$(r1)		; 236 (0ECh)
	stw          r8,6Ch(r1)
	lwz          r7,weapon$(r1)		; 228 (0E4h)
	stw          r7,64h(r1)
	lbz          r6,unk1$(r1)		; 223 (0DFh)
	stw          r6,5Ch(r1)
	lwz          r5,damage$(r1)		; 212 (0D4h)
	stw          r5,54h(r1)
	lwz          r10,z2$(r1)		; 204 (0CCh)
	lwz          r9,y2$(r1)		; 196 (0C4h)
	lwz          r8,x2$(r1)		; 188 (0BCh)
	lwz          r7,z1$(r1)		; 180 (0B4h)
	lwz          r6,y1$(r1)		; 172 (0ACh)
	lwz          r5,x1$(r1)		; 164 (0A4h)
	li           r4,13		; 0Dh
	lis          r3,-13452		; 0CB74h
	ori          r3,r3,5548		; 15ACh
	bl           ??$_CALL_NATIVE@K@@YAKKKZZ
; Line 1059
	addi         r1,r1,144		; 90h
	lwz          r12,-8(r1)
	mtlr         r12
	blr
$M104382:
; End code for function: ?SHOOT_SINGLE_BULLET_BETWEEN_COORDS@@YAXMMMMMMK_NKK00M@Z
?SHOOT_SINGLE_BULLET_BETWEEN_COORDS@@YAXMMMMMMK_NKK00M@Z ENDP
							; SHOOT_SINGLE_BULLET_BETWEEN_COORDS
PUBLIC	?GET_GROUND_Z_FOR_3D_COORD@@YAMMMM@Z		; GET_GROUND_Z_FOR_3D_COORD
;	COMDAT .pdata
.pdata	SEGMENT
$T104389 DD	?GET_GROUND_Z_FOR_3D_COORD@@YAMMMM@Z
	DD	040001303H
; Function compile flags: /Odtu

	.code
ret$ = 80						; size = 4

?GET_GROUND_Z_FOR_3D_COORD@@YAMMMM@Z PROC NEAR		; GET_GROUND_Z_FOR_3D_COORD, COMDAT

; Begin code for function: ?GET_GROUND_Z_FOR_3D_COORD@@YAMMMM@Z
; Line 1028
	mflr         r12
	stw          r12,-8(r1)
	stwu         r1,-60h(r1)
.endprolog
$M104387:
	stfs         fr1,x$(r1)		; 116 (74h)
	stfs         fr2,y$(r1)		; 124 (7Ch)
	stfs         fr3,z$(r1)		; 132 (84h)
; Line 1030
	addi         r8,r1,ret$
	lwz          r7,z$(r1)		; 132 (84h)
	lwz          r6,y$(r1)		; 124 (7Ch)
	lwz          r5,x$(r1)		; 116 (74h)
	li           r4,4
	lis          r11,-24129		; 0A1BFh
	ori          r3,r11,54752		; 0D5E0h
	bl           ??$_CALL_NATIVE@K@@YAKKKZZ
; Line 1031
	lfs          fr1,ret$(r1)		; 80 (50h)
; Line 1032
	addi         r1,r1,96		; 60h
	lwz          r12,-8(r1)
	mtlr         r12
	blr
$M104388:
; End code for function: ?GET_GROUND_Z_FOR_3D_COORD@@YAMMMM@Z
?GET_GROUND_Z_FOR_3D_COORD@@YAMMMM@Z ENDP
							; GET_GROUND_Z_FOR_3D_COORD
PUBLIC	?GET_RANDOM_INT_IN_RANGE@@YAKKK@Z		; GET_RANDOM_INT_IN_RANGE
;	COMDAT .pdata
.pdata	SEGMENT
$T104395 DD	?GET_RANDOM_INT_IN_RANGE@@YAKKK@Z
	DD	040000f03H
; Function compile flags: /Odtu

	.code

?GET_RANDOM_INT_IN_RANGE@@YAKKK@Z PROC NEAR		; GET_RANDOM_INT_IN_RANGE, COMDAT

; Begin code for function: ?GET_RANDOM_INT_IN_RANGE@@YAKKK@Z
; Line 1024
	mflr         r12
	stw          r12,-8(r1)
	stwu         r1,-60h(r1)
.endprolog
$M104393:
	stw          r3,start$(r1)		; 116 (74h)
	stw          r4,end$(r1)		; 124 (7Ch)
; Line 1025
	lwz          r6,end$(r1)		; 124 (7Ch)
	lwz          r5,start$(r1)		; 116 (74h)
	li           r4,2
	lis          r11,16465		; 4051h
	ori          r3,r11,4443		; 115Bh
	bl           ??$_CALL_NATIVE@K@@YAKKKZZ
; Line 1026
	addi         r1,r1,96		; 60h
	lwz          r12,-8(r1)
	mtlr         r12
	blr
$M104394:
; End code for function: ?GET_RANDOM_INT_IN_RANGE@@YAKKK@Z
?GET_RANDOM_INT_IN_RANGE@@YAKKK@Z ENDP
							; GET_RANDOM_INT_IN_RANGE
PUBLIC	?GET_FRAME_TIME@@YAMXZ				; GET_FRAME_TIME
;	COMDAT .pdata
.pdata	SEGMENT
$T104401 DD	?GET_FRAME_TIME@@YAMXZ
	DD	040000b03H
; Function compile flags: /Odtu

	.code

?GET_FRAME_TIME@@YAMXZ PROC NEAR				; GET_FRAME_TIME, COMDAT

; Begin code for function: ?GET_FRAME_TIME@@YAMXZ
; Line 1020
	mflr         r12
	stw          r12,-8(r1)
	stwu         r1,-60h(r1)
.endprolog
$M104399:
; Line 1021
	li           r4,0
	lis          r11,-27081		; 9637h
	ori          r3,r11,16994		; 4262h
	bl           ??$_CALL_NATIVE@M@@YAMKKZZ
; Line 1022
	addi         r1,r1,96		; 60h
	lwz          r12,-8(r1)
	mtlr         r12
	blr
$M104400:
; End code for function: ?GET_FRAME_TIME@@YAMXZ
?GET_FRAME_TIME@@YAMXZ ENDP
							; GET_FRAME_TIME
PUBLIC	?SET_OVERRIDE_WEATHER@@YAXPAD@Z			; SET_OVERRIDE_WEATHER
;	COMDAT .pdata
.pdata	SEGMENT
$T104407 DD	?SET_OVERRIDE_WEATHER@@YAXPAD@Z
	DD	040000d03H
; Function compile flags: /Odtu

	.code

?SET_OVERRIDE_WEATHER@@YAXPAD@Z	PROC NEAR		; SET_OVERRIDE_WEATHER, COMDAT

; Begin code for function: ?SET_OVERRIDE_WEATHER@@YAXPAD@Z
; Line 1016
	mflr         r12
	stw          r12,-8(r1)
	stwu         r1,-60h(r1)
.endprolog
$M104405:
	stw          r3,weather$(r1)		; 116 (74h)
; Line 1017
	lwz          r5,weather$(r1)		; 116 (74h)
	li           r4,1
	lis          r11,-9976		; 0D908h
	ori          r3,r11,11189		; 2BB5h
	bl           ??$_CALL_NATIVE@K@@YAKKKZZ
; Line 1018
	addi         r1,r1,96		; 60h
	lwz          r12,-8(r1)
	mtlr         r12
	blr
$M104406:
; End code for function: ?SET_OVERRIDE_WEATHER@@YAXPAD@Z
?SET_OVERRIDE_WEATHER@@YAXPAD@Z ENDP
							; SET_OVERRIDE_WEATHER
PUBLIC	?SET_TIME_SCALE@@YAXM@Z				; SET_TIME_SCALE
;	COMDAT .pdata
.pdata	SEGMENT
$T104413 DD	?SET_TIME_SCALE@@YAXM@Z
	DD	040000d03H
; Function compile flags: /Odtu

	.code

?SET_TIME_SCALE@@YAXM@Z	PROC NEAR			; SET_TIME_SCALE, COMDAT

; Begin code for function: ?SET_TIME_SCALE@@YAXM@Z
; Line 1012
	mflr         r12
	stw          r12,-8(r1)
	stwu         r1,-60h(r1)
.endprolog
$M104411:
	stfs         fr1,timescale$(r1)		; 116 (74h)
; Line 1013
	lwz          r5,timescale$(r1)		; 116 (74h)
	li           r4,1
	lis          r11,-22536		; 0A7F8h
	ori          r3,r11,18068		; 4694h
	bl           ??$_CALL_NATIVE@K@@YAKKKZZ
; Line 1014
	addi         r1,r1,96		; 60h
	lwz          r12,-8(r1)
	mtlr         r12
	blr
$M104412:
; End code for function: ?SET_TIME_SCALE@@YAXM@Z
?SET_TIME_SCALE@@YAXM@Z ENDP
							; SET_TIME_SCALE
PUBLIC	?TASK_ARREST_PED@@YAXKK@Z			; TASK_ARREST_PED
;	COMDAT .pdata
.pdata	SEGMENT
$T104419 DD	?TASK_ARREST_PED@@YAXKK@Z
	DD	040000f03H
; Function compile flags: /Odtu

	.code

?TASK_ARREST_PED@@YAXKK@Z PROC NEAR			; TASK_ARREST_PED, COMDAT

; Begin code for function: ?TASK_ARREST_PED@@YAXKK@Z
; Line 1007
	mflr         r12
	stw          r12,-8(r1)
	stwu         r1,-60h(r1)
.endprolog
$M104417:
	stw          r3,ped$(r1)		; 116 (74h)
	stw          r4,target$(r1)		; 124 (7Ch)
; Line 1008
	lwz          r6,target$(r1)		; 124 (7Ch)
	lwz          r5,ped$(r1)		; 116 (74h)
	li           r4,2
	lis          r11,-17393		; 0BC0Fh
	ori          r3,r11,5437		; 153Dh
	bl           ??$_CALL_NATIVE@K@@YAKKKZZ
; Line 1009
	addi         r1,r1,96		; 60h
	lwz          r12,-8(r1)
	mtlr         r12
	blr
$M104418:
; End code for function: ?TASK_ARREST_PED@@YAXKK@Z
?TASK_ARREST_PED@@YAXKK@Z ENDP
							; TASK_ARREST_PED
PUBLIC	?CLEAR_PED_TASKS_IMMEDIATELY@@YAXK@Z		; CLEAR_PED_TASKS_IMMEDIATELY
;	COMDAT .pdata
.pdata	SEGMENT
$T104425 DD	?CLEAR_PED_TASKS_IMMEDIATELY@@YAXK@Z
	DD	040000d03H
; Function compile flags: /Odtu

	.code

?CLEAR_PED_TASKS_IMMEDIATELY@@YAXK@Z PROC NEAR		; CLEAR_PED_TASKS_IMMEDIATELY, COMDAT

; Begin code for function: ?CLEAR_PED_TASKS_IMMEDIATELY@@YAXK@Z
; Line 1003
	mflr         r12
	stw          r12,-8(r1)
	stwu         r1,-60h(r1)
.endprolog
$M104423:
	stw          r3,ped$(r1)		; 116 (74h)
; Line 1004
	lwz          r5,ped$(r1)		; 116 (74h)
	li           r4,1
	lis          r11,-17404		; 0BC04h
	ori          r3,r11,22053		; 5625h
	bl           ??$_CALL_NATIVE@K@@YAKKKZZ
; Line 1005
	addi         r1,r1,96		; 60h
	lwz          r12,-8(r1)
	mtlr         r12
	blr
$M104424:
; End code for function: ?CLEAR_PED_TASKS_IMMEDIATELY@@YAXK@Z
?CLEAR_PED_TASKS_IMMEDIATELY@@YAXK@Z ENDP
							; CLEAR_PED_TASKS_IMMEDIATELY
PUBLIC	?CLEAR_PED_TASKS@@YAXK@Z			; CLEAR_PED_TASKS
;	COMDAT .pdata
.pdata	SEGMENT
$T104431 DD	?CLEAR_PED_TASKS@@YAXK@Z
	DD	040000d03H
; Function compile flags: /Odtu

	.code

?CLEAR_PED_TASKS@@YAXK@Z PROC NEAR			; CLEAR_PED_TASKS, COMDAT

; Begin code for function: ?CLEAR_PED_TASKS@@YAXK@Z
; Line 999
	mflr         r12
	stw          r12,-8(r1)
	stwu         r1,-60h(r1)
.endprolog
$M104429:
	stw          r3,ped$(r1)		; 116 (74h)
; Line 1000
	lwz          r5,ped$(r1)		; 116 (74h)
	li           r4,1
	lis          r11,-8653		; 0DE33h
	ori          r3,r11,5803		; 16ABh
	bl           ??$_CALL_NATIVE@K@@YAKKKZZ
; Line 1001
	addi         r1,r1,96		; 60h
	lwz          r12,-8(r1)
	mtlr         r12
	blr
$M104430:
; End code for function: ?CLEAR_PED_TASKS@@YAXK@Z
?CLEAR_PED_TASKS@@YAXK@Z ENDP
							; CLEAR_PED_TASKS
PUBLIC	?TASK_FOLLOW_NAV_MESH_TO_COORD@@YAXKMMMMKMKM@Z	; TASK_FOLLOW_NAV_MESH_TO_COORD
;	COMDAT .pdata
.pdata	SEGMENT
$T104437 DD	?TASK_FOLLOW_NAV_MESH_TO_COORD@@YAXKMMMMKMKM@Z
	DD	040002003H
; Function compile flags: /Odtu

	.code

?TASK_FOLLOW_NAV_MESH_TO_COORD@@YAXKMMMMKMKM@Z PROC NEAR	; TASK_FOLLOW_NAV_MESH_TO_COORD, COMDAT

; Begin code for function: ?TASK_FOLLOW_NAV_MESH_TO_COORD@@YAXKMMMMKMKM@Z
; Line 991
	mflr         r12
	stw          r12,-8(r1)
	stwu         r1,-70h(r1)
.endprolog
$M104435:
	stw          r3,ped$(r1)		; 132 (84h)
	stfs         fr1,x$(r1)		; 140 (8Ch)
	stfs         fr2,y$(r1)		; 148 (94h)
	stfs         fr3,z$(r1)		; 156 (9Ch)
	stfs         fr4,speed$(r1)		; 164 (0A4h)
	stw          r8,timeout$(r1)		; 172 (0ACh)
	stfs         fr5,unk1$(r1)		; 180 (0B4h)
	stw          r10,unk2$(r1)		; 188 (0BCh)
	stfs         fr6,unk3$(r1)		; 196 (0C4h)
; Line 992
	lwz          r11,unk3$(r1)		; 196 (0C4h)
	stw          r11,64h(r1)
	lwz          r10,unk2$(r1)		; 188 (0BCh)
	stw          r10,5Ch(r1)
	lwz          r9,unk1$(r1)		; 180 (0B4h)
	stw          r9,54h(r1)
	lwz          r10,timeout$(r1)		; 172 (0ACh)
	lwz          r9,speed$(r1)		; 164 (0A4h)
	lwz          r8,z$(r1)		; 156 (9Ch)
	lwz          r7,y$(r1)		; 148 (94h)
	lwz          r6,x$(r1)		; 140 (8Ch)
	lwz          r5,ped$(r1)		; 132 (84h)
	li           r4,9
	lis          r3,-438		; 0FE4Ah
	ori          r3,r3,4313		; 10D9h
	bl           ??$_CALL_NATIVE@K@@YAKKKZZ
; Line 993
	addi         r1,r1,112		; 70h
	lwz          r12,-8(r1)
	mtlr         r12
	blr
$M104436:
; End code for function: ?TASK_FOLLOW_NAV_MESH_TO_COORD@@YAXKMMMMKMKM@Z
?TASK_FOLLOW_NAV_MESH_TO_COORD@@YAXKMMMMKMKM@Z ENDP
							; TASK_FOLLOW_NAV_MESH_TO_COORD
PUBLIC	?TASK_PARACHUTE_TO_TARGET@@YAXKMMM@Z		; TASK_PARACHUTE_TO_TARGET
;	COMDAT .pdata
.pdata	SEGMENT
$T104443 DD	?TASK_PARACHUTE_TO_TARGET@@YAXKMMM@Z
	DD	040001303H
; Function compile flags: /Odtu

	.code

?TASK_PARACHUTE_TO_TARGET@@YAXKMMM@Z PROC NEAR		; TASK_PARACHUTE_TO_TARGET, COMDAT

; Begin code for function: ?TASK_PARACHUTE_TO_TARGET@@YAXKMMM@Z
; Line 987
	mflr         r12
	stw          r12,-8(r1)
	stwu         r1,-60h(r1)
.endprolog
$M104441:
	stw          r3,ped$(r1)		; 116 (74h)
	stfs         fr1,x$(r1)		; 124 (7Ch)
	stfs         fr2,y$(r1)		; 132 (84h)
	stfs         fr3,z$(r1)		; 140 (8Ch)
; Line 988
	lwz          r8,z$(r1)		; 140 (8Ch)
	lwz          r7,y$(r1)		; 132 (84h)
	lwz          r6,x$(r1)		; 124 (7Ch)
	lwz          r5,ped$(r1)		; 116 (74h)
	li           r4,4
	lis          r11,-8176		; 0E010h
	ori          r3,r11,19820		; 4D6Ch
	bl           ??$_CALL_NATIVE@K@@YAKKKZZ
; Line 989
	addi         r1,r1,96		; 60h
	lwz          r12,-8(r1)
	mtlr         r12
	blr
$M104442:
; End code for function: ?TASK_PARACHUTE_TO_TARGET@@YAXKMMM@Z
?TASK_PARACHUTE_TO_TARGET@@YAXKMMM@Z ENDP
							; TASK_PARACHUTE_TO_TARGET
PUBLIC	?TASK_PARACHUTE@@YAXK_N@Z			; TASK_PARACHUTE
;	COMDAT .pdata
.pdata	SEGMENT
$T104449 DD	?TASK_PARACHUTE@@YAXK_N@Z
	DD	040000f03H
; Function compile flags: /Odtu

	.code

?TASK_PARACHUTE@@YAXK_N@Z PROC NEAR			; TASK_PARACHUTE, COMDAT

; Begin code for function: ?TASK_PARACHUTE@@YAXK_N@Z
; Line 983
	mflr         r12
	stw          r12,-8(r1)
	stwu         r1,-60h(r1)
.endprolog
$M104447:
	stw          r3,ped$(r1)		; 116 (74h)
	stb          r4,unk1$(r1)		; 127 (7Fh)
; Line 984
	lbz          r6,unk1$(r1)		; 127 (7Fh)
	lwz          r5,ped$(r1)		; 116 (74h)
	li           r4,2
	lis          r11,-5072		; 0EC30h
	ori          r3,r11,24738		; 60A2h
	bl           ??$_CALL_NATIVE@K@@YAKKKZZ
; Line 985
	addi         r1,r1,96		; 60h
	lwz          r12,-8(r1)
	mtlr         r12
	blr
$M104448:
; End code for function: ?TASK_PARACHUTE@@YAXK_N@Z
?TASK_PARACHUTE@@YAXK_N@Z ENDP
							; TASK_PARACHUTE
PUBLIC	?CREATE_AMBIENT_PICKUP@@YAXKMMM_NKK00@Z		; CREATE_AMBIENT_PICKUP
;	COMDAT .pdata
.pdata	SEGMENT
$T104455 DD	?CREATE_AMBIENT_PICKUP@@YAXKMMM_NKK00@Z
	DD	040001f03H
; Function compile flags: /Odtu

	.code

?CREATE_AMBIENT_PICKUP@@YAXKMMM_NKK00@Z	PROC NEAR	; CREATE_AMBIENT_PICKUP, COMDAT

; Begin code for function: ?CREATE_AMBIENT_PICKUP@@YAXKMMM_NKK00@Z
; Line 978
	mflr         r12
	stw          r12,-8(r1)
	stwu         r1,-70h(r1)
.endprolog
$M104453:
	stw          r3,modelHash$(r1)		; 132 (84h)
	stfs         fr1,x$(r1)		; 140 (8Ch)
	stfs         fr2,y$(r1)		; 148 (94h)
	stfs         fr3,z$(r1)		; 156 (9Ch)
	stb          r7,unk1$(r1)		; 167 (0A7h)
	stw          r8,value$(r1)		; 172 (0ACh)
	stw          r9,unk2$(r1)		; 180 (0B4h)
	stb          r10,unk3$(r1)		; 191 (0BFh)
; Line 979
	lbz          r11,unk4$(r1)		; 199 (0C7h)
	stw          r11,64h(r1)
	lbz          r10,unk3$(r1)		; 191 (0BFh)
	stw          r10,5Ch(r1)
	lwz          r9,unk2$(r1)		; 180 (0B4h)
	stw          r9,54h(r1)
	lwz          r10,value$(r1)		; 172 (0ACh)
	lbz          r9,unk1$(r1)		; 167 (0A7h)
	lwz          r8,z$(r1)		; 156 (9Ch)
	lwz          r7,y$(r1)		; 148 (94h)
	lwz          r6,x$(r1)		; 140 (8Ch)
	lwz          r5,modelHash$(r1)		; 132 (84h)
	li           r4,9
	lis          r3,6073		; 17B9h
	ori          r3,r3,40167		; 9CE7h
	bl           ??$_CALL_NATIVE@K@@YAKKKZZ
; Line 980
	addi         r1,r1,112		; 70h
	lwz          r12,-8(r1)
	mtlr         r12
	blr
$M104454:
; End code for function: ?CREATE_AMBIENT_PICKUP@@YAXKMMM_NKK00@Z
?CREATE_AMBIENT_PICKUP@@YAXKMMM_NKK00@Z ENDP
							; CREATE_AMBIENT_PICKUP
PUBLIC	?DELETE_OBJECT@@YAXK@Z				; DELETE_OBJECT
;	COMDAT .pdata
.pdata	SEGMENT
$T104461 DD	?DELETE_OBJECT@@YAXK@Z
	DD	040000d03H
; Function compile flags: /Odtu

	.code

?DELETE_OBJECT@@YAXK@Z PROC NEAR				; DELETE_OBJECT, COMDAT

; Begin code for function: ?DELETE_OBJECT@@YAXK@Z
; Line 974
	mflr         r12
	stw          r12,-8(r1)
	stwu         r1,-60h(r1)
.endprolog
$M104459:
	stw          r3,object$(r1)		; 116 (74h)
; Line 975
	addi         r5,r1,object$
	li           r4,1
	lis          r11,26049		; 65C1h
	ori          r3,r11,27991		; 6D57h
	bl           ??$_CALL_NATIVE@K@@YAKKKZZ
; Line 976
	addi         r1,r1,96		; 60h
	lwz          r12,-8(r1)
	mtlr         r12
	blr
$M104460:
; End code for function: ?DELETE_OBJECT@@YAXK@Z
?DELETE_OBJECT@@YAXK@Z ENDP
							; DELETE_OBJECT
PUBLIC	?CREATE_OBJECT@@YAKKMMM_N00@Z			; CREATE_OBJECT
;	COMDAT .pdata
.pdata	SEGMENT
$T104467 DD	?CREATE_OBJECT@@YAKKMMM_N00@Z
	DD	040001a03H
; Function compile flags: /Odtu

	.code

?CREATE_OBJECT@@YAKKMMM_N00@Z PROC NEAR			; CREATE_OBJECT, COMDAT

; Begin code for function: ?CREATE_OBJECT@@YAKKMMM_N00@Z
; Line 970
	mflr         r12
	stw          r12,-8(r1)
	stwu         r1,-60h(r1)
.endprolog
$M104465:
	stw          r3,modelHash$(r1)		; 116 (74h)
	stfs         fr1,x$(r1)		; 124 (7Ch)
	stfs         fr2,y$(r1)		; 132 (84h)
	stfs         fr3,z$(r1)		; 140 (8Ch)
	stb          r7,networkObject$(r1)		; 151 (97h)
	stb          r8,createHandle$(r1)		; 159 (9Fh)
	stb          r9,dynamic$(r1)		; 167 (0A7h)
; Line 971
	lbz          r11,dynamic$(r1)		; 167 (0A7h)
	stw          r11,54h(r1)
	lbz          r10,createHandle$(r1)		; 159 (9Fh)
	lbz          r9,networkObject$(r1)		; 151 (97h)
	lwz          r8,z$(r1)		; 140 (8Ch)
	lwz          r7,y$(r1)		; 132 (84h)
	lwz          r6,x$(r1)		; 124 (7Ch)
	lwz          r5,modelHash$(r1)		; 116 (74h)
	li           r4,7
	lis          r3,12154		; 2F7Ah
	ori          r3,r3,41052		; 0A05Ch
	bl           ??$_CALL_NATIVE@K@@YAKKKZZ
; Line 972
	addi         r1,r1,96		; 60h
	lwz          r12,-8(r1)
	mtlr         r12
	blr
$M104466:
; End code for function: ?CREATE_OBJECT@@YAKKMMM_N00@Z
?CREATE_OBJECT@@YAKKMMM_N00@Z ENDP
							; CREATE_OBJECT
PUBLIC	?SET_VEHICLE_TYRE_SMOKE_COLOR@@YAXKEEE@Z	; SET_VEHICLE_TYRE_SMOKE_COLOR
;	COMDAT .pdata
.pdata	SEGMENT
$T104473 DD	?SET_VEHICLE_TYRE_SMOKE_COLOR@@YAXKEEE@Z
	DD	040001303H
; Function compile flags: /Odtu

	.code

?SET_VEHICLE_TYRE_SMOKE_COLOR@@YAXKEEE@Z PROC NEAR	; SET_VEHICLE_TYRE_SMOKE_COLOR, COMDAT

; Begin code for function: ?SET_VEHICLE_TYRE_SMOKE_COLOR@@YAXKEEE@Z
; Line 961
	mflr         r12
	stw          r12,-8(r1)
	stwu         r1,-60h(r1)
.endprolog
$M104471:
	stw          r3,vehicle$(r1)		; 116 (74h)
	stb          r4,r$(r1)		; 127 (7Fh)
	stb          r5,g$(r1)		; 135 (87h)
	stb          r6,b$(r1)		; 143 (8Fh)
; Line 962
	lbz          r8,b$(r1)		; 143 (8Fh)
	lbz          r7,g$(r1)		; 135 (87h)
	lbz          r6,r$(r1)		; 127 (7Fh)
	lwz          r5,vehicle$(r1)		; 116 (74h)
	li           r4,4
	lis          r11,16094		; 3EDEh
	ori          r3,r11,49371		; 0C0DBh
	bl           ??$_CALL_NATIVE@K@@YAKKKZZ
; Line 963
	addi         r1,r1,96		; 60h
	lwz          r12,-8(r1)
	mtlr         r12
	blr
$M104472:
; End code for function: ?SET_VEHICLE_TYRE_SMOKE_COLOR@@YAXKEEE@Z
?SET_VEHICLE_TYRE_SMOKE_COLOR@@YAXKEEE@Z ENDP
							; SET_VEHICLE_TYRE_SMOKE_COLOR
PUBLIC	?SET_VEHICLE_REDUCE_GRIP@@YAXK_N@Z		; SET_VEHICLE_REDUCE_GRIP
;	COMDAT .pdata
.pdata	SEGMENT
$T104479 DD	?SET_VEHICLE_REDUCE_GRIP@@YAXK_N@Z
	DD	040000f03H
; Function compile flags: /Odtu

	.code

?SET_VEHICLE_REDUCE_GRIP@@YAXK_N@Z PROC NEAR		; SET_VEHICLE_REDUCE_GRIP, COMDAT

; Begin code for function: ?SET_VEHICLE_REDUCE_GRIP@@YAXK_N@Z
; Line 957
	mflr         r12
	stw          r12,-8(r1)
	stwu         r1,-60h(r1)
.endprolog
$M104477:
	stw          r3,vehicle$(r1)		; 116 (74h)
	stb          r4,reduceGrip$(r1)		; 127 (7Fh)
; Line 958
	lbz          r6,reduceGrip$(r1)		; 127 (7Fh)
	lwz          r5,vehicle$(r1)		; 116 (74h)
	li           r4,2
	lis          r11,-28461		; 90D3h
	ori          r3,r11,41177		; 0A0D9h
	bl           ??$_CALL_NATIVE@K@@YAKKKZZ
; Line 959
	addi         r1,r1,96		; 60h
	lwz          r12,-8(r1)
	mtlr         r12
	blr
$M104478:
; End code for function: ?SET_VEHICLE_REDUCE_GRIP@@YAXK_N@Z
?SET_VEHICLE_REDUCE_GRIP@@YAXK_N@Z ENDP
							; SET_VEHICLE_REDUCE_GRIP
PUBLIC	?SET_VEHICLE_BOOST_ACTIVE@@YAXK_N@Z		; SET_VEHICLE_BOOST_ACTIVE
;	COMDAT .pdata
.pdata	SEGMENT
$T104485 DD	?SET_VEHICLE_BOOST_ACTIVE@@YAXK_N@Z
	DD	040000f03H
; Function compile flags: /Odtu

	.code

?SET_VEHICLE_BOOST_ACTIVE@@YAXK_N@Z PROC NEAR		; SET_VEHICLE_BOOST_ACTIVE, COMDAT

; Begin code for function: ?SET_VEHICLE_BOOST_ACTIVE@@YAXK_N@Z
; Line 953
	mflr         r12
	stw          r12,-8(r1)
	stwu         r1,-60h(r1)
.endprolog
$M104483:
	stw          r3,vehicle$(r1)		; 116 (74h)
	stb          r4,boostActive$(r1)		; 127 (7Fh)
; Line 954
	lbz          r6,boostActive$(r1)		; 127 (7Fh)
	lwz          r5,vehicle$(r1)		; 116 (74h)
	li           r4,2
	lis          r11,1839		; 72Fh
	ori          r3,r11,5618		; 15F2h
	bl           ??$_CALL_NATIVE@K@@YAKKKZZ
; Line 955
	addi         r1,r1,96		; 60h
	lwz          r12,-8(r1)
	mtlr         r12
	blr
$M104484:
; End code for function: ?SET_VEHICLE_BOOST_ACTIVE@@YAXK_N@Z
?SET_VEHICLE_BOOST_ACTIVE@@YAXK_N@Z ENDP
							; SET_VEHICLE_BOOST_ACTIVE
PUBLIC	?SET_VEHICLE_ENGINE_HEALTH@@YAXKM@Z		; SET_VEHICLE_ENGINE_HEALTH
;	COMDAT .pdata
.pdata	SEGMENT
$T104491 DD	?SET_VEHICLE_ENGINE_HEALTH@@YAXKM@Z
	DD	040000f03H
; Function compile flags: /Odtu

	.code

?SET_VEHICLE_ENGINE_HEALTH@@YAXKM@Z PROC NEAR		; SET_VEHICLE_ENGINE_HEALTH, COMDAT

; Begin code for function: ?SET_VEHICLE_ENGINE_HEALTH@@YAXKM@Z
; Line 949
	mflr         r12
	stw          r12,-8(r1)
	stwu         r1,-60h(r1)
.endprolog
$M104489:
	stw          r3,vehicle$(r1)		; 116 (74h)
	stfs         fr1,engineHealth$(r1)		; 124 (7Ch)
; Line 950
	lwz          r6,engineHealth$(r1)		; 124 (7Ch)
	lwz          r5,vehicle$(r1)		; 116 (74h)
	li           r4,2
	lis          r11,7030		; 1B76h
	ori          r3,r11,4021		; 0FB5h
	bl           ??$_CALL_NATIVE@K@@YAKKKZZ
; Line 951
	addi         r1,r1,96		; 60h
	lwz          r12,-8(r1)
	mtlr         r12
	blr
$M104490:
; End code for function: ?SET_VEHICLE_ENGINE_HEALTH@@YAXKM@Z
?SET_VEHICLE_ENGINE_HEALTH@@YAXKM@Z ENDP
							; SET_VEHICLE_ENGINE_HEALTH
PUBLIC	?SET_VEHICLE_DEFORMATION_FIXED@@YAXK@Z		; SET_VEHICLE_DEFORMATION_FIXED
;	COMDAT .pdata
.pdata	SEGMENT
$T104497 DD	?SET_VEHICLE_DEFORMATION_FIXED@@YAXK@Z
	DD	040000d03H
; Function compile flags: /Odtu

	.code

?SET_VEHICLE_DEFORMATION_FIXED@@YAXK@Z PROC NEAR		; SET_VEHICLE_DEFORMATION_FIXED, COMDAT

; Begin code for function: ?SET_VEHICLE_DEFORMATION_FIXED@@YAXK@Z
; Line 945
	mflr         r12
	stw          r12,-8(r1)
	stwu         r1,-60h(r1)
.endprolog
$M104495:
	stw          r3,vehicle$(r1)		; 116 (74h)
; Line 946
	lwz          r5,vehicle$(r1)		; 116 (74h)
	li           r4,1
	lis          r11,-8919		; 0DD29h
	ori          r3,r11,8392		; 20C8h
	bl           ??$_CALL_NATIVE@K@@YAKKKZZ
; Line 947
	addi         r1,r1,96		; 60h
	lwz          r12,-8(r1)
	mtlr         r12
	blr
$M104496:
; End code for function: ?SET_VEHICLE_DEFORMATION_FIXED@@YAXK@Z
?SET_VEHICLE_DEFORMATION_FIXED@@YAXK@Z ENDP
							; SET_VEHICLE_DEFORMATION_FIXED
PUBLIC	?SET_VEHICLE_FIXED@@YAXK@Z			; SET_VEHICLE_FIXED
;	COMDAT .pdata
.pdata	SEGMENT
$T104503 DD	?SET_VEHICLE_FIXED@@YAXK@Z
	DD	040000d03H
; Function compile flags: /Odtu

	.code

?SET_VEHICLE_FIXED@@YAXK@Z PROC NEAR			; SET_VEHICLE_FIXED, COMDAT

; Begin code for function: ?SET_VEHICLE_FIXED@@YAXK@Z
; Line 941
	mflr         r12
	stw          r12,-8(r1)
	stwu         r1,-60h(r1)
.endprolog
$M104501:
	stw          r3,vehicle$(r1)		; 116 (74h)
; Line 942
	lwz          r5,vehicle$(r1)		; 116 (74h)
	li           r4,1
	lis          r11,5958		; 1746h
	ori          r3,r11,39585		; 9AA1h
	bl           ??$_CALL_NATIVE@K@@YAKKKZZ
; Line 943
	addi         r1,r1,96		; 60h
	lwz          r12,-8(r1)
	mtlr         r12
	blr
$M104502:
; End code for function: ?SET_VEHICLE_FIXED@@YAXK@Z
?SET_VEHICLE_FIXED@@YAXK@Z ENDP
							; SET_VEHICLE_FIXED
PUBLIC	?IS_VEHICLE_ON_ALL_WHEELS@@YA_NK@Z		; IS_VEHICLE_ON_ALL_WHEELS
;	COMDAT .pdata
.pdata	SEGMENT
$T104509 DD	?IS_VEHICLE_ON_ALL_WHEELS@@YA_NK@Z
	DD	040001003H
; Function compile flags: /Odtu

	.code

?IS_VEHICLE_ON_ALL_WHEELS@@YA_NK@Z PROC NEAR		; IS_VEHICLE_ON_ALL_WHEELS, COMDAT

; Begin code for function: ?IS_VEHICLE_ON_ALL_WHEELS@@YA_NK@Z
; Line 937
	mflr         r12
	stw          r12,-8(r1)
	stwu         r1,-60h(r1)
.endprolog
$M104507:
	stw          r3,vehicle$(r1)		; 116 (74h)
; Line 938
	lwz          r5,vehicle$(r1)		; 116 (74h)
	li           r4,1
	lis          r11,4104		; 1008h
	ori          r3,r11,40846		; 9F8Eh
	bl           ??$_CALL_NATIVE@H@@YAHKKZZ
	cntlzw       r10,r3
	rlwinm       r9,r10,27,31,31
	xori         r3,r9,1
; Line 939
	addi         r1,r1,96		; 60h
	lwz          r12,-8(r1)
	mtlr         r12
	blr
$M104508:
; End code for function: ?IS_VEHICLE_ON_ALL_WHEELS@@YA_NK@Z
?IS_VEHICLE_ON_ALL_WHEELS@@YA_NK@Z ENDP
							; IS_VEHICLE_ON_ALL_WHEELS
PUBLIC	?SET_VEHICLE_CAN_BE_VISIBLY_DAMAGED@@YAXK_N@Z	; SET_VEHICLE_CAN_BE_VISIBLY_DAMAGED
;	COMDAT .pdata
.pdata	SEGMENT
$T104515 DD	?SET_VEHICLE_CAN_BE_VISIBLY_DAMAGED@@YAXK_N@Z
	DD	040000f03H
; Function compile flags: /Odtu

	.code

?SET_VEHICLE_CAN_BE_VISIBLY_DAMAGED@@YAXK_N@Z PROC NEAR	; SET_VEHICLE_CAN_BE_VISIBLY_DAMAGED, COMDAT

; Begin code for function: ?SET_VEHICLE_CAN_BE_VISIBLY_DAMAGED@@YAXK_N@Z
; Line 933
	mflr         r12
	stw          r12,-8(r1)
	stwu         r1,-60h(r1)
.endprolog
$M104513:
	stw          r3,vehicle$(r1)		; 116 (74h)
	stb          r4,canBeVisiblyDamaged$(r1)		; 127 (7Fh)
; Line 934
	lbz          r6,canBeVisiblyDamaged$(r1)		; 127 (7Fh)
	lwz          r5,vehicle$(r1)		; 116 (74h)
	li           r4,2
	lis          r11,-14887		; 0C5D9h
	ori          r3,r11,16407		; 4017h
	bl           ??$_CALL_NATIVE@K@@YAKKKZZ
; Line 935
	addi         r1,r1,96		; 60h
	lwz          r12,-8(r1)
	mtlr         r12
	blr
$M104514:
; End code for function: ?SET_VEHICLE_CAN_BE_VISIBLY_DAMAGED@@YAXK_N@Z
?SET_VEHICLE_CAN_BE_VISIBLY_DAMAGED@@YAXK_N@Z ENDP
							; SET_VEHICLE_CAN_BE_VISIBLY_DAMAGED
PUBLIC	?SET_HELI_BLADES_FULL_SPEED@@YAXK@Z		; SET_HELI_BLADES_FULL_SPEED
;	COMDAT .pdata
.pdata	SEGMENT
$T104521 DD	?SET_HELI_BLADES_FULL_SPEED@@YAXK@Z
	DD	040000d03H
; Function compile flags: /Odtu

	.code

?SET_HELI_BLADES_FULL_SPEED@@YAXK@Z PROC NEAR		; SET_HELI_BLADES_FULL_SPEED, COMDAT

; Begin code for function: ?SET_HELI_BLADES_FULL_SPEED@@YAXK@Z
; Line 929
	mflr         r12
	stw          r12,-8(r1)
	stwu         r1,-60h(r1)
.endprolog
$M104519:
	stw          r3,vehicle$(r1)		; 116 (74h)
; Line 930
	lwz          r5,vehicle$(r1)		; 116 (74h)
	li           r4,1
	lis          r11,826		; 33Ah
	ori          r3,r11,37896		; 9408h
	bl           ??$_CALL_NATIVE@K@@YAKKKZZ
; Line 931
	addi         r1,r1,96		; 60h
	lwz          r12,-8(r1)
	mtlr         r12
	blr
$M104520:
; End code for function: ?SET_HELI_BLADES_FULL_SPEED@@YAXK@Z
?SET_HELI_BLADES_FULL_SPEED@@YAXK@Z ENDP
							; SET_HELI_BLADES_FULL_SPEED
PUBLIC	?SET_VEHICLE_ENGINE_ON@@YAXK_N0@Z		; SET_VEHICLE_ENGINE_ON
;	COMDAT .pdata
.pdata	SEGMENT
$T104527 DD	?SET_VEHICLE_ENGINE_ON@@YAXK_N0@Z
	DD	040001103H
; Function compile flags: /Odtu

	.code

?SET_VEHICLE_ENGINE_ON@@YAXK_N0@Z PROC NEAR		; SET_VEHICLE_ENGINE_ON, COMDAT

; Begin code for function: ?SET_VEHICLE_ENGINE_ON@@YAXK_N0@Z
; Line 913
	mflr         r12
	stw          r12,-8(r1)
	stwu         r1,-60h(r1)
.endprolog
$M104525:
	stw          r3,vehicle$(r1)		; 116 (74h)
	stb          r4,toggle$(r1)		; 127 (7Fh)
	stb          r5,instantly$(r1)		; 135 (87h)
; Line 914
	lbz          r7,instantly$(r1)		; 135 (87h)
	lbz          r6,toggle$(r1)		; 127 (7Fh)
	lwz          r5,vehicle$(r1)		; 116 (74h)
	li           r4,3
	lis          r11,32700		; 7FBCh
	ori          r3,r11,34545		; 86F1h
	bl           ??$_CALL_NATIVE@K@@YAKKKZZ
; Line 915
	addi         r1,r1,96		; 60h
	lwz          r12,-8(r1)
	mtlr         r12
	blr
$M104526:
; End code for function: ?SET_VEHICLE_ENGINE_ON@@YAXK_N0@Z
?SET_VEHICLE_ENGINE_ON@@YAXK_N0@Z ENDP
							; SET_VEHICLE_ENGINE_ON
PUBLIC	?SET_VEHICLE_DIRT_LEVEL@@YAXKM@Z		; SET_VEHICLE_DIRT_LEVEL
;	COMDAT .pdata
.pdata	SEGMENT
$T104533 DD	?SET_VEHICLE_DIRT_LEVEL@@YAXKM@Z
	DD	040000f03H
; Function compile flags: /Odtu

	.code

?SET_VEHICLE_DIRT_LEVEL@@YAXKM@Z PROC NEAR		; SET_VEHICLE_DIRT_LEVEL, COMDAT

; Begin code for function: ?SET_VEHICLE_DIRT_LEVEL@@YAXKM@Z
; Line 909
	mflr         r12
	stw          r12,-8(r1)
	stwu         r1,-60h(r1)
.endprolog
$M104531:
	stw          r3,vehicle$(r1)		; 116 (74h)
	stfs         fr1,dirtLevel$(r1)		; 124 (7Ch)
; Line 910
	lwz          r6,dirtLevel$(r1)		; 124 (7Ch)
	lwz          r5,vehicle$(r1)		; 116 (74h)
	li           r4,2
	lis          r11,11065		; 2B39h
	ori          r3,r11,4747		; 128Bh
	bl           ??$_CALL_NATIVE@K@@YAKKKZZ
; Line 911
	addi         r1,r1,96		; 60h
	lwz          r12,-8(r1)
	mtlr         r12
	blr
$M104532:
; End code for function: ?SET_VEHICLE_DIRT_LEVEL@@YAXKM@Z
?SET_VEHICLE_DIRT_LEVEL@@YAXKM@Z ENDP
							; SET_VEHICLE_DIRT_LEVEL
PUBLIC	?SET_VEHICLE_DOOR_OPEN@@YAXKK_N0@Z		; SET_VEHICLE_DOOR_OPEN
;	COMDAT .pdata
.pdata	SEGMENT
$T104539 DD	?SET_VEHICLE_DOOR_OPEN@@YAXKK_N0@Z
	DD	040001303H
; Function compile flags: /Odtu

	.code

?SET_VEHICLE_DOOR_OPEN@@YAXKK_N0@Z PROC NEAR		; SET_VEHICLE_DOOR_OPEN, COMDAT

; Begin code for function: ?SET_VEHICLE_DOOR_OPEN@@YAXKK_N0@Z
; Line 901
	mflr         r12
	stw          r12,-8(r1)
	stwu         r1,-60h(r1)
.endprolog
$M104537:
	stw          r3,vehicle$(r1)		; 116 (74h)
	stw          r4,doorIndex$(r1)		; 124 (7Ch)
	stb          r5,loose$(r1)		; 135 (87h)
	stb          r6,openInstantly$(r1)		; 143 (8Fh)
; Line 902
	lbz          r8,openInstantly$(r1)		; 143 (8Fh)
	lbz          r7,loose$(r1)		; 135 (87h)
	lwz          r6,doorIndex$(r1)		; 124 (7Ch)
	lwz          r5,vehicle$(r1)		; 116 (74h)
	li           r4,4
	lis          r11,-17547		; 0BB75h
	ori          r3,r11,54155		; 0D38Bh
	bl           ??$_CALL_NATIVE@K@@YAKKKZZ
; Line 903
	addi         r1,r1,96		; 60h
	lwz          r12,-8(r1)
	mtlr         r12
	blr
$M104538:
; End code for function: ?SET_VEHICLE_DOOR_OPEN@@YAXKK_N0@Z
?SET_VEHICLE_DOOR_OPEN@@YAXKK_N0@Z ENDP
							; SET_VEHICLE_DOOR_OPEN
PUBLIC	?SET_VEHICLE_TYRES_CAN_BURST@@YAXK_N@Z		; SET_VEHICLE_TYRES_CAN_BURST
;	COMDAT .pdata
.pdata	SEGMENT
$T104545 DD	?SET_VEHICLE_TYRES_CAN_BURST@@YAXK_N@Z
	DD	040000f03H
; Function compile flags: /Odtu

	.code

?SET_VEHICLE_TYRES_CAN_BURST@@YAXK_N@Z PROC NEAR		; SET_VEHICLE_TYRES_CAN_BURST, COMDAT

; Begin code for function: ?SET_VEHICLE_TYRES_CAN_BURST@@YAXK_N@Z
; Line 897
	mflr         r12
	stw          r12,-8(r1)
	stwu         r1,-60h(r1)
.endprolog
$M104543:
	stw          r3,vehicle$(r1)		; 116 (74h)
	stb          r4,tyresCanBurst$(r1)		; 127 (7Fh)
; Line 898
	lbz          r6,tyresCanBurst$(r1)		; 127 (7Fh)
	lwz          r5,vehicle$(r1)		; 116 (74h)
	li           r4,2
	lis          r11,-24168		; 0A198h
	ori          r3,r11,56148		; 0DB54h
	bl           ??$_CALL_NATIVE@K@@YAKKKZZ
; Line 899
	addi         r1,r1,96		; 60h
	lwz          r12,-8(r1)
	mtlr         r12
	blr
$M104544:
; End code for function: ?SET_VEHICLE_TYRES_CAN_BURST@@YAXK_N@Z
?SET_VEHICLE_TYRES_CAN_BURST@@YAXK_N@Z ENDP
							; SET_VEHICLE_TYRES_CAN_BURST
PUBLIC	?SET_VEHICLE_FORWARD_SPEED@@YAXKM@Z		; SET_VEHICLE_FORWARD_SPEED
;	COMDAT .pdata
.pdata	SEGMENT
$T104551 DD	?SET_VEHICLE_FORWARD_SPEED@@YAXKM@Z
	DD	040000f03H
; Function compile flags: /Odtu

	.code

?SET_VEHICLE_FORWARD_SPEED@@YAXKM@Z PROC NEAR		; SET_VEHICLE_FORWARD_SPEED, COMDAT

; Begin code for function: ?SET_VEHICLE_FORWARD_SPEED@@YAXKM@Z
; Line 893
	mflr         r12
	stw          r12,-8(r1)
	stwu         r1,-60h(r1)
.endprolog
$M104549:
	stw          r3,vehicle$(r1)		; 116 (74h)
	stfs         fr1,forwardSpeed$(r1)		; 124 (7Ch)
; Line 894
	lwz          r6,forwardSpeed$(r1)		; 124 (7Ch)
	lwz          r5,vehicle$(r1)		; 116 (74h)
	li           r4,2
	lis          r11,27016		; 6988h
	ori          r3,r11,3348		; 0D14h
	bl           ??$_CALL_NATIVE@K@@YAKKKZZ
; Line 895
	addi         r1,r1,96		; 60h
	lwz          r12,-8(r1)
	mtlr         r12
	blr
$M104550:
; End code for function: ?SET_VEHICLE_FORWARD_SPEED@@YAXKM@Z
?SET_VEHICLE_FORWARD_SPEED@@YAXKM@Z ENDP
							; SET_VEHICLE_FORWARD_SPEED
PUBLIC	?GET_PED_IN_VEHICLE_SEAT@@YAKKK@Z		; GET_PED_IN_VEHICLE_SEAT
;	COMDAT .pdata
.pdata	SEGMENT
$T104557 DD	?GET_PED_IN_VEHICLE_SEAT@@YAKKK@Z
	DD	040000f03H
; Function compile flags: /Odtu

	.code

?GET_PED_IN_VEHICLE_SEAT@@YAKKK@Z PROC NEAR		; GET_PED_IN_VEHICLE_SEAT, COMDAT

; Begin code for function: ?GET_PED_IN_VEHICLE_SEAT@@YAKKK@Z
; Line 889
	mflr         r12
	stw          r12,-8(r1)
	stwu         r1,-60h(r1)
.endprolog
$M104555:
	stw          r3,vehicle$(r1)		; 116 (74h)
	stw          r4,seatIndex$(r1)		; 124 (7Ch)
; Line 890
	lwz          r6,seatIndex$(r1)		; 124 (7Ch)
	lwz          r5,vehicle$(r1)		; 116 (74h)
	li           r4,2
	lis          r11,14479		; 388Fh
	ori          r3,r11,56986		; 0DE9Ah
	bl           ??$_CALL_NATIVE@K@@YAKKKZZ
; Line 891
	addi         r1,r1,96		; 60h
	lwz          r12,-8(r1)
	mtlr         r12
	blr
$M104556:
; End code for function: ?GET_PED_IN_VEHICLE_SEAT@@YAKKK@Z
?GET_PED_IN_VEHICLE_SEAT@@YAKKK@Z ENDP
							; GET_PED_IN_VEHICLE_SEAT
PUBLIC	?SET_VEHICLE_CUSTOM_SECONDARY_COLOUR@@YAXKEEE@Z	; SET_VEHICLE_CUSTOM_SECONDARY_COLOUR
;	COMDAT .pdata
.pdata	SEGMENT
$T104563 DD	?SET_VEHICLE_CUSTOM_SECONDARY_COLOUR@@YAXKEEE@Z
	DD	040001303H
; Function compile flags: /Odtu

	.code

?SET_VEHICLE_CUSTOM_SECONDARY_COLOUR@@YAXKEEE@Z	PROC NEAR ; SET_VEHICLE_CUSTOM_SECONDARY_COLOUR, COMDAT

; Begin code for function: ?SET_VEHICLE_CUSTOM_SECONDARY_COLOUR@@YAXKEEE@Z
; Line 885
	mflr         r12
	stw          r12,-8(r1)
	stwu         r1,-60h(r1)
.endprolog
$M104561:
	stw          r3,vehicle$(r1)		; 116 (74h)
	stb          r4,r$(r1)		; 127 (7Fh)
	stb          r5,g$(r1)		; 135 (87h)
	stb          r6,b$(r1)		; 143 (8Fh)
; Line 886
	lbz          r8,b$(r1)		; 143 (8Fh)
	lbz          r7,g$(r1)		; 135 (87h)
	lbz          r6,r$(r1)		; 127 (7Fh)
	lwz          r5,vehicle$(r1)		; 116 (74h)
	li           r4,4
	lis          r11,-25225		; 9D77h
	ori          r3,r11,9630		; 259Eh
	bl           ??$_CALL_NATIVE@K@@YAKKKZZ
; Line 887
	addi         r1,r1,96		; 60h
	lwz          r12,-8(r1)
	mtlr         r12
	blr
$M104562:
; End code for function: ?SET_VEHICLE_CUSTOM_SECONDARY_COLOUR@@YAXKEEE@Z
?SET_VEHICLE_CUSTOM_SECONDARY_COLOUR@@YAXKEEE@Z ENDP
							; SET_VEHICLE_CUSTOM_SECONDARY_COLOUR
PUBLIC	?SET_VEHICLE_CUSTOM_PRIMARY_COLOUR@@YAXKEEE@Z	; SET_VEHICLE_CUSTOM_PRIMARY_COLOUR
;	COMDAT .pdata
.pdata	SEGMENT
$T104569 DD	?SET_VEHICLE_CUSTOM_PRIMARY_COLOUR@@YAXKEEE@Z
	DD	040001303H
; Function compile flags: /Odtu

	.code

?SET_VEHICLE_CUSTOM_PRIMARY_COLOUR@@YAXKEEE@Z PROC NEAR	; SET_VEHICLE_CUSTOM_PRIMARY_COLOUR, COMDAT

; Begin code for function: ?SET_VEHICLE_CUSTOM_PRIMARY_COLOUR@@YAXKEEE@Z
; Line 881
	mflr         r12
	stw          r12,-8(r1)
	stwu         r1,-60h(r1)
.endprolog
$M104567:
	stw          r3,vehicle$(r1)		; 116 (74h)
	stb          r4,r$(r1)		; 127 (7Fh)
	stb          r5,g$(r1)		; 135 (87h)
	stb          r6,b$(r1)		; 143 (8Fh)
; Line 882
	lbz          r8,b$(r1)		; 143 (8Fh)
	lbz          r7,g$(r1)		; 135 (87h)
	lbz          r6,r$(r1)		; 127 (7Fh)
	lwz          r5,vehicle$(r1)		; 116 (74h)
	li           r4,4
	lis          r11,-29191		; 8DF9h
	ori          r3,r11,63932		; 0F9BCh
	bl           ??$_CALL_NATIVE@K@@YAKKKZZ
; Line 883
	addi         r1,r1,96		; 60h
	lwz          r12,-8(r1)
	mtlr         r12
	blr
$M104568:
; End code for function: ?SET_VEHICLE_CUSTOM_PRIMARY_COLOUR@@YAXKEEE@Z
?SET_VEHICLE_CUSTOM_PRIMARY_COLOUR@@YAXKEEE@Z ENDP
							; SET_VEHICLE_CUSTOM_PRIMARY_COLOUR
PUBLIC	?SET_VEHICLE_DOORS_LOCKED@@YAXK_N@Z		; SET_VEHICLE_DOORS_LOCKED
;	COMDAT .pdata
.pdata	SEGMENT
$T104575 DD	?SET_VEHICLE_DOORS_LOCKED@@YAXK_N@Z
	DD	040000f03H
; Function compile flags: /Odtu

	.code

?SET_VEHICLE_DOORS_LOCKED@@YAXK_N@Z PROC NEAR		; SET_VEHICLE_DOORS_LOCKED, COMDAT

; Begin code for function: ?SET_VEHICLE_DOORS_LOCKED@@YAXK_N@Z
; Line 873
	mflr         r12
	stw          r12,-8(r1)
	stwu         r1,-60h(r1)
.endprolog
$M104573:
	stw          r3,vehicle$(r1)		; 116 (74h)
	stb          r4,doorsLocked$(r1)		; 127 (7Fh)
; Line 874
	lbz          r6,doorsLocked$(r1)		; 127 (7Fh)
	lwz          r5,vehicle$(r1)		; 116 (74h)
	li           r4,2
	lis          r11,19677		; 4CDDh
	ori          r3,r11,13776		; 35D0h
	bl           ??$_CALL_NATIVE@K@@YAKKKZZ
; Line 875
	addi         r1,r1,96		; 60h
	lwz          r12,-8(r1)
	mtlr         r12
	blr
$M104574:
; End code for function: ?SET_VEHICLE_DOORS_LOCKED@@YAXK_N@Z
?SET_VEHICLE_DOORS_LOCKED@@YAXK_N@Z ENDP
							; SET_VEHICLE_DOORS_LOCKED
PUBLIC	?SET_RANDOM_VEHICLE_DENSITY_MULTIPLIER_THIS_FRAME@@YAXM@Z ; SET_RANDOM_VEHICLE_DENSITY_MULTIPLIER_THIS_FRAME
;	COMDAT .pdata
.pdata	SEGMENT
$T104581 DD	?SET_RANDOM_VEHICLE_DENSITY_MULTIPLIER_THIS_FRAME@@YAXM@Z
	DD	040000d03H
; Function compile flags: /Odtu

	.code

?SET_RANDOM_VEHICLE_DENSITY_MULTIPLIER_THIS_FRAME@@YAXM@Z PROC NEAR ; SET_RANDOM_VEHICLE_DENSITY_MULTIPLIER_THIS_FRAME, COMDAT

; Begin code for function: ?SET_RANDOM_VEHICLE_DENSITY_MULTIPLIER_THIS_FRAME@@YAXM@Z
; Line 869
	mflr         r12
	stw          r12,-8(r1)
	stwu         r1,-60h(r1)
.endprolog
$M104579:
	stfs         fr1,densityMultiplier$(r1)		; 116 (74h)
; Line 870
	lwz          r5,densityMultiplier$(r1)		; 116 (74h)
	li           r4,1
	lis          r11,21567		; 543Fh
	ori          r3,r11,28971		; 712Bh
	bl           ??$_CALL_NATIVE@K@@YAKKKZZ
; Line 871
	addi         r1,r1,96		; 60h
	lwz          r12,-8(r1)
	mtlr         r12
	blr
$M104580:
; End code for function: ?SET_RANDOM_VEHICLE_DENSITY_MULTIPLIER_THIS_FRAME@@YAXM@Z
?SET_RANDOM_VEHICLE_DENSITY_MULTIPLIER_THIS_FRAME@@YAXM@Z ENDP
							; SET_RANDOM_VEHICLE_DENSITY_MULTIPLIER_THIS_FRAME
PUBLIC	?SET_VEHICLE_DENSITY_MULTIPLIER_THIS_FRAME@@YAXM@Z ; SET_VEHICLE_DENSITY_MULTIPLIER_THIS_FRAME
;	COMDAT .pdata
.pdata	SEGMENT
$T104587 DD	?SET_VEHICLE_DENSITY_MULTIPLIER_THIS_FRAME@@YAXM@Z
	DD	040000d03H
; Function compile flags: /Odtu

	.code

?SET_VEHICLE_DENSITY_MULTIPLIER_THIS_FRAME@@YAXM@Z PROC NEAR ; SET_VEHICLE_DENSITY_MULTIPLIER_THIS_FRAME, COMDAT

; Begin code for function: ?SET_VEHICLE_DENSITY_MULTIPLIER_THIS_FRAME@@YAXM@Z
; Line 865
	mflr         r12
	stw          r12,-8(r1)
	stwu         r1,-60h(r1)
.endprolog
$M104585:
	stfs         fr1,densityMultiplier$(r1)		; 116 (74h)
; Line 866
	lwz          r5,densityMultiplier$(r1)		; 116 (74h)
	li           r4,1
	lis          r11,-3048		; 0F418h
	ori          r3,r11,32337		; 7E51h
	bl           ??$_CALL_NATIVE@K@@YAKKKZZ
; Line 867
	addi         r1,r1,96		; 60h
	lwz          r12,-8(r1)
	mtlr         r12
	blr
$M104586:
; End code for function: ?SET_VEHICLE_DENSITY_MULTIPLIER_THIS_FRAME@@YAXM@Z
?SET_VEHICLE_DENSITY_MULTIPLIER_THIS_FRAME@@YAXM@Z ENDP
							; SET_VEHICLE_DENSITY_MULTIPLIER_THIS_FRAME
PUBLIC	?DELETE_VEHICLE@@YAXK@Z				; DELETE_VEHICLE
;	COMDAT .pdata
.pdata	SEGMENT
$T104593 DD	?DELETE_VEHICLE@@YAXK@Z
	DD	040000d03H
; Function compile flags: /Odtu

	.code

?DELETE_VEHICLE@@YAXK@Z	PROC NEAR			; DELETE_VEHICLE, COMDAT

; Begin code for function: ?DELETE_VEHICLE@@YAXK@Z
; Line 857
	mflr         r12
	stw          r12,-8(r1)
	stwu         r1,-60h(r1)
.endprolog
$M104591:
	stw          r3,vehicle$(r1)		; 116 (74h)
; Line 858
	addi         r5,r1,vehicle$
	li           r4,1
	lis          r11,-26621		; 9803h
	ori          r3,r11,44896		; 0AF60h
	bl           ??$_CALL_NATIVE@K@@YAKKKZZ
; Line 859
	addi         r1,r1,96		; 60h
	lwz          r12,-8(r1)
	mtlr         r12
	blr
$M104592:
; End code for function: ?DELETE_VEHICLE@@YAXK@Z
?DELETE_VEHICLE@@YAXK@Z ENDP
							; DELETE_VEHICLE
PUBLIC	?CREATE_VEHICLE@@YAKKMMMM_N0@Z			; CREATE_VEHICLE
;	COMDAT .pdata
.pdata	SEGMENT
$T104599 DD	?CREATE_VEHICLE@@YAKKMMMM_N0@Z
	DD	040001a03H
; Function compile flags: /Odtu

	.code

?CREATE_VEHICLE@@YAKKMMMM_N0@Z PROC NEAR			; CREATE_VEHICLE, COMDAT

; Begin code for function: ?CREATE_VEHICLE@@YAKKMMMM_N0@Z
; Line 853
	mflr         r12
	stw          r12,-8(r1)
	stwu         r1,-60h(r1)
.endprolog
$M104597:
	stw          r3,modelHash$(r1)		; 116 (74h)
	stfs         fr1,x$(r1)		; 124 (7Ch)
	stfs         fr2,y$(r1)		; 132 (84h)
	stfs         fr3,z$(r1)		; 140 (8Ch)
	stfs         fr4,heading$(r1)		; 148 (94h)
	stb          r8,networkVehicle$(r1)		; 159 (9Fh)
	stb          r9,createHandle$(r1)		; 167 (0A7h)
; Line 854
	lbz          r11,createHandle$(r1)		; 167 (0A7h)
	stw          r11,54h(r1)
	lbz          r10,networkVehicle$(r1)		; 159 (9Fh)
	lwz          r9,heading$(r1)		; 148 (94h)
	lwz          r8,z$(r1)		; 140 (8Ch)
	lwz          r7,y$(r1)		; 132 (84h)
	lwz          r6,x$(r1)		; 124 (7Ch)
	lwz          r5,modelHash$(r1)		; 116 (74h)
	li           r4,7
	lis          r3,-8843		; 0DD75h
	ori          r3,r3,17930		; 460Ah
	bl           ??$_CALL_NATIVE@K@@YAKKKZZ
; Line 855
	addi         r1,r1,96		; 60h
	lwz          r12,-8(r1)
	mtlr         r12
	blr
$M104598:
; End code for function: ?CREATE_VEHICLE@@YAKKMMMM_N0@Z
?CREATE_VEHICLE@@YAKKMMMM_N0@Z ENDP
							; CREATE_VEHICLE
PUBLIC	?GET_PED_NEARBY_PEDS@@YAKKPAKK@Z		; GET_PED_NEARBY_PEDS
;	COMDAT .pdata
.pdata	SEGMENT
$T104605 DD	?GET_PED_NEARBY_PEDS@@YAKKPAKK@Z
	DD	040001103H
; Function compile flags: /Odtu

	.code

?GET_PED_NEARBY_PEDS@@YAKKPAKK@Z PROC NEAR		; GET_PED_NEARBY_PEDS, COMDAT

; Begin code for function: ?GET_PED_NEARBY_PEDS@@YAKKPAKK@Z
; Line 848
	mflr         r12
	stw          r12,-8(r1)
	stwu         r1,-60h(r1)
.endprolog
$M104603:
	stw          r3,ped$(r1)		; 116 (74h)
	stw          r4,sizeAndPeds$(r1)		; 124 (7Ch)
	stw          r5,unk1$(r1)		; 132 (84h)
; Line 849
	lwz          r7,unk1$(r1)		; 132 (84h)
	lwz          r6,sizeAndPeds$(r1)		; 124 (7Ch)
	lwz          r5,ped$(r1)		; 116 (74h)
	li           r4,3
	lis          r11,19763		; 4D33h
	ori          r3,r11,9716		; 25F4h
	bl           ??$_CALL_NATIVE@K@@YAKKKZZ
; Line 850
	addi         r1,r1,96		; 60h
	lwz          r12,-8(r1)
	mtlr         r12
	blr
$M104604:
; End code for function: ?GET_PED_NEARBY_PEDS@@YAKKPAKK@Z
?GET_PED_NEARBY_PEDS@@YAKKPAKK@Z ENDP
							; GET_PED_NEARBY_PEDS
PUBLIC	?SET_PED_FLEE_ATTRIBUTES@@YAXKK_N@Z		; SET_PED_FLEE_ATTRIBUTES
;	COMDAT .pdata
.pdata	SEGMENT
$T104611 DD	?SET_PED_FLEE_ATTRIBUTES@@YAXKK_N@Z
	DD	040001103H
; Function compile flags: /Odtu

	.code

?SET_PED_FLEE_ATTRIBUTES@@YAXKK_N@Z PROC NEAR		; SET_PED_FLEE_ATTRIBUTES, COMDAT

; Begin code for function: ?SET_PED_FLEE_ATTRIBUTES@@YAXKK_N@Z
; Line 844
	mflr         r12
	stw          r12,-8(r1)
	stwu         r1,-60h(r1)
.endprolog
$M104609:
	stw          r3,ped$(r1)		; 116 (74h)
	stw          r4,attribute$(r1)		; 124 (7Ch)
	stb          r5,unk1$(r1)		; 135 (87h)
; Line 845
	lbz          r7,unk1$(r1)		; 135 (87h)
	lwz          r6,attribute$(r1)		; 124 (7Ch)
	lwz          r5,ped$(r1)		; 116 (74h)
	li           r4,3
	lis          r11,-22761		; 0A717h
	ori          r3,r11,43125		; 0A875h
	bl           ??$_CALL_NATIVE@K@@YAKKKZZ
; Line 846
	addi         r1,r1,96		; 60h
	lwz          r12,-8(r1)
	mtlr         r12
	blr
$M104610:
; End code for function: ?SET_PED_FLEE_ATTRIBUTES@@YAXKK_N@Z
?SET_PED_FLEE_ATTRIBUTES@@YAXKK_N@Z ENDP
							; SET_PED_FLEE_ATTRIBUTES
PUBLIC	?SET_PED_COMBAT_ATTRIBUTES@@YAXKK_N@Z		; SET_PED_COMBAT_ATTRIBUTES
;	COMDAT .pdata
.pdata	SEGMENT
$T104617 DD	?SET_PED_COMBAT_ATTRIBUTES@@YAXKK_N@Z
	DD	040001103H
; Function compile flags: /Odtu

	.code

?SET_PED_COMBAT_ATTRIBUTES@@YAXKK_N@Z PROC NEAR		; SET_PED_COMBAT_ATTRIBUTES, COMDAT

; Begin code for function: ?SET_PED_COMBAT_ATTRIBUTES@@YAXKK_N@Z
; Line 840
	mflr         r12
	stw          r12,-8(r1)
	stwu         r1,-60h(r1)
.endprolog
$M104615:
	stw          r3,ped$(r1)		; 116 (74h)
	stw          r4,attribute$(r1)		; 124 (7Ch)
	stb          r5,unk1$(r1)		; 135 (87h)
; Line 841
	lbz          r7,unk1$(r1)		; 135 (87h)
	lwz          r6,attribute$(r1)		; 124 (7Ch)
	lwz          r5,ped$(r1)		; 116 (74h)
	li           r4,3
	lis          r11,-32298		; 81D6h
	ori          r3,r11,16968		; 4248h
	bl           ??$_CALL_NATIVE@K@@YAKKKZZ
; Line 842
	addi         r1,r1,96		; 60h
	lwz          r12,-8(r1)
	mtlr         r12
	blr
$M104616:
; End code for function: ?SET_PED_COMBAT_ATTRIBUTES@@YAXKK_N@Z
?SET_PED_COMBAT_ATTRIBUTES@@YAXKK_N@Z ENDP
							; SET_PED_COMBAT_ATTRIBUTES
PUBLIC	?APPLY_PED_DAMAGE_PACK@@YAXKPADMM@Z		; APPLY_PED_DAMAGE_PACK
;	COMDAT .pdata
.pdata	SEGMENT
$T104623 DD	?APPLY_PED_DAMAGE_PACK@@YAXKPADMM@Z
	DD	040001303H
; Function compile flags: /Odtu

	.code

?APPLY_PED_DAMAGE_PACK@@YAXKPADMM@Z PROC NEAR		; APPLY_PED_DAMAGE_PACK, COMDAT

; Begin code for function: ?APPLY_PED_DAMAGE_PACK@@YAXKPADMM@Z
; Line 832
	mflr         r12
	stw          r12,-8(r1)
	stwu         r1,-60h(r1)
.endprolog
$M104621:
	stw          r3,ped$(r1)		; 116 (74h)
	stw          r4,damagePack$(r1)		; 124 (7Ch)
	stfs         fr1,unk1$(r1)		; 132 (84h)
	stfs         fr2,unk2$(r1)		; 140 (8Ch)
; Line 833
	lwz          r8,unk2$(r1)		; 140 (8Ch)
	lwz          r7,unk1$(r1)		; 132 (84h)
	lwz          r6,damagePack$(r1)		; 124 (7Ch)
	lwz          r5,ped$(r1)		; 116 (74h)
	li           r4,4
	lis          r11,8333		; 208Dh
	ori          r3,r11,3256		; 0CB8h
	bl           ??$_CALL_NATIVE@K@@YAKKKZZ
; Line 834
	addi         r1,r1,96		; 60h
	lwz          r12,-8(r1)
	mtlr         r12
	blr
$M104622:
; End code for function: ?APPLY_PED_DAMAGE_PACK@@YAXKPADMM@Z
?APPLY_PED_DAMAGE_PACK@@YAXKPADMM@Z ENDP
							; APPLY_PED_DAMAGE_PACK
PUBLIC	?SET_PED_CAN_RAGDOLL@@YAXK_N@Z			; SET_PED_CAN_RAGDOLL
;	COMDAT .pdata
.pdata	SEGMENT
$T104629 DD	?SET_PED_CAN_RAGDOLL@@YAXK_N@Z
	DD	040000f03H
; Function compile flags: /Odtu

	.code

?SET_PED_CAN_RAGDOLL@@YAXK_N@Z PROC NEAR			; SET_PED_CAN_RAGDOLL, COMDAT

; Begin code for function: ?SET_PED_CAN_RAGDOLL@@YAXK_N@Z
; Line 816
	mflr         r12
	stw          r12,-8(r1)
	stwu         r1,-60h(r1)
.endprolog
$M104627:
	stw          r3,ped$(r1)		; 116 (74h)
	stb          r4,canRagdoll$(r1)		; 127 (7Fh)
; Line 817
	lbz          r6,canRagdoll$(r1)		; 127 (7Fh)
	lwz          r5,ped$(r1)		; 116 (74h)
	li           r4,2
	lis          r11,-12525		; 0CF13h
	ori          r3,r11,33988		; 84C4h
	bl           ??$_CALL_NATIVE@K@@YAKKKZZ
; Line 818
	addi         r1,r1,96		; 60h
	lwz          r12,-8(r1)
	mtlr         r12
	blr
$M104628:
; End code for function: ?SET_PED_CAN_RAGDOLL@@YAXK_N@Z
?SET_PED_CAN_RAGDOLL@@YAXK_N@Z ENDP
							; SET_PED_CAN_RAGDOLL
PUBLIC	?SET_BLOCKING_OF_NON_TEMPORARY_EVENTS@@YAXK_N@Z	; SET_BLOCKING_OF_NON_TEMPORARY_EVENTS
;	COMDAT .pdata
.pdata	SEGMENT
$T104635 DD	?SET_BLOCKING_OF_NON_TEMPORARY_EVENTS@@YAXK_N@Z
	DD	040000f03H
; Function compile flags: /Odtu

	.code

?SET_BLOCKING_OF_NON_TEMPORARY_EVENTS@@YAXK_N@Z	PROC NEAR ; SET_BLOCKING_OF_NON_TEMPORARY_EVENTS, COMDAT

; Begin code for function: ?SET_BLOCKING_OF_NON_TEMPORARY_EVENTS@@YAXK_N@Z
; Line 808
	mflr         r12
	stw          r12,-8(r1)
	stwu         r1,-60h(r1)
.endprolog
$M104633:
	stw          r3,ped$(r1)		; 116 (74h)
	stb          r4,block$(r1)		; 127 (7Fh)
; Line 809
	lbz          r6,block$(r1)		; 127 (7Fh)
	lwz          r5,ped$(r1)		; 116 (74h)
	li           r4,2
	lis          r11,-8221		; 0DFE3h
	ori          r3,r11,20042		; 4E4Ah
	bl           ??$_CALL_NATIVE@K@@YAKKKZZ
; Line 810
	addi         r1,r1,96		; 60h
	lwz          r12,-8(r1)
	mtlr         r12
	blr
$M104634:
; End code for function: ?SET_BLOCKING_OF_NON_TEMPORARY_EVENTS@@YAXK_N@Z
?SET_BLOCKING_OF_NON_TEMPORARY_EVENTS@@YAXK_N@Z ENDP
							; SET_BLOCKING_OF_NON_TEMPORARY_EVENTS
PUBLIC	?SET_PED_RANDOM_COMPONENT_VARIATION@@YAXKK@Z	; SET_PED_RANDOM_COMPONENT_VARIATION
;	COMDAT .pdata
.pdata	SEGMENT
$T104641 DD	?SET_PED_RANDOM_COMPONENT_VARIATION@@YAXKK@Z
	DD	040000f03H
; Function compile flags: /Odtu

	.code

?SET_PED_RANDOM_COMPONENT_VARIATION@@YAXKK@Z PROC NEAR	; SET_PED_RANDOM_COMPONENT_VARIATION, COMDAT

; Begin code for function: ?SET_PED_RANDOM_COMPONENT_VARIATION@@YAXKK@Z
; Line 804
	mflr         r12
	stw          r12,-8(r1)
	stwu         r1,-60h(r1)
.endprolog
$M104639:
	stw          r3,ped$(r1)		; 116 (74h)
	stw          r4,unk1$(r1)		; 124 (7Ch)
; Line 805
	lwz          r6,unk1$(r1)		; 124 (7Ch)
	lwz          r5,ped$(r1)		; 116 (74h)
	li           r4,2
	lis          r11,16657		; 4111h
	ori          r3,r11,47686		; 0BA46h
	bl           ??$_CALL_NATIVE@K@@YAKKKZZ
; Line 806
	addi         r1,r1,96		; 60h
	lwz          r12,-8(r1)
	mtlr         r12
	blr
$M104640:
; End code for function: ?SET_PED_RANDOM_COMPONENT_VARIATION@@YAXKK@Z
?SET_PED_RANDOM_COMPONENT_VARIATION@@YAXKK@Z ENDP
							; SET_PED_RANDOM_COMPONENT_VARIATION
PUBLIC	?SET_PED_MOVEMENT_CLIPSET@@YAXKPADK@Z		; SET_PED_MOVEMENT_CLIPSET
;	COMDAT .pdata
.pdata	SEGMENT
$T104647 DD	?SET_PED_MOVEMENT_CLIPSET@@YAXKPADK@Z
	DD	040001103H
; Function compile flags: /Odtu

	.code

?SET_PED_MOVEMENT_CLIPSET@@YAXKPADK@Z PROC NEAR		; SET_PED_MOVEMENT_CLIPSET, COMDAT

; Begin code for function: ?SET_PED_MOVEMENT_CLIPSET@@YAXKPADK@Z
; Line 800
	mflr         r12
	stw          r12,-8(r1)
	stwu         r1,-60h(r1)
.endprolog
$M104645:
	stw          r3,ped$(r1)		; 116 (74h)
	stw          r4,clipSet$(r1)		; 124 (7Ch)
	stw          r5,unk1$(r1)		; 132 (84h)
; Line 801
	lwz          r7,unk1$(r1)		; 132 (84h)
	lwz          r6,clipSet$(r1)		; 124 (7Ch)
	lwz          r5,ped$(r1)		; 116 (74h)
	li           r4,3
	lis          r11,-22505		; 0A817h
	ori          r3,r11,52715		; 0CDEBh
	bl           ??$_CALL_NATIVE@K@@YAKKKZZ
; Line 802
	addi         r1,r1,96		; 60h
	lwz          r12,-8(r1)
	mtlr         r12
	blr
$M104646:
; End code for function: ?SET_PED_MOVEMENT_CLIPSET@@YAXKPADK@Z
?SET_PED_MOVEMENT_CLIPSET@@YAXKPADK@Z ENDP
							; SET_PED_MOVEMENT_CLIPSET
PUBLIC	?IS_PED_GETTING_INTO_A_VEHICLE@@YA_NK@Z		; IS_PED_GETTING_INTO_A_VEHICLE
;	COMDAT .pdata
.pdata	SEGMENT
$T104653 DD	?IS_PED_GETTING_INTO_A_VEHICLE@@YA_NK@Z
	DD	040001003H
; Function compile flags: /Odtu

	.code

?IS_PED_GETTING_INTO_A_VEHICLE@@YA_NK@Z	PROC NEAR	; IS_PED_GETTING_INTO_A_VEHICLE, COMDAT

; Begin code for function: ?IS_PED_GETTING_INTO_A_VEHICLE@@YA_NK@Z
; Line 796
	mflr         r12
	stw          r12,-8(r1)
	stwu         r1,-60h(r1)
.endprolog
$M104651:
	stw          r3,ped$(r1)		; 116 (74h)
; Line 797
	lwz          r5,ped$(r1)		; 116 (74h)
	li           r4,1
	lis          r11,-28440		; 90E8h
	ori          r3,r11,1452		; 5ACh
	bl           ??$_CALL_NATIVE@H@@YAHKKZZ
	cntlzw       r10,r3
	rlwinm       r9,r10,27,31,31
	xori         r3,r9,1
; Line 798
	addi         r1,r1,96		; 60h
	lwz          r12,-8(r1)
	mtlr         r12
	blr
$M104652:
; End code for function: ?IS_PED_GETTING_INTO_A_VEHICLE@@YA_NK@Z
?IS_PED_GETTING_INTO_A_VEHICLE@@YA_NK@Z ENDP
							; IS_PED_GETTING_INTO_A_VEHICLE
PUBLIC	?SET_PED_AS_ENEMY@@YAXK_N@Z			; SET_PED_AS_ENEMY
;	COMDAT .pdata
.pdata	SEGMENT
$T104659 DD	?SET_PED_AS_ENEMY@@YAXK_N@Z
	DD	040000f03H
; Function compile flags: /Odtu

	.code

?SET_PED_AS_ENEMY@@YAXK_N@Z PROC NEAR			; SET_PED_AS_ENEMY, COMDAT

; Begin code for function: ?SET_PED_AS_ENEMY@@YAXK_N@Z
; Line 792
	mflr         r12
	stw          r12,-8(r1)
	stwu         r1,-60h(r1)
.endprolog
$M104657:
	stw          r3,ped$(r1)		; 116 (74h)
	stb          r4,enemy$(r1)		; 127 (7Fh)
; Line 793
	lbz          r6,enemy$(r1)		; 127 (7Fh)
	lwz          r5,ped$(r1)		; 116 (74h)
	li           r4,2
	lis          r11,-20894		; 0AE62h
	ori          r3,r11,2587		; 0A1Bh
	bl           ??$_CALL_NATIVE@K@@YAKKKZZ
; Line 794
	addi         r1,r1,96		; 60h
	lwz          r12,-8(r1)
	mtlr         r12
	blr
$M104658:
; End code for function: ?SET_PED_AS_ENEMY@@YAXK_N@Z
?SET_PED_AS_ENEMY@@YAXK_N@Z ENDP
							; SET_PED_AS_ENEMY
PUBLIC	?SET_PED_KEEP_TASK@@YAXK_N@Z			; SET_PED_KEEP_TASK
;	COMDAT .pdata
.pdata	SEGMENT
$T104665 DD	?SET_PED_KEEP_TASK@@YAXK_N@Z
	DD	040000f03H
; Function compile flags: /Odtu

	.code

?SET_PED_KEEP_TASK@@YAXK_N@Z PROC NEAR			; SET_PED_KEEP_TASK, COMDAT

; Begin code for function: ?SET_PED_KEEP_TASK@@YAXK_N@Z
; Line 788
	mflr         r12
	stw          r12,-8(r1)
	stwu         r1,-60h(r1)
.endprolog
$M104663:
	stw          r3,ped$(r1)		; 116 (74h)
	stb          r4,keepTask$(r1)		; 127 (7Fh)
; Line 789
	lbz          r6,keepTask$(r1)		; 127 (7Fh)
	lwz          r5,ped$(r1)		; 116 (74h)
	li           r4,2
	lis          r11,-22548		; 0A7ECh
	ori          r3,r11,31182		; 79CEh
	bl           ??$_CALL_NATIVE@K@@YAKKKZZ
; Line 790
	addi         r1,r1,96		; 60h
	lwz          r12,-8(r1)
	mtlr         r12
	blr
$M104664:
; End code for function: ?SET_PED_KEEP_TASK@@YAXK_N@Z
?SET_PED_KEEP_TASK@@YAXK_N@Z ENDP
							; SET_PED_KEEP_TASK
PUBLIC	?KNOCK_PED_OFF_VEHICLE@@YAXK@Z			; KNOCK_PED_OFF_VEHICLE
;	COMDAT .pdata
.pdata	SEGMENT
$T104671 DD	?KNOCK_PED_OFF_VEHICLE@@YAXK@Z
	DD	040000d03H
; Function compile flags: /Odtu

	.code

?KNOCK_PED_OFF_VEHICLE@@YAXK@Z PROC NEAR			; KNOCK_PED_OFF_VEHICLE, COMDAT

; Begin code for function: ?KNOCK_PED_OFF_VEHICLE@@YAXK@Z
; Line 784
	mflr         r12
	stw          r12,-8(r1)
	stwu         r1,-60h(r1)
.endprolog
$M104669:
	stw          r3,ped$(r1)		; 116 (74h)
; Line 785
	lwz          r5,ped$(r1)		; 116 (74h)
	li           r4,1
	lis          r11,-21283		; 0ACDDh
	ori          r3,r11,1652		; 674h
	bl           ??$_CALL_NATIVE@K@@YAKKKZZ
; Line 786
	addi         r1,r1,96		; 60h
	lwz          r12,-8(r1)
	mtlr         r12
	blr
$M104670:
; End code for function: ?KNOCK_PED_OFF_VEHICLE@@YAXK@Z
?KNOCK_PED_OFF_VEHICLE@@YAXK@Z ENDP
							; KNOCK_PED_OFF_VEHICLE
PUBLIC	?SET_PED_CAN_BE_KNOCKED_OFF_VEHICLE@@YAXKK@Z	; SET_PED_CAN_BE_KNOCKED_OFF_VEHICLE
;	COMDAT .pdata
.pdata	SEGMENT
$T104677 DD	?SET_PED_CAN_BE_KNOCKED_OFF_VEHICLE@@YAXKK@Z
	DD	040000f03H
; Function compile flags: /Odtu

	.code

?SET_PED_CAN_BE_KNOCKED_OFF_VEHICLE@@YAXKK@Z PROC NEAR	; SET_PED_CAN_BE_KNOCKED_OFF_VEHICLE, COMDAT

; Begin code for function: ?SET_PED_CAN_BE_KNOCKED_OFF_VEHICLE@@YAXKK@Z
; Line 780
	mflr         r12
	stw          r12,-8(r1)
	stwu         r1,-60h(r1)
.endprolog
$M104675:
	stw          r3,ped$(r1)		; 116 (74h)
	stw          r4,state$(r1)		; 124 (7Ch)
; Line 781
	lwz          r6,state$(r1)		; 124 (7Ch)
	lwz          r5,ped$(r1)		; 116 (74h)
	li           r4,2
	lis          r11,-30171		; 8A25h
	ori          r3,r11,5650		; 1612h
	bl           ??$_CALL_NATIVE@K@@YAKKKZZ
; Line 782
	addi         r1,r1,96		; 60h
	lwz          r12,-8(r1)
	mtlr         r12
	blr
$M104676:
; End code for function: ?SET_PED_CAN_BE_KNOCKED_OFF_VEHICLE@@YAXKK@Z
?SET_PED_CAN_BE_KNOCKED_OFF_VEHICLE@@YAXKK@Z ENDP
							; SET_PED_CAN_BE_KNOCKED_OFF_VEHICLE
PUBLIC	?IS_PED_ON_ANY_BIKE@@YA_NK@Z			; IS_PED_ON_ANY_BIKE
;	COMDAT .pdata
.pdata	SEGMENT
$T104683 DD	?IS_PED_ON_ANY_BIKE@@YA_NK@Z
	DD	040001003H
; Function compile flags: /Odtu

	.code

?IS_PED_ON_ANY_BIKE@@YA_NK@Z PROC NEAR			; IS_PED_ON_ANY_BIKE, COMDAT

; Begin code for function: ?IS_PED_ON_ANY_BIKE@@YA_NK@Z
; Line 760
	mflr         r12
	stw          r12,-8(r1)
	stwu         r1,-60h(r1)
.endprolog
$M104681:
	stw          r3,ped$(r1)		; 116 (74h)
; Line 761
	lwz          r5,ped$(r1)		; 116 (74h)
	li           r4,1
	lis          r11,19848		; 4D88h
	ori          r3,r11,23342		; 5B2Eh
	bl           ??$_CALL_NATIVE@H@@YAHKKZZ
	cntlzw       r10,r3
	rlwinm       r9,r10,27,31,31
	xori         r3,r9,1
; Line 762
	addi         r1,r1,96		; 60h
	lwz          r12,-8(r1)
	mtlr         r12
	blr
$M104682:
; End code for function: ?IS_PED_ON_ANY_BIKE@@YA_NK@Z
?IS_PED_ON_ANY_BIKE@@YA_NK@Z ENDP
							; IS_PED_ON_ANY_BIKE
PUBLIC	?IS_PED_ON_FOOT@@YA_NK@Z			; IS_PED_ON_FOOT
;	COMDAT .pdata
.pdata	SEGMENT
$T104689 DD	?IS_PED_ON_FOOT@@YA_NK@Z
	DD	040001003H
; Function compile flags: /Odtu

	.code

?IS_PED_ON_FOOT@@YA_NK@Z PROC NEAR			; IS_PED_ON_FOOT, COMDAT

; Begin code for function: ?IS_PED_ON_FOOT@@YA_NK@Z
; Line 756
	mflr         r12
	stw          r12,-8(r1)
	stwu         r1,-60h(r1)
.endprolog
$M104687:
	stw          r3,ped$(r1)		; 116 (74h)
; Line 757
	lwz          r5,ped$(r1)		; 116 (74h)
	li           r4,1
	lis          r11,-14835		; 0C60Dh
	ori          r3,r11,1925		; 785h
	bl           ??$_CALL_NATIVE@H@@YAHKKZZ
	cntlzw       r10,r3
	rlwinm       r9,r10,27,31,31
	xori         r3,r9,1
; Line 758
	addi         r1,r1,96		; 60h
	lwz          r12,-8(r1)
	mtlr         r12
	blr
$M104688:
; End code for function: ?IS_PED_ON_FOOT@@YA_NK@Z
?IS_PED_ON_FOOT@@YA_NK@Z ENDP
							; IS_PED_ON_FOOT
PUBLIC	?GET_VEHICLE_PED_IS_IN@@YAKKK@Z			; GET_VEHICLE_PED_IS_IN
;	COMDAT .pdata
.pdata	SEGMENT
$T104695 DD	?GET_VEHICLE_PED_IS_IN@@YAKKK@Z
	DD	040000f03H
; Function compile flags: /Odtu

	.code

?GET_VEHICLE_PED_IS_IN@@YAKKK@Z	PROC NEAR		; GET_VEHICLE_PED_IS_IN, COMDAT

; Begin code for function: ?GET_VEHICLE_PED_IS_IN@@YAKKK@Z
; Line 748
	mflr         r12
	stw          r12,-8(r1)
	stwu         r1,-60h(r1)
.endprolog
$M104693:
	stw          r3,ped$(r1)		; 116 (74h)
	stw          r4,unk1$(r1)		; 124 (7Ch)
; Line 749
	lwz          r6,unk1$(r1)		; 124 (7Ch)
	lwz          r5,ped$(r1)		; 116 (74h)
	li           r4,2
	lis          r11,-20503		; 0AFE9h
	ori          r3,r11,8985		; 2319h
	bl           ??$_CALL_NATIVE@K@@YAKKKZZ
; Line 750
	addi         r1,r1,96		; 60h
	lwz          r12,-8(r1)
	mtlr         r12
	blr
$M104694:
; End code for function: ?GET_VEHICLE_PED_IS_IN@@YAKKK@Z
?GET_VEHICLE_PED_IS_IN@@YAKKK@Z ENDP
							; GET_VEHICLE_PED_IS_IN
PUBLIC	?IS_PED_HUMAN@@YA_NK@Z				; IS_PED_HUMAN
;	COMDAT .pdata
.pdata	SEGMENT
$T104701 DD	?IS_PED_HUMAN@@YA_NK@Z
	DD	040001003H
; Function compile flags: /Odtu

	.code

?IS_PED_HUMAN@@YA_NK@Z PROC NEAR				; IS_PED_HUMAN, COMDAT

; Begin code for function: ?IS_PED_HUMAN@@YA_NK@Z
; Line 744
	mflr         r12
	stw          r12,-8(r1)
	stwu         r1,-60h(r1)
.endprolog
$M104699:
	stw          r3,ped$(r1)		; 116 (74h)
; Line 745
	lwz          r5,ped$(r1)		; 116 (74h)
	li           r4,1
	lis          r11,6475		; 194Bh
	ori          r3,r11,47024		; 0B7B0h
	bl           ??$_CALL_NATIVE@H@@YAHKKZZ
	cntlzw       r10,r3
	rlwinm       r9,r10,27,31,31
	xori         r3,r9,1
; Line 746
	addi         r1,r1,96		; 60h
	lwz          r12,-8(r1)
	mtlr         r12
	blr
$M104700:
; End code for function: ?IS_PED_HUMAN@@YA_NK@Z
?IS_PED_HUMAN@@YA_NK@Z ENDP
							; IS_PED_HUMAN
PUBLIC	?SET_PED_INTO_VEHICLE@@YAXKKK@Z			; SET_PED_INTO_VEHICLE
;	COMDAT .pdata
.pdata	SEGMENT
$T104707 DD	?SET_PED_INTO_VEHICLE@@YAXKKK@Z
	DD	040001103H
; Function compile flags: /Odtu

	.code

?SET_PED_INTO_VEHICLE@@YAXKKK@Z	PROC NEAR		; SET_PED_INTO_VEHICLE, COMDAT

; Begin code for function: ?SET_PED_INTO_VEHICLE@@YAXKKK@Z
; Line 740
	mflr         r12
	stw          r12,-8(r1)
	stwu         r1,-60h(r1)
.endprolog
$M104705:
	stw          r3,ped$(r1)		; 116 (74h)
	stw          r4,vehicle$(r1)		; 124 (7Ch)
	stw          r5,unk1$(r1)		; 132 (84h)
; Line 741
	lwz          r7,unk1$(r1)		; 132 (84h)
	lwz          r6,vehicle$(r1)		; 124 (7Ch)
	lwz          r5,ped$(r1)		; 116 (74h)
	li           r4,3
	lis          r11,1872		; 750h
	ori          r3,r11,3193		; 0C79h
	bl           ??$_CALL_NATIVE@K@@YAKKKZZ
; Line 742
	addi         r1,r1,96		; 60h
	lwz          r12,-8(r1)
	mtlr         r12
	blr
$M104706:
; End code for function: ?SET_PED_INTO_VEHICLE@@YAXKKK@Z
?SET_PED_INTO_VEHICLE@@YAXKKK@Z ENDP
							; SET_PED_INTO_VEHICLE
PUBLIC	?IS_PED_SHOOTING@@YA_NK@Z			; IS_PED_SHOOTING
;	COMDAT .pdata
.pdata	SEGMENT
$T104713 DD	?IS_PED_SHOOTING@@YA_NK@Z
	DD	040001003H
; Function compile flags: /Odtu

	.code

?IS_PED_SHOOTING@@YA_NK@Z PROC NEAR			; IS_PED_SHOOTING, COMDAT

; Begin code for function: ?IS_PED_SHOOTING@@YA_NK@Z
; Line 736
	mflr         r12
	stw          r12,-8(r1)
	stwu         r1,-60h(r1)
.endprolog
$M104711:
	stw          r3,ped$(r1)		; 116 (74h)
; Line 737
	lwz          r5,ped$(r1)		; 116 (74h)
	li           r4,1
	lis          r11,-6205		; 0E7C3h
	ori          r3,r11,16478		; 405Eh
	bl           ??$_CALL_NATIVE@H@@YAHKKZZ
	cntlzw       r10,r3
	rlwinm       r9,r10,27,31,31
	xori         r3,r9,1
; Line 738
	addi         r1,r1,96		; 60h
	lwz          r12,-8(r1)
	mtlr         r12
	blr
$M104712:
; End code for function: ?IS_PED_SHOOTING@@YA_NK@Z
?IS_PED_SHOOTING@@YA_NK@Z ENDP
							; IS_PED_SHOOTING
PUBLIC	?IS_PED_A_PLAYER@@YA_NK@Z			; IS_PED_A_PLAYER
;	COMDAT .pdata
.pdata	SEGMENT
$T104719 DD	?IS_PED_A_PLAYER@@YA_NK@Z
	DD	040001003H
; Function compile flags: /Odtu

	.code

?IS_PED_A_PLAYER@@YA_NK@Z PROC NEAR			; IS_PED_A_PLAYER, COMDAT

; Begin code for function: ?IS_PED_A_PLAYER@@YA_NK@Z
; Line 732
	mflr         r12
	stw          r12,-8(r1)
	stwu         r1,-60h(r1)
.endprolog
$M104717:
	stw          r3,ped$(r1)		; 116 (74h)
; Line 733
	lwz          r5,ped$(r1)		; 116 (74h)
	li           r4,1
	lis          r11,16455		; 4047h
	ori          r3,r11,38090		; 94CAh
	bl           ??$_CALL_NATIVE@H@@YAHKKZZ
	cntlzw       r10,r3
	rlwinm       r9,r10,27,31,31
	xori         r3,r9,1
; Line 734
	addi         r1,r1,96		; 60h
	lwz          r12,-8(r1)
	mtlr         r12
	blr
$M104718:
; End code for function: ?IS_PED_A_PLAYER@@YA_NK@Z
?IS_PED_A_PLAYER@@YA_NK@Z ENDP
							; IS_PED_A_PLAYER
PUBLIC	?IS_PED_DEAD@@YA_NKK@Z				; IS_PED_DEAD
;	COMDAT .pdata
.pdata	SEGMENT
$T104725 DD	?IS_PED_DEAD@@YA_NKK@Z
	DD	040001203H
; Function compile flags: /Odtu

	.code

?IS_PED_DEAD@@YA_NKK@Z PROC NEAR				; IS_PED_DEAD, COMDAT

; Begin code for function: ?IS_PED_DEAD@@YA_NKK@Z
; Line 728
	mflr         r12
	stw          r12,-8(r1)
	stwu         r1,-60h(r1)
.endprolog
$M104723:
	stw          r3,ped$(r1)		; 116 (74h)
	stw          r4,unk1$(r1)		; 124 (7Ch)
; Line 729
	lwz          r6,unk1$(r1)		; 124 (7Ch)
	lwz          r5,ped$(r1)		; 116 (74h)
	li           r4,2
	lis          r11,-13349		; 0CBDBh
	ori          r3,r11,30521		; 7739h
	bl           ??$_CALL_NATIVE@H@@YAHKKZZ
	cntlzw       r10,r3
	rlwinm       r9,r10,27,31,31
	xori         r3,r9,1
; Line 730
	addi         r1,r1,96		; 60h
	lwz          r12,-8(r1)
	mtlr         r12
	blr
$M104724:
; End code for function: ?IS_PED_DEAD@@YA_NKK@Z
?IS_PED_DEAD@@YA_NKK@Z ENDP
							; IS_PED_DEAD
PUBLIC	?IS_PED_IN_ANY_VEHICLE@@YA_NKK@Z		; IS_PED_IN_ANY_VEHICLE
;	COMDAT .pdata
.pdata	SEGMENT
$T104731 DD	?IS_PED_IN_ANY_VEHICLE@@YA_NKK@Z
	DD	040001203H
; Function compile flags: /Odtu

	.code

?IS_PED_IN_ANY_VEHICLE@@YA_NKK@Z PROC NEAR		; IS_PED_IN_ANY_VEHICLE, COMDAT

; Begin code for function: ?IS_PED_IN_ANY_VEHICLE@@YA_NKK@Z
; Line 724
	mflr         r12
	stw          r12,-8(r1)
	stwu         r1,-60h(r1)
.endprolog
$M104729:
	stw          r3,ped$(r1)		; 116 (74h)
	stw          r4,unk1$(r1)		; 124 (7Ch)
; Line 725
	lwz          r6,unk1$(r1)		; 124 (7Ch)
	lwz          r5,ped$(r1)		; 116 (74h)
	li           r4,2
	lis          r11,15105		; 3B01h
	ori          r3,r11,29166		; 71EEh
	bl           ??$_CALL_NATIVE@H@@YAHKKZZ
	cntlzw       r10,r3
	rlwinm       r9,r10,27,31,31
	xori         r3,r9,1
; Line 726
	addi         r1,r1,96		; 60h
	lwz          r12,-8(r1)
	mtlr         r12
	blr
$M104730:
; End code for function: ?IS_PED_IN_ANY_VEHICLE@@YA_NKK@Z
?IS_PED_IN_ANY_VEHICLE@@YA_NKK@Z ENDP
							; IS_PED_IN_ANY_VEHICLE
PUBLIC	?CREATE_PED@@YAKKKMMM_N00@Z			; CREATE_PED
;	COMDAT .pdata
.pdata	SEGMENT
$T104737 DD	?CREATE_PED@@YAKKKMMM_N00@Z
	DD	040001d03H
; Function compile flags: /Odtu

	.code

?CREATE_PED@@YAKKKMMM_N00@Z PROC NEAR			; CREATE_PED, COMDAT

; Begin code for function: ?CREATE_PED@@YAKKKMMM_N00@Z
; Line 712
	mflr         r12
	stw          r12,-8(r1)
	stwu         r1,-70h(r1)
.endprolog
$M104735:
	stw          r3,type$(r1)		; 132 (84h)
	stw          r4,modelHash$(r1)		; 140 (8Ch)
	stfs         fr1,x$(r1)		; 148 (94h)
	stfs         fr2,y$(r1)		; 156 (9Ch)
	stfs         fr3,z$(r1)		; 164 (0A4h)
	stb          r8,unk1$(r1)		; 175 (0AFh)
	stb          r9,networkPed$(r1)		; 183 (0B7h)
	stb          r10,createHandle$(r1)		; 191 (0BFh)
; Line 713
	lbz          r11,createHandle$(r1)		; 191 (0BFh)
	stw          r11,5Ch(r1)
	lbz          r10,networkPed$(r1)		; 183 (0B7h)
	stw          r10,54h(r1)
	lbz          r10,unk1$(r1)		; 175 (0AFh)
	lwz          r9,z$(r1)		; 164 (0A4h)
	lwz          r8,y$(r1)		; 156 (9Ch)
	lwz          r7,x$(r1)		; 148 (94h)
	lwz          r6,modelHash$(r1)		; 140 (8Ch)
	lwz          r5,type$(r1)		; 132 (84h)
	li           r4,8
	lis          r3,905		; 389h
	ori          r3,r3,61297		; 0EF71h
	bl           ??$_CALL_NATIVE@K@@YAKKKZZ
; Line 714
	addi         r1,r1,112		; 70h
	lwz          r12,-8(r1)
	mtlr         r12
	blr
$M104736:
; End code for function: ?CREATE_PED@@YAKKKMMM_N00@Z
?CREATE_PED@@YAKKKMMM_N00@Z ENDP
							; CREATE_PED
PUBLIC	?SET_ENTITY_VISIBLE@@YAXK_N@Z			; SET_ENTITY_VISIBLE
;	COMDAT .pdata
.pdata	SEGMENT
$T104743 DD	?SET_ENTITY_VISIBLE@@YAXK_N@Z
	DD	040000f03H
; Function compile flags: /Odtu

	.code

?SET_ENTITY_VISIBLE@@YAXK_N@Z PROC NEAR			; SET_ENTITY_VISIBLE, COMDAT

; Begin code for function: ?SET_ENTITY_VISIBLE@@YAXK_N@Z
; Line 707
	mflr         r12
	stw          r12,-8(r1)
	stwu         r1,-60h(r1)
.endprolog
$M104741:
	stw          r3,entity$(r1)		; 116 (74h)
	stb          r4,visible$(r1)		; 127 (7Fh)
; Line 708
	lbz          r6,visible$(r1)		; 127 (7Fh)
	lwz          r5,entity$(r1)		; 116 (74h)
	li           r4,2
	lis          r11,-12221		; 0D043h
	ori          r3,r11,59617		; 0E8E1h
	bl           ??$_CALL_NATIVE@K@@YAKKKZZ
; Line 709
	addi         r1,r1,96		; 60h
	lwz          r12,-8(r1)
	mtlr         r12
	blr
$M104742:
; End code for function: ?SET_ENTITY_VISIBLE@@YAXK_N@Z
?SET_ENTITY_VISIBLE@@YAXK_N@Z ENDP
							; SET_ENTITY_VISIBLE
PUBLIC	?SET_ENTITY_ROTATION@@YAXKMMMK_N@Z		; SET_ENTITY_ROTATION
;	COMDAT .pdata
.pdata	SEGMENT
$T104749 DD	?SET_ENTITY_ROTATION@@YAXKMMMK_N@Z
	DD	040001703H
; Function compile flags: /Odtu

	.code

?SET_ENTITY_ROTATION@@YAXKMMMK_N@Z PROC NEAR		; SET_ENTITY_ROTATION, COMDAT

; Begin code for function: ?SET_ENTITY_ROTATION@@YAXKMMMK_N@Z
; Line 703
	mflr         r12
	stw          r12,-8(r1)
	stwu         r1,-60h(r1)
.endprolog
$M104747:
	stw          r3,entity$(r1)		; 116 (74h)
	stfs         fr1,pitch$(r1)		; 124 (7Ch)
	stfs         fr2,roll$(r1)		; 132 (84h)
	stfs         fr3,yaw$(r1)		; 140 (8Ch)
	stw          r7,unk1$(r1)		; 148 (94h)
	stb          r8,unk2$(r1)		; 159 (9Fh)
; Line 704
	lbz          r10,unk2$(r1)		; 159 (9Fh)
	lwz          r9,unk1$(r1)		; 148 (94h)
	lwz          r8,yaw$(r1)		; 140 (8Ch)
	lwz          r7,roll$(r1)		; 132 (84h)
	lwz          r6,pitch$(r1)		; 124 (7Ch)
	lwz          r5,entity$(r1)		; 116 (74h)
	li           r4,6
	lis          r11,2612		; 0A34h
	ori          r3,r11,24318		; 5EFEh
	bl           ??$_CALL_NATIVE@K@@YAKKKZZ
; Line 705
	addi         r1,r1,96		; 60h
	lwz          r12,-8(r1)
	mtlr         r12
	blr
$M104748:
; End code for function: ?SET_ENTITY_ROTATION@@YAXKMMMK_N@Z
?SET_ENTITY_ROTATION@@YAXKMMMK_N@Z ENDP
							; SET_ENTITY_ROTATION
PUBLIC	?SET_ENTITY_PROOFS@@YAXK_N0000000@Z		; SET_ENTITY_PROOFS
;	COMDAT .pdata
.pdata	SEGMENT
$T104755 DD	?SET_ENTITY_PROOFS@@YAXK_N0000000@Z
	DD	040001f03H
; Function compile flags: /Odtu

	.code

?SET_ENTITY_PROOFS@@YAXK_N0000000@Z PROC NEAR		; SET_ENTITY_PROOFS, COMDAT

; Begin code for function: ?SET_ENTITY_PROOFS@@YAXK_N0000000@Z
; Line 699
	mflr         r12
	stw          r12,-8(r1)
	stwu         r1,-70h(r1)
.endprolog
$M104753:
	stw          r3,entity$(r1)		; 132 (84h)
	stb          r4,bulletProof$(r1)		; 143 (8Fh)
	stb          r5,fireProof$(r1)		; 151 (97h)
	stb          r6,explosionProof$(r1)		; 159 (9Fh)
	stb          r7,collisionProof$(r1)		; 167 (0A7h)
	stb          r8,meleeProof$(r1)		; 175 (0AFh)
	stb          r9,unk1$(r1)		; 183 (0B7h)
	stb          r10,unk2$(r1)		; 191 (0BFh)
; Line 700
	lbz          r11,drownProof$(r1)		; 199 (0C7h)
	stw          r11,64h(r1)
	lbz          r10,unk2$(r1)		; 191 (0BFh)
	stw          r10,5Ch(r1)
	lbz          r9,unk1$(r1)		; 183 (0B7h)
	stw          r9,54h(r1)
	lbz          r10,meleeProof$(r1)		; 175 (0AFh)
	lbz          r9,collisionProof$(r1)		; 167 (0A7h)
	lbz          r8,explosionProof$(r1)		; 159 (9Fh)
	lbz          r7,fireProof$(r1)		; 151 (97h)
	lbz          r6,bulletProof$(r1)		; 143 (8Fh)
	lwz          r5,entity$(r1)		; 132 (84h)
	li           r4,9
	lis          r3,32414		; 7E9Eh
	ori          r3,r3,43878		; 0AB66h
	bl           ??$_CALL_NATIVE@K@@YAKKKZZ
; Line 701
	addi         r1,r1,112		; 70h
	lwz          r12,-8(r1)
	mtlr         r12
	blr
$M104754:
; End code for function: ?SET_ENTITY_PROOFS@@YAXK_N0000000@Z
?SET_ENTITY_PROOFS@@YAXK_N0000000@Z ENDP
							; SET_ENTITY_PROOFS
PUBLIC	?SET_ENTITY_HEALTH@@YAXKK@Z			; SET_ENTITY_HEALTH
;	COMDAT .pdata
.pdata	SEGMENT
$T104761 DD	?SET_ENTITY_HEALTH@@YAXKK@Z
	DD	040000f03H
; Function compile flags: /Odtu

	.code

?SET_ENTITY_HEALTH@@YAXKK@Z PROC NEAR			; SET_ENTITY_HEALTH, COMDAT

; Begin code for function: ?SET_ENTITY_HEALTH@@YAXKK@Z
; Line 695
	mflr         r12
	stw          r12,-8(r1)
	stwu         r1,-60h(r1)
.endprolog
$M104759:
	stw          r3,entity$(r1)		; 116 (74h)
	stw          r4,health$(r1)		; 124 (7Ch)
; Line 696
	lwz          r6,health$(r1)		; 124 (7Ch)
	lwz          r5,entity$(r1)		; 116 (74h)
	li           r4,2
	lis          r11,-1075		; 0FBCDh
	ori          r3,r11,6193		; 1831h
	bl           ??$_CALL_NATIVE@K@@YAKKKZZ
; Line 697
	addi         r1,r1,96		; 60h
	lwz          r12,-8(r1)
	mtlr         r12
	blr
$M104760:
; End code for function: ?SET_ENTITY_HEALTH@@YAXKK@Z
?SET_ENTITY_HEALTH@@YAXKK@Z ENDP
							; SET_ENTITY_HEALTH
PUBLIC	?SET_ENTITY_COORDS@@YAXKMMMKKKK@Z		; SET_ENTITY_COORDS
;	COMDAT .pdata
.pdata	SEGMENT
$T104767 DD	?SET_ENTITY_COORDS@@YAXKMMMKKKK@Z
	DD	040001d03H
; Function compile flags: /Odtu

	.code

?SET_ENTITY_COORDS@@YAXKMMMKKKK@Z PROC NEAR		; SET_ENTITY_COORDS, COMDAT

; Begin code for function: ?SET_ENTITY_COORDS@@YAXKMMMKKKK@Z
; Line 687
	mflr         r12
	stw          r12,-8(r1)
	stwu         r1,-70h(r1)
.endprolog
$M104765:
	stw          r3,entity$(r1)		; 132 (84h)
	stfs         fr1,x$(r1)		; 140 (8Ch)
	stfs         fr2,y$(r1)		; 148 (94h)
	stfs         fr3,z$(r1)		; 156 (9Ch)
	stw          r7,unk1$(r1)		; 164 (0A4h)
	stw          r8,unk2$(r1)		; 172 (0ACh)
	stw          r9,unk3$(r1)		; 180 (0B4h)
	stw          r10,unk4$(r1)		; 188 (0BCh)
; Line 688
	lwz          r11,unk4$(r1)		; 188 (0BCh)
	stw          r11,5Ch(r1)
	lwz          r10,unk3$(r1)		; 180 (0B4h)
	stw          r10,54h(r1)
	lwz          r10,unk2$(r1)		; 172 (0ACh)
	lwz          r9,unk1$(r1)		; 164 (0A4h)
	lwz          r8,z$(r1)		; 156 (9Ch)
	lwz          r7,y$(r1)		; 148 (94h)
	lwz          r6,x$(r1)		; 140 (8Ch)
	lwz          r5,entity$(r1)		; 132 (84h)
	li           r4,8
	lis          r3,-8336		; 0DF70h
	ori          r3,r3,46107		; 0B41Bh
	bl           ??$_CALL_NATIVE@K@@YAKKKZZ
; Line 689
	addi         r1,r1,112		; 70h
	lwz          r12,-8(r1)
	mtlr         r12
	blr
$M104766:
; End code for function: ?SET_ENTITY_COORDS@@YAXKMMMKKKK@Z
?SET_ENTITY_COORDS@@YAXKMMMKKKK@Z ENDP
							; SET_ENTITY_COORDS
PUBLIC	?SET_ENTITY_COLLISION@@YAXK_N@Z			; SET_ENTITY_COLLISION
;	COMDAT .pdata
.pdata	SEGMENT
$T104773 DD	?SET_ENTITY_COLLISION@@YAXK_N@Z
	DD	040000f03H
; Function compile flags: /Odtu

	.code

?SET_ENTITY_COLLISION@@YAXK_N@Z	PROC NEAR		; SET_ENTITY_COLLISION, COMDAT

; Begin code for function: ?SET_ENTITY_COLLISION@@YAXK_N@Z
; Line 683
	mflr         r12
	stw          r12,-8(r1)
	stwu         r1,-60h(r1)
.endprolog
$M104771:
	stw          r3,entity$(r1)		; 116 (74h)
	stb          r4,collide$(r1)		; 127 (7Fh)
; Line 684
	lbz          r6,collide$(r1)		; 127 (7Fh)
	lwz          r5,entity$(r1)		; 116 (74h)
	li           r4,2
	lis          r11,5023		; 139Fh
	ori          r3,r11,54141		; 0D37Dh
	bl           ??$_CALL_NATIVE@K@@YAKKKZZ
; Line 685
	addi         r1,r1,96		; 60h
	lwz          r12,-8(r1)
	mtlr         r12
	blr
$M104772:
; End code for function: ?SET_ENTITY_COLLISION@@YAXK_N@Z
?SET_ENTITY_COLLISION@@YAXK_N@Z ENDP
							; SET_ENTITY_COLLISION
PUBLIC	?SET_ENTITY_AS_MISSION_ENTITY@@YAXK_N0@Z	; SET_ENTITY_AS_MISSION_ENTITY
;	COMDAT .pdata
.pdata	SEGMENT
$T104779 DD	?SET_ENTITY_AS_MISSION_ENTITY@@YAXK_N0@Z
	DD	040001103H
; Function compile flags: /Odtu

	.code

?SET_ENTITY_AS_MISSION_ENTITY@@YAXK_N0@Z PROC NEAR	; SET_ENTITY_AS_MISSION_ENTITY, COMDAT

; Begin code for function: ?SET_ENTITY_AS_MISSION_ENTITY@@YAXK_N0@Z
; Line 679
	mflr         r12
	stw          r12,-8(r1)
	stwu         r1,-60h(r1)
.endprolog
$M104777:
	stw          r3,entity$(r1)		; 116 (74h)
	stb          r4,missionEntity$(r1)		; 127 (7Fh)
	stb          r5,unk1$(r1)		; 135 (87h)
; Line 680
	lbz          r7,unk1$(r1)		; 135 (87h)
	lbz          r6,missionEntity$(r1)		; 127 (7Fh)
	lwz          r5,entity$(r1)		; 116 (74h)
	li           r4,3
	lis          r11,23839		; 5D1Fh
	ori          r3,r11,40463		; 9E0Fh
	bl           ??$_CALL_NATIVE@K@@YAKKKZZ
; Line 681
	addi         r1,r1,96		; 60h
	lwz          r12,-8(r1)
	mtlr         r12
	blr
$M104778:
; End code for function: ?SET_ENTITY_AS_MISSION_ENTITY@@YAXK_N0@Z
?SET_ENTITY_AS_MISSION_ENTITY@@YAXK_N0@Z ENDP
							; SET_ENTITY_AS_MISSION_ENTITY
PUBLIC	?FREEZE_ENTITY_POSITION@@YAXK_N@Z		; FREEZE_ENTITY_POSITION
;	COMDAT .pdata
.pdata	SEGMENT
$T104785 DD	?FREEZE_ENTITY_POSITION@@YAXK_N@Z
	DD	040000f03H
; Function compile flags: /Odtu

	.code

?FREEZE_ENTITY_POSITION@@YAXK_N@Z PROC NEAR		; FREEZE_ENTITY_POSITION, COMDAT

; Begin code for function: ?FREEZE_ENTITY_POSITION@@YAXK_N@Z
; Line 671
	mflr         r12
	stw          r12,-8(r1)
	stwu         r1,-60h(r1)
.endprolog
$M104783:
	stw          r3,entity$(r1)		; 116 (74h)
	stb          r4,freeze$(r1)		; 127 (7Fh)
; Line 672
	lbz          r6,freeze$(r1)		; 127 (7Fh)
	lwz          r5,entity$(r1)		; 116 (74h)
	li           r4,2
	lis          r11,26049		; 65C1h
	ori          r3,r11,27991		; 6D57h
	bl           ??$_CALL_NATIVE@K@@YAKKKZZ
; Line 673
	addi         r1,r1,96		; 60h
	lwz          r12,-8(r1)
	mtlr         r12
	blr
$M104784:
; End code for function: ?FREEZE_ENTITY_POSITION@@YAXK_N@Z
?FREEZE_ENTITY_POSITION@@YAXK_N@Z ENDP
							; FREEZE_ENTITY_POSITION
PUBLIC	?APPLY_FORCE_TO_ENTITY@@YAXKKMMMMMM_N00000@Z	; APPLY_FORCE_TO_ENTITY
;	COMDAT .pdata
.pdata	SEGMENT
$T104791 DD	?APPLY_FORCE_TO_ENTITY@@YAXKKMMMMMM_N00000@Z
	DD	040002903H
; Function compile flags: /Odtu

	.code

?APPLY_FORCE_TO_ENTITY@@YAXKKMMMMMM_N00000@Z PROC NEAR	; APPLY_FORCE_TO_ENTITY, COMDAT

; Begin code for function: ?APPLY_FORCE_TO_ENTITY@@YAXKKMMMMMM_N00000@Z
; Line 659
	mflr         r12
	stw          r12,-8(r1)
	stwu         r1,-0A0h(r1)
.endprolog
$M104789:
	stw          r3,entity$(r1)		; 180 (0B4h)
	stw          r4,forceType$(r1)		; 188 (0BCh)
	stfs         fr1,x$(r1)		; 196 (0C4h)
	stfs         fr2,y$(r1)		; 204 (0CCh)
	stfs         fr3,z$(r1)		; 212 (0D4h)
	stfs         fr4,xRot$(r1)		; 220 (0DCh)
	stfs         fr5,yRot$(r1)		; 228 (0E4h)
	stfs         fr6,zRot$(r1)		; 236 (0ECh)
; Line 660
	lbz          r11,unk4$(r1)		; 287 (11Fh)
	stw          r11,8Ch(r1)
	lbz          r10,unk3$(r1)		; 279 (117h)
	stw          r10,84h(r1)
	lbz          r9,unk2$(r1)		; 271 (10Fh)
	stw          r9,7Ch(r1)
	lbz          r8,ignoreUpVec$(r1)		; 263 (107h)
	stw          r8,74h(r1)
	lbz          r7,isRel$(r1)		; 255 (0FFh)
	stw          r7,6Ch(r1)
	lbz          r6,unk1$(r1)		; 247 (0F7h)
	stw          r6,64h(r1)
	lwz          r5,zRot$(r1)		; 236 (0ECh)
	stw          r5,5Ch(r1)
	lwz          r4,yRot$(r1)		; 228 (0E4h)
	stw          r4,54h(r1)
	lwz          r10,xRot$(r1)		; 220 (0DCh)
	lwz          r9,z$(r1)		; 212 (0D4h)
	lwz          r8,y$(r1)		; 204 (0CCh)
	lwz          r7,x$(r1)		; 196 (0C4h)
	lwz          r6,forceType$(r1)		; 188 (0BCh)
	lwz          r5,entity$(r1)		; 180 (0B4h)
	li           r4,14		; 0Eh
	lis          r3,-15936		; 0C1C0h
	ori          r3,r3,34138		; 855Ah
	bl           ??$_CALL_NATIVE@K@@YAKKKZZ
; Line 661
	addi         r1,r1,160		; 0A0h
	lwz          r12,-8(r1)
	mtlr         r12
	blr
$M104790:
; End code for function: ?APPLY_FORCE_TO_ENTITY@@YAXKKMMMMMM_N00000@Z
?APPLY_FORCE_TO_ENTITY@@YAXKKMMMMMM_N00000@Z ENDP
							; APPLY_FORCE_TO_ENTITY
PUBLIC	?IS_ENTITY_VISIBLE@@YA_NK@Z			; IS_ENTITY_VISIBLE
;	COMDAT .pdata
.pdata	SEGMENT
$T104797 DD	?IS_ENTITY_VISIBLE@@YA_NK@Z
	DD	040001003H
; Function compile flags: /Odtu

	.code

?IS_ENTITY_VISIBLE@@YA_NK@Z PROC NEAR			; IS_ENTITY_VISIBLE, COMDAT

; Begin code for function: ?IS_ENTITY_VISIBLE@@YA_NK@Z
; Line 655
	mflr         r12
	stw          r12,-8(r1)
	stwu         r1,-60h(r1)
.endprolog
$M104795:
	stw          r3,entity$(r1)		; 116 (74h)
; Line 656
	lwz          r5,entity$(r1)		; 116 (74h)
	li           r4,1
	lis          r11,4619		; 120Bh
	ori          r3,r11,20181		; 4ED5h
	bl           ??$_CALL_NATIVE@H@@YAHKKZZ
	cntlzw       r10,r3
	rlwinm       r9,r10,27,31,31
	xori         r3,r9,1
; Line 657
	addi         r1,r1,96		; 60h
	lwz          r12,-8(r1)
	mtlr         r12
	blr
$M104796:
; End code for function: ?IS_ENTITY_VISIBLE@@YA_NK@Z
?IS_ENTITY_VISIBLE@@YA_NK@Z ENDP
							; IS_ENTITY_VISIBLE
PUBLIC	?IS_ENTITY_DEAD@@YA_NK@Z			; IS_ENTITY_DEAD
;	COMDAT .pdata
.pdata	SEGMENT
$T104803 DD	?IS_ENTITY_DEAD@@YA_NK@Z
	DD	040001003H
; Function compile flags: /Odtu

	.code

?IS_ENTITY_DEAD@@YA_NK@Z PROC NEAR			; IS_ENTITY_DEAD, COMDAT

; Begin code for function: ?IS_ENTITY_DEAD@@YA_NK@Z
; Line 647
	mflr         r12
	stw          r12,-8(r1)
	stwu         r1,-60h(r1)
.endprolog
$M104801:
	stw          r3,entity$(r1)		; 116 (74h)
; Line 648
	lwz          r5,entity$(r1)		; 116 (74h)
	li           r4,1
	lis          r11,-18697		; 0B6F7h
	ori          r3,r11,52140		; 0CBACh
	bl           ??$_CALL_NATIVE@H@@YAHKKZZ
	cntlzw       r10,r3
	rlwinm       r9,r10,27,31,31
	xori         r3,r9,1
; Line 649
	addi         r1,r1,96		; 60h
	lwz          r12,-8(r1)
	mtlr         r12
	blr
$M104802:
; End code for function: ?IS_ENTITY_DEAD@@YA_NK@Z
?IS_ENTITY_DEAD@@YA_NK@Z ENDP
							; IS_ENTITY_DEAD
PUBLIC	?GET_ENTITY_SPEED@@YAMK@Z			; GET_ENTITY_SPEED
;	COMDAT .pdata
.pdata	SEGMENT
$T104809 DD	?GET_ENTITY_SPEED@@YAMK@Z
	DD	040000d03H
; Function compile flags: /Odtu

	.code

?GET_ENTITY_SPEED@@YAMK@Z PROC NEAR			; GET_ENTITY_SPEED, COMDAT

; Begin code for function: ?GET_ENTITY_SPEED@@YAMK@Z
; Line 635
	mflr         r12
	stw          r12,-8(r1)
	stwu         r1,-60h(r1)
.endprolog
$M104807:
	stw          r3,entity$(r1)		; 116 (74h)
; Line 636
	lwz          r5,entity$(r1)		; 116 (74h)
	li           r4,1
	lis          r11,-25058		; 9E1Eh
	ori          r3,r11,18328		; 4798h
	bl           ??$_CALL_NATIVE@M@@YAMKKZZ
; Line 637
	addi         r1,r1,96		; 60h
	lwz          r12,-8(r1)
	mtlr         r12
	blr
$M104808:
; End code for function: ?GET_ENTITY_SPEED@@YAMK@Z
?GET_ENTITY_SPEED@@YAMK@Z ENDP
							; GET_ENTITY_SPEED
PUBLIC	?GET_ENTITY_MODEL@@YAKK@Z			; GET_ENTITY_MODEL
;	COMDAT .pdata
.pdata	SEGMENT
$T104815 DD	?GET_ENTITY_MODEL@@YAKK@Z
	DD	040000d03H
; Function compile flags: /Odtu

	.code

?GET_ENTITY_MODEL@@YAKK@Z PROC NEAR			; GET_ENTITY_MODEL, COMDAT

; Begin code for function: ?GET_ENTITY_MODEL@@YAKK@Z
; Line 631
	mflr         r12
	stw          r12,-8(r1)
	stwu         r1,-60h(r1)
.endprolog
$M104813:
	stw          r3,entity$(r1)		; 116 (74h)
; Line 632
	lwz          r5,entity$(r1)		; 116 (74h)
	li           r4,1
	lis          r11,-9476		; 0DAFCh
	ori          r3,r11,46060		; 0B3ECh
	bl           ??$_CALL_NATIVE@K@@YAKKKZZ
; Line 633
	addi         r1,r1,96		; 60h
	lwz          r12,-8(r1)
	mtlr         r12
	blr
$M104814:
; End code for function: ?GET_ENTITY_MODEL@@YAKK@Z
?GET_ENTITY_MODEL@@YAKK@Z ENDP
							; GET_ENTITY_MODEL
PUBLIC	?GET_ENTITY_ROTATION@@YA?AU_Vector3@@KK@Z	; GET_ENTITY_ROTATION
;	COMDAT .pdata
.pdata	SEGMENT
$T104821 DD	?GET_ENTITY_ROTATION@@YA?AU_Vector3@@KK@Z
	DD	040001203H
; Function compile flags: /Odtu

	.code

?GET_ENTITY_ROTATION@@YA?AU_Vector3@@KK@Z PROC NEAR	; GET_ENTITY_ROTATION, COMDAT

; Begin code for function: ?GET_ENTITY_ROTATION@@YA?AU_Vector3@@KK@Z
; Line 627
	mflr         r12
	stw          r12,-8(r1)
	stwu         r1,-60h(r1)
.endprolog
$M104819:
	stw          r3,__$ReturnUdt$(r1)		; 116 (74h)
	stw          r4,entity$(r1)		; 124 (7Ch)
	stw          r5,unk1$(r1)		; 132 (84h)
; Line 628
	lwz          r7,unk1$(r1)		; 132 (84h)
	lwz          r6,entity$(r1)		; 124 (7Ch)
	li           r5,2
	lis          r11,-28684		; 8FF4h
	ori          r4,r11,23300		; 5B04h
	lwz          r3,__$ReturnUdt$(r1)		; 116 (74h)
	bl           ??$_CALL_NATIVE@U_Vector3@@@@YA?AU_Vector3@@KKZZ
	lwz          r3,__$ReturnUdt$(r1)		; 116 (74h)
; Line 629
	addi         r1,r1,96		; 60h
	lwz          r12,-8(r1)
	mtlr         r12
	blr
$M104820:
; End code for function: ?GET_ENTITY_ROTATION@@YA?AU_Vector3@@KK@Z
?GET_ENTITY_ROTATION@@YA?AU_Vector3@@KK@Z ENDP
							; GET_ENTITY_ROTATION
PUBLIC	?GET_ENTITY_HEADING@@YAMK@Z			; GET_ENTITY_HEADING
;	COMDAT .pdata
.pdata	SEGMENT
$T104827 DD	?GET_ENTITY_HEADING@@YAMK@Z
	DD	040000d03H
; Function compile flags: /Odtu

	.code

?GET_ENTITY_HEADING@@YAMK@Z PROC NEAR			; GET_ENTITY_HEADING, COMDAT

; Begin code for function: ?GET_ENTITY_HEADING@@YAMK@Z
; Line 607
	mflr         r12
	stw          r12,-8(r1)
	stwu         r1,-60h(r1)
.endprolog
$M104825:
	stw          r3,entity$(r1)		; 116 (74h)
; Line 608
	lwz          r5,entity$(r1)		; 116 (74h)
	li           r4,1
	lis          r11,-26836		; 972Ch
	ori          r3,r11,50051		; 0C383h
	bl           ??$_CALL_NATIVE@M@@YAMKKZZ
; Line 609
	addi         r1,r1,96		; 60h
	lwz          r12,-8(r1)
	mtlr         r12
	blr
$M104826:
; End code for function: ?GET_ENTITY_HEADING@@YAMK@Z
?GET_ENTITY_HEADING@@YAMK@Z ENDP
							; GET_ENTITY_HEADING
PUBLIC	?GET_ENTITY_COORDS@@YA?AU_Vector3@@K_N@Z	; GET_ENTITY_COORDS
;	COMDAT .pdata
.pdata	SEGMENT
$T104833 DD	?GET_ENTITY_COORDS@@YA?AU_Vector3@@K_N@Z
	DD	040001203H
; Function compile flags: /Odtu

	.code

?GET_ENTITY_COORDS@@YA?AU_Vector3@@K_N@Z PROC NEAR	; GET_ENTITY_COORDS, COMDAT

; Begin code for function: ?GET_ENTITY_COORDS@@YA?AU_Vector3@@K_N@Z
; Line 603
	mflr         r12
	stw          r12,-8(r1)
	stwu         r1,-60h(r1)
.endprolog
$M104831:
	stw          r3,__$ReturnUdt$(r1)		; 116 (74h)
	stw          r4,entity$(r1)		; 124 (7Ch)
	stb          r5,alive$(r1)		; 135 (87h)
; Line 604
	lbz          r7,alive$(r1)		; 135 (87h)
	lwz          r6,entity$(r1)		; 124 (7Ch)
	li           r5,2
	lis          r11,5703		; 1647h
	ori          r4,r11,61899		; 0F1CBh
	lwz          r3,__$ReturnUdt$(r1)		; 116 (74h)
	bl           ??$_CALL_NATIVE@U_Vector3@@@@YA?AU_Vector3@@KKZZ
	lwz          r3,__$ReturnUdt$(r1)		; 116 (74h)
; Line 605
	addi         r1,r1,96		; 60h
	lwz          r12,-8(r1)
	mtlr         r12
	blr
$M104832:
; End code for function: ?GET_ENTITY_COORDS@@YA?AU_Vector3@@K_N@Z
?GET_ENTITY_COORDS@@YA?AU_Vector3@@K_N@Z ENDP
							; GET_ENTITY_COORDS
PUBLIC	?HAS_ENTITY_CLEAR_LOS_TO_ENTITY@@YA_NKKK@Z	; HAS_ENTITY_CLEAR_LOS_TO_ENTITY
;	COMDAT .pdata
.pdata	SEGMENT
$T104839 DD	?HAS_ENTITY_CLEAR_LOS_TO_ENTITY@@YA_NKKK@Z
	DD	040001403H
; Function compile flags: /Odtu

	.code

?HAS_ENTITY_CLEAR_LOS_TO_ENTITY@@YA_NKKK@Z PROC NEAR	; HAS_ENTITY_CLEAR_LOS_TO_ENTITY, COMDAT

; Begin code for function: ?HAS_ENTITY_CLEAR_LOS_TO_ENTITY@@YA_NKKK@Z
; Line 595
	mflr         r12
	stw          r12,-8(r1)
	stwu         r1,-60h(r1)
.endprolog
$M104837:
	stw          r3,ent1$(r1)		; 116 (74h)
	stw          r4,ent2$(r1)		; 124 (7Ch)
	stw          r5,trace$(r1)		; 132 (84h)
; Line 596
	lwz          r7,trace$(r1)		; 132 (84h)
	lwz          r6,ent2$(r1)		; 124 (7Ch)
	lwz          r5,ent1$(r1)		; 116 (74h)
	li           r4,3
	lis          r11,21335		; 5357h
	ori          r3,r11,28583		; 6FA7h
	bl           ??$_CALL_NATIVE@H@@YAHKKZZ
	cntlzw       r10,r3
	rlwinm       r9,r10,27,31,31
	xori         r3,r9,1
; Line 597
	addi         r1,r1,96		; 60h
	lwz          r12,-8(r1)
	mtlr         r12
	blr
$M104838:
; End code for function: ?HAS_ENTITY_CLEAR_LOS_TO_ENTITY@@YA_NKKK@Z
?HAS_ENTITY_CLEAR_LOS_TO_ENTITY@@YA_NKKK@Z ENDP
							; HAS_ENTITY_CLEAR_LOS_TO_ENTITY
PUBLIC	?DOES_ENTITY_EXIST@@YA_NK@Z			; DOES_ENTITY_EXIST
;	COMDAT .pdata
.pdata	SEGMENT
$T104845 DD	?DOES_ENTITY_EXIST@@YA_NK@Z
	DD	040001003H
; Function compile flags: /Odtu

	.code

?DOES_ENTITY_EXIST@@YA_NK@Z PROC NEAR			; DOES_ENTITY_EXIST, COMDAT

; Begin code for function: ?DOES_ENTITY_EXIST@@YA_NK@Z
; Line 591
	mflr         r12
	stw          r12,-8(r1)
	stwu         r1,-60h(r1)
.endprolog
$M104843:
	stw          r3,entity$(r1)		; 116 (74h)
; Line 592
	lwz          r5,entity$(r1)		; 116 (74h)
	li           r4,1
	lis          r11,15049		; 3AC9h
	ori          r3,r11,2153		; 869h
	bl           ??$_CALL_NATIVE@H@@YAHKKZZ
	cntlzw       r10,r3
	rlwinm       r9,r10,27,31,31
	xori         r3,r9,1
; Line 593
	addi         r1,r1,96		; 60h
	lwz          r12,-8(r1)
	mtlr         r12
	blr
$M104844:
; End code for function: ?DOES_ENTITY_EXIST@@YA_NK@Z
?DOES_ENTITY_EXIST@@YA_NK@Z ENDP
							; DOES_ENTITY_EXIST
PUBLIC	?SET_MOVE_SPEED_MULTIPLIER@@YAXKM@Z		; SET_MOVE_SPEED_MULTIPLIER
;	COMDAT .pdata
.pdata	SEGMENT
$T104851 DD	?SET_MOVE_SPEED_MULTIPLIER@@YAXKM@Z
	DD	040000f03H
; Function compile flags: /Odtu

	.code

?SET_MOVE_SPEED_MULTIPLIER@@YAXKM@Z PROC NEAR		; SET_MOVE_SPEED_MULTIPLIER, COMDAT

; Begin code for function: ?SET_MOVE_SPEED_MULTIPLIER@@YAXKM@Z
; Line 586
	mflr         r12
	stw          r12,-8(r1)
	stwu         r1,-60h(r1)
.endprolog
$M104849:
	stw          r3,player$(r1)		; 116 (74h)
	stfs         fr1,multiplier$(r1)		; 124 (7Ch)
; Line 587
	lwz          r6,multiplier$(r1)		; 124 (7Ch)
	lwz          r5,player$(r1)		; 116 (74h)
	li           r4,2
	lis          r11,-32172		; 8254h
	ori          r3,r11,9154		; 23C2h
	bl           ??$_CALL_NATIVE@K@@YAKKKZZ
; Line 588
	addi         r1,r1,96		; 60h
	lwz          r12,-8(r1)
	mtlr         r12
	blr
$M104850:
; End code for function: ?SET_MOVE_SPEED_MULTIPLIER@@YAXKM@Z
?SET_MOVE_SPEED_MULTIPLIER@@YAXKM@Z ENDP
							; SET_MOVE_SPEED_MULTIPLIER
PUBLIC	?SET_SWIM_SPEED_MULTIPLIER@@YAXKM@Z		; SET_SWIM_SPEED_MULTIPLIER
;	COMDAT .pdata
.pdata	SEGMENT
$T104857 DD	?SET_SWIM_SPEED_MULTIPLIER@@YAXKM@Z
	DD	040000f03H
; Function compile flags: /Odtu

	.code

?SET_SWIM_SPEED_MULTIPLIER@@YAXKM@Z PROC NEAR		; SET_SWIM_SPEED_MULTIPLIER, COMDAT

; Begin code for function: ?SET_SWIM_SPEED_MULTIPLIER@@YAXKM@Z
; Line 582
	mflr         r12
	stw          r12,-8(r1)
	stwu         r1,-60h(r1)
.endprolog
$M104855:
	stw          r3,player$(r1)		; 116 (74h)
	stfs         fr1,multiplier$(r1)		; 124 (7Ch)
; Line 583
	lwz          r6,multiplier$(r1)		; 124 (7Ch)
	lwz          r5,player$(r1)		; 116 (74h)
	li           r4,2
	lis          r11,-18042		; 0B986h
	ori          r3,r11,65351		; 0FF47h
	bl           ??$_CALL_NATIVE@K@@YAKKKZZ
; Line 584
	addi         r1,r1,96		; 60h
	lwz          r12,-8(r1)
	mtlr         r12
	blr
$M104856:
; End code for function: ?SET_SWIM_SPEED_MULTIPLIER@@YAXKM@Z
?SET_SWIM_SPEED_MULTIPLIER@@YAXKM@Z ENDP
							; SET_SWIM_SPEED_MULTIPLIER
PUBLIC	?GET_PLAYER_INVINCIBLE@@YA_NK@Z			; GET_PLAYER_INVINCIBLE
;	COMDAT .pdata
.pdata	SEGMENT
$T104863 DD	?GET_PLAYER_INVINCIBLE@@YA_NK@Z
	DD	040001003H
; Function compile flags: /Odtu

	.code

?GET_PLAYER_INVINCIBLE@@YA_NK@Z	PROC NEAR		; GET_PLAYER_INVINCIBLE, COMDAT

; Begin code for function: ?GET_PLAYER_INVINCIBLE@@YA_NK@Z
; Line 578
	mflr         r12
	stw          r12,-8(r1)
	stwu         r1,-60h(r1)
.endprolog
$M104861:
	stw          r3,player$(r1)		; 116 (74h)
; Line 579
	lwz          r5,player$(r1)		; 116 (74h)
	li           r4,1
	lis          r11,26636		; 680Ch
	ori          r3,r11,37102		; 90EEh
	bl           ??$_CALL_NATIVE@H@@YAHKKZZ
	cntlzw       r10,r3
	rlwinm       r9,r10,27,31,31
	xori         r3,r9,1
; Line 580
	addi         r1,r1,96		; 60h
	lwz          r12,-8(r1)
	mtlr         r12
	blr
$M104862:
; End code for function: ?GET_PLAYER_INVINCIBLE@@YA_NK@Z
?GET_PLAYER_INVINCIBLE@@YA_NK@Z ENDP
							; GET_PLAYER_INVINCIBLE
PUBLIC	?SET_PLAYER_INVINCIBLE@@YAXK_N@Z		; SET_PLAYER_INVINCIBLE
;	COMDAT .pdata
.pdata	SEGMENT
$T104869 DD	?SET_PLAYER_INVINCIBLE@@YAXK_N@Z
	DD	040000f03H
; Function compile flags: /Odtu

	.code

?SET_PLAYER_INVINCIBLE@@YAXK_N@Z PROC NEAR		; SET_PLAYER_INVINCIBLE, COMDAT

; Begin code for function: ?SET_PLAYER_INVINCIBLE@@YAXK_N@Z
; Line 574
	mflr         r12
	stw          r12,-8(r1)
	stwu         r1,-60h(r1)
.endprolog
$M104867:
	stw          r3,player$(r1)		; 116 (74h)
	stb          r4,invincible$(r1)		; 127 (7Fh)
; Line 575
	lbz          r6,invincible$(r1)		; 127 (7Fh)
	lwz          r5,player$(r1)		; 116 (74h)
	li           r4,2
	lis          r11,-8263		; 0DFB9h
	ori          r3,r11,41634		; 0A2A2h
	bl           ??$_CALL_NATIVE@K@@YAKKKZZ
; Line 576
	addi         r1,r1,96		; 60h
	lwz          r12,-8(r1)
	mtlr         r12
	blr
$M104868:
; End code for function: ?SET_PLAYER_INVINCIBLE@@YAXK_N@Z
?SET_PLAYER_INVINCIBLE@@YAXK_N@Z ENDP
							; SET_PLAYER_INVINCIBLE
PUBLIC	?PLAYER_PED_ID@@YAKXZ				; PLAYER_PED_ID
;	COMDAT .pdata
.pdata	SEGMENT
$T104875 DD	?PLAYER_PED_ID@@YAKXZ
	DD	040000b03H
; Function compile flags: /Odtu

	.code

?PLAYER_PED_ID@@YAKXZ PROC NEAR				; PLAYER_PED_ID, COMDAT

; Begin code for function: ?PLAYER_PED_ID@@YAKXZ
; Line 570
	mflr         r12
	stw          r12,-8(r1)
	stwu         r1,-60h(r1)
.endprolog
$M104873:
; Line 571
	li           r4,0
	lis          r11,-1390		; 0FA92h
	ori          r3,r11,57894		; 0E226h
	bl           ??$_CALL_NATIVE@K@@YAKKKZZ
; Line 572
	addi         r1,r1,96		; 60h
	lwz          r12,-8(r1)
	mtlr         r12
	blr
$M104874:
; End code for function: ?PLAYER_PED_ID@@YAKXZ
?PLAYER_PED_ID@@YAKXZ ENDP
							; PLAYER_PED_ID
PUBLIC	?PLAYER_ID@@YAKXZ				; PLAYER_ID
;	COMDAT .pdata
.pdata	SEGMENT
$T104881 DD	?PLAYER_ID@@YAKXZ
	DD	040000b03H
; Function compile flags: /Odtu

	.code

?PLAYER_ID@@YAKXZ PROC NEAR				; PLAYER_ID, COMDAT

; Begin code for function: ?PLAYER_ID@@YAKXZ
; Line 566
	mflr         r12
	stw          r12,-8(r1)
	stwu         r1,-60h(r1)
.endprolog
$M104879:
; Line 567
	li           r4,0
	lis          r11,-29974		; 8AEAh
	ori          r3,r11,34924		; 886Ch
	bl           ??$_CALL_NATIVE@K@@YAKKKZZ
; Line 568
	addi         r1,r1,96		; 60h
	lwz          r12,-8(r1)
	mtlr         r12
	blr
$M104880:
; End code for function: ?PLAYER_ID@@YAKXZ
?PLAYER_ID@@YAKXZ ENDP
							; PLAYER_ID
PUBLIC	?GET_AIMED_ENTITY@@YAKK@Z			; GET_AIMED_ENTITY
;	COMDAT .pdata
.pdata	SEGMENT
$T104887 DD	?GET_AIMED_ENTITY@@YAKK@Z
	DD	040000f03H
; Function compile flags: /Odtu

	.code
entity$ = 80						; size = 4

?GET_AIMED_ENTITY@@YAKK@Z PROC NEAR			; GET_AIMED_ENTITY, COMDAT

; Begin code for function: ?GET_AIMED_ENTITY@@YAKK@Z
; Line 560
	mflr         r12
	stw          r12,-8(r1)
	stwu         r1,-60h(r1)
.endprolog
$M104885:
	stw          r3,player$(r1)		; 116 (74h)
; Line 562
	addi         r6,r1,entity$
	lwz          r5,player$(r1)		; 116 (74h)
	li           r4,2
	lis          r11,-30618		; 8866h
	ori          r3,r11,55760		; 0D9D0h
	bl           ??$_CALL_NATIVE@K@@YAKKKZZ
; Line 563
	lwz          r3,entity$(r1)		; 80 (50h)
; Line 564
	addi         r1,r1,96		; 60h
	lwz          r12,-8(r1)
	mtlr         r12
	blr
$M104886:
; End code for function: ?GET_AIMED_ENTITY@@YAKK@Z
?GET_AIMED_ENTITY@@YAKK@Z ENDP
							; GET_AIMED_ENTITY
PUBLIC	?IS_PLAYER_PRESSING_HORN@@YA_NK@Z		; IS_PLAYER_PRESSING_HORN
;	COMDAT .pdata
.pdata	SEGMENT
$T104893 DD	?IS_PLAYER_PRESSING_HORN@@YA_NK@Z
	DD	040001003H
; Function compile flags: /Odtu

	.code

?IS_PLAYER_PRESSING_HORN@@YA_NK@Z PROC NEAR		; IS_PLAYER_PRESSING_HORN, COMDAT

; Begin code for function: ?IS_PLAYER_PRESSING_HORN@@YA_NK@Z
; Line 548
	mflr         r12
	stw          r12,-8(r1)
	stwu         r1,-60h(r1)
.endprolog
$M104891:
	stw          r3,player$(r1)		; 116 (74h)
; Line 549
	lwz          r5,player$(r1)		; 116 (74h)
	li           r4,1
	lis          r11,-4835		; 0ED1Dh
	ori          r3,r11,5730		; 1662h
	bl           ??$_CALL_NATIVE@H@@YAHKKZZ
	cntlzw       r10,r3
	rlwinm       r9,r10,27,31,31
	xori         r3,r9,1
; Line 550
	addi         r1,r1,96		; 60h
	lwz          r12,-8(r1)
	mtlr         r12
	blr
$M104892:
; End code for function: ?IS_PLAYER_PRESSING_HORN@@YA_NK@Z
?IS_PLAYER_PRESSING_HORN@@YA_NK@Z ENDP
							; IS_PLAYER_PRESSING_HORN
PUBLIC	?IS_PLAYER_DEAD@@YA_NK@Z			; IS_PLAYER_DEAD
;	COMDAT .pdata
.pdata	SEGMENT
$T104899 DD	?IS_PLAYER_DEAD@@YA_NK@Z
	DD	040001003H
; Function compile flags: /Odtu

	.code

?IS_PLAYER_DEAD@@YA_NK@Z PROC NEAR			; IS_PLAYER_DEAD, COMDAT

; Begin code for function: ?IS_PLAYER_DEAD@@YA_NK@Z
; Line 544
	mflr         r12
	stw          r12,-8(r1)
	stwu         r1,-60h(r1)
.endprolog
$M104897:
	stw          r3,player$(r1)		; 116 (74h)
; Line 545
	lwz          r5,player$(r1)		; 116 (74h)
	li           r4,1
	lis          r11,5132		; 140Ch
	ori          r3,r11,42408		; 0A5A8h
	bl           ??$_CALL_NATIVE@H@@YAHKKZZ
	cntlzw       r10,r3
	rlwinm       r9,r10,27,31,31
	xori         r3,r9,1
; Line 546
	addi         r1,r1,96		; 60h
	lwz          r12,-8(r1)
	mtlr         r12
	blr
$M104898:
; End code for function: ?IS_PLAYER_DEAD@@YA_NK@Z
?IS_PLAYER_DEAD@@YA_NK@Z ENDP
							; IS_PLAYER_DEAD
PUBLIC	?CLEAR_PLAYER_WANTED_LEVEL@@YAXK@Z		; CLEAR_PLAYER_WANTED_LEVEL
;	COMDAT .pdata
.pdata	SEGMENT
$T104905 DD	?CLEAR_PLAYER_WANTED_LEVEL@@YAXK@Z
	DD	040000d03H
; Function compile flags: /Odtu

	.code

?CLEAR_PLAYER_WANTED_LEVEL@@YAXK@Z PROC NEAR		; CLEAR_PLAYER_WANTED_LEVEL, COMDAT

; Begin code for function: ?CLEAR_PLAYER_WANTED_LEVEL@@YAXK@Z
; Line 540
	mflr         r12
	stw          r12,-8(r1)
	stwu         r1,-60h(r1)
.endprolog
$M104903:
	stw          r3,player$(r1)		; 116 (74h)
; Line 541
	lwz          r5,player$(r1)		; 116 (74h)
	li           r4,1
	lis          r11,21738		; 54EAh
	ori          r3,r11,23500		; 5BCCh
	bl           ??$_CALL_NATIVE@K@@YAKKKZZ
; Line 542
	addi         r1,r1,96		; 60h
	lwz          r12,-8(r1)
	mtlr         r12
	blr
$M104904:
; End code for function: ?CLEAR_PLAYER_WANTED_LEVEL@@YAXK@Z
?CLEAR_PLAYER_WANTED_LEVEL@@YAXK@Z ENDP
							; CLEAR_PLAYER_WANTED_LEVEL
PUBLIC	?GET_PLAYER_NAME@@YAPADK@Z			; GET_PLAYER_NAME
;	COMDAT .pdata
.pdata	SEGMENT
$T104911 DD	?GET_PLAYER_NAME@@YAPADK@Z
	DD	040000d03H
; Function compile flags: /Odtu

	.code

?GET_PLAYER_NAME@@YAPADK@Z PROC NEAR			; GET_PLAYER_NAME, COMDAT

; Begin code for function: ?GET_PLAYER_NAME@@YAPADK@Z
; Line 536
	mflr         r12
	stw          r12,-8(r1)
	stwu         r1,-60h(r1)
.endprolog
$M104909:
	stw          r3,player$(r1)		; 116 (74h)
; Line 537
	lwz          r5,player$(r1)		; 116 (74h)
	li           r4,1
	lis          r11,16491		; 406Bh
	ori          r3,r11,19232		; 4B20h
	bl           ??$_CALL_NATIVE@PAD@@YAPADKKZZ
; Line 538
	addi         r1,r1,96		; 60h
	lwz          r12,-8(r1)
	mtlr         r12
	blr
$M104910:
; End code for function: ?GET_PLAYER_NAME@@YAPADK@Z
?GET_PLAYER_NAME@@YAPADK@Z ENDP
							; GET_PLAYER_NAME
PUBLIC	?SET_PLAYER_MODEL@@YAXKK@Z			; SET_PLAYER_MODEL
;	COMDAT .pdata
.pdata	SEGMENT
$T104917 DD	?SET_PLAYER_MODEL@@YAXKK@Z
	DD	040000f03H
; Function compile flags: /Odtu

	.code

?SET_PLAYER_MODEL@@YAXKK@Z PROC NEAR			; SET_PLAYER_MODEL, COMDAT

; Begin code for function: ?SET_PLAYER_MODEL@@YAXKK@Z
; Line 520
	mflr         r12
	stw          r12,-8(r1)
	stwu         r1,-60h(r1)
.endprolog
$M104915:
	stw          r3,player$(r1)		; 116 (74h)
	stw          r4,modelHash$(r1)		; 124 (7Ch)
; Line 521
	lwz          r6,modelHash$(r1)		; 124 (7Ch)
	lwz          r5,player$(r1)		; 116 (74h)
	li           r4,2
	lis          r11,30538		; 774Ah
	ori          r3,r11,19540		; 4C54h
	bl           ??$_CALL_NATIVE@K@@YAKKKZZ
; Line 522
	addi         r1,r1,96		; 60h
	lwz          r12,-8(r1)
	mtlr         r12
	blr
$M104916:
; End code for function: ?SET_PLAYER_MODEL@@YAXKK@Z
?SET_PLAYER_MODEL@@YAXKK@Z ENDP
							; SET_PLAYER_MODEL
PUBLIC	?GET_PLAYER_PED@@YAKK@Z				; GET_PLAYER_PED
;	COMDAT .pdata
.pdata	SEGMENT
$T104923 DD	?GET_PLAYER_PED@@YAKK@Z
	DD	040000d03H
; Function compile flags: /Odtu

	.code

?GET_PLAYER_PED@@YAKK@Z	PROC NEAR			; GET_PLAYER_PED, COMDAT

; Begin code for function: ?GET_PLAYER_PED@@YAKK@Z
; Line 516
	mflr         r12
	stw          r12,-8(r1)
	stwu         r1,-60h(r1)
.endprolog
$M104921:
	stw          r3,player$(r1)		; 116 (74h)
; Line 517
	lwz          r5,player$(r1)		; 116 (74h)
	li           r4,1
	lis          r11,28209		; 6E31h
	ori          r3,r11,59795		; 0E993h
	bl           ??$_CALL_NATIVE@K@@YAKKKZZ
; Line 518
	addi         r1,r1,96		; 60h
	lwz          r12,-8(r1)
	mtlr         r12
	blr
$M104922:
; End code for function: ?GET_PLAYER_PED@@YAKK@Z
?GET_PLAYER_PED@@YAKK@Z ENDP
							; GET_PLAYER_PED
PUBLIC	?_TELEPORT@@YAXMMM@Z				; _TELEPORT
;	COMDAT .pdata
.pdata	SEGMENT
$T104931 DD	?_TELEPORT@@YAXMMM@Z
	DD	040002203H
; Function compile flags: /Odtu

	.code
tv76 = 80						; size = 4

?_TELEPORT@@YAXMMM@Z PROC NEAR				; _TELEPORT, COMDAT

; Begin code for function: ?_TELEPORT@@YAXMMM@Z
; Line 506
	mflr         r12
	stw          r12,-8(r1)
	stwu         r1,-60h(r1)
.endprolog
$M104929:
	stfs         fr1,x$(r1)		; 116 (74h)
	stfs         fr2,y$(r1)		; 124 (7Ch)
	stfs         fr3,z$(r1)		; 132 (84h)
; Line 507
	li           r4,0
	lis          r11,?_Ped@@3KA
	lwz          r3,?_Ped@@3KA(r11)
	bl           ?IS_PED_IN_ANY_VEHICLE@@YA_NKK@Z
	clrlwi       r10,r3,24
	cmpwi        cr6,r10,0
	beq          cr6,$LN3@TELEPORT
	lis          r9,?_Vehicle@@3KA
	lwz          r8,?_Vehicle@@3KA(r9)
	stw          r8,50h(r1)
	b            $LN4@TELEPORT
$LN3@TELEPORT:
	lis          r7,?_Ped@@3KA
	lwz          r6,?_Ped@@3KA(r7)
	stw          r6,50h(r1)
$LN4@TELEPORT:
	li           r10,1
	li           r9,0
	li           r8,0
	li           r7,0
	lfs          fr3,z$(r1)		; 132 (84h)
	lfs          fr2,y$(r1)		; 124 (7Ch)
	lfs          fr1,x$(r1)		; 116 (74h)
	lwz          r3,50h(r1)
	bl           ?SET_ENTITY_COORDS@@YAXKMMMKKKK@Z
; Line 508
	bl           ?LOAD_ALL_OBJECTS_NOW@@YAXXZ
; Line 509
	addi         r1,r1,96		; 60h
	lwz          r12,-8(r1)
	mtlr         r12
	blr
$M104930:
; End code for function: ?_TELEPORT@@YAXMMM@Z
?_TELEPORT@@YAXMMM@Z ENDP
							; _TELEPORT
PUBLIC	?_REQUEST_CLIP_SET@@YA_NPAD@Z			; _REQUEST_CLIP_SET
;	COMDAT .pdata
.pdata	SEGMENT
$T104937 DD	?_REQUEST_CLIP_SET@@YA_NPAD@Z
	DD	040001403H
; Function compile flags: /Odtu

	.code

?_REQUEST_CLIP_SET@@YA_NPAD@Z PROC NEAR			; _REQUEST_CLIP_SET, COMDAT

; Begin code for function: ?_REQUEST_CLIP_SET@@YA_NPAD@Z
; Line 419
	mflr         r12
	stw          r12,-8(r1)
	stwu         r1,-60h(r1)
.endprolog
$M104935:
	stw          r3,clipSet$(r1)		; 116 (74h)
; Line 420
	lwz          r3,clipSet$(r1)		; 116 (74h)
	bl           ?HAS_CLIP_SET_LOADED@@YA_NPAD@Z
	clrlwi       r11,r3,24
	cmpwi        cr6,r11,0
	bne          cr6,$LN2@REQUEST_CL
; Line 421
	lwz          r3,clipSet$(r1)		; 116 (74h)
	bl           ?REQUEST_CLIP_SET@@YAXPAD@Z
; Line 422
	b            $LN1@REQUEST_CL
$LN2@REQUEST_CL:
; Line 423
	li           r3,1
	b            $LN3@REQUEST_CL
$LN1@REQUEST_CL:
; Line 424
	lwz          r3,clipSet$(r1)		; 116 (74h)
	bl           ?HAS_CLIP_SET_LOADED@@YA_NPAD@Z
$LN3@REQUEST_CL:
; Line 425
	addi         r1,r1,96		; 60h
	lwz          r12,-8(r1)
	mtlr         r12
	blr
$M104936:
; End code for function: ?_REQUEST_CLIP_SET@@YA_NPAD@Z
?_REQUEST_CLIP_SET@@YA_NPAD@Z ENDP
							; _REQUEST_CLIP_SET
PUBLIC	?_REQUEST_ANIM_DICT@@YA_NPAD@Z			; _REQUEST_ANIM_DICT
;	COMDAT .pdata
.pdata	SEGMENT
$T104943 DD	?_REQUEST_ANIM_DICT@@YA_NPAD@Z
	DD	040001403H
; Function compile flags: /Odtu

	.code

?_REQUEST_ANIM_DICT@@YA_NPAD@Z PROC NEAR			; _REQUEST_ANIM_DICT, COMDAT

; Begin code for function: ?_REQUEST_ANIM_DICT@@YA_NPAD@Z
; Line 411
	mflr         r12
	stw          r12,-8(r1)
	stwu         r1,-60h(r1)
.endprolog
$M104941:
	stw          r3,dict$(r1)		; 116 (74h)
; Line 412
	lwz          r3,dict$(r1)		; 116 (74h)
	bl           ?HAS_ANIM_DICT_LOADED@@YA_NPAD@Z
	clrlwi       r11,r3,24
	cmpwi        cr6,r11,0
	bne          cr6,$LN2@REQUEST_AN
; Line 413
	lwz          r3,dict$(r1)		; 116 (74h)
	bl           ?REQUEST_ANIM_DICT@@YAXPAD@Z
; Line 414
	b            $LN1@REQUEST_AN
$LN2@REQUEST_AN:
; Line 415
	li           r3,1
	b            $LN3@REQUEST_AN
$LN1@REQUEST_AN:
; Line 416
	lwz          r3,dict$(r1)		; 116 (74h)
	bl           ?HAS_ANIM_DICT_LOADED@@YA_NPAD@Z
$LN3@REQUEST_AN:
; Line 417
	addi         r1,r1,96		; 60h
	lwz          r12,-8(r1)
	mtlr         r12
	blr
$M104942:
; End code for function: ?_REQUEST_ANIM_DICT@@YA_NPAD@Z
?_REQUEST_ANIM_DICT@@YA_NPAD@Z ENDP
							; _REQUEST_ANIM_DICT
PUBLIC	?_PRINT_TEXT@@YAXPADZZ				; _PRINT_TEXT
;	COMDAT .pdata
.pdata	SEGMENT
$T104949 DD	?_PRINT_TEXT@@YAXPADZZ
	DD	040001f0aH
; Function compile flags: /Odtu

	.code
Buffer$ = 80						; size = 1024
VA_ARGS$ = 1104						; size = 4

?_PRINT_TEXT@@YAXPADZZ PROC NEAR				; _PRINT_TEXT, COMDAT

; Begin code for function: ?_PRINT_TEXT@@YAXPADZZ
; Line 394
	mflr         r12
	stw          r12,-8(r1)
	std          r4,18h(r1)
	std          r5,20h(r1)
	std          r6,28h(r1)
	std          r7,30h(r1)
	std          r8,38h(r1)
	std          r9,40h(r1)
	std          r10,48h(r1)
	stwu         r1,-460h(r1)
.endprolog
$M104947:
	stw          r3,text$(r1)		; 1140 (474h)
; Line 395
	bl           ?CLEAR_PRINTS@@YAXXZ
; Line 399
	addi         r11,r1,VA_ARGS$
	addi         r10,r1,text$+4
	stw          r10,0(r11)
; Line 400
	lwz          r5,VA_ARGS$(r1)		; 1104 (450h)
	lwz          r4,text$(r1)		; 1140 (474h)
	addi         r3,r1,Buffer$
	bl           vsprintf
; Line 402
	lis          r9,??_C@_06IGECGLFO@STRING?$AA@
	addi         r3,r9,??_C@_06IGECGLFO@STRING?$AA@
	bl           ?_0xF42C43C7@@YAXPAD@Z
; Line 403
	addi         r3,r1,Buffer$
	bl           ?_0x27A244D8@@YAXPAD@Z
; Line 404
	li           r4,1
	li           r3,2000		; 7D0h
	bl           ?_0x38F82261@@YAXKK@Z
; Line 405
	addi         r1,r1,1120		; 460h
	lwz          r12,-8(r1)
	mtlr         r12
	blr
$M104948:
; End code for function: ?_PRINT_TEXT@@YAXPADZZ
?_PRINT_TEXT@@YAXPADZZ ENDP
							; _PRINT_TEXT
PUBLIC	?_PRINT_HELP_TEXT@@YAXPADZZ			; _PRINT_HELP_TEXT
;	COMDAT .pdata
.pdata	SEGMENT
$T104955 DD	?_PRINT_HELP_TEXT@@YAXPADZZ
	DD	04000200aH
; Function compile flags: /Odtu

	.code
Buffer$ = 80						; size = 1024
VA_ARGS$ = 1104						; size = 4

?_PRINT_HELP_TEXT@@YAXPADZZ PROC NEAR			; _PRINT_HELP_TEXT, COMDAT

; Begin code for function: ?_PRINT_HELP_TEXT@@YAXPADZZ
; Line 383
	mflr         r12
	stw          r12,-8(r1)
	std          r4,18h(r1)
	std          r5,20h(r1)
	std          r6,28h(r1)
	std          r7,30h(r1)
	std          r8,38h(r1)
	std          r9,40h(r1)
	std          r10,48h(r1)
	stwu         r1,-460h(r1)
.endprolog
$M104953:
	stw          r3,text$(r1)		; 1140 (474h)
; Line 386
	addi         r11,r1,VA_ARGS$
	addi         r10,r1,text$+4
	stw          r10,0(r11)
; Line 387
	lwz          r5,VA_ARGS$(r1)		; 1104 (450h)
	lwz          r4,text$(r1)		; 1140 (474h)
	addi         r3,r1,Buffer$
	bl           vsprintf
; Line 389
	lis          r9,??_C@_06IGECGLFO@STRING?$AA@
	addi         r3,r9,??_C@_06IGECGLFO@STRING?$AA@
	bl           ?SET_TEXT_COMPONENT_FORMAT@@YAXPAD@Z
; Line 390
	addi         r3,r1,Buffer$
	bl           ?_0x27A244D8@@YAXPAD@Z
; Line 391
	li           r6,-1		; 0FFFFh
	li           r5,0
	li           r4,0
	li           r3,0
	bl           ?DISPLAY_HELP_TEXT_FROM_STRING_LABEL@@YAXK_N0K@Z
; Line 392
	addi         r1,r1,1120		; 460h
	lwz          r12,-8(r1)
	mtlr         r12
	blr
$M104954:
; End code for function: ?_PRINT_HELP_TEXT@@YAXPADZZ
?_PRINT_HELP_TEXT@@YAXPADZZ ENDP
							; _PRINT_HELP_TEXT
PUBLIC	?_GET_FPS@@YAMXZ				; _GET_FPS
;	COMDAT .pdata
.pdata	SEGMENT
$T104961 DD	?_GET_FPS@@YAMXZ
	DD	040000d03H
; Function compile flags: /Odtu

	.code

?_GET_FPS@@YAMXZ PROC NEAR				; _GET_FPS, COMDAT

; Begin code for function: ?_GET_FPS@@YAMXZ
; Line 352
	mflr         r12
	stw          r12,-8(r1)
	stwu         r1,-60h(r1)
.endprolog
$M104959:
; Line 353
	bl           ?GET_FRAME_TIME@@YAMXZ
	lis          r11,__pool@_0
	addi         r10,r11,__pool@_0
	lfd          fr0,8(r10)
	fdiv         fr13,fr0,fr1
	frsp         fr1,fr13
; Line 354
	addi         r1,r1,96		; 60h
	lwz          r12,-8(r1)
	mtlr         r12
	blr
$M104960:
; End code for function: ?_GET_FPS@@YAMXZ
?_GET_FPS@@YAMXZ ENDP
							; _GET_FPS
PUBLIC	?_GET_CAMERA_DIRECTION@@YA?AU_Vector3@@M@Z	; _GET_CAMERA_DIRECTION
;	COMDAT .pdata
.pdata	SEGMENT
$T104967 DD	?_GET_CAMERA_DIRECTION@@YA?AU_Vector3@@M@Z
	DD	040003a05H
; Function compile flags: /Odtu

	.code
tZ$ = 80						; size = 4
num$ = 84						; size = 4
rot$ = 88						; size = 12
tX$ = 100						; size = 4

?_GET_CAMERA_DIRECTION@@YA?AU_Vector3@@M@Z PROC NEAR	; _GET_CAMERA_DIRECTION, COMDAT

; Begin code for function: ?_GET_CAMERA_DIRECTION@@YA?AU_Vector3@@M@Z
; Line 344
	mflr         r12
	stw          r12,-8(r1)
	stfd         fr30,-18h(r1)
	stfd         fr31,-10h(r1)
	stwu         r1,-80h(r1)
.endprolog
$M104965:
	stw          r3,__$ReturnUdt$(r1)		; 148 (94h)
	stfs         fr1,distance$(r1)		; 156 (9Ch)
; Line 345
	li           r4,0
	addi         r3,r1,rot$
	bl           ?GET_GAMEPLAY_CAM_ROT@@YA?AU_Vector3@@K@Z
; Line 346
	lfs          fr0,rot$(r1)		; 88 (58h)
	lis          r11,__pool@_0
	addi         r10,r11,__pool@_0
	lfd          fr13,10h(r10)
	fmul         fr12,fr0,fr13
	frsp         fr11,fr12
	stfs         fr11,tX$(r1)		; 100 (64h)
; Line 347
	lfs          fr10,rot$+8(r1)		; 96 (60h)
	lis          r9,__pool@_0
	addi         r8,r9,__pool@_0
	lfd          fr9,10h(r8)
	fmul         fr8,fr10,fr9
	frsp         fr7,fr8
	stfs         fr7,tZ$(r1)		; 80 (50h)
; Line 348
	lfs          fr1,tX$(r1)		; 100 (64h)
	bl           ?cos@@YAMM@Z
	bl           ?abs@@YAMM@Z
	stfs         fr1,num$(r1)		; 84 (54h)
; Line 349
	lfs          fr1,tX$(r1)		; 100 (64h)
	bl           ?sin@@YAMM@Z
	lis          r7,__pool@_0
	addi         r6,r7,__pool@_0
	lfs          fr6,4(r6)
	fmuls        fr31,fr1,fr6
	lfs          fr1,tZ$(r1)		; 80 (50h)
	bl           ?cos@@YAMM@Z
	lfs          fr5,num$(r1)		; 84 (54h)
	lfs          fr4,distance$(r1)		; 156 (9Ch)
	fadds        fr3,fr5,fr4
	fmuls        fr30,fr1,fr3
	lfs          fr1,tZ$(r1)		; 80 (50h)
	bl           ?sin@@YAMM@Z
	fneg         fr2,fr1
	lfs          fr1,num$(r1)		; 84 (54h)
	lfs          fr0,distance$(r1)		; 156 (9Ch)
	fadds        fr13,fr1,fr0
	fmuls        fr1,fr2,fr13
	lwz          r3,__$ReturnUdt$(r1)		; 148 (94h)
	fmr          fr2,fr30
	fmr          fr3,fr31
	bl           ??0_Vector3@@QAA@MMM@Z
	lwz          r3,__$ReturnUdt$(r1)		; 148 (94h)
; Line 350
	addi         r1,r1,128		; 80h
	lwz          r12,-8(r1)
	mtlr         r12
	lfd          fr30,-18h(r1)
	lfd          fr31,-10h(r1)
	blr
$M104966:
; End code for function: ?_GET_CAMERA_DIRECTION@@YA?AU_Vector3@@M@Z
?_GET_CAMERA_DIRECTION@@YA?AU_Vector3@@M@Z ENDP
							; _GET_CAMERA_DIRECTION
PUBLIC	?_GET_CAMERA_DIRECTION@@YA?AU_Vector3@@XZ	; _GET_CAMERA_DIRECTION
;	COMDAT .pdata
.pdata	SEGMENT
$T104973 DD	?_GET_CAMERA_DIRECTION@@YA?AU_Vector3@@XZ
	DD	040003205H
; Function compile flags: /Odtu

	.code
tZ$ = 80						; size = 4
num$ = 84						; size = 4
rot$ = 88						; size = 12
tX$ = 100						; size = 4

?_GET_CAMERA_DIRECTION@@YA?AU_Vector3@@XZ PROC NEAR	; _GET_CAMERA_DIRECTION, COMDAT

; Begin code for function: ?_GET_CAMERA_DIRECTION@@YA?AU_Vector3@@XZ
; Line 336
	mflr         r12
	stw          r12,-8(r1)
	stfd         fr30,-18h(r1)
	stfd         fr31,-10h(r1)
	stwu         r1,-80h(r1)
.endprolog
$M104971:
	stw          r3,__$ReturnUdt$(r1)		; 148 (94h)
; Line 337
	li           r4,0
	addi         r3,r1,rot$
	bl           ?GET_GAMEPLAY_CAM_ROT@@YA?AU_Vector3@@K@Z
; Line 338
	lfs          fr0,rot$(r1)		; 88 (58h)
	lis          r11,__pool@_0
	addi         r10,r11,__pool@_0
	lfd          fr13,10h(r10)
	fmul         fr12,fr0,fr13
	frsp         fr11,fr12
	stfs         fr11,tX$(r1)		; 100 (64h)
; Line 339
	lfs          fr10,rot$+8(r1)		; 96 (60h)
	lis          r9,__pool@_0
	addi         r8,r9,__pool@_0
	lfd          fr9,10h(r8)
	fmul         fr8,fr10,fr9
	frsp         fr7,fr8
	stfs         fr7,tZ$(r1)		; 80 (50h)
; Line 340
	lfs          fr1,tX$(r1)		; 100 (64h)
	bl           ?cos@@YAMM@Z
	bl           ?abs@@YAMM@Z
	stfs         fr1,num$(r1)		; 84 (54h)
; Line 341
	lfs          fr1,tX$(r1)		; 100 (64h)
	bl           ?sin@@YAMM@Z
	fmr          fr31,fr1
	lfs          fr1,tZ$(r1)		; 80 (50h)
	bl           ?cos@@YAMM@Z
	lfs          fr6,num$(r1)		; 84 (54h)
	fmuls        fr30,fr1,fr6
	lfs          fr1,tZ$(r1)		; 80 (50h)
	bl           ?sin@@YAMM@Z
	fneg         fr5,fr1
	lfs          fr4,num$(r1)		; 84 (54h)
	fmuls        fr1,fr5,fr4
	lwz          r3,__$ReturnUdt$(r1)		; 148 (94h)
	fmr          fr2,fr30
	fmr          fr3,fr31
	bl           ??0_Vector3@@QAA@MMM@Z
	lwz          r3,__$ReturnUdt$(r1)		; 148 (94h)
; Line 342
	addi         r1,r1,128		; 80h
	lwz          r12,-8(r1)
	mtlr         r12
	lfd          fr30,-18h(r1)
	lfd          fr31,-10h(r1)
	blr
$M104972:
; End code for function: ?_GET_CAMERA_DIRECTION@@YA?AU_Vector3@@XZ
?_GET_CAMERA_DIRECTION@@YA?AU_Vector3@@XZ ENDP
							; _GET_CAMERA_DIRECTION
PUBLIC	?_DROP_CASH@@YAXU_Vector3@@K@Z			; _DROP_CASH
;	COMDAT .pdata
.pdata	SEGMENT
$T104979 DD	?_DROP_CASH@@YAXU_Vector3@@K@Z
	DD	040003303H
; Function compile flags: /Odtu

	.code
buffer$ = 96						; size = 4

?_DROP_CASH@@YAXU_Vector3@@K@Z PROC NEAR			; _DROP_CASH, COMDAT

; Begin code for function: ?_DROP_CASH@@YAXU_Vector3@@K@Z
; Line 310
	mflr         r12
	stw          r12,-8(r1)
	stwu         r1,-70h(r1)
.endprolog
$M104977:
	std          r3,coords$(r1)
	std          r4,coords$+8(r1)
	stw          r5,amount$(r1)		; 148 (94h)
; Line 311
	lwz          r11,amount$(r1)		; 148 (94h)
	stw          r11,buffer$(r1)		; 96 (60h)
$LN3@DROP_CASH:
; Line 312
	lwz          r10,buffer$(r1)		; 96 (60h)
	cmplwi       cr6,r10,40000		; 9C40h
	ble          cr6,$LN2@DROP_CASH
; Line 314
	li           r9,1
	stb          r9,57h(r1)
	li           r10,0
	lis          r8,4415		; 113Fh
	ori          r9,r8,54579		; 0D533h
	lis          r7,0
	ori          r8,r7,40000		; 9C40h
	li           r7,0
	lfs          fr3,coords$+8(r1)		; 136 (88h)
	lfs          fr2,coords$+4(r1)		; 132 (84h)
	lfs          fr1,coords$(r1)		; 128 (80h)
	lis          r6,-12689		; 0CE6Fh
	ori          r3,r6,56683		; 0DD6Bh
	bl           ?CREATE_AMBIENT_PICKUP@@YAXKMMM_NKK00@Z
; Line 315
	lwz          r5,buffer$(r1)		; 96 (60h)
	lis          r4,0
	ori          r3,r4,40000		; 9C40h
	subf         r11,r3,r5
	stw          r11,buffer$(r1)		; 96 (60h)
; Line 316
	b            $LN3@DROP_CASH
$LN2@DROP_CASH:
; Line 317
	lwz          r10,buffer$(r1)		; 96 (60h)
	cmplwi       cr6,r10,0
	ble          cr6,$LN4@DROP_CASH
; Line 318
	li           r9,1
	stb          r9,57h(r1)
	li           r10,0
	lis          r8,4415		; 113Fh
	ori          r9,r8,54579		; 0D533h
	lwz          r8,buffer$(r1)		; 96 (60h)
	li           r7,0
	lfs          fr3,coords$+8(r1)		; 136 (88h)
	lfs          fr2,coords$+4(r1)		; 132 (84h)
	lfs          fr1,coords$(r1)		; 128 (80h)
	lis          r6,-12689		; 0CE6Fh
	ori          r3,r6,56683		; 0DD6Bh
	bl           ?CREATE_AMBIENT_PICKUP@@YAXKMMM_NKK00@Z
$LN4@DROP_CASH:
; Line 319
	addi         r1,r1,112		; 70h
	lwz          r12,-8(r1)
	mtlr         r12
	blr
$M104978:
; End code for function: ?_DROP_CASH@@YAXU_Vector3@@K@Z
?_DROP_CASH@@YAXU_Vector3@@K@Z ENDP
							; _DROP_CASH
PUBLIC	?_DISPLAY_TEXT@@YAXPADKMMMMEEEE_N1MM@Z		; _DISPLAY_TEXT
;	COMDAT .pdata
.pdata	SEGMENT
$T104985 DD	?_DISPLAY_TEXT@@YAXPADKMMMMEEEE_N1MM@Z
	DD	040003803H
; Function compile flags: /Odtu

	.code

?_DISPLAY_TEXT@@YAXPADKMMMMEEEE_N1MM@Z PROC NEAR		; _DISPLAY_TEXT, COMDAT

; Begin code for function: ?_DISPLAY_TEXT@@YAXPADKMMMMEEEE_N1MM@Z
; Line 294
	mflr         r12
	stw          r12,-8(r1)
	stwu         r1,-60h(r1)
.endprolog
$M104983:
	stw          r3,text$(r1)		; 116 (74h)
	stw          r4,font$(r1)		; 124 (7Ch)
	stfs         fr1,x$(r1)		; 132 (84h)
	stfs         fr2,y$(r1)		; 140 (8Ch)
	stfs         fr3,width$(r1)		; 148 (94h)
	stfs         fr4,height$(r1)		; 156 (9Ch)
	stb          r9,R$(r1)		; 167 (0A7h)
	stb          r10,G$(r1)		; 175 (0AFh)
	stfs         fr5,wrapWidth$(r1)		; 212 (0D4h)
	stfs         fr6,wrapHeight$(r1)		; 220 (0DCh)
; Line 295
	lwz          r3,font$(r1)		; 124 (7Ch)
	bl           ?SET_TEXT_FONT@@YAXK@Z
; Line 296
	lfs          fr2,height$(r1)		; 156 (9Ch)
	lfs          fr1,width$(r1)		; 148 (94h)
	bl           ?SET_TEXT_SCALE@@YAXMM@Z
; Line 297
	lbz          r6,A$(r1)		; 191 (0BFh)
	lbz          r5,B$(r1)		; 183 (0B7h)
	lbz          r4,G$(r1)		; 175 (0AFh)
	lbz          r3,R$(r1)		; 167 (0A7h)
	bl           ?SET_TEXT_COLOUR@@YAXEEEE@Z
; Line 298
	lbz          r11,outline$(r1)		; 199 (0C7h)
	cmpwi        cr6,r11,0
	beq          cr6,$LN1@DISPLAY_TE
	bl           ?SET_TEXT_OUTLINE@@YAXXZ
$LN1@DISPLAY_TE:
; Line 299
	lfs          fr2,wrapHeight$(r1)		; 220 (0DCh)
	lfs          fr1,wrapWidth$(r1)		; 212 (0D4h)
	bl           ?SET_TEXT_WRAP@@YAXMM@Z
; Line 300
	lbz          r3,center$(r1)		; 207 (0CFh)
	bl           ?SET_TEXT_CENTRE@@YAX_N@Z
; Line 301
	li           r7,0
	li           r6,0
	li           r5,0
	li           r4,0
	li           r3,0
	bl           ?SET_TEXT_DROPSHADOW@@YAXKKKKK@Z
; Line 302
	li           r7,0
	li           r6,0
	li           r5,0
	li           r4,0
	li           r3,0
	bl           ?SET_TEXT_EDGE@@YAXKKKKK@Z
; Line 303
	lis          r10,??_C@_06IGECGLFO@STRING?$AA@
	addi         r3,r10,??_C@_06IGECGLFO@STRING?$AA@
	bl           ?_0x3E35563E@@YAXPAD@Z
; Line 305
	lwz          r3,text$(r1)		; 116 (74h)
	bl           ?_0x27A244D8@@YAXPAD@Z
; Line 306
	lfs          fr2,y$(r1)		; 140 (8Ch)
	lfs          fr1,x$(r1)		; 132 (84h)
	bl           ?_0x6F8350CE@@YAXMM@Z
; Line 308
	addi         r1,r1,96		; 60h
	lwz          r12,-8(r1)
	mtlr         r12
	blr
$M104984:
; End code for function: ?_DISPLAY_TEXT@@YAXPADKMMMMEEEE_N1MM@Z
?_DISPLAY_TEXT@@YAXPADKMMMMEEEE_N1MM@Z ENDP
							; _DISPLAY_TEXT
PUBLIC	?_DISABLE_CONTROLS@@YAXXZ			; _DISABLE_CONTROLS
;	COMDAT .pdata
.pdata	SEGMENT
$T104991 DD	?_DISABLE_CONTROLS@@YAXXZ
	DD	04000d403H
; Function compile flags: /Odtu

	.code

?_DISABLE_CONTROLS@@YAXXZ PROC NEAR			; _DISABLE_CONTROLS, COMDAT

; Begin code for function: ?_DISABLE_CONTROLS@@YAXXZ
; Line 230
	mflr         r12
	stw          r12,-8(r1)
	stwu         r1,-60h(r1)
.endprolog
$M104989:
; Line 231
	li           r3,0
	bl           ?SET_CINEMATIC_BUTTON_ACTIVE@@YAX_N@Z
; Line 237
	li           r5,1
	li           r4,0
	li           r3,0
	bl           ?DISABLE_CONTROL_ACTION@@YAXKK_N@Z
; Line 238
	li           r5,1
	li           r4,92		; 5Ch
	li           r3,0
	bl           ?DISABLE_CONTROL_ACTION@@YAXKK_N@Z
; Line 239
	li           r5,1
	li           r4,71		; 47h
	li           r3,0
	bl           ?DISABLE_CONTROL_ACTION@@YAXKK_N@Z
; Line 240
	li           r5,1
	li           r4,75		; 4Bh
	li           r3,0
	bl           ?DISABLE_CONTROL_ACTION@@YAXKK_N@Z
; Line 241
	li           r4,179		; 0B3h
	li           r3,2
	bl           ?SET_INPUT_EXCLUSIVE@@YAXKK@Z
; Line 242
	li           r4,177		; 0B1h
	li           r3,2
	bl           ?SET_INPUT_EXCLUSIVE@@YAXKK@Z
; Line 243
	li           r4,178		; 0B2h
	li           r3,2
	bl           ?SET_INPUT_EXCLUSIVE@@YAXKK@Z
; Line 244
	li           r5,1
	li           r4,48		; 30h
	li           r3,0
	bl           ?DISABLE_CONTROL_ACTION@@YAXKK_N@Z
; Line 245
	li           r4,164		; 0A4h
	li           r3,2
	bl           ?SET_INPUT_EXCLUSIVE@@YAXKK@Z
; Line 246
	li           r4,165		; 0A5h
	li           r3,2
	bl           ?SET_INPUT_EXCLUSIVE@@YAXKK@Z
; Line 247
	li           r5,1
	li           r4,177		; 0B1h
	li           r3,2
	bl           ?DISABLE_CONTROL_ACTION@@YAXKK_N@Z
; Line 248
	li           r5,1
	li           r4,178		; 0B2h
	li           r3,2
	bl           ?DISABLE_CONTROL_ACTION@@YAXKK_N@Z
; Line 249
	li           r5,1
	li           r4,166		; 0A6h
	li           r3,2
	bl           ?DISABLE_CONTROL_ACTION@@YAXKK_N@Z
; Line 250
	li           r5,1
	li           r4,167		; 0A7h
	li           r3,2
	bl           ?DISABLE_CONTROL_ACTION@@YAXKK_N@Z
; Line 251
	li           r5,1
	li           r4,164		; 0A4h
	li           r3,2
	bl           ?DISABLE_CONTROL_ACTION@@YAXKK_N@Z
