; Listing generated by Microsoft (R) Optimizing Compiler Version 16.00.11886.00 

	TITLE	C:\Users\S7Clutch\Documents\Visual Studio 2010\Projects\The Saiyan Project\src\Tools.cpp
	.PPC
	.MODEL FLAT
PUBLIC	??_C@_02DPNLHKJD@a?$CL?$AA@			; `string'
PUBLIC	??_C@_0BN@FJHAONGB@game?3?2The?5Saiyan?5Project?4log?$AA@ ; `string'
PUBLIC	??_C@_02DKCKIIND@?$CFs?$AA@			; `string'
PUBLIC	??_C@_1BC@GOAHBJBA@C?$AAo?$AAn?$AAt?$AAi?$AAn?$AAu?$AAe?$AA?$AA?$AA@ ; `string'
PUBLIC	??_C@_0N@CHIHIMO@?2System?$DP?$DP?2?$CFs?$AA@	; `string'
PUBLIC	??_C@_06OLPECHEJ@?2?$DP?$DP?2?$CFs?$AA@		; `string'
PUBLIC	??_C@_0BN@HJEIBBJL@?2Device?2Harddisk0?2Partition1?$AA@ ; `string'
PUBLIC	??_C@_04BHBCCPGF@HDD?3?$AA@			; `string'
PUBLIC	??_C@_0BL@KNBDICGE@game?3?2TheSaiyanProject?4xex?$AA@ ; `string'
PUBLIC	??_C@_02JDPG@rb?$AA@				; `string'
PUBLIC	??_C@_02GMLFBBN@wb?$AA@				; `string'
EXTRN	__imp_DbgPrint:PROC
EXTRN	fprintf:PROC
EXTRN	vsprintf_s:PROC
EXTRN	XShowKeyboardUI:PROC
EXTRN	wcstombs:PROC
EXTRN	XShowMessageBoxUI:PROC
EXTRN	__imp_XNotifyQueueUI:PROC
EXTRN	__imp_ObCreateSymbolicLink:PROC
EXTRN	__imp_ObDeleteSymbolicLink:PROC
EXTRN	sprintf_s:PROC
EXTRN	__imp_KeGetCurrentProcessType:PROC
EXTRN	__imp_XeCryptShaInit:PROC
EXTRN	__imp_XeCryptShaUpdate:PROC
EXTRN	__imp_XeCryptShaFinal:PROC
EXTRN	malloc:PROC
EXTRN	fread:PROC
EXTRN	fseek:PROC
EXTRN	ftell:PROC
EXTRN	rewind:PROC
EXTRN	fclose:PROC
EXTRN	fflush:PROC
EXTRN	fopen:PROC
EXTRN	fwrite:PROC
EXTRN	__imp_XexGetModuleHandle:PROC
EXTRN	__imp_XexGetProcedureAddress:PROC
EXTRN	__imp_RtlImageXexHeaderField:PROC
EXTRN	GetModuleHandleA:PROC
EXTRN	XPhysicalAlloc:PROC
EXTRN	XPhysicalFree:PROC
EXTRN	__imp_MmGetPhysicalAddress:PROC
;	COMDAT ??_C@_02GMLFBBN@wb?$AA@
.rdata	SEGMENT
??_C@_02GMLFBBN@wb?$AA@ DB 'wb', 00H			; `string'
;	COMDAT ??_C@_02JDPG@rb?$AA@
.rdata	SEGMENT
??_C@_02JDPG@rb?$AA@ DB 'rb', 00H			; `string'
;	COMDAT ??_C@_0BL@KNBDICGE@game?3?2TheSaiyanProject?4xex?$AA@
.rdata	SEGMENT
??_C@_0BL@KNBDICGE@game?3?2TheSaiyanProject?4xex?$AA@ DB 'game:\TheSaiyan'
	DB	'Project.xex', 00H				; `string'
;	COMDAT ??_C@_04BHBCCPGF@HDD?3?$AA@
.rdata	SEGMENT
??_C@_04BHBCCPGF@HDD?3?$AA@ DB 'HDD:', 00H		; `string'
;	COMDAT ??_C@_0BN@HJEIBBJL@?2Device?2Harddisk0?2Partition1?$AA@
.rdata	SEGMENT
??_C@_0BN@HJEIBBJL@?2Device?2Harddisk0?2Partition1?$AA@ DB '\Device\Hardd'
	DB	'isk0\Partition1', 00H			; `string'
;	COMDAT ??_C@_06OLPECHEJ@?2?$DP?$DP?2?$CFs?$AA@
.rdata	SEGMENT
??_C@_06OLPECHEJ@?2?$DP?$DP?2?$CFs?$AA@ DB '\??\%s', 00H ; `string'
;	COMDAT ??_C@_0N@CHIHIMO@?2System?$DP?$DP?2?$CFs?$AA@
.rdata	SEGMENT
??_C@_0N@CHIHIMO@?2System?$DP?$DP?2?$CFs?$AA@ DB '\System??\%s', 00H ; `string'
;	COMDAT ??_C@_1BC@GOAHBJBA@C?$AAo?$AAn?$AAt?$AAi?$AAn?$AAu?$AAe?$AA?$AA?$AA@
.rdata	SEGMENT
??_C@_1BC@GOAHBJBA@C?$AAo?$AAn?$AAt?$AAi?$AAn?$AAu?$AAe?$AA?$AA?$AA@ DB 00H
	DB	'C', 00H, 'o', 00H, 'n', 00H, 't', 00H, 'i', 00H, 'n', 00H, 'u'
	DB	00H, 'e', 00H, 00H				; `string'
;	COMDAT ??_C@_02DKCKIIND@?$CFs?$AA@
.rdata	SEGMENT
??_C@_02DKCKIIND@?$CFs?$AA@ DB '%s', 00H		; `string'
;	COMDAT ??_C@_0BN@FJHAONGB@game?3?2The?5Saiyan?5Project?4log?$AA@
.rdata	SEGMENT
??_C@_0BN@FJHAONGB@game?3?2The?5Saiyan?5Project?4log?$AA@ DB 'game:\The S'
	DB	'aiyan Project.log', 00H			; `string'
;	COMDAT ??_C@_02DPNLHKJD@a?$CL?$AA@
.rdata	SEGMENT
??_C@_02DPNLHKJD@a?$CL?$AA@ DB 'a+', 00H		; `string'
HvPeekPokeExp DB 048H
	DB	058H
	DB	050H
	DB	052H
	DB	00H
	DB	00H
	DB	00H
	DB	00H
	DB	00H
	DB	00H
	DB	010H
	DB	00H
	DB	034H
	DB	01fH
	DB	0d6H
	DB	0daH
	DB	02fH
	DB	0caH
	DB	0a8H
	DB	017H
	DB	0f0H
	DB	030H
	DB	0ccH
	DB	044H
	DB	0aH
	DB	041H
	DB	0faH
	DB	07cH
	DB	0a0H
	DB	0c1H
	DB	0fdH
	DB	033H
	DB	00H
	DB	00H
	DB	00H
	DB	00H
	DB	00H
	DB	00H
	DB	00H
	DB	00H
	DB	00H
	DB	00H
	DB	00H
	DB	00H
	DB	00H
	DB	00H
	DB	00H
	DB	00H
	DB	07aH
	DB	02H
	DB	059H
	DB	043H
	DB	09eH
	DB	0e6H
	DB	093H
	DB	0d5H
	DB	01H
	DB	0c9H
	DB	048H
	DB	04dH
	DB	0b2H
	DB	0bfH
	DB	09dH
	DB	018H
	DB	0a9H
	DB	016H
	DB	05eH
	DB	0ffH
	DB	01eH
	DB	0d5H
	DB	0b6H
	DB	0a8H
	DB	079H
	DB	060H
	DB	0a8H
	DB	02fH
	DB	0c1H
	DB	08dH
	DB	020H
	DB	08aH
	DB	0ebH
	DB	046H
	DB	0c3H
	DB	01H
	DB	0ecH
	DB	0c4H
	DB	0dbH
	DB	0dfH
	DB	0a1H
	DB	04H
	DB	0d1H
	DB	0dfH
	DB	023H
	DB	069H
	DB	05eH
	DB	0ccH
	DB	050H
	DB	0c3H
	DB	0f4H
	DB	0ddH
	DB	0a4H
	DB	080H
	DB	07dH
	DB	05H
	DB	02dH
	DB	057H
	DB	0ffH
	DB	060H
	DB	0a5H
	DB	058H
	DB	069H
	DB	027H
	DB	09aH
	DB	033H
	DB	070H
	DB	0e8H
	DB	0c2H
	DB	082H
	DB	0dcH
	DB	0daH
	DB	0e2H
	DB	04dH
	DB	0e1H
	DB	0f8H
	DB	0a1H
	DB	0d2H
	DB	0ccH
	DB	08dH
	DB	098H
	DB	05H
	DB	0d1H
	DB	0a3H
	DB	02eH
	DB	037H
	DB	06H
	DB	0fH
	DB	0f7H
	DB	0efH
	DB	070H
	DB	0efH
	DB	028H
	DB	0d7H
	DB	0aeH
	DB	0d5H
	DB	05bH
	DB	019H
	DB	01bH
	DB	013H
	DB	050H
	DB	0dH
	DB	015H
	DB	00H
	DB	092H
	DB	01H
	DB	0eeH
	DB	038H
	DB	0a7H
	DB	061H
	DB	0b1H
	DB	0a1H
	DB	027H
	DB	0bfH
	DB	0b0H
	DB	042H
	DB	0fH
	DB	07H
	DB	0c3H
	DB	08fH
	DB	078H
	DB	0adH
	DB	0afH
	DB	087H
	DB	08fH
	DB	034H
	DB	08aH
	DB	0a6H
	DB	069H
	DB	07dH
	DB	040H
	DB	0b6H
	DB	05cH
	DB	09eH
	DB	01H
	DB	0ecH
	DB	09fH
	DB	05eH
	DB	078H
	DB	030H
	DB	09H
	DB	05aH
	DB	021H
	DB	0ffH
	DB	035H
	DB	08cH
	DB	013H
	DB	0beH
	DB	0bcH
	DB	092H
	DB	067H
	DB	0e3H
	DB	017H
	DB	0bH
	DB	09H
	DB	01cH
	DB	0e2H
	DB	09dH
	DB	0ecH
	DB	0fdH
	DB	0fbH
	DB	06cH
	DB	049H
	DB	03aH
	DB	0ccH
	DB	0e7H
	DB	099H
	DB	0b6H
	DB	0b3H
	DB	08aH
	DB	08fH
	DB	0efH
	DB	0f7H
	DB	0a0H
	DB	028H
	DB	04fH
	DB	072H
	DB	0c7H
	DB	03dH
	DB	0d7H
	DB	0ccH
	DB	0ebH
	DB	0b2H
	DB	01bH
	DB	074H
	DB	093H
	DB	0d7H
	DB	02H
	DB	05H
	DB	0d5H
	DB	0e1H
	DB	025H
	DB	035H
	DB	0d7H
	DB	0e0H
	DB	050H
	DB	0eaH
	DB	0cfH
	DB	082H
	DB	069H
	DB	0e3H
	DB	03bH
	DB	06fH
	DB	0faH
	DB	013H
	DB	0f0H
	DB	05bH
	DB	0d9H
	DB	01aH
	DB	0b0H
	DB	0d3H
	DB	0bH
	DB	085H
	DB	04dH
	DB	06aH
	DB	0fcH
	DB	031H
	DB	045H
	DB	0c3H
	DB	0a3H
	DB	0faH
	DB	07eH
	DB	0daH
	DB	093H
	DB	084H
	DB	0d4H
	DB	0e7H
	DB	0faH
	DB	0abH
	DB	07cH
	DB	022H
	DB	096H
	DB	054H
	DB	069H
	DB	07fH
	DB	0c9H
	DB	0f8H
	DB	0c4H
	DB	05aH
	DB	0c2H
	DB	082H
	DB	099H
	DB	034H
	DB	046H
	DB	081H
	DB	06fH
	DB	06H
	DB	033H
	DB	019H
	DB	094H
	DB	074H
	DB	0a4H
	DB	076H
	DB	02H
	DB	04fH
	DB	0b9H
	DB	048H
	DB	056H
	DB	050H
	DB	050H
	DB	00H
	DB	00H
	DB	00H
	DB	00H
	DB	00H
	DB	00H
	DB	00H
	DB	00H
	DB	00H
	DB	00H
	DB	00H
	DB	00H
	DB	00H
	DB	00H
	DB	00H
	DB	00H
	DB	00H
	DB	00H
	DB	00H
	DB	00H
	DB	00H
	DB	00H
	DB	00H
	DB	00H
	DB	00H
	DB	00H
	DB	00H
	DB	00H
	DB	00H
	DB	00H
	DB	00H
	DB	00H
	DB	00H
	DB	00H
	DB	00H
	DB	00H
	DB	00H
	DB	00H
	DB	01H
	DB	060H
	DB	00H
	DB	00H
	DB	01H
	DB	090H
	DB	00H
	DB	00H
	DB	00H
	DB	010H
	DB	00H
	DB	00H
	DB	00H
	DB	010H
	DB	00H
	DB	00H
	DB	01H
	DB	080H
	DB	00H
	DB	00H
	DB	00H
	DB	00H
	DB	07dH
	DB	088H
	DB	02H
	DB	0a6H
	DB	0fbH
	DB	0e1H
	DB	0ffH
	DB	0f0H
	DB	0f9H
	DB	081H
	DB	0ffH
	DB	0f8H
	DB	094H
	DB	021H
	DB	0ffH
	DB	00H
	DB	07cH
	DB	09fH
	DB	023H
	DB	078H
	DB	02cH
	DB	01fH
	DB	00H
	DB	00H
	DB	041H
	DB	082H
	DB	00H
	DB	0c0H
	DB	02cH
	DB	01fH
	DB	00H
	DB	01H
	DB	041H
	DB	082H
	DB	00H
	DB	0c0H
	DB	02cH
	DB	01fH
	DB	00H
	DB	02H
	DB	041H
	DB	082H
	DB	00H
	DB	0c0H
	DB	02cH
	DB	01fH
	DB	00H
	DB	03H
	DB	041H
	DB	082H
	DB	00H
	DB	0c0H
	DB	02cH
	DB	01fH
	DB	00H
	DB	0aH
	DB	041H
	DB	082H
	DB	00H
	DB	064H
	DB	02cH
	DB	01fH
	DB	00H
	DB	05H
	DB	041H
	DB	082H
	DB	00H
	DB	0d4H
	DB	02cH
	DB	01fH
	DB	00H
	DB	06H
	DB	041H
	DB	082H
	DB	00H
	DB	0d4H
	DB	02cH
	DB	01fH
	DB	00H
	DB	07H
	DB	041H
	DB	082H
	DB	00H
	DB	0d4H
	DB	02cH
	DB	01fH
	DB	00H
	DB	08H
	DB	041H
	DB	082H
	DB	00H
	DB	0d4H
	DB	02cH
	DB	01fH
	DB	00H
	DB	0bH
	DB	040H
	DB	080H
	DB	00H
	DB	00H
	DB	080H
	DB	060H
	DB	00H
	DB	04cH
	DB	07cH
	DB	062H
	DB	01aH
	DB	014H
	DB	080H
	DB	063H
	DB	00H
	DB	08H
	DB	07cH
	DB	069H
	DB	03H
	DB	0a6H
	DB	07cH
	DB	0c3H
	DB	033H
	DB	078H
	DB	038H
	DB	080H
	DB	00H
	DB	01H
	DB	04eH
	DB	080H
	DB	04H
	DB	021H
	DB	07cH
	DB	066H
	DB	01bH
	DB	078H
	DB	07cH
	DB	0e9H
	DB	03H
	DB	0a6H
	DB	02cH
	DB	01fH
	DB	00H
	DB	04H
	DB	041H
	DB	082H
	DB	00H
	DB	06cH
	DB	02cH
	DB	01fH
	DB	00H
	DB	09H
	DB	041H
	DB	082H
	DB	00H
	DB	0a0H
	DB	048H
	DB	00H
	DB	00H
	DB	00H
	DB	048H
	DB	00H
	DB	00H
	DB	05H
	DB	07cH
	DB	0a6H
	DB	02bH
	DB	078H
	DB	03cH
	DB	080H
	DB	07cH
	DB	060H
	DB	050H
	DB	0a6H
	DB	054H
	DB	06aH
	DB	060H
	DB	084H
	DB	02H
	DB	0a6H
	DB	050H
	DB	0c4H
	DB	032H
	DB	0e8H
	DB	07cH
	DB	068H
	DB	02H
	DB	0a6H
	DB	038H
	DB	063H
	DB	00H
	DB	030H
	DB	090H
	DB	083H
	DB	00H
	DB	00H
	DB	07cH
	DB	00H
	DB	018H
	DB	06cH
	DB	07cH
	DB	00H
	DB	01fH
	DB	0acH
	DB	07cH
	DB	00H
	DB	04H
	DB	0acH
	DB	04cH
	DB	00H
	DB	01H
	DB	02cH
	DB	07cH
	DB	079H
	DB	04aH
	DB	0a6H
	DB	048H
	DB	00H
	DB	00H
	DB	098H
	DB	088H
	DB	065H
	DB	00H
	DB	00H
	DB	048H
	DB	00H
	DB	00H
	DB	090H
	DB	0a0H
	DB	065H
	DB	00H
	DB	00H
	DB	048H
	DB	00H
	DB	00H
	DB	088H
	DB	080H
	DB	065H
	DB	00H
	DB	00H
	DB	048H
	DB	00H
	DB	00H
	DB	080H
	DB	0e8H
	DB	065H
	DB	00H
	DB	00H
	DB	048H
	DB	00H
	DB	00H
	DB	078H
	DB	08bH
	DB	0e5H
	DB	00H
	DB	00H
	DB	09bH
	DB	0e6H
	DB	00H
	DB	00H
	DB	038H
	DB	0a5H
	DB	00H
	DB	01H
	DB	038H
	DB	0c6H
	DB	00H
	DB	01H
	DB	042H
	DB	00H
	DB	0ffH
	DB	0f0H
	DB	038H
	DB	060H
	DB	00H
	DB	00H
	DB	048H
	DB	00H
	DB	00H
	DB	05cH
	DB	098H
	DB	0c5H
	DB	00H
	DB	00H
	DB	048H
	DB	00H
	DB	00H
	DB	040H
	DB	0b0H
	DB	0c5H
	DB	00H
	DB	00H
	DB	048H
	DB	00H
	DB	00H
	DB	038H
	DB	090H
	DB	0c5H
	DB	00H
	DB	00H
	DB	048H
	DB	00H
	DB	00H
	DB	030H
	DB	0f8H
	DB	0c5H
	DB	00H
	DB	00H
	DB	048H
	DB	00H
	DB	00H
	DB	028H
	DB	08bH
	DB	0e6H
	DB	00H
	DB	00H
	DB	09bH
	DB	0e5H
	DB	00H
	DB	00H
	DB	07cH
	DB	00H
	DB	028H
	DB	06cH
	DB	07cH
	DB	00H
	DB	02fH
	DB	0acH
	DB	07cH
	DB	00H
	DB	04H
	DB	0acH
	DB	04cH
	DB	00H
	DB	01H
	DB	02cH
	DB	038H
	DB	0a5H
	DB	00H
	DB	01H
	DB	038H
	DB	0c6H
	DB	00H
	DB	01H
	DB	042H
	DB	00H
	DB	0ffH
	DB	0e0H
	DB	038H
	DB	060H
	DB	00H
	DB	00H
	DB	07cH
	DB	00H
	DB	028H
	DB	06cH
	DB	07cH
	DB	00H
	DB	02fH
	DB	0acH
	DB	07cH
	DB	00H
	DB	04H
	DB	0acH
	DB	04cH
	DB	00H
	DB	01H
	DB	02cH
	DB	038H
	DB	021H
	DB	01H
	DB	00H
	DB	0ebH
	DB	0e1H
	DB	0ffH
	DB	0f0H
	DB	0e9H
	DB	081H
	DB	0ffH
	DB	0f8H
	DB	07dH
	DB	088H
	DB	03H
	DB	0a6H
	DB	04eH
	DB	080H
	DB	00H
	DB	020H
PUBLIC	?GLPR@@YAXXZ					; GLPR
; Function compile flags: /Odtu

	.code

?GLPR@@YAXXZ PROC NEAR					; GLPR, COMDAT

; Begin code for function: ?GLPR@@YAXXZ
; File c:\users\s7clutch\documents\visual studio 2010\projects\the saiyan project\src\tools.cpp
; Line 194
	std          r14,-98h(r1)
; Line 195
	std          r15,-90h(r1)
; Line 196
	std          r16,-88h(r1)
; Line 197
	std          r17,-80h(r1)
; Line 198
	std          r18,-78h(r1)
; Line 199
	std          r19,-70h(r1)
; Line 200
	std          r20,-68h(r1)
; Line 201
	std          r21,-60h(r1)
; Line 202
	std          r22,-58h(r1)
; Line 203
	std          r23,-50h(r1)
; Line 204
	std          r24,-48h(r1)
; Line 205
	std          r25,-40h(r1)
; Line 206
	std          r26,-38h(r1)
; Line 207
	std          r27,-30h(r1)
; Line 208
	std          r28,-28h(r1)
; Line 209
	std          r29,-20h(r1)
; Line 210
	std          r30,-18h(r1)
; Line 211
	std          r31,-10h(r1)
; Line 212
	stw          r12,-8(r1)
; Line 213
	blr
; End code for function: ?GLPR@@YAXXZ
?GLPR@@YAXXZ ENDP
							; GLPR
PUBLIC	?PatchInJump@@YAXPAKK_N@Z			; PatchInJump
; Function compile flags: /Odtu

	.code

?PatchInJump@@YAXPAKK_N@Z PROC NEAR			; PatchInJump, COMDAT

; Begin code for function: ?PatchInJump@@YAXPAKK_N@Z
; Line 174
	stw          r3,addr$(r1)		; 20 (14h)
	stw          r4,dest$(r1)		; 28 (1Ch)
	stb          r5,linked$(r1)		; 39 (27h)
; Line 175
	lwz          r11,dest$(r1)		; 28 (1Ch)
	rlwinm       r10,r11,0,16,16
	cmplwi       cr6,r10,0
	beq          cr6,$LN3@PatchInJum
; Line 176
	lwz          r9,dest$(r1)		; 28 (1Ch)
	srwi         r8,r9,16
	clrlwi       r7,r8,16
	lis          r6,15712		; 3D60h
	ori          r5,r6,1
	add          r4,r7,r5
	lwz          r3,addr$(r1)		; 20 (14h)
	stw          r4,0(r3)
; Line 177
	b            $LN2@PatchInJum
$LN3@PatchInJum:
; Line 178
	lwz          r11,dest$(r1)		; 28 (1Ch)
	srwi         r10,r11,16
	clrlwi       r9,r10,16
	lis          r8,15712		; 3D60h
	add          r7,r9,r8
	lwz          r6,addr$(r1)		; 20 (14h)
	stw          r7,0(r6)
$LN2@PatchInJum:
; Line 180
	lwz          r5,dest$(r1)		; 28 (1Ch)
	clrlwi       r4,r5,16
	lis          r3,14699		; 396Bh
	add          r11,r4,r3
	lwz          r10,addr$(r1)		; 20 (14h)
	stw          r11,4(r10)
; Line 181
	lwz          r9,addr$(r1)		; 20 (14h)
	lis          r8,32105		; 7D69h
	ori          r7,r8,934		; 3A6h
	stw          r7,8(r9)
; Line 183
	lwz          r6,addr$(r1)		; 20 (14h)
	lis          r5,20096		; 4E80h
	ori          r4,r5,1056		; 420h
	stw          r4,0Ch(r6)
; Line 184
	lbz          r3,linked$(r1)		; 39 (27h)
	cmpwi        cr6,r3,0
	beq          cr6,$LN1@PatchInJum
; Line 185
	lwz          r11,addr$(r1)		; 20 (14h)
	lwz          r10,0Ch(r11)
	addi         r9,r10,1
	lwz          r8,addr$(r1)		; 20 (14h)
	stw          r9,0Ch(r8)
$LN1@PatchInJum:
; Line 187
	lwz          r7,addr$(r1)		; 20 (14h)
	dcbst        r0,r7
; Line 188
	sync
; Line 189
	blr
; End code for function: ?PatchInJump@@YAXPAKK_N@Z
?PatchInJump@@YAXPAKK_N@Z ENDP
							; PatchInJump
PUBLIC	?ResolveFunction@@YAKPADK@Z			; ResolveFunction
EXTRN	XexGetProcedureAddress:PROC
EXTRN	XexGetModuleHandle:PROC
;	COMDAT .pdata
.pdata	SEGMENT
$T102998 DD	?ResolveFunction@@YAKPADK@Z
	DD	040001f03H
; Function compile flags: /Odtu

	.code
Return$ = 80						; size = 4
Handle$ = 84						; size = 4
Pointer$ = 88						; size = 4

?ResolveFunction@@YAKPADK@Z PROC NEAR			; ResolveFunction, COMDAT

; Begin code for function: ?ResolveFunction@@YAKPADK@Z
; Line 161
	mflr         r12
	stw          r12,-8(r1)
	stwu         r1,-70h(r1)
.endprolog
$M102996:
	stw          r3,Module$(r1)		; 132 (84h)
	stw          r4,Ordinal$(r1)		; 140 (8Ch)
; Line 162
	li           r11,0
	stw          r11,Return$(r1)		; 80 (50h)
	li           r10,0
	stw          r10,Pointer$(r1)		; 88 (58h)
; Line 164
	addi         r4,r1,Handle$
	lwz          r3,Module$(r1)		; 132 (84h)
	bl           XexGetModuleHandle
	stw          r3,Return$(r1)		; 80 (50h)
; Line 165
	lwz          r9,Return$(r1)		; 80 (50h)
	cmplwi       cr6,r9,0
	bne          cr6,$LN2@ResolveFun
; Line 167
	addi         r5,r1,Pointer$
	lwz          r4,Ordinal$(r1)		; 140 (8Ch)
	lwz          r3,Handle$(r1)		; 84 (54h)
	bl           XexGetProcedureAddress
	stw          r3,Return$(r1)		; 80 (50h)
; Line 168
	lwz          r8,Pointer$(r1)		; 88 (58h)
	cmplwi       cr6,r8,0
	beq          cr6,$LN2@ResolveFun
; Line 169
	lwz          r3,Pointer$(r1)		; 88 (58h)
	b            $LN3@ResolveFun
$LN2@ResolveFun:
; Line 171
	li           r3,0
$LN3@ResolveFun:
; Line 172
	addi         r1,r1,112		; 70h
	lwz          r12,-8(r1)
	mtlr         r12
	blr
$M102997:
; End code for function: ?ResolveFunction@@YAKPADK@Z
?ResolveFunction@@YAKPADK@Z ENDP
							; ResolveFunction
PUBLIC	?XNotify@@YAXPA_W@Z				; XNotify
EXTRN	XNotifyQueueUI:PROC
;	COMDAT .pdata
.pdata	SEGMENT
$T103004 DD	?XNotify@@YAXPA_W@Z
	DD	040000e03H
; Function compile flags: /Odtu

	.code

?XNotify@@YAXPA_W@Z PROC NEAR				; XNotify, COMDAT

; Begin code for function: ?XNotify@@YAXPA_W@Z
; Line 63
	mflr         r12
	stw          r12,-8(r1)
	stwu         r1,-60h(r1)
.endprolog
$M103002:
	stw          r3,Text$(r1)		; 116 (74h)
; Line 64
	li           r7,0
	lwz          r6,Text$(r1)		; 116 (74h)
	li           r5,2
	li           r4,0
	li           r3,14		; 0Eh
	bl           XNotifyQueueUI
; Line 65
	addi         r1,r1,96		; 60h
	lwz          r12,-8(r1)
	mtlr         r12
	blr
$M103003:
; End code for function: ?XNotify@@YAXPA_W@Z
?XNotify@@YAXPA_W@Z ENDP
							; XNotify
PUBLIC	?XMessageBox@@YA?AU_MESSAGEBOX_RESULT@@PB_W0KPAPB_WK@Z ; XMessageBox
;	COMDAT .pdata
.pdata	SEGMENT
$T103010 DD	?XMessageBox@@YA?AU_MESSAGEBOX_RESULT@@PB_W0KPAPB_WK@Z
	DD	040001e03H
; Function compile flags: /Odtu

	.code
Overlapped$ = 96					; size = 28
Result$ = 128						; size = 8

?XMessageBox@@YA?AU_MESSAGEBOX_RESULT@@PB_W0KPAPB_WK@Z PROC NEAR ; XMessageBox, COMDAT

; Begin code for function: ?XMessageBox@@YA?AU_MESSAGEBOX_RESULT@@PB_W0KPAPB_WK@Z
; Line 55
	mflr         r12
	stw          r12,-8(r1)
	stwu         r1,-90h(r1)
.endprolog
$M103008:
	stw          r3,Title$(r1)		; 164 (0A4h)
	stw          r4,Body$(r1)		; 172 (0ACh)
	stw          r5,ButtonCount$(r1)		; 180 (0B4h)
	stw          r6,ButtonText$(r1)		; 188 (0BCh)
	stw          r7,Icon$(r1)		; 196 (0C4h)
; Line 58
	addi         r11,r1,Overlapped$
	stw          r11,54h(r1)
	addi         r10,r1,Result$
	lwz          r9,Icon$(r1)		; 196 (0C4h)
	li           r8,0
	lwz          r7,ButtonText$(r1)		; 188 (0BCh)
	lwz          r6,ButtonCount$(r1)		; 180 (0B4h)
	lwz          r5,Body$(r1)		; 172 (0ACh)
	lwz          r4,Title$(r1)		; 164 (0A4h)
	li           r3,0
	bl           XShowMessageBoxUI
$LN2@XMessageBo:
; Line 59
	lwz          r10,Overlapped$(r1)		; 96 (60h)
	cmplwi       cr6,r10,997		; 3E5h
	bne          cr6,$LN1@XMessageBo
	li           r3,100		; 64h
	bl           Sleep
	b            $LN2@XMessageBo
$LN1@XMessageBo:
; Line 60
	ld           r3,Result$(r1)
; Line 61
	addi         r1,r1,144		; 90h
	lwz          r12,-8(r1)
	mtlr         r12
	blr
$M103009:
; End code for function: ?XMessageBox@@YA?AU_MESSAGEBOX_RESULT@@PB_W0KPAPB_WK@Z
?XMessageBox@@YA?AU_MESSAGEBOX_RESULT@@PB_W0KPAPB_WK@Z ENDP
							; XMessageBox
PUBLIC	?XMessageBox@@YAXPB_W0K_N@Z			; XMessageBox
;	COMDAT .pdata
.pdata	SEGMENT
$T103016 DD	?XMessageBox@@YAXPB_W0K_N@Z
	DD	040002203H
; Function compile flags: /Odtu

	.code
Overlapped$ = 96					; size = 28
Result$ = 128						; size = 8
ButtonText$ = 136					; size = 4

?XMessageBox@@YAXPB_W0K_N@Z PROC NEAR			; XMessageBox, COMDAT

; Begin code for function: ?XMessageBox@@YAXPB_W0K_N@Z
; Line 47
	mflr         r12
	stw          r12,-8(r1)
	stwu         r1,-0A0h(r1)
.endprolog
$M103014:
	stw          r3,Title$(r1)		; 180 (0B4h)
	stw          r4,Body$(r1)		; 188 (0BCh)
	stw          r5,Icon$(r1)		; 196 (0C4h)
	stb          r6,Wait$(r1)		; 207 (0CFh)
; Line 50
	lis          r11,??_C@_1BC@GOAHBJBA@C?$AAo?$AAn?$AAt?$AAi?$AAn?$AAu?$AAe?$AA?$AA?$AA@
	addi         r10,r11,??_C@_1BC@GOAHBJBA@C?$AAo?$AAn?$AAt?$AAi?$AAn?$AAu?$AAe?$AA?$AA?$AA@
	stw          r10,ButtonText$(r1)		; 136 (88h)
; Line 51
	addi         r9,r1,Overlapped$
	stw          r9,54h(r1)
	addi         r10,r1,Result$
	lwz          r9,Icon$(r1)		; 196 (0C4h)
	li           r8,0
	addi         r7,r1,ButtonText$
	li           r6,1
	lwz          r5,Body$(r1)		; 188 (0BCh)
	lwz          r4,Title$(r1)		; 180 (0B4h)
	li           r3,0
	bl           XShowMessageBoxUI
; Line 52
	lbz          r8,Wait$(r1)		; 207 (0CFh)
	cmpwi        cr6,r8,0
	beq          cr6,$LN4@XMessageBo@2
$LN2@XMessageBo@2:
	lwz          r7,Overlapped$(r1)		; 96 (60h)
	cmplwi       cr6,r7,997		; 3E5h
	bne          cr6,$LN4@XMessageBo@2
	li           r3,100		; 64h
	bl           Sleep
	b            $LN2@XMessageBo@2
$LN4@XMessageBo@2:
; Line 53
	addi         r1,r1,160		; 0A0h
	lwz          r12,-8(r1)
	mtlr         r12
	blr
$M103015:
; End code for function: ?XMessageBox@@YAXPB_W0K_N@Z
?XMessageBox@@YAXPB_W0K_N@Z ENDP
							; XMessageBox
PUBLIC	?XKeyboard@@YAPADKPB_W00@Z			; XKeyboard
;	COMDAT .pdata
.pdata	SEGMENT
$T103022 DD	?XKeyboard@@YAPADKPB_W00@Z
	DD	040001f03H
; Function compile flags: /Odtu

	.code
Overlapped$ = 80					; size = 28
wszBuffer$ = 112					; size = 1024
szBuffer$ = 1136					; size = 4

?XKeyboard@@YAPADKPB_W00@Z PROC NEAR			; XKeyboard, COMDAT

; Begin code for function: ?XKeyboard@@YAPADKPB_W00@Z
; Line 37
	mflr         r12
	stw          r12,-8(r1)
	stwu         r1,-480h(r1)
.endprolog
$M103020:
	stw          r3,KeyboardFlag$(r1)		; 1172 (494h)
	stw          r4,DefaultText$(r1)		; 1180 (49Ch)
	stw          r5,Title$(r1)		; 1188 (4A4h)
	stw          r6,Body$(r1)		; 1196 (4ACh)
; Line 41
	addi         r10,r1,Overlapped$
	li           r9,512		; 200h
	addi         r8,r1,wszBuffer$
	lwz          r7,Body$(r1)		; 1196 (4ACh)
	lwz          r6,Title$(r1)		; 1188 (4A4h)
	lwz          r5,DefaultText$(r1)		; 1180 (49Ch)
	lwz          r4,KeyboardFlag$(r1)		; 1172 (494h)
	li           r3,0
	bl           XShowKeyboardUI
$LN2@XKeyboard:
; Line 42
	lwz          r11,Overlapped$(r1)		; 80 (50h)
	cmplwi       cr6,r11,997		; 3E5h
	bne          cr6,$LN1@XKeyboard
	li           r3,100		; 64h
	bl           Sleep
	b            $LN2@XKeyboard
$LN1@XKeyboard:
; Line 43
	li           r5,512		; 200h
	addi         r4,r1,wszBuffer$
	lwz          r3,szBuffer$(r1)		; 1136 (470h)
	bl           wcstombs
; Line 44
	lwz          r3,szBuffer$(r1)		; 1136 (470h)
; Line 45
	addi         r1,r1,1152		; 480h
	lwz          r12,-8(r1)
	mtlr         r12
	blr
$M103021:
; End code for function: ?XKeyboard@@YAPADKPB_W00@Z
?XKeyboard@@YAPADKPB_W00@Z ENDP
							; XKeyboard
PUBLIC	?va@@YAPADPAD0ZZ				; va
;	COMDAT .pdata
.pdata	SEGMENT
$T103028 DD	?va@@YAPADPAD0ZZ
	DD	040001709H
; Function compile flags: /Odtu

	.code
VA_ARGS$ = 80						; size = 4

?va@@YAPADPAD0ZZ PROC NEAR				; va, COMDAT

; Begin code for function: ?va@@YAPADPAD0ZZ
; Line 16
	mflr         r12
	stw          r12,-8(r1)
	std          r5,20h(r1)
	std          r6,28h(r1)
	std          r7,30h(r1)
	std          r8,38h(r1)
	std          r9,40h(r1)
	std          r10,48h(r1)
	stwu         r1,-60h(r1)
.endprolog
$M103026:
	stw          r3,Out$(r1)		; 116 (74h)
	stw          r4,Text$(r1)		; 124 (7Ch)
; Line 18
	addi         r11,r1,VA_ARGS$
	addi         r10,r1,Text$+4
	stw          r10,0(r11)
; Line 19
	lwz          r5,VA_ARGS$(r1)		; 80 (50h)
	lwz          r4,Text$(r1)		; 124 (7Ch)
	lwz          r3,Out$(r1)		; 116 (74h)
	bl           vsprintf
; Line 20
	lwz          r3,Out$(r1)		; 116 (74h)
; Line 21
	addi         r1,r1,96		; 60h
	lwz          r12,-8(r1)
	mtlr         r12
	blr
$M103027:
; End code for function: ?va@@YAPADPAD0ZZ
?va@@YAPADPAD0ZZ ENDP
							; va
PUBLIC	?va@@YAPADPADZZ					; va
;	COMDAT .pdata
.pdata	SEGMENT
$T103034 DD	?va@@YAPADPADZZ
	DD	04000170aH
; Function compile flags: /Odtu

	.code
Buffer$ = 80						; size = 2048
VA_ARGS$ = 2128						; size = 4

?va@@YAPADPADZZ	PROC NEAR				; va, COMDAT

; Begin code for function: ?va@@YAPADPADZZ
; Line 8
	mflr         r12
	stw          r12,-8(r1)
	std          r4,18h(r1)
	std          r5,20h(r1)
	std          r6,28h(r1)
	std          r7,30h(r1)
	std          r8,38h(r1)
	std          r9,40h(r1)
	std          r10,48h(r1)
	stwu         r1,-860h(r1)
.endprolog
$M103032:
	stw          r3,Text$(r1)		; 2164 (874h)
; Line 11
	addi         r11,r1,VA_ARGS$
	addi         r10,r1,Text$+4
	stw          r10,0(r11)
; Line 12
	lwz          r5,VA_ARGS$(r1)		; 2128 (850h)
	lwz          r4,Text$(r1)		; 2164 (874h)
	addi         r3,r1,Buffer$
	bl           vsprintf
; Line 13
	addi         r3,r1,Buffer$
; Line 14
	addi         r1,r1,2144		; 860h
	lwz          r12,-8(r1)
	mtlr         r12
	blr
$M103033:
; End code for function: ?va@@YAPADPADZZ
?va@@YAPADPADZZ ENDP
							; va
PUBLIC	?PatchModuleImport@@YAKPAU_LDR_DATA_TABLE_ENTRY@@PADKK@Z ; PatchModuleImport
EXTRN	RtlImageXexHeaderField:PROC
;	COMDAT .pdata
.pdata	SEGMENT
$T103570 DD	?PatchModuleImport@@YAKPAU_LDR_DATA_TABLE_ENTRY@@PADKK@Z
	DD	040006b03H
; Function compile flags: /Odtu

	.code
importDesc$ = 80					; size = 4
importTable$ = 84					; size = 4
stringTable$ = 88					; size = 4
result$ = 92						; size = 4
headerBase$ = 96					; size = 4
address$ = 100						; size = 4
x$71347 = 104						; size = 4
importAdd$71351 = 108					; size = 4
y$71353 = 112						; size = 4
value$71357 = 116					; size = 4
newCode$71361 = 128					; size = 16

?PatchModuleImport@@YAKPAU_LDR_DATA_TABLE_ENTRY@@PADKK@Z PROC NEAR ; PatchModuleImport, COMDAT

; Begin code for function: ?PatchModuleImport@@YAKPAU_LDR_DATA_TABLE_ENTRY@@PADKK@Z
; Line 274
	mflr         r12
	stw          r12,-8(r1)
	stwu         r1,-0A0h(r1)
.endprolog
$M103568:
	stw          r3,Module$(r1)		; 180 (0B4h)
	stw          r4,ImportedModuleName$(r1)		; 188 (0BCh)
	stw          r5,Ordinal$(r1)		; 196 (0C4h)
	stw          r6,PatchAddress$(r1)		; 204 (0CCh)
; Line 275
	lwz          r4,Ordinal$(r1)		; 196 (0C4h)
	lwz          r3,ImportedModuleName$(r1)		; 188 (0BCh)
	bl           ?ResolveFunction@@YAKPADK@Z
	stw          r3,address$(r1)		; 100 (64h)
; Line 276
	lwz          r11,address$(r1)		; 100 (64h)
	cmplwi       cr6,r11,0
	bne          cr6,$LN9@PatchModul
; Line 277
	li           r3,1
	b            $LN10@PatchModul
$LN9@PatchModul:
; Line 279
	lwz          r10,Module$(r1)		; 180 (0B4h)
	lwz          r9,58h(r10)
	stw          r9,headerBase$(r1)		; 96 (60h)
; Line 280
	lis          r8,1
	ori          r4,r8,1023		; 3FFh
	lwz          r3,headerBase$(r1)		; 96 (60h)
	bl           RtlImageXexHeaderField
	stw          r3,importDesc$(r1)		; 80 (50h)
; Line 281
	lwz          r7,importDesc$(r1)		; 80 (50h)
	cmplwi       cr6,r7,0
	bne          cr6,$LN8@PatchModul
; Line 282
	li           r3,1
	b            $LN10@PatchModul
$LN8@PatchModul:
; Line 284
	li           r6,2
	stw          r6,result$(r1)		; 92 (5Ch)
; Line 285
	lwz          r5,importDesc$(r1)		; 80 (50h)
	addi         r4,r5,12		; 0Ch
	stw          r4,stringTable$(r1)		; 88 (58h)
; Line 286
	lwz          r3,importDesc$(r1)		; 80 (50h)
	lwz          r11,stringTable$(r1)		; 88 (58h)
	lwz          r10,4(r3)
	add          r9,r11,r10
	stw          r9,importTable$(r1)		; 84 (54h)
; Line 288
	li           r8,0
	stw          r8,x$71347(r1)		; 104 (68h)
	b            $LN7@PatchModul
$LN6@PatchModul:
	lwz          r7,x$71347(r1)		; 104 (68h)
	addi         r6,r7,1
	stw          r6,x$71347(r1)		; 104 (68h)
$LN7@PatchModul:
	lwz          r5,importDesc$(r1)		; 80 (50h)
	lwz          r4,x$71347(r1)		; 104 (68h)
	lwz          r3,8(r5)
	cmplw        cr6,r4,r3
	bge          cr6,$LN5@PatchModul
; Line 290
	lwz          r11,importTable$(r1)		; 84 (54h)
	addi         r10,r11,40		; 28h
	stw          r10,importAdd$71351(r1)		; 108 (6Ch)
; Line 291
	li           r9,0
	stw          r9,y$71353(r1)		; 112 (70h)
	b            $LN4@PatchModul
$LN3@PatchModul:
	lwz          r8,y$71353(r1)		; 112 (70h)
	addi         r7,r8,1
	stw          r7,y$71353(r1)		; 112 (70h)
$LN4@PatchModul:
	lwz          r6,importTable$(r1)		; 84 (54h)
	lhz          r5,26h(r6)
	lwz          r4,y$71353(r1)		; 112 (70h)
	cmplw        cr6,r4,r5
	bge          cr6,$LN2@PatchModul
; Line 293
	lwz          r3,y$71353(r1)		; 112 (70h)
	slwi         r11,r3,2
	lwz          r10,importAdd$71351(r1)		; 108 (6Ch)
	lwzx         r9,r10,r11
	lwz          r8,0(r9)
	stw          r8,value$71357(r1)		; 116 (74h)
; Line 294
	lwz          r7,value$71357(r1)		; 116 (74h)
	lwz          r6,address$(r1)		; 100 (64h)
	cmplw        cr6,r7,r6
	bne          cr6,$LN1@PatchModul
; Line 296
	li           r5,4
	addi         r4,r1,PatchAddress$
	lwz          r3,y$71353(r1)		; 112 (70h)
	slwi         r11,r3,2
	lwz          r10,importAdd$71351(r1)		; 108 (6Ch)
	lwzx         r3,r10,r11
	bl           memcpy
; Line 298
	li           r5,0
	lwz          r4,PatchAddress$(r1)		; 204 (0CCh)
	addi         r3,r1,newCode$71361
	bl           ?PatchInJump@@YAXPAKK_N@Z
; Line 299
	li           r5,16		; 10h
	addi         r4,r1,newCode$71361
	lwz          r9,y$71353(r1)		; 112 (70h)
	addi         r8,r9,1
	slwi         r7,r8,2
	lwz          r6,importAdd$71351(r1)		; 108 (6Ch)
	lwzx         r3,r6,r7
	bl           memcpy
; Line 301
	li           r5,0
	stw          r5,result$(r1)		; 92 (5Ch)
$LN1@PatchModul:
; Line 303
	b            $LN3@PatchModul
$LN2@PatchModul:
; Line 305
	lwz          r4,importTable$(r1)		; 84 (54h)
	lwz          r3,importTable$(r1)		; 84 (54h)
	lwz          r11,0(r3)
	add          r10,r4,r11
	stw          r10,importTable$(r1)		; 84 (54h)
; Line 306
	b            $LN6@PatchModul
$LN5@PatchModul:
; Line 308
	lwz          r3,result$(r1)		; 92 (5Ch)
$LN10@PatchModul:
; Line 309
	addi         r1,r1,160		; 0A0h
	lwz          r12,-8(r1)
	mtlr         r12
	blr
$M103569:
; End code for function: ?PatchModuleImport@@YAKPAU_LDR_DATA_TABLE_ENTRY@@PADKK@Z
?PatchModuleImport@@YAKPAU_LDR_DATA_TABLE_ENTRY@@PADKK@Z ENDP
							; PatchModuleImport
PUBLIC	?RelinkGPLR@@YAKKPAK0@Z				; RelinkGPLR
; Function compile flags: /Odtu

	.code
Saver$ = -32						; size = 4
Instruction$ = -28					; size = 4
Replacing$ = -24					; size = 4
i$71302 = -20						; size = 4
NewOffset$71307 = -16					; size = 4

?RelinkGPLR@@YAKKPAK0@Z	PROC NEAR			; RelinkGPLR, COMDAT

; Begin code for function: ?RelinkGPLR@@YAKKPAK0@Z
; Line 217
	stw          r3,SFSOffset$(r1)		; 20 (14h)
	stw          r4,SaveStubAddress$(r1)		; 28 (1Ch)
	stw          r5,OriginalAddress$(r1)		; 36 (24h)
; Line 218
	li           r11,0
	stw          r11,Instruction$(r1)		; 4294967268 (0FFFFFFE4h)
; Line 219
	lis          r10,?GLPR@@YAXXZ
	addi         r9,r10,?GLPR@@YAXXZ
	stw          r9,Saver$(r1)		; 4294967264 (0FFFFFFE0h)
; Line 221
	lwz          r8,SFSOffset$(r1)		; 20 (14h)
	rlwinm       r7,r8,0,6,6
	cmplwi       cr6,r7,0
	beq          cr6,$LN5@RelinkGPLR
; Line 222
	lwz          r6,SFSOffset$(r1)		; 20 (14h)
	oris         r5,r6,64512		; 0FC00h
	stw          r5,SFSOffset$(r1)		; 20 (14h)
$LN5@RelinkGPLR:
; Line 224
	lwz          r4,SFSOffset$(r1)		; 20 (14h)
	li           r3,4
	divwu        r11,r4,r3
	slwi         r10,r11,2
	lwz          r9,OriginalAddress$(r1)		; 36 (24h)
	lwzx         r8,r9,r10
	stw          r8,Replacing$(r1)		; 4294967272 (0FFFFFFE8h)
; Line 225
	li           r7,0
	stw          r7,i$71302(r1)		; 4294967276 (0FFFFFFECh)
	b            $LN4@RelinkGPLR
$LN3@RelinkGPLR:
	lwz          r6,i$71302(r1)		; 4294967276 (0FFFFFFECh)
	addi         r5,r6,1
	stw          r5,i$71302(r1)		; 4294967276 (0FFFFFFECh)
$LN4@RelinkGPLR:
	lwz          r4,i$71302(r1)		; 4294967276 (0FFFFFFECh)
	cmpwi        cr6,r4,20		; 14h
	bge          cr6,$LN2@RelinkGPLR
; Line 227
	lwz          r3,i$71302(r1)		; 4294967276 (0FFFFFFECh)
	slwi         r11,r3,2
	lwz          r10,Saver$(r1)		; 4294967264 (0FFFFFFE0h)
	lwz          r9,Replacing$(r1)		; 4294967272 (0FFFFFFE8h)
	lwzx         r8,r10,r11
	cmplw        cr6,r9,r8
	bne          cr6,$LN1@RelinkGPLR
; Line 229
	lwz          r7,i$71302(r1)		; 4294967276 (0FFFFFFECh)
	slwi         r6,r7,2
	lwz          r5,Saver$(r1)		; 4294967264 (0FFFFFFE0h)
	add          r4,r5,r6
	lwz          r3,SaveStubAddress$(r1)		; 28 (1Ch)
	subf         r11,r3,r4
	stw          r11,NewOffset$71307(r1)		; 4294967280 (0FFFFFFF0h)
; Line 230
	lwz          r10,NewOffset$71307(r1)		; 4294967280 (0FFFFFFF0h)
	rlwinm       r9,r10,0,6,29
	oris         r8,r9,18432		; 4800h
	ori          r8,r8,1
	stw          r8,Instruction$(r1)		; 4294967268 (0FFFFFFE4h)
$LN1@RelinkGPLR:
; Line 232
	b            $LN3@RelinkGPLR
$LN2@RelinkGPLR:
; Line 233
	lwz          r3,Instruction$(r1)		; 4294967268 (0FFFFFFE4h)
; Line 234
	blr
; End code for function: ?RelinkGPLR@@YAKKPAK0@Z
?RelinkGPLR@@YAKKPAK0@Z ENDP
							; RelinkGPLR
PUBLIC	?PatchModuleImport@@YAKPAD0KK@Z			; PatchModuleImport
;	COMDAT .pdata
.pdata	SEGMENT
$T103953 DD	?PatchModuleImport@@YAKPAD0KK@Z
	DD	040001b03H
; Function compile flags: /Odtu

	.code
moduleHandle$ = 80					; size = 4
tv72 = 84						; size = 4

?PatchModuleImport@@YAKPAD0KK@Z	PROC NEAR		; PatchModuleImport, COMDAT

; Begin code for function: ?PatchModuleImport@@YAKPAD0KK@Z
; Line 311
	mflr         r12
	stw          r12,-8(r1)
	stwu         r1,-60h(r1)
.endprolog
$M103951:
	stw          r3,Module$(r1)		; 116 (74h)
	stw          r4,ImportedModuleName$(r1)		; 124 (7Ch)
	stw          r5,Ordinal$(r1)		; 132 (84h)
	stw          r6,PatchAddress$(r1)		; 140 (8Ch)
; Line 312
	lwz          r3,Module$(r1)		; 116 (74h)
	bl           GetModuleHandleA
	stw          r3,moduleHandle$(r1)		; 80 (50h)
; Line 313
	lwz          r11,moduleHandle$(r1)		; 80 (50h)
	cmplwi       cr6,r11,0
	bne          cr6,$LN3@PatchModul@2
	li           r10,1
	stw          r10,54h(r1)
	b            $LN4@PatchModul@2
$LN3@PatchModul@2:
	lwz          r6,PatchAddress$(r1)		; 140 (8Ch)
	lwz          r5,Ordinal$(r1)		; 132 (84h)
	lwz          r4,ImportedModuleName$(r1)		; 124 (7Ch)
	lwz          r3,moduleHandle$(r1)		; 80 (50h)
	bl           ?PatchModuleImport@@YAKPAU_LDR_DATA_TABLE_ENTRY@@PADKK@Z
	stw          r3,54h(r1)
$LN4@PatchModul@2:
	lwz          r3,54h(r1)
; Line 314
	addi         r1,r1,96		; 60h
	lwz          r12,-8(r1)
	mtlr         r12
	blr
$M103952:
; End code for function: ?PatchModuleImport@@YAKPAD0KK@Z
?PatchModuleImport@@YAKPAD0KK@Z ENDP
							; PatchModuleImport
PUBLIC	?HookFunctionStart@@YAXPAK0K@Z			; HookFunctionStart
;	COMDAT .pdata
.pdata	SEGMENT
$T103959 DD	?HookFunctionStart@@YAXPAK0K@Z
	DD	040007203H
; Function compile flags: /Odtu

	.code
AddressRelocation$71316 = 80				; size = 4
i$71320 = 84						; size = 4

?HookFunctionStart@@YAXPAK0K@Z PROC NEAR			; HookFunctionStart, COMDAT

; Begin code for function: ?HookFunctionStart@@YAXPAK0K@Z
; Line 236
	mflr         r12
	stw          r12,-8(r1)
	stwu         r1,-60h(r1)
.endprolog
$M103957:
	stw          r3,Address$(r1)		; 116 (74h)
	stw          r4,SaveStub$(r1)		; 124 (7Ch)
	stw          r5,Destination$(r1)		; 132 (84h)
; Line 237
	lwz          r11,SaveStub$(r1)		; 124 (7Ch)
	cmplwi       cr6,r11,0
	beq          cr6,$LN9@HookFuncti
	lwz          r10,Address$(r1)		; 116 (74h)
	cmplwi       cr6,r10,0
	beq          cr6,$LN9@HookFuncti
; Line 239
	lwz          r9,Address$(r1)		; 116 (74h)
	addi         r8,r9,16		; 10h
	stw          r8,AddressRelocation$71316(r1)		; 80 (50h)
; Line 241
	lwz          r7,AddressRelocation$71316(r1)		; 80 (50h)
	rlwinm       r6,r7,0,16,16
	cmplwi       cr6,r6,0
	beq          cr6,$LN7@HookFuncti
; Line 243
	lwz          r5,AddressRelocation$71316(r1)		; 80 (50h)
	srwi         r4,r5,16
	clrlwi       r3,r4,16
	lis          r11,15712		; 3D60h
	ori          r10,r11,1
	add          r9,r3,r10
	lwz          r8,SaveStub$(r1)		; 124 (7Ch)
	stw          r9,0(r8)
; Line 245
	b            $LN6@HookFuncti
$LN7@HookFuncti:
; Line 247
	lwz          r7,AddressRelocation$71316(r1)		; 80 (50h)
	srwi         r6,r7,16
	clrlwi       r5,r6,16
	lis          r4,15712		; 3D60h
	add          r3,r5,r4
	lwz          r11,SaveStub$(r1)		; 124 (7Ch)
	stw          r3,0(r11)
$LN6@HookFuncti:
; Line 250
	lwz          r10,AddressRelocation$71316(r1)		; 80 (50h)
	clrlwi       r9,r10,16
	lis          r8,14699		; 396Bh
	add          r7,r9,r8
	lwz          r6,SaveStub$(r1)		; 124 (7Ch)
	stw          r7,4(r6)
; Line 251
	lwz          r5,SaveStub$(r1)		; 124 (7Ch)
	lis          r4,32105		; 7D69h
	ori          r3,r4,934		; 3A6h
	stw          r3,8(r5)
; Line 253
	li           r11,0
	stw          r11,i$71320(r1)		; 84 (54h)
	b            $LN5@HookFuncti
$LN4@HookFuncti:
	lwz          r10,i$71320(r1)		; 84 (54h)
	addi         r9,r10,1
	stw          r9,i$71320(r1)		; 84 (54h)
$LN5@HookFuncti:
	lwz          r8,i$71320(r1)		; 84 (54h)
	cmpwi        cr6,r8,4
	bge          cr6,$LN3@HookFuncti
; Line 255
	lwz          r7,i$71320(r1)		; 84 (54h)
	slwi         r6,r7,2
	lwz          r5,Address$(r1)		; 116 (74h)
	lwzx         r4,r5,r6
	lis          r12,18432		; 4800h
	ori          r12,r12,3
	and          r3,r4,r12
	lis          r11,18432		; 4800h
	ori          r10,r11,1
	cmplw        cr6,r3,r10
	bne          cr6,$LN2@HookFuncti
; Line 257
	lwz          r9,i$71320(r1)		; 84 (54h)
	slwi         r8,r9,2
	lwz          r7,Address$(r1)		; 116 (74h)
	add          r5,r7,r8
	lwz          r6,i$71320(r1)		; 84 (54h)
	addi         r4,r6,3
	slwi         r3,r4,2
	lwz          r11,SaveStub$(r1)		; 124 (7Ch)
	add          r4,r11,r3
	lwz          r10,i$71320(r1)		; 84 (54h)
	slwi         r9,r10,2
	lwz          r8,Address$(r1)		; 116 (74h)
	lwzx         r7,r8,r9
	lis          r12,-18433		; 0B7FFh
	ori          r12,r12,65532		; 0FFFCh
	and          r3,r7,r12
	bl           ?RelinkGPLR@@YAKKPAK0@Z
	lwz          r6,i$71320(r1)		; 84 (54h)
	addi         r5,r6,3
	slwi         r4,r5,2
	lwz          r11,SaveStub$(r1)		; 124 (7Ch)
	stwx         r3,r11,r4
; Line 259
	b            $LN1@HookFuncti
$LN2@HookFuncti:
; Line 261
	lwz          r10,i$71320(r1)		; 84 (54h)
	slwi         r9,r10,2
	lwz          r8,Address$(r1)		; 116 (74h)
	lwz          r7,i$71320(r1)		; 84 (54h)
	addi         r6,r7,3
	slwi         r5,r6,2
	lwz          r4,SaveStub$(r1)		; 124 (7Ch)
	lwzx         r3,r8,r9
	stwx         r3,r4,r5
$LN1@HookFuncti:
; Line 263
	b            $LN4@HookFuncti
$LN3@HookFuncti:
; Line 265
	lwz          r11,SaveStub$(r1)		; 124 (7Ch)
	lis          r10,20096		; 4E80h
	ori          r9,r10,1056		; 420h
	stw          r9,1Ch(r11)
; Line 266
	lwz          r8,SaveStub$(r1)		; 124 (7Ch)
	dcbst        r0,r8
; Line 267
	sync
; Line 268
	isync
; Line 270
	li           r5,0
	lwz          r4,Destination$(r1)		; 132 (84h)
	lwz          r3,Address$(r1)		; 116 (74h)
	bl           ?PatchInJump@@YAXPAKK_N@Z
$LN9@HookFuncti:
; Line 272
	addi         r1,r1,96		; 60h
	lwz          r12,-8(r1)
	mtlr         r12
	blr
$M103958:
; End code for function: ?HookFunctionStart@@YAXPAK0K@Z
?HookFunctionStart@@YAXPAK0K@Z ENDP
							; HookFunctionStart
END
